TN:
SF:/Library/Developer/CommandLineTools/SDKs/MacOSX.sdk/usr/include/c++/v1/__algorithm/comp.h
FNL:0,40,41
FNA:0,6,_ZNKSt3__16__lessIvvEclB8ne180100IN7pyfolio8DateTimeES4_EEbRKT_RKT0_
FNA:0,10,_ZNKSt3__16__lessIvvEclB8ne180100IddEEbRKT_RKT0_
FNA:0,2273,_ZNKSt3__16__lessIvvEclB8ne180100ImmEEbRKT_RKT0_
FNF:1
FNH:1
DA:40,2289
DA:41,2289
LF:2
LH:2
end_of_record
TN:
SF:/Library/Developer/CommandLineTools/SDKs/MacOSX.sdk/usr/include/c++/v1/__algorithm/copy.h
FNL:0,103,104
FNA:0,54,_ZNKSt3__114__copy_trivialclB8ne180100IKN7pyfolio8DateTimeES3_Li0EEENS_4pairIPT_PT0_EES7_S7_S9_
FNA:0,22,_ZNKSt3__114__copy_trivialclB8ne180100IKccLi0EEENS_4pairIPT_PT0_EES5_S5_S7_
FNA:0,91,_ZNKSt3__114__copy_trivialclB8ne180100IKddLi0EEENS_4pairIPT_PT0_EES5_S5_S7_
FNA:0,121,_ZNKSt3__114__copy_trivialclB8ne180100IN7pyfolio8DateTimeES3_Li0EEENS_4pairIPT_PT0_EES6_S6_S8_
FNA:0,129,_ZNKSt3__114__copy_trivialclB8ne180100IddLi0EEENS_4pairIPT_PT0_EES4_S4_S6_
FNL:1,110,112
FNA:1,54,_ZNSt3__16__copyB8ne180100INS_17_ClassicAlgPolicyEPKN7pyfolio8DateTimeES5_PS3_EENS_4pairIT0_T2_EES8_T1_S9_
FNA:1,0,_ZNSt3__16__copyB8ne180100INS_17_ClassicAlgPolicyEPKNS_3mapINS_12basic_stringIcNS_11char_traitsIcEENS_9allocatorIcEEEEdNS_4lessIS8_EENS6_INS_4pairIKS8_dEEEEEESH_PSF_EENSB_IT0_T2_EESJ_T1_SK_
FNA:1,22,_ZNSt3__16__copyB8ne180100INS_17_ClassicAlgPolicyEPKcS3_PcEENS_4pairIT0_T2_EES6_T1_S7_
FNA:1,91,_ZNSt3__16__copyB8ne180100INS_17_ClassicAlgPolicyEPKdS3_PdEENS_4pairIT0_T2_EES6_T1_S7_
FNA:1,121,_ZNSt3__16__copyB8ne180100INS_17_ClassicAlgPolicyEPN7pyfolio8DateTimeES4_S4_EENS_4pairIT0_T2_EES6_T1_S7_
FNA:1,129,_ZNSt3__16__copyB8ne180100INS_17_ClassicAlgPolicyEPdS2_S2_EENS_4pairIT0_T2_EES4_T1_S5_
FNL:2,117,118
FNA:2,54,_ZNSt3__14copyB8ne180100IPKN7pyfolio8DateTimeEPS2_EET0_T_S7_S6_
FNA:2,0,_ZNSt3__14copyB8ne180100IPKNS_3mapINS_12basic_stringIcNS_11char_traitsIcEENS_9allocatorIcEEEEdNS_4lessIS7_EENS5_INS_4pairIKS7_dEEEEEEPSE_EET0_T_SJ_SI_
FNA:2,22,_ZNSt3__14copyB8ne180100IPKcPcEET0_T_S5_S4_
FNA:2,91,_ZNSt3__14copyB8ne180100IPKdPdEET0_T_S5_S4_
FNA:2,121,_ZNSt3__14copyB8ne180100IPN7pyfolio8DateTimeES3_EET0_T_S5_S4_
FNA:2,129,_ZNSt3__14copyB8ne180100IPdS1_EET0_T_S3_S2_
FNL:3,38,45
FNA:3,0,_ZNKSt3__111__copy_loopINS_17_ClassicAlgPolicyEEclB8ne180100IPKNS_3mapINS_12basic_stringIcNS_11char_traitsIcEENS_9allocatorIcEEEEdNS_4lessISA_EENS8_INS_4pairIKSA_dEEEEEESJ_PSH_EENSD_IT_T1_EESL_T0_SM_
FNF:4
FNH:3
DA:38,0
DA:39,0
DA:40,0
DA:41,0
DA:42,0
DA:45,0
DA:103,417
DA:104,417
DA:110,417
DA:111,417
DA:112,417
DA:117,417
DA:118,417
LF:13
LH:7
end_of_record
TN:
SF:/Library/Developer/CommandLineTools/SDKs/MacOSX.sdk/usr/include/c++/v1/__algorithm/copy_move_common.h
FNL:0,107,111
FNA:0,54,_ZNSt3__121__unwrap_and_dispatchB8ne180100INS_10__overloadINS_11__copy_loopINS_17_ClassicAlgPolicyEEENS_14__copy_trivialEEEPKN7pyfolio8DateTimeESA_PS8_Li0EEENS_4pairIT0_T2_EESD_T1_SE_
FNA:0,0,_ZNSt3__121__unwrap_and_dispatchB8ne180100INS_10__overloadINS_11__copy_loopINS_17_ClassicAlgPolicyEEENS_14__copy_trivialEEEPKNS_3mapINS_12basic_stringIcNS_11char_traitsIcEENS_9allocatorIcEEEEdNS_4lessISD_EENSB_INS_4pairIKSD_dEEEEEESM_PSK_Li0EEENSG_IT0_T2_EESO_T1_SP_
FNA:0,22,_ZNSt3__121__unwrap_and_dispatchB8ne180100INS_10__overloadINS_11__copy_loopINS_17_ClassicAlgPolicyEEENS_14__copy_trivialEEEPKcS8_PcLi0EEENS_4pairIT0_T2_EESB_T1_SC_
FNA:0,91,_ZNSt3__121__unwrap_and_dispatchB8ne180100INS_10__overloadINS_11__copy_loopINS_17_ClassicAlgPolicyEEENS_14__copy_trivialEEEPKdS8_PdLi0EEENS_4pairIT0_T2_EESB_T1_SC_
FNA:0,121,_ZNSt3__121__unwrap_and_dispatchB8ne180100INS_10__overloadINS_11__copy_loopINS_17_ClassicAlgPolicyEEENS_14__copy_trivialEEEPN7pyfolio8DateTimeES9_S9_Li0EEENS_4pairIT0_T2_EESB_T1_SC_
FNA:0,129,_ZNSt3__121__unwrap_and_dispatchB8ne180100INS_10__overloadINS_11__copy_loopINS_17_ClassicAlgPolicyEEENS_14__copy_trivialEEEPdS7_S7_Li0EEENS_4pairIT0_T2_EES9_T1_SA_
FNA:0,0,_ZNSt3__121__unwrap_and_dispatchB8ne180100INS_10__overloadINS_11__move_loopINS_17_ClassicAlgPolicyEEENS_14__move_trivialEEENS_16reverse_iteratorIPN7pyfolio11performance12DrawdownInfoEEESC_SC_Li0EEENS_4pairIT0_T2_EESE_T1_SF_
FNA:0,109,_ZNSt3__121__unwrap_and_dispatchB8ne180100INS_10__overloadINS_11__move_loopINS_17_ClassicAlgPolicyEEENS_14__move_trivialEEENS_16reverse_iteratorIPN7pyfolio8DateTimeEEESB_SB_Li0EEENS_4pairIT0_T2_EESD_T1_SE_
FNA:0,142,_ZNSt3__121__unwrap_and_dispatchB8ne180100INS_10__overloadINS_11__move_loopINS_17_ClassicAlgPolicyEEENS_14__move_trivialEEENS_16reverse_iteratorIPdEES9_S9_Li0EEENS_4pairIT0_T2_EESB_T1_SC_
FNA:0,0,_ZNSt3__121__unwrap_and_dispatchB8ne180100INS_10__overloadINS_11__move_loopINS_17_ClassicAlgPolicyEEENS_14__move_trivialEEENS_16reverse_iteratorIPiEES9_S9_Li0EEENS_4pairIT0_T2_EESB_T1_SC_
FNL:1,131,133
FNA:1,54,_ZNSt3__123__dispatch_copy_or_moveB8ne180100INS_17_ClassicAlgPolicyENS_11__copy_loopIS1_EENS_14__copy_trivialEPKN7pyfolio8DateTimeES8_PS6_EENS_4pairIT2_T4_EESB_T3_SC_
FNA:1,0,_ZNSt3__123__dispatch_copy_or_moveB8ne180100INS_17_ClassicAlgPolicyENS_11__copy_loopIS1_EENS_14__copy_trivialEPKNS_3mapINS_12basic_stringIcNS_11char_traitsIcEENS_9allocatorIcEEEEdNS_4lessISB_EENS9_INS_4pairIKSB_dEEEEEESK_PSI_EENSE_IT2_T4_EESM_T3_SN_
FNA:1,22,_ZNSt3__123__dispatch_copy_or_moveB8ne180100INS_17_ClassicAlgPolicyENS_11__copy_loopIS1_EENS_14__copy_trivialEPKcS6_PcEENS_4pairIT2_T4_EES9_T3_SA_
FNA:1,91,_ZNSt3__123__dispatch_copy_or_moveB8ne180100INS_17_ClassicAlgPolicyENS_11__copy_loopIS1_EENS_14__copy_trivialEPKdS6_PdEENS_4pairIT2_T4_EES9_T3_SA_
FNA:1,121,_ZNSt3__123__dispatch_copy_or_moveB8ne180100INS_17_ClassicAlgPolicyENS_11__copy_loopIS1_EENS_14__copy_trivialEPN7pyfolio8DateTimeES7_S7_EENS_4pairIT2_T4_EES9_T3_SA_
FNA:1,129,_ZNSt3__123__dispatch_copy_or_moveB8ne180100INS_17_ClassicAlgPolicyENS_11__copy_loopIS1_EENS_14__copy_trivialEPdS5_S5_EENS_4pairIT2_T4_EES7_T3_S8_
FNA:1,0,_ZNSt3__123__dispatch_copy_or_moveB8ne180100INS_17_ClassicAlgPolicyENS_11__move_loopIS1_EENS_14__move_trivialENS_16reverse_iteratorIPN7pyfolio11performance12DrawdownInfoEEESA_SA_EENS_4pairIT2_T4_EESC_T3_SD_
FNA:1,109,_ZNSt3__123__dispatch_copy_or_moveB8ne180100INS_17_ClassicAlgPolicyENS_11__move_loopIS1_EENS_14__move_trivialENS_16reverse_iteratorIPN7pyfolio8DateTimeEEES9_S9_EENS_4pairIT2_T4_EESB_T3_SC_
FNA:1,142,_ZNSt3__123__dispatch_copy_or_moveB8ne180100INS_17_ClassicAlgPolicyENS_11__move_loopIS1_EENS_14__move_trivialENS_16reverse_iteratorIPdEES7_S7_EENS_4pairIT2_T4_EES9_T3_SA_
FNA:1,0,_ZNSt3__123__dispatch_copy_or_moveB8ne180100INS_17_ClassicAlgPolicyENS_11__move_loopIS1_EENS_14__move_trivialENS_16reverse_iteratorIPiEES7_S7_EENS_4pairIT2_T4_EES9_T3_SA_
FNL:2,63,68
FNA:2,54,_ZNSt3__119__copy_trivial_implB8ne180100IKN7pyfolio8DateTimeES2_EENS_4pairIPT_PT0_EES6_S6_S8_
FNA:2,22,_ZNSt3__119__copy_trivial_implB8ne180100IKccEENS_4pairIPT_PT0_EES4_S4_S6_
FNA:2,91,_ZNSt3__119__copy_trivial_implB8ne180100IKddEENS_4pairIPT_PT0_EES4_S4_S6_
FNA:2,121,_ZNSt3__119__copy_trivial_implB8ne180100IN7pyfolio8DateTimeES2_EENS_4pairIPT_PT0_EES5_S5_S7_
FNA:2,129,_ZNSt3__119__copy_trivial_implB8ne180100IddEENS_4pairIPT_PT0_EES3_S3_S5_
FNF:3
FNH:3
DA:63,417
DA:64,417
DA:66,417
DA:68,417
DA:107,668
DA:108,668
DA:109,668
DA:110,1336
DA:111,668
DA:131,668
DA:133,668
LF:11
LH:11
end_of_record
TN:
SF:/Library/Developer/CommandLineTools/SDKs/MacOSX.sdk/usr/include/c++/v1/__algorithm/copy_n.h
FNL:0,51,55
FNA:0,22,_ZNSt3__16copy_nB8ne180100IPKcmPcLi0EEET1_T_T0_S4_
FNF:1
FNH:1
DA:51,22
DA:54,22
DA:55,22
LF:3
LH:3
end_of_record
TN:
SF:/Library/Developer/CommandLineTools/SDKs/MacOSX.sdk/usr/include/c++/v1/__algorithm/fill_n.h
FNL:0,26,29
FNA:0,11,_ZNSt3__18__fill_nB8ne180100IPcmcEET_S2_T0_RKT1_
FNL:1,34,35
FNA:1,11,_ZNSt3__16fill_nB8ne180100IPcmcEET_S2_T0_RKT1_
FNF:2
FNH:2
DA:26,11
DA:27,22
DA:28,11
DA:29,11
DA:34,11
DA:35,11
LF:6
LH:6
end_of_record
TN:
SF:/Library/Developer/CommandLineTools/SDKs/MacOSX.sdk/usr/include/c++/v1/__algorithm/half_positive.h
FNL:0,26,27
FNA:0,6,_ZNSt3__115__half_positiveB8ne180100IlLi0EEET_S1_
FNF:1
FNH:1
DA:26,6
DA:27,6
LF:2
LH:2
end_of_record
TN:
SF:/Library/Developer/CommandLineTools/SDKs/MacOSX.sdk/usr/include/c++/v1/__algorithm/iter_swap.h
FNL:0,23,27
FNA:0,0,_ZNSt3__19iter_swapB8ne180100IPmS1_EEvT_T0_
FNF:1
FNH:0
DA:23,0
DA:26,0
DA:27,0
LF:3
LH:0
end_of_record
TN:
SF:/Library/Developer/CommandLineTools/SDKs/MacOSX.sdk/usr/include/c++/v1/__algorithm/iterator_operations.h
FNL:0,102,108
FNA:0,0,_ZNSt3__18_IterOpsINS_17_ClassicAlgPolicyEE25__validate_iter_referenceB8ne180100IRNS_16reverse_iteratorIPN7pyfolio11performance12DrawdownInfoEEEEEvv
FNA:0,20,_ZNSt3__18_IterOpsINS_17_ClassicAlgPolicyEE25__validate_iter_referenceB8ne180100IRNS_16reverse_iteratorIPN7pyfolio8DateTimeEEEEEvv
FNA:0,71,_ZNSt3__18_IterOpsINS_17_ClassicAlgPolicyEE25__validate_iter_referenceB8ne180100IRNS_16reverse_iteratorIPdEEEEvv
FNA:0,0,_ZNSt3__18_IterOpsINS_17_ClassicAlgPolicyEE25__validate_iter_referenceB8ne180100IRNS_16reverse_iteratorIPiEEEEvv
FNA:0,0,_ZNSt3__18_IterOpsINS_17_ClassicAlgPolicyEE25__validate_iter_referenceB8ne180100IRPmEEvv
FNL:1,116,119
FNA:1,0,_ZNSt3__18_IterOpsINS_17_ClassicAlgPolicyEE11__iter_moveB8ne180100IRNS_16reverse_iteratorIPN7pyfolio11performance12DrawdownInfoEEELi0EEEDTclsr3stdE4movedeclsr3stdE7declvalIRT_EEEEOSB_
FNA:1,20,_ZNSt3__18_IterOpsINS_17_ClassicAlgPolicyEE11__iter_moveB8ne180100IRNS_16reverse_iteratorIPN7pyfolio8DateTimeEEELi0EEEDTclsr3stdE4movedeclsr3stdE7declvalIRT_EEEEOSA_
FNA:1,71,_ZNSt3__18_IterOpsINS_17_ClassicAlgPolicyEE11__iter_moveB8ne180100IRNS_16reverse_iteratorIPdEELi0EEEDTclsr3stdE4movedeclsr3stdE7declvalIRT_EEEEOS8_
FNA:1,0,_ZNSt3__18_IterOpsINS_17_ClassicAlgPolicyEE11__iter_moveB8ne180100IRNS_16reverse_iteratorIPiEELi0EEEDTclsr3stdE4movedeclsr3stdE7declvalIRT_EEEEOS8_
FNA:1,0,_ZNSt3__18_IterOpsINS_17_ClassicAlgPolicyEE11__iter_moveB8ne180100IRPmLi0EEEDTclsr3stdE4movedeclsr3stdE7declvalIRT_EEEEOS6_
FNL:2,136,138
FNA:2,0,_ZNSt3__18_IterOpsINS_17_ClassicAlgPolicyEE9iter_swapB8ne180100IPmS4_EEvOT_OT0_
FNA:2,0,_ZNSt3__18_IterOpsINS_17_ClassicAlgPolicyEE9iter_swapB8ne180100IRPmS4_EEvOT_OT0_
FNA:2,0,_ZNSt3__18_IterOpsINS_17_ClassicAlgPolicyEE9iter_swapB8ne180100IRPmS5_EEvOT_OT0_
FNL:3,142,143
FNA:3,0,_ZNSt3__18_IterOpsINS_17_ClassicAlgPolicyEE4nextB8ne180100IPmEET_S5_S5_
FNL:4,148,149
FNA:4,3,_ZNSt3__18_IterOpsINS_17_ClassicAlgPolicyEE4nextB8ne180100IRNS_11__wrap_iterIPKN7pyfolio8DateTimeEEEEEu14__remove_cvrefIT_EOSB_NS_15iterator_traitsISC_E15difference_typeE
FNL:5,84,86
FNA:5,3,_ZNSt3__18_IterOpsINS_17_ClassicAlgPolicyEE7advanceB8ne180100INS_11__wrap_iterIPKN7pyfolio8DateTimeEEElEEvRT_T0_
FNL:6,91,92
FNA:6,2,_ZNSt3__18_IterOpsINS_17_ClassicAlgPolicyEE8distanceB8ne180100INS_11__wrap_iterIPKN7pyfolio8DateTimeEEEEENS_15iterator_traitsIT_E15difference_typeESB_SB_
FNF:7
FNH:5
DA:84,3
DA:85,3
DA:86,3
DA:91,2
DA:92,2
DA:102,91
DA:108,91
DA:116,91
DA:117,91
DA:119,91
DA:136,0
DA:137,0
DA:138,0
DA:142,0
DA:143,0
DA:148,3
DA:149,3
LF:17
LH:12
end_of_record
TN:
SF:/Library/Developer/CommandLineTools/SDKs/MacOSX.sdk/usr/include/c++/v1/__algorithm/lower_bound.h
FNL:0,32,46
FNA:0,1,_ZNSt3__113__lower_boundB8ne180100INS_17_ClassicAlgPolicyENS_11__wrap_iterIPKN7pyfolio8DateTimeEEES7_S4_NS_10__identityENS_6__lessIvvEEEET0_SB_T1_RKT2_RT4_RT3_
FNL:1,51,54
FNA:1,1,_ZNSt3__111lower_boundB8ne180100INS_11__wrap_iterIPKN7pyfolio8DateTimeEEES3_NS_6__lessIvvEEEET_S9_S9_RKT0_T1_
FNL:2,59,60
FNA:2,1,_ZNSt3__111lower_boundB8ne180100INS_11__wrap_iterIPKN7pyfolio8DateTimeEEES3_EET_S7_S7_RKT0_
FNF:3
FNH:3
DA:32,1
DA:33,1
DA:35,4
DA:36,3
DA:37,3
DA:38,3
DA:39,3
DA:40,1
DA:41,1
DA:42,1
DA:43,2
DA:46,1
DA:51,1
DA:53,1
DA:54,1
DA:59,1
DA:60,1
LF:17
LH:17
end_of_record
TN:
SF:/Library/Developer/CommandLineTools/SDKs/MacOSX.sdk/usr/include/c++/v1/__algorithm/make_heap.h
FNL:0,31,42
FNA:0,0,_ZNSt3__111__make_heapB8ne180100INS_17_ClassicAlgPolicyERZN7pyfolio10TimeSeriesIdE12sort_by_timeEvEUlmmE_PmEEvT1_S8_OT0_
FNF:1
FNH:0
DA:31,0
DA:32,0
DA:35,0
DA:36,0
DA:38,0
DA:39,0
DA:40,0
DA:41,0
DA:42,0
LF:9
LH:0
end_of_record
TN:
SF:/Library/Developer/CommandLineTools/SDKs/MacOSX.sdk/usr/include/c++/v1/__algorithm/max.h
FNL:0,29,30
FNA:0,225,_ZNSt3__13maxB8ne180100ImNS_6__lessIvvEEEERKT_S5_S5_T0_
FNL:1,35,36
FNA:1,225,_ZNSt3__13maxB8ne180100ImEERKT_S3_S3_
FNF:2
FNH:2
DA:29,225
DA:30,225
DA:35,225
DA:36,225
LF:4
LH:4
end_of_record
TN:
SF:/Library/Developer/CommandLineTools/SDKs/MacOSX.sdk/usr/include/c++/v1/__algorithm/max_element.h
FNL:0,25,34
FNA:0,0,_ZNSt3__113__max_elementB8ne180100IRNS_6__lessIvvEENS_11__wrap_iterIPKdEEEET0_S8_S8_T_
FNL:1,39,40
FNA:1,0,_ZNSt3__111max_elementB8ne180100INS_11__wrap_iterIPKdEENS_6__lessIvvEEEET_S7_S7_T0_
FNL:2,45,46
FNA:2,0,_ZNSt3__111max_elementB8ne180100INS_11__wrap_iterIPKdEEEET_S5_S5_
FNF:3
FNH:0
DA:25,0
DA:28,0
DA:29,0
DA:30,0
DA:31,0
DA:32,0
DA:33,0
DA:34,0
DA:39,0
DA:40,0
DA:45,0
DA:46,0
LF:12
LH:0
end_of_record
TN:
SF:/Library/Developer/CommandLineTools/SDKs/MacOSX.sdk/usr/include/c++/v1/__algorithm/min.h
FNL:0,29,30
FNA:0,2048,_ZNSt3__13minB8ne180100ImNS_6__lessIvvEEEERKT_S5_S5_T0_
FNL:1,35,36
FNA:1,2048,_ZNSt3__13minB8ne180100ImEERKT_S3_S3_
FNF:2
FNH:2
DA:29,2048
DA:30,2048
DA:35,2048
DA:36,2048
LF:4
LH:4
end_of_record
TN:
SF:/Library/Developer/CommandLineTools/SDKs/MacOSX.sdk/usr/include/c++/v1/__algorithm/minmax_element.h
FNL:0,32,33
FNA:0,1,_ZNSt3__122_MinmaxElementLessFuncINS_6__lessIvvEENS_10__identityEEC1B8ne180100ERS2_RS3_
FNA:0,1,_ZNSt3__122_MinmaxElementLessFuncINS_6__lessIvvEENS_10__identityEEC2B8ne180100ERS2_RS3_
FNL:1,36,37
FNA:1,10,_ZNSt3__122_MinmaxElementLessFuncINS_6__lessIvvEENS_10__identityEEclB8ne180100INS_11__wrap_iterIPdEEEEbRT_SA_
FNL:2,43,79
FNA:2,1,_ZNSt3__121__minmax_element_implB8ne180100INS_11__wrap_iterIPdEES3_NS_10__identityENS_6__lessIvvEEEENS_4pairIT_S8_EES8_T0_RT2_RT1_
FNL:3,83,89
FNA:3,1,_ZNSt3__114minmax_elementB8ne180100INS_11__wrap_iterIPdEENS_6__lessIvvEEEENS_4pairIT_S7_EES7_S7_T0_
FNL:4,95,96
FNA:4,1,_ZNSt3__114minmax_elementB8ne180100INS_11__wrap_iterIPdEEEENS_4pairIT_S5_EES5_S5_
FNF:5
FNH:5
DA:32,2
DA:33,2
DA:36,10
DA:37,10
DA:43,1
DA:44,1
DA:46,1
DA:47,1
DA:48,0
DA:50,1
DA:51,1
DA:53,0
DA:55,4
DA:56,3
DA:57,3
DA:58,0
DA:59,0
DA:60,0
DA:61,0
DA:62,0
DA:65,3
DA:66,3
DA:67,0
DA:68,3
DA:69,2
DA:70,3
DA:71,0
DA:72,0
DA:73,0
DA:74,0
DA:78,1
DA:79,1
DA:83,1
DA:88,1
DA:89,1
DA:95,1
DA:96,1
LF:37
LH:25
end_of_record
TN:
SF:/Library/Developer/CommandLineTools/SDKs/MacOSX.sdk/usr/include/c++/v1/__algorithm/move.h
FNL:0,111,113
FNA:0,0,_ZNSt3__16__moveB8ne180100INS_17_ClassicAlgPolicyENS_16reverse_iteratorIPN7pyfolio11performance12DrawdownInfoEEES7_S7_EENS_4pairIT0_T2_EES9_T1_SA_
FNA:0,109,_ZNSt3__16__moveB8ne180100INS_17_ClassicAlgPolicyENS_16reverse_iteratorIPN7pyfolio8DateTimeEEES6_S6_EENS_4pairIT0_T2_EES8_T1_S9_
FNA:0,142,_ZNSt3__16__moveB8ne180100INS_17_ClassicAlgPolicyENS_16reverse_iteratorIPdEES4_S4_EENS_4pairIT0_T2_EES6_T1_S7_
FNA:0,0,_ZNSt3__16__moveB8ne180100INS_17_ClassicAlgPolicyENS_16reverse_iteratorIPiEES4_S4_EENS_4pairIT0_T2_EES6_T1_S7_
FNL:1,118,122
FNA:1,0,_ZNSt3__14moveB8ne180100INS_16reverse_iteratorIPN7pyfolio11performance12DrawdownInfoEEES6_EET0_T_S8_S7_
FNA:1,109,_ZNSt3__14moveB8ne180100INS_16reverse_iteratorIPN7pyfolio8DateTimeEEES5_EET0_T_S7_S6_
FNA:1,142,_ZNSt3__14moveB8ne180100INS_16reverse_iteratorIPdEES3_EET0_T_S5_S4_
FNA:1,0,_ZNSt3__14moveB8ne180100INS_16reverse_iteratorIPiEES3_EET0_T_S5_S4_
FNL:2,40,46
FNA:2,0,_ZNKSt3__111__move_loopINS_17_ClassicAlgPolicyEEclB8ne180100INS_16reverse_iteratorIPN7pyfolio11performance12DrawdownInfoEEES9_S9_EENS_4pairIT_T1_EESB_T0_SC_
FNA:2,109,_ZNKSt3__111__move_loopINS_17_ClassicAlgPolicyEEclB8ne180100INS_16reverse_iteratorIPN7pyfolio8DateTimeEEES8_S8_EENS_4pairIT_T1_EESA_T0_SB_
FNA:2,142,_ZNKSt3__111__move_loopINS_17_ClassicAlgPolicyEEclB8ne180100INS_16reverse_iteratorIPdEES6_S6_EENS_4pairIT_T1_EES8_T0_S9_
FNA:2,0,_ZNKSt3__111__move_loopINS_17_ClassicAlgPolicyEEclB8ne180100INS_16reverse_iteratorIPiEES6_S6_EENS_4pairIT_T1_EES8_T0_S9_
FNF:3
FNH:3
DA:40,251
DA:41,342
DA:42,91
DA:43,91
DA:44,91
DA:46,251
DA:111,251
DA:112,251
DA:113,251
DA:118,251
DA:122,251
LF:11
LH:11
end_of_record
TN:
SF:/Library/Developer/CommandLineTools/SDKs/MacOSX.sdk/usr/include/c++/v1/__algorithm/partial_sort.h
FNL:0,35,54
FNA:0,0,_ZNSt3__119__partial_sort_implB8ne180100INS_17_ClassicAlgPolicyERZN7pyfolio10TimeSeriesIdE12sort_by_timeEvEUlmmE_PmS7_EET1_S8_S8_T2_OT0_
FNL:1,58,70
FNA:1,0,_ZNSt3__114__partial_sortB8ne180100INS_17_ClassicAlgPolicyERZN7pyfolio10TimeSeriesIdE12sort_by_timeEvEUlmmE_PmS7_EET1_S8_S8_T2_RT0_
FNF:2
FNH:0
DA:35,0
DA:37,0
DA:38,0
DA:41,0
DA:43,0
DA:44,0
DA:45,0
DA:46,0
DA:47,0
DA:48,0
DA:49,0
DA:50,0
DA:51,0
DA:53,0
DA:54,0
DA:58,0
DA:59,0
DA:60,0
DA:62,0
DA:64,0
DA:65,0
DA:67,0
DA:69,0
DA:70,0
LF:24
LH:0
end_of_record
TN:
SF:/Library/Developer/CommandLineTools/SDKs/MacOSX.sdk/usr/include/c++/v1/__algorithm/pop_heap.h
FNL:0,35,59
FNA:0,0,_ZNSt3__110__pop_heapB8ne180100INS_17_ClassicAlgPolicyEZN7pyfolio10TimeSeriesIdE12sort_by_timeEvEUlmmE_PmEEvT1_S7_RT0_NS_15iterator_traitsIS7_E15difference_typeE
FNF:1
FNH:0
DA:35,0
DA:42,0
DA:45,0
DA:46,0
DA:47,0
DA:48,0
DA:50,0
DA:51,0
DA:52,0
DA:53,0
DA:54,0
DA:55,0
DA:56,0
DA:58,0
DA:59,0
LF:15
LH:0
end_of_record
TN:
SF:/Library/Developer/CommandLineTools/SDKs/MacOSX.sdk/usr/include/c++/v1/__algorithm/push_heap.h
FNL:0,32,56
FNA:0,0,_ZNSt3__19__sift_upB8ne180100INS_17_ClassicAlgPolicyERZN7pyfolio10TimeSeriesIdE12sort_by_timeEvEUlmmE_PmEEvT1_S8_OT0_NS_15iterator_traitsIS8_E15difference_typeE
FNF:1
FNH:0
DA:32,0
DA:38,0
DA:39,0
DA:40,0
DA:42,0
DA:43,0
DA:44,0
DA:45,0
DA:46,0
DA:47,0
DA:48,0
DA:49,0
DA:50,0
DA:51,0
DA:53,0
DA:54,0
DA:55,0
DA:56,0
LF:18
LH:0
end_of_record
TN:
SF:/Library/Developer/CommandLineTools/SDKs/MacOSX.sdk/usr/include/c++/v1/__algorithm/sift_down.h
FNL:0,29,80
FNA:0,0,_ZNSt3__111__sift_downB8ne180100INS_17_ClassicAlgPolicyERZN7pyfolio10TimeSeriesIdE12sort_by_timeEvEUlmmE_PmEEvT1_OT0_NS_15iterator_traitsIS8_E15difference_typeES8_
FNL:1,83,110
FNA:1,0,_ZNSt3__117__floyd_sift_downB8ne180100INS_17_ClassicAlgPolicyERZN7pyfolio10TimeSeriesIdE12sort_by_timeEvEUlmmE_PmEET1_S8_OT0_NS_15iterator_traitsIS8_E15difference_typeE
FNF:2
FNH:0
DA:29,0
DA:39,0
DA:41,0
DA:42,0
DA:44,0
DA:45,0
DA:47,0
DA:49,0
DA:50,0
DA:51,0
DA:54,0
DA:56,0
DA:58,0
DA:59,0
DA:61,0
DA:62,0
DA:64,0
DA:65,0
DA:68,0
DA:69,0
DA:71,0
DA:73,0
DA:74,0
DA:75,0
DA:78,0
DA:79,0
DA:80,0
DA:83,0
DA:90,0
DA:91,0
DA:92,0
DA:94,0
DA:95,0
DA:96,0
DA:98,0
DA:100,0
DA:101,0
DA:102,0
DA:105,0
DA:106,0
DA:109,0
DA:110,0
LF:42
LH:0
end_of_record
TN:
SF:/Library/Developer/CommandLineTools/SDKs/MacOSX.sdk/usr/include/c++/v1/__algorithm/sort.h
FNL:0,1003,1005
FNA:0,4,_ZNSt3__14sortB8ne180100INS_11__wrap_iterIPdEENS_6__lessIvvEEEEvT_S6_T0_
FNA:0,95,_ZNSt3__14sortB8ne180100INS_11__wrap_iterIPmEEZN7pyfolio10TimeSeriesIdE12sort_by_timeEvEUlmmE_EEvT_S8_T0_
FNL:1,1009,1011
FNA:1,4,_ZNSt3__14sortB8ne180100INS_11__wrap_iterIPdEEEEvT_S4_
FNL:2,107,128
FNA:2,9,_ZNSt3__17__sort5B8ne180100INS_17_ClassicAlgPolicyERZN7pyfolio10TimeSeriesIdE12sort_by_timeEvEUlmmE_PmEEvT1_S8_S8_S8_S8_T0_
FNL:3,199,202
FNA:3,4,_ZNSt3__124__sort3_maybe_branchlessB8ne180100INS_17_ClassicAlgPolicyERZN7pyfolio10TimeSeriesIdE12sort_by_timeEvEUlmmE_PmLi0EEEvT1_S8_S8_T0_
FNL:4,225,232
FNA:4,3,_ZNSt3__124__sort4_maybe_branchlessB8ne180100INS_17_ClassicAlgPolicyERZN7pyfolio10TimeSeriesIdE12sort_by_timeEvEUlmmE_PmLi0EEEvT1_S8_S8_S8_T0_
FNL:5,257,266
FNA:5,9,_ZNSt3__124__sort5_maybe_branchlessB8ne180100INS_17_ClassicAlgPolicyERZN7pyfolio10TimeSeriesIdE12sort_by_timeEvEUlmmE_PmLi0EEEvT1_S8_S8_S8_S8_T0_
FNL:6,284,305
FNA:6,77,_ZNSt3__116__insertion_sortB8ne180100INS_17_ClassicAlgPolicyERZN7pyfolio10TimeSeriesIdE12sort_by_timeEvEUlmmE_PmEEvT1_S8_T0_
FNL:7,314,338
FNA:7,0,_ZNSt3__126__insertion_sort_unguardedB8ne180100INS_17_ClassicAlgPolicyERZN7pyfolio10TimeSeriesIdE12sort_by_timeEvEUlmmE_PmEEvT1_S8_T0_
FNL:8,342,392
FNA:8,0,_ZNSt3__127__insertion_sort_incompleteB8ne180100INS_17_ClassicAlgPolicyERZN7pyfolio10TimeSeriesIdE12sort_by_timeEvEUlmmE_PmEEbT1_S8_T0_
FNL:9,395,408
FNA:9,0,_ZNSt3__117__swap_bitmap_posB8ne180100INS_17_ClassicAlgPolicyEPmEEvT0_S3_RyS4_
FNL:10,414,424
FNA:10,0,_ZNSt3__122__populate_left_bitsetB8ne180100IRZN7pyfolio10TimeSeriesIdE12sort_by_timeEvEUlmmE_PmmEEvT0_T_RT1_Ry
FNL:11,430,440
FNA:11,0,_ZNSt3__123__populate_right_bitsetB8ne180100IRZN7pyfolio10TimeSeriesIdE12sort_by_timeEvEUlmmE_PmmEEvT0_T_RT1_Ry
FNL:12,446,490
FNA:12,0,_ZNSt3__133__bitset_partition_partial_blocksB8ne180100INS_17_ClassicAlgPolicyERZN7pyfolio10TimeSeriesIdE12sort_by_timeEvEUlmmE_PmmEEvRT1_S9_T0_RT2_RySD_
FNL:13,493,523
FNA:13,0,_ZNSt3__124__swap_bitmap_pos_withinB8ne180100INS_17_ClassicAlgPolicyEPmEEvRT0_S4_RyS5_
FNL:14,51,83
FNA:14,16,_ZNSt3__17__sort3B8ne180100INS_17_ClassicAlgPolicyERZN7pyfolio10TimeSeriesIdE12sort_by_timeEvEUlmmE_PmEEjT1_S8_S8_T0_
FNL:15,535,617
FNA:15,0,_ZNSt3__118__bitset_partitionB8ne180100INS_17_ClassicAlgPolicyEPmRZN7pyfolio10TimeSeriesIdE12sort_by_timeEvEUlmmE_EENS_4pairIT0_bEES9_S9_T1_
FNL:16,627,688
FNA:16,0,_ZNSt3__132__partition_with_equals_on_rightB8ne180100INS_17_ClassicAlgPolicyEPmRZN7pyfolio10TimeSeriesIdE12sort_by_timeEvEUlmmE_EENS_4pairIT0_bEES9_S9_T1_
FNL:17,695,747
FNA:17,0,_ZNSt3__131__partition_with_equals_on_leftB8ne180100INS_17_ClassicAlgPolicyEPmRZN7pyfolio10TimeSeriesIdE12sort_by_timeEvEUlmmE_EET0_S8_S8_T1_
FNL:18,758,870
FNA:18,95,_ZNSt3__111__introsortINS_17_ClassicAlgPolicyERZN7pyfolio10TimeSeriesIdE12sort_by_timeEvEUlmmE_PmLb0EEEvT1_S8_T0_NS_15iterator_traitsIS8_E15difference_typeEb
FNL:19,873,889
FNA:19,95,_ZNSt3__17__log2iB8ne180100IlEET_S1_
FNL:20,89,101
FNA:20,12,_ZNSt3__17__sort4B8ne180100INS_17_ClassicAlgPolicyERZN7pyfolio10TimeSeriesIdE12sort_by_timeEvEUlmmE_PmEEvT1_S8_S8_S8_T0_
FNL:21,922,933
FNA:21,95,_ZNSt3__115__sort_dispatchB8ne180100INS_17_ClassicAlgPolicyEPmZN7pyfolio10TimeSeriesIdE12sort_by_timeEvEUlmmE_EEvT0_S7_RT1_
FNL:22,960,963
FNA:22,4,_ZNSt3__115__sort_dispatchB8ne180100INS_17_ClassicAlgPolicyEdLi0EEEvPT0_S3_RNS_6__lessIvvEE
FNL:23,989,999
FNA:23,4,_ZNSt3__111__sort_implB8ne180100INS_17_ClassicAlgPolicyENS_11__wrap_iterIPdEENS_6__lessIvvEEEEvT0_S7_RT1_
FNA:23,95,_ZNSt3__111__sort_implB8ne180100INS_17_ClassicAlgPolicyENS_11__wrap_iterIPmEEZN7pyfolio10TimeSeriesIdE12sort_by_timeEvEUlmmE_EEvT0_S9_RT1_
FNF:24
FNH:14
DA:51,16
DA:54,16
DA:55,16
DA:57,16
DA:58,16
DA:60,0
DA:61,0
DA:62,0
DA:64,0
DA:65,0
DA:66,0
DA:67,0
DA:69,0
DA:71,0
DA:72,0
DA:73,0
DA:75,0
DA:76,0
DA:77,0
DA:79,0
DA:80,0
DA:81,0
DA:82,0
DA:83,16
DA:89,12
DA:91,12
DA:92,12
DA:93,0
DA:94,0
DA:95,0
DA:96,0
DA:97,0
DA:98,0
DA:99,0
DA:100,0
DA:101,12
DA:107,9
DA:115,9
DA:116,9
DA:117,0
DA:118,0
DA:119,0
DA:120,0
DA:121,0
DA:122,0
DA:123,0
DA:124,0
DA:125,0
DA:126,0
DA:127,0
DA:128,9
DA:199,4
DA:201,4
DA:202,4
DA:225,3
DA:231,3
DA:232,3
DA:257,9
DA:264,9
DA:265,9
DA:266,9
DA:284,77
DA:288,77
DA:289,0
DA:290,77
DA:291,694
DA:292,617
DA:293,617
DA:294,617
DA:295,0
DA:296,0
DA:297,0
DA:298,0
DA:299,0
DA:300,0
DA:301,0
DA:302,0
DA:303,0
DA:304,617
DA:305,77
DA:314,0
DA:318,0
DA:319,0
DA:320,0
DA:322,0
DA:323,0
DA:324,0
DA:325,0
DA:326,0
DA:327,0
DA:328,0
DA:329,0
DA:330,0
DA:334,0
DA:335,0
DA:336,0
DA:337,0
DA:338,0
DA:342,0
DA:346,0
DA:349,0
DA:351,0
DA:352,0
DA:353,0
DA:355,0
DA:356,0
DA:358,0
DA:359,0
DA:360,0
DA:362,0
DA:363,0
DA:364,0
DA:365,0
DA:366,0
DA:367,0
DA:368,0
DA:369,0
DA:372,0
DA:373,0
DA:374,0
DA:375,0
DA:376,0
DA:377,0
DA:378,0
DA:379,0
DA:380,0
DA:381,0
DA:382,0
DA:383,0
DA:384,0
DA:385,0
DA:386,0
DA:387,0
DA:388,0
DA:389,0
DA:390,0
DA:391,0
DA:392,0
DA:395,0
DA:401,0
DA:402,0
DA:403,0
DA:404,0
DA:405,0
DA:406,0
DA:408,0
DA:414,0
DA:417,0
DA:418,0
DA:419,0
DA:420,0
DA:421,0
DA:422,0
DA:424,0
DA:430,0
DA:433,0
DA:434,0
DA:435,0
DA:436,0
DA:437,0
DA:438,0
DA:440,0
DA:446,0
DA:454,0
DA:457,0
DA:458,0
DA:459,0
DA:460,0
DA:462,0
DA:463,0
DA:464,0
DA:465,0
DA:466,0
DA:469,0
DA:470,0
DA:471,0
DA:472,0
DA:473,0
DA:474,0
DA:475,0
DA:476,0
DA:479,0
DA:480,0
DA:481,0
DA:482,0
DA:483,0
DA:484,0
DA:485,0
DA:486,0
DA:487,0
DA:488,0
DA:489,0
DA:490,0
DA:493,0
DA:497,0
DA:500,0
DA:501,0
DA:502,0
DA:503,0
DA:504,0
DA:505,0
DA:506,0
DA:507,0
DA:509,0
DA:510,0
DA:513,0
DA:514,0
DA:515,0
DA:516,0
DA:517,0
DA:518,0
DA:519,0
DA:520,0
DA:522,0
DA:523,0
DA:535,0
DA:540,0
DA:541,0
DA:544,0
DA:546,0
DA:548,0
DA:549,0
DA:553,0
DA:554,0
DA:555,0
DA:559,0
DA:562,0
DA:566,0
DA:567,0
DA:568,0
DA:573,0
DA:574,0
DA:575,0
DA:576,0
DA:577,0
DA:581,0
DA:582,0
DA:583,0
DA:586,0
DA:589,0
DA:590,0
DA:593,0
DA:594,0
DA:597,0
DA:600,0
DA:601,0
DA:605,0
DA:606,0
DA:609,0
DA:612,0
DA:613,0
DA:614,0
DA:615,0
DA:616,0
DA:617,0
DA:627,0
DA:632,0
DA:633,0
DA:635,0
DA:639,0
DA:640,0
DA:644,0
DA:647,0
DA:648,0
DA:650,0
DA:652,0
DA:656,0
DA:657,0
DA:663,0
DA:667,0
DA:668,0
DA:669,0
DA:670,0
DA:674,0
DA:675,0
DA:679,0
DA:680,0
DA:683,0
DA:684,0
DA:685,0
DA:686,0
DA:687,0
DA:688,0
DA:695,0
DA:700,0
DA:701,0
DA:703,0
DA:704,0
DA:706,0
DA:707,0
DA:711,0
DA:712,0
DA:713,0
DA:717,0
DA:720,0
DA:724,0
DA:725,0
DA:726,0
DA:727,0
DA:728,0
DA:729,0
DA:730,0
DA:734,0
DA:735,0
DA:739,0
DA:740,0
DA:742,0
DA:743,0
DA:744,0
DA:745,0
DA:746,0
DA:747,0
DA:758,95
DA:767,95
DA:769,95
DA:770,95
DA:771,95
DA:772,95
DA:775,2
DA:777,0
DA:778,0
DA:779,0
DA:781,4
DA:782,4
DA:784,3
DA:785,3
DA:786,3
DA:788,9
DA:789,9
DA:790,9
DA:791,9
DA:792,9
DA:793,9
DA:794,9
DA:795,9
DA:798,77
DA:799,77
DA:800,77
DA:801,77
DA:802,0
DA:804,77
DA:806,0
DA:808,0
DA:809,0
DA:811,0
DA:813,0
DA:816,0
DA:817,0
DA:818,0
DA:819,0
DA:820,0
DA:821,0
DA:822,0
DA:823,0
DA:824,0
DA:825,0
DA:826,0
DA:837,0
DA:838,0
DA:839,0
DA:840,0
DA:843,0
DA:844,0
DA:845,0
DA:846,0
DA:847,0
DA:850,0
DA:851,0
DA:852,0
DA:853,0
DA:854,0
DA:855,0
DA:856,0
DA:858,0
DA:859,0
DA:860,0
DA:863,0
DA:865,0
DA:866,0
DA:867,0
DA:868,0
DA:870,95
DA:873,95
DA:874,95
DA:875,0
DA:879,95
DA:889,95
DA:922,95
DA:924,95
DA:929,95
DA:932,95
DA:933,95
DA:960,4
DA:962,4
DA:963,4
DA:989,99
DA:990,99
DA:996,99
DA:998,99
DA:999,99
DA:1003,99
DA:1004,99
DA:1005,99
DA:1009,4
DA:1010,4
DA:1011,4
LF:406
LH:82
end_of_record
TN:
SF:/Library/Developer/CommandLineTools/SDKs/MacOSX.sdk/usr/include/c++/v1/__algorithm/sort_heap.h
FNL:0,34,42
FNA:0,0,_ZNSt3__111__sort_heapB8ne180100INS_17_ClassicAlgPolicyERZN7pyfolio10TimeSeriesIdE12sort_by_timeEvEUlmmE_PmEEvT1_S8_OT0_
FNF:1
FNH:0
DA:34,0
DA:35,0
DA:36,0
DA:39,0
DA:40,0
DA:41,0
DA:42,0
LF:7
LH:0
end_of_record
TN:
SF:/Library/Developer/CommandLineTools/SDKs/MacOSX.sdk/usr/include/c++/v1/__algorithm/unwrap_iter.h
FNL:0,39,39
FNA:0,0,_ZNSt3__118__unwrap_iter_implINS_16reverse_iteratorIPN7pyfolio11performance12DrawdownInfoEEELb0EE8__rewrapB8ne180100ES6_S6_
FNA:0,218,_ZNSt3__118__unwrap_iter_implINS_16reverse_iteratorIPN7pyfolio8DateTimeEEELb0EE8__rewrapB8ne180100ES5_S5_
FNA:0,284,_ZNSt3__118__unwrap_iter_implINS_16reverse_iteratorIPdEELb0EE8__rewrapB8ne180100ES3_S3_
FNA:0,0,_ZNSt3__118__unwrap_iter_implINS_16reverse_iteratorIPiEELb0EE8__rewrapB8ne180100ES3_S3_
FNL:1,40,40
FNA:1,0,_ZNSt3__118__unwrap_iter_implINS_16reverse_iteratorIPN7pyfolio11performance12DrawdownInfoEEELb0EE8__unwrapB8ne180100ES6_
FNA:1,327,_ZNSt3__118__unwrap_iter_implINS_16reverse_iteratorIPN7pyfolio8DateTimeEEELb0EE8__unwrapB8ne180100ES5_
FNA:1,426,_ZNSt3__118__unwrap_iter_implINS_16reverse_iteratorIPdEELb0EE8__unwrapB8ne180100ES3_
FNA:1,0,_ZNSt3__118__unwrap_iter_implINS_16reverse_iteratorIPiEELb0EE8__unwrapB8ne180100ES3_
FNL:2,51,52
FNA:2,54,_ZNSt3__118__unwrap_iter_implIPKN7pyfolio8DateTimeELb1EE8__rewrapB8ne180100ES4_S4_
FNA:2,0,_ZNSt3__118__unwrap_iter_implIPKNS_3mapINS_12basic_stringIcNS_11char_traitsIcEENS_9allocatorIcEEEEdNS_4lessIS7_EENS5_INS_4pairIKS7_dEEEEEELb1EE8__rewrapB8ne180100ESG_SG_
FNA:2,22,_ZNSt3__118__unwrap_iter_implIPKcLb1EE8__rewrapB8ne180100ES2_S2_
FNA:2,91,_ZNSt3__118__unwrap_iter_implIPKdLb1EE8__rewrapB8ne180100ES2_S2_
FNA:2,471,_ZNSt3__118__unwrap_iter_implIPN7pyfolio8DateTimeELb1EE8__rewrapB8ne180100ES3_S3_
FNA:2,18,_ZNSt3__118__unwrap_iter_implIPNS_3mapINS_12basic_stringIcNS_11char_traitsIcEENS_9allocatorIcEEEEdNS_4lessIS7_EENS5_INS_4pairIKS7_dEEEEEELb1EE8__rewrapB8ne180100ESF_SF_
FNA:2,22,_ZNSt3__118__unwrap_iter_implIPcLb1EE8__rewrapB8ne180100ES1_S1_
FNA:2,569,_ZNSt3__118__unwrap_iter_implIPdLb1EE8__rewrapB8ne180100ES1_S1_
FNL:3,55,56
FNA:3,2,_ZNSt3__118__unwrap_iter_implINS_11__wrap_iterIPKN7pyfolio8DateTimeEEELb1EE8__unwrapB8ne180100ES6_
FNA:3,8,_ZNSt3__118__unwrap_iter_implINS_11__wrap_iterIPKdEELb1EE8__unwrapB8ne180100ES4_
FNA:3,16,_ZNSt3__118__unwrap_iter_implINS_11__wrap_iterIPdEELb1EE8__unwrapB8ne180100ES3_
FNA:3,380,_ZNSt3__118__unwrap_iter_implINS_11__wrap_iterIPmEELb1EE8__unwrapB8ne180100ES3_
FNA:3,214,_ZNSt3__118__unwrap_iter_implIPKN7pyfolio8DateTimeELb1EE8__unwrapB8ne180100ES4_
FNA:3,36,_ZNSt3__118__unwrap_iter_implIPKNS_3mapINS_12basic_stringIcNS_11char_traitsIcEENS_9allocatorIcEEEEdNS_4lessIS7_EENS5_INS_4pairIKS7_dEEEEEELb1EE8__unwrapB8ne180100ESG_
FNA:3,44,_ZNSt3__118__unwrap_iter_implIPKcLb1EE8__unwrapB8ne180100ES2_
FNA:3,356,_ZNSt3__118__unwrap_iter_implIPKdLb1EE8__unwrapB8ne180100ES2_
FNA:3,834,_ZNSt3__118__unwrap_iter_implIPN7pyfolio8DateTimeELb1EE8__unwrapB8ne180100ES3_
FNA:3,18,_ZNSt3__118__unwrap_iter_implIPNS_3mapINS_12basic_stringIcNS_11char_traitsIcEENS_9allocatorIcEEEEdNS_4lessIS7_EENS5_INS_4pairIKS7_dEEEEEELb1EE8__unwrapB8ne180100ESF_
FNA:3,22,_ZNSt3__118__unwrap_iter_implIPcLb1EE8__unwrapB8ne180100ES1_
FNA:3,956,_ZNSt3__118__unwrap_iter_implIPdLb1EE8__unwrapB8ne180100ES1_
FNL:4,64,65
FNA:4,2,_ZNSt3__113__unwrap_iterB8ne180100INS_11__wrap_iterIPKN7pyfolio8DateTimeEEENS_18__unwrap_iter_implIS6_Lb1EEELi0EEEDTclsrT0_8__unwrapclsr3stdE7declvalIT_EEEESA_
FNA:4,8,_ZNSt3__113__unwrap_iterB8ne180100INS_11__wrap_iterIPKdEENS_18__unwrap_iter_implIS4_Lb1EEELi0EEEDTclsrT0_8__unwrapclsr3stdE7declvalIT_EEEES8_
FNA:4,16,_ZNSt3__113__unwrap_iterB8ne180100INS_11__wrap_iterIPdEENS_18__unwrap_iter_implIS3_Lb1EEELi0EEEDTclsrT0_8__unwrapclsr3stdE7declvalIT_EEEES7_
FNA:4,380,_ZNSt3__113__unwrap_iterB8ne180100INS_11__wrap_iterIPmEENS_18__unwrap_iter_implIS3_Lb1EEELi0EEEDTclsrT0_8__unwrapclsr3stdE7declvalIT_EEEES7_
FNA:4,0,_ZNSt3__113__unwrap_iterB8ne180100INS_16reverse_iteratorIPN7pyfolio11performance12DrawdownInfoEEENS_18__unwrap_iter_implIS6_Lb0EEELi0EEEDTclsrT0_8__unwrapclsr3stdE7declvalIT_EEEESA_
FNA:4,327,_ZNSt3__113__unwrap_iterB8ne180100INS_16reverse_iteratorIPN7pyfolio8DateTimeEEENS_18__unwrap_iter_implIS5_Lb0EEELi0EEEDTclsrT0_8__unwrapclsr3stdE7declvalIT_EEEES9_
FNA:4,426,_ZNSt3__113__unwrap_iterB8ne180100INS_16reverse_iteratorIPdEENS_18__unwrap_iter_implIS3_Lb0EEELi0EEEDTclsrT0_8__unwrapclsr3stdE7declvalIT_EEEES7_
FNA:4,0,_ZNSt3__113__unwrap_iterB8ne180100INS_16reverse_iteratorIPiEENS_18__unwrap_iter_implIS3_Lb0EEELi0EEEDTclsrT0_8__unwrapclsr3stdE7declvalIT_EEEES7_
FNA:4,214,_ZNSt3__113__unwrap_iterB8ne180100IPKN7pyfolio8DateTimeENS_18__unwrap_iter_implIS4_Lb1EEELi0EEEDTclsrT0_8__unwrapclsr3stdE7declvalIT_EEEES8_
FNA:4,36,_ZNSt3__113__unwrap_iterB8ne180100IPKNS_3mapINS_12basic_stringIcNS_11char_traitsIcEENS_9allocatorIcEEEEdNS_4lessIS7_EENS5_INS_4pairIKS7_dEEEEEENS_18__unwrap_iter_implISG_Lb1EEELi0EEEDTclsrT0_8__unwrapclsr3stdE7declvalIT_EEEESK_
FNA:4,44,_ZNSt3__113__unwrap_iterB8ne180100IPKcNS_18__unwrap_iter_implIS2_Lb1EEELi0EEEDTclsrT0_8__unwrapclsr3stdE7declvalIT_EEEES6_
FNA:4,356,_ZNSt3__113__unwrap_iterB8ne180100IPKdNS_18__unwrap_iter_implIS2_Lb1EEELi0EEEDTclsrT0_8__unwrapclsr3stdE7declvalIT_EEEES6_
FNA:4,834,_ZNSt3__113__unwrap_iterB8ne180100IPN7pyfolio8DateTimeENS_18__unwrap_iter_implIS3_Lb1EEELi0EEEDTclsrT0_8__unwrapclsr3stdE7declvalIT_EEEES7_
FNA:4,18,_ZNSt3__113__unwrap_iterB8ne180100IPNS_3mapINS_12basic_stringIcNS_11char_traitsIcEENS_9allocatorIcEEEEdNS_4lessIS7_EENS5_INS_4pairIKS7_dEEEEEENS_18__unwrap_iter_implISF_Lb1EEELi0EEEDTclsrT0_8__unwrapclsr3stdE7declvalIT_EEEESJ_
FNA:4,22,_ZNSt3__113__unwrap_iterB8ne180100IPcNS_18__unwrap_iter_implIS1_Lb1EEELi0EEEDTclsrT0_8__unwrapclsr3stdE7declvalIT_EEEES5_
FNA:4,956,_ZNSt3__113__unwrap_iterB8ne180100IPdNS_18__unwrap_iter_implIS1_Lb1EEELi0EEEDTclsrT0_8__unwrapclsr3stdE7declvalIT_EEEES5_
FNL:5,77,78
FNA:5,0,_ZNSt3__113__rewrap_iterB8ne180100INS_16reverse_iteratorIPN7pyfolio11performance12DrawdownInfoEEES6_NS_18__unwrap_iter_implIS6_Lb0EEEEET_S9_T0_
FNA:5,218,_ZNSt3__113__rewrap_iterB8ne180100INS_16reverse_iteratorIPN7pyfolio8DateTimeEEES5_NS_18__unwrap_iter_implIS5_Lb0EEEEET_S8_T0_
FNA:5,284,_ZNSt3__113__rewrap_iterB8ne180100INS_16reverse_iteratorIPdEES3_NS_18__unwrap_iter_implIS3_Lb0EEEEET_S6_T0_
FNA:5,0,_ZNSt3__113__rewrap_iterB8ne180100INS_16reverse_iteratorIPiEES3_NS_18__unwrap_iter_implIS3_Lb0EEEEET_S6_T0_
FNA:5,54,_ZNSt3__113__rewrap_iterB8ne180100IPKN7pyfolio8DateTimeES4_NS_18__unwrap_iter_implIS4_Lb1EEEEET_S7_T0_
FNA:5,0,_ZNSt3__113__rewrap_iterB8ne180100IPKNS_3mapINS_12basic_stringIcNS_11char_traitsIcEENS_9allocatorIcEEEEdNS_4lessIS7_EENS5_INS_4pairIKS7_dEEEEEESG_NS_18__unwrap_iter_implISG_Lb1EEEEET_SJ_T0_
FNA:5,22,_ZNSt3__113__rewrap_iterB8ne180100IPKcS2_NS_18__unwrap_iter_implIS2_Lb1EEEEET_S5_T0_
FNA:5,91,_ZNSt3__113__rewrap_iterB8ne180100IPKdS2_NS_18__unwrap_iter_implIS2_Lb1EEEEET_S5_T0_
FNA:5,471,_ZNSt3__113__rewrap_iterB8ne180100IPN7pyfolio8DateTimeES3_NS_18__unwrap_iter_implIS3_Lb1EEEEET_S6_T0_
FNA:5,18,_ZNSt3__113__rewrap_iterB8ne180100IPNS_3mapINS_12basic_stringIcNS_11char_traitsIcEENS_9allocatorIcEEEEdNS_4lessIS7_EENS5_INS_4pairIKS7_dEEEEEESF_NS_18__unwrap_iter_implISF_Lb1EEEEET_SI_T0_
FNA:5,22,_ZNSt3__113__rewrap_iterB8ne180100IPcS1_NS_18__unwrap_iter_implIS1_Lb1EEEEET_S4_T0_
FNA:5,569,_ZNSt3__113__rewrap_iterB8ne180100IPdS1_NS_18__unwrap_iter_implIS1_Lb1EEEEET_S4_T0_
FNF:6
FNH:6
DA:39,502
DA:40,753
DA:51,1247
DA:52,1247
DA:55,2886
DA:56,2886
DA:64,3639
DA:65,3639
DA:77,1749
DA:78,1749
LF:10
LH:10
end_of_record
TN:
SF:/Library/Developer/CommandLineTools/SDKs/MacOSX.sdk/usr/include/c++/v1/__algorithm/unwrap_range.h
FNL:0,64,65
FNA:0,1,_ZNSt3__119__unwrap_range_implINS_11__wrap_iterIPKN7pyfolio8DateTimeEEES6_E8__unwrapB8ne180100ES6_S6_
FNA:0,4,_ZNSt3__119__unwrap_range_implINS_11__wrap_iterIPKdEES4_E8__unwrapB8ne180100ES4_S4_
FNA:0,0,_ZNSt3__119__unwrap_range_implINS_16reverse_iteratorIPN7pyfolio11performance12DrawdownInfoEEES6_E8__unwrapB8ne180100ES6_S6_
FNA:0,109,_ZNSt3__119__unwrap_range_implINS_16reverse_iteratorIPN7pyfolio8DateTimeEEES5_E8__unwrapB8ne180100ES5_S5_
FNA:0,142,_ZNSt3__119__unwrap_range_implINS_16reverse_iteratorIPdEES3_E8__unwrapB8ne180100ES3_S3_
FNA:0,0,_ZNSt3__119__unwrap_range_implINS_16reverse_iteratorIPiEES3_E8__unwrapB8ne180100ES3_S3_
FNA:0,107,_ZNSt3__119__unwrap_range_implIPKN7pyfolio8DateTimeES4_E8__unwrapB8ne180100ES4_S4_
FNA:0,18,_ZNSt3__119__unwrap_range_implIPKNS_3mapINS_12basic_stringIcNS_11char_traitsIcEENS_9allocatorIcEEEEdNS_4lessIS7_EENS5_INS_4pairIKS7_dEEEEEESG_E8__unwrapB8ne180100ESG_SG_
FNA:0,22,_ZNSt3__119__unwrap_range_implIPKcS2_E8__unwrapB8ne180100ES2_S2_
FNA:0,178,_ZNSt3__119__unwrap_range_implIPKdS2_E8__unwrapB8ne180100ES2_S2_
FNA:0,242,_ZNSt3__119__unwrap_range_implIPN7pyfolio8DateTimeES3_E8__unwrapB8ne180100ES3_S3_
FNA:0,258,_ZNSt3__119__unwrap_range_implIPdS1_E8__unwrapB8ne180100ES1_S1_
FNL:1,69,70
FNA:1,0,_ZNSt3__119__unwrap_range_implINS_16reverse_iteratorIPN7pyfolio11performance12DrawdownInfoEEES6_E8__rewrapB8ne180100ES6_S6_
FNA:1,109,_ZNSt3__119__unwrap_range_implINS_16reverse_iteratorIPN7pyfolio8DateTimeEEES5_E8__rewrapB8ne180100ES5_S5_
FNA:1,142,_ZNSt3__119__unwrap_range_implINS_16reverse_iteratorIPdEES3_E8__rewrapB8ne180100ES3_S3_
FNA:1,0,_ZNSt3__119__unwrap_range_implINS_16reverse_iteratorIPiEES3_E8__rewrapB8ne180100ES3_S3_
FNA:1,54,_ZNSt3__119__unwrap_range_implIPKN7pyfolio8DateTimeES4_E8__rewrapB8ne180100ES4_S4_
FNA:1,0,_ZNSt3__119__unwrap_range_implIPKNS_3mapINS_12basic_stringIcNS_11char_traitsIcEENS_9allocatorIcEEEEdNS_4lessIS7_EENS5_INS_4pairIKS7_dEEEEEESG_E8__rewrapB8ne180100ESG_SG_
FNA:1,22,_ZNSt3__119__unwrap_range_implIPKcS2_E8__rewrapB8ne180100ES2_S2_
FNA:1,91,_ZNSt3__119__unwrap_range_implIPKdS2_E8__rewrapB8ne180100ES2_S2_
FNA:1,121,_ZNSt3__119__unwrap_range_implIPN7pyfolio8DateTimeES3_E8__rewrapB8ne180100ES3_S3_
FNA:1,129,_ZNSt3__119__unwrap_range_implIPdS1_E8__rewrapB8ne180100ES1_S1_
FNL:2,75,76
FNA:2,1,_ZNSt3__114__unwrap_rangeB8ne180100INS_11__wrap_iterIPKN7pyfolio8DateTimeEEES6_EEDaT_T0_
FNA:2,4,_ZNSt3__114__unwrap_rangeB8ne180100INS_11__wrap_iterIPKdEES4_EEDaT_T0_
FNA:2,0,_ZNSt3__114__unwrap_rangeB8ne180100INS_16reverse_iteratorIPN7pyfolio11performance12DrawdownInfoEEES6_EEDaT_T0_
FNA:2,109,_ZNSt3__114__unwrap_rangeB8ne180100INS_16reverse_iteratorIPN7pyfolio8DateTimeEEES5_EEDaT_T0_
FNA:2,142,_ZNSt3__114__unwrap_rangeB8ne180100INS_16reverse_iteratorIPdEES3_EEDaT_T0_
FNA:2,0,_ZNSt3__114__unwrap_rangeB8ne180100INS_16reverse_iteratorIPiEES3_EEDaT_T0_
FNA:2,107,_ZNSt3__114__unwrap_rangeB8ne180100IPKN7pyfolio8DateTimeES4_EEDaT_T0_
FNA:2,18,_ZNSt3__114__unwrap_rangeB8ne180100IPKNS_3mapINS_12basic_stringIcNS_11char_traitsIcEENS_9allocatorIcEEEEdNS_4lessIS7_EENS5_INS_4pairIKS7_dEEEEEESG_EEDaT_T0_
FNA:2,22,_ZNSt3__114__unwrap_rangeB8ne180100IPKcS2_EEDaT_T0_
FNA:2,178,_ZNSt3__114__unwrap_rangeB8ne180100IPKdS2_EEDaT_T0_
FNA:2,242,_ZNSt3__114__unwrap_rangeB8ne180100IPN7pyfolio8DateTimeES3_EEDaT_T0_
FNA:2,258,_ZNSt3__114__unwrap_rangeB8ne180100IPdS1_EEDaT_T0_
FNL:3,80,81
FNA:3,0,_ZNSt3__114__rewrap_rangeB8ne180100INS_16reverse_iteratorIPN7pyfolio11performance12DrawdownInfoEEES6_S6_EET0_S7_T1_
FNA:3,109,_ZNSt3__114__rewrap_rangeB8ne180100INS_16reverse_iteratorIPN7pyfolio8DateTimeEEES5_S5_EET0_S6_T1_
FNA:3,142,_ZNSt3__114__rewrap_rangeB8ne180100INS_16reverse_iteratorIPdEES3_S3_EET0_S4_T1_
FNA:3,0,_ZNSt3__114__rewrap_rangeB8ne180100INS_16reverse_iteratorIPiEES3_S3_EET0_S4_T1_
FNA:3,54,_ZNSt3__114__rewrap_rangeB8ne180100IPKN7pyfolio8DateTimeES4_S4_EET0_S5_T1_
FNA:3,0,_ZNSt3__114__rewrap_rangeB8ne180100IPKNS_3mapINS_12basic_stringIcNS_11char_traitsIcEENS_9allocatorIcEEEEdNS_4lessIS7_EENS5_INS_4pairIKS7_dEEEEEESG_SG_EET0_SH_T1_
FNA:3,22,_ZNSt3__114__rewrap_rangeB8ne180100IPKcS2_S2_EET0_S3_T1_
FNA:3,91,_ZNSt3__114__rewrap_rangeB8ne180100IPKdS2_S2_EET0_S3_T1_
FNA:3,121,_ZNSt3__114__rewrap_rangeB8ne180100IPN7pyfolio8DateTimeES3_S3_EET0_S4_T1_
FNA:3,129,_ZNSt3__114__rewrap_rangeB8ne180100IPdS1_S1_EET0_S2_T1_
FNF:4
FNH:4
DA:64,1081
DA:65,1081
DA:69,668
DA:70,668
DA:75,1081
DA:76,1081
DA:80,668
DA:81,668
LF:8
LH:8
end_of_record
TN:
SF:/Library/Developer/CommandLineTools/SDKs/MacOSX.sdk/usr/include/c++/v1/__algorithm/upper_bound.h
FNL:0,35,47
FNA:0,1,_ZNSt3__113__upper_boundB8ne180100INS_17_ClassicAlgPolicyENS_6__lessIvvEENS_11__wrap_iterIPKN7pyfolio8DateTimeEEES9_S6_NS_10__identityEEET1_SB_T2_RKT3_OT0_OT4_
FNL:1,52,55
FNA:1,1,_ZNSt3__111upper_boundB8ne180100INS_11__wrap_iterIPKN7pyfolio8DateTimeEEES3_NS_6__lessIvvEEEET_S9_S9_RKT0_T1_
FNL:2,60,61
FNA:2,1,_ZNSt3__111upper_boundB8ne180100INS_11__wrap_iterIPKN7pyfolio8DateTimeEEES3_EET_S7_S7_RKT0_
FNF:3
FNH:3
DA:35,1
DA:36,1
DA:37,4
DA:38,3
DA:39,3
DA:40,3
DA:41,1
DA:43,2
DA:44,2
DA:47,1
DA:52,1
DA:54,1
DA:55,1
DA:60,1
DA:61,1
LF:15
LH:15
end_of_record
TN:
SF:/Library/Developer/CommandLineTools/SDKs/MacOSX.sdk/usr/include/c++/v1/__atomic/atomic.h
FNL:0,47,47
FNA:0,1,_ZNSt3__16atomicIiEC1B8ne180100Ei
FNA:0,1,_ZNSt3__16atomicIiEC2B8ne180100Ei
FNF:1
FNH:1
DA:47,2
LF:1
LH:1
end_of_record
TN:
SF:/Library/Developer/CommandLineTools/SDKs/MacOSX.sdk/usr/include/c++/v1/__atomic/atomic_base.h
FNL:0,132,132
FNA:0,1,_ZNSt3__113__atomic_baseIiLb0EEC2B8ne180100Ei
FNL:1,150,150
FNA:1,1,_ZNSt3__113__atomic_baseIiLb1EEC2B8ne180100Ei
FNL:2,155,156
FNA:2,10,_ZNSt3__113__atomic_baseIiLb1EE9fetch_addB8ne180100EiNS_12memory_orderE
FNL:3,58,60
FNA:3,1,_ZNKSt3__113__atomic_baseIiLb0EE4loadB8ne180100ENS_12memory_orderE
FNF:4
FNH:4
DA:58,1
DA:60,1
DA:132,1
DA:150,1
DA:155,10
DA:156,10
LF:6
LH:6
end_of_record
TN:
SF:/Library/Developer/CommandLineTools/SDKs/MacOSX.sdk/usr/include/c++/v1/__atomic/cxx_atomic_impl.h
FNL:0,305,305
FNA:0,1,_ZNSt3__122__cxx_atomic_base_implIiEC2Ei
FNL:1,347,350
FNA:1,1,_ZNSt3__117__cxx_atomic_loadB8ne180100IiEET_PKNS_22__cxx_atomic_base_implIS1_EENS_12memory_orderE
FNL:2,448,450
FNA:2,10,_ZNSt3__122__cxx_atomic_fetch_addB8ne180100IiEET_PNS_22__cxx_atomic_base_implIS1_EES1_NS_12memory_orderE
FNL:3,819,819
FNA:3,1,_ZNSt3__117__cxx_atomic_implIiNS_22__cxx_atomic_base_implIiEEEC1B8ne180100Ei
FNA:3,1,_ZNSt3__117__cxx_atomic_implIiNS_22__cxx_atomic_base_implIiEEEC2B8ne180100Ei
FNF:4
FNH:4
DA:305,1
DA:347,1
DA:349,1
DA:350,1
DA:448,10
DA:449,10
DA:450,10
DA:819,2
LF:8
LH:8
end_of_record
TN:
SF:/Library/Developer/CommandLineTools/SDKs/MacOSX.sdk/usr/include/c++/v1/__bit/blsr.h
FNL:0,28,29
FNA:0,0,_ZNSt3__113__libcpp_blsrB8ne180100Ey
FNF:1
FNH:0
DA:28,0
DA:29,0
LF:2
LH:0
end_of_record
TN:
SF:/Library/Developer/CommandLineTools/SDKs/MacOSX.sdk/usr/include/c++/v1/__bit/countl.h
FNL:0,31,32
FNA:0,95,_ZNSt3__112__libcpp_clzB8ne180100Em
FNL:1,35,36
FNA:1,0,_ZNSt3__112__libcpp_clzB8ne180100Ey
FNF:2
FNH:1
DA:31,95
DA:32,95
DA:35,0
DA:36,0
LF:4
LH:2
end_of_record
TN:
SF:/Library/Developer/CommandLineTools/SDKs/MacOSX.sdk/usr/include/c++/v1/__bit/countr.h
FNL:0,34,35
FNA:0,0,_ZNSt3__112__libcpp_ctzB8ne180100Ey
FNF:1
FNH:0
DA:34,0
DA:35,0
LF:2
LH:0
end_of_record
TN:
SF:/Library/Developer/CommandLineTools/SDKs/MacOSX.sdk/usr/include/c++/v1/__chrono/day.h
FNL:0,33,34
FNA:0,839,_ZNSt3__16chrono3dayC1B8ne180100Ej
FNA:0,839,_ZNSt3__16chrono3dayC2B8ne180100Ej
FNL:1,55,55
FNA:1,2013,_ZNKSt3__16chrono3daycvjB8ne180100Ev
FNL:2,63,64
FNA:2,802,_ZNSt3__16chronossB8ne180100ERKNS0_3dayES3_
FNF:3
FNH:3
DA:33,1678
DA:34,1678
DA:55,2013
DA:63,802
DA:64,802
LF:5
LH:5
end_of_record
TN:
SF:/Library/Developer/CommandLineTools/SDKs/MacOSX.sdk/usr/include/c++/v1/__chrono/duration.h
FNL:0,106,107
FNA:0,17,_ZNSt3__16chrono13duration_castB8ne180100INS0_8durationIiNS_5ratioILl86400ELl1EEEEExNS3_ILl1ELl1000000EEELi0EEET_RKNS2_IT0_T1_EE
FNA:0,408,_ZNSt3__16chrono13duration_castB8ne180100INS0_8durationIxNS_5ratioILl1ELl1000000EEEEEiNS3_ILl86400ELl1EEELi0EEET_RKNS2_IT0_T1_EE
FNA:0,1,_ZNSt3__16chrono13duration_castB8ne180100INS0_8durationIxNS_5ratioILl1ELl1000000EEEEExNS3_ILl1ELl1000000000EEELi0EEET_RKNS2_IT0_T1_EE
FNL:1,128,132
FNA:1,17,_ZNSt3__16chrono5floorB8ne180100INS0_8durationIiNS_5ratioILl86400ELl1EEEEExNS3_ILl1ELl1000000EEELi0EEET_RKNS2_IT0_T1_EE
FNL:2,210,210
FNA:2,441,_ZNSt3__16chrono8durationIiNS_5ratioILl86400ELl1EEEEC1B8ne180100IiLi0EEERKT_
FNA:2,441,_ZNSt3__16chrono8durationIiNS_5ratioILl86400ELl1EEEEC2B8ne180100IiLi0EEERKT_
FNA:2,1,_ZNSt3__16chrono8durationIxNS_5ratioILl1ELl1000000000EEEEC1B8ne180100IxLi0EEERKT_
FNA:2,1,_ZNSt3__16chrono8durationIxNS_5ratioILl1ELl1000000000EEEEC2B8ne180100IxLi0EEERKT_
FNA:2,411,_ZNSt3__16chrono8durationIxNS_5ratioILl1ELl1000000EEEEC1B8ne180100IxLi0EEERKT_
FNA:2,411,_ZNSt3__16chrono8durationIxNS_5ratioILl1ELl1000000EEEEC2B8ne180100IxLi0EEERKT_
FNL:3,219,220
FNA:3,408,_ZNSt3__16chrono8durationIxNS_5ratioILl1ELl1000000EEEEC1B8ne180100IiNS2_ILl86400ELl1EEELi0EEERKNS1_IT_T0_EE
FNA:3,408,_ZNSt3__16chrono8durationIxNS_5ratioILl1ELl1000000EEEEC2B8ne180100IiNS2_ILl86400ELl1EEELi0EEERKNS1_IT_T0_EE
FNL:4,224,224
FNA:4,458,_ZNKSt3__16chrono8durationIiNS_5ratioILl86400ELl1EEEE5countB8ne180100Ev
FNA:4,3,_ZNKSt3__16chrono8durationIxNS_5ratioILl1ELl1000000000EEEE5countB8ne180100Ev
FNA:4,1870,_ZNKSt3__16chrono8durationIxNS_5ratioILl1ELl1000000EEEE5countB8ne180100Ev
FNL:5,308,309
FNA:5,4,_ZNKSt3__16chrono13__duration_eqINS0_8durationIxNS_5ratioILl1ELl1000000EEEEES5_EclB8ne180100ERKS5_S8_
FNL:6,315,316
FNA:6,4,_ZNSt3__16chronoeqB8ne180100IxNS_5ratioILl1ELl1000000EEExS3_EEbRKNS0_8durationIT_T0_EERKNS4_IT1_T2_EE
FNL:7,383,385
FNA:7,17,_ZNSt3__16chronossB8ne180100IiNS_5ratioILl86400ELl1EEExNS2_ILl1ELl1000000EEEEEDaRKNS0_8durationIT_T0_EERKNS6_IT1_T2_EE
FNA:7,699,_ZNSt3__16chronossB8ne180100IxNS_5ratioILl1ELl1000000EEExS3_EEDaRKNS0_8durationIT_T0_EERKNS5_IT1_T2_EE
FNL:8,395,397
FNA:8,7,_ZNSt3__16chronoplB8ne180100IiNS_5ratioILl86400ELl1EEEiS3_EENS_11common_typeIJNS0_8durationIT_T0_EENS5_IT1_T2_EEEE4typeERKS8_RKSB_
FNA:8,2,_ZNSt3__16chronoplB8ne180100IxNS_5ratioILl1ELl1000000EEEiNS2_ILl86400ELl1EEEEENS_11common_typeIJNS0_8durationIT_T0_EENS6_IT1_T2_EEEE4typeERKS9_RKSC_
FNL:9,405,407
FNA:9,1,_ZNSt3__16chronomiB8ne180100IiNS_5ratioILl86400ELl1EEEiS3_EENS_11common_typeIJNS0_8durationIT_T0_EENS5_IT1_T2_EEEE4typeERKS8_RKSB_
FNA:9,1,_ZNSt3__16chronomiB8ne180100IxNS_5ratioILl1ELl1000000000EEExS3_EENS_11common_typeIJNS0_8durationIT_T0_EENS5_IT1_T2_EEEE4typeERKS8_RKSB_
FNL:10,80,83
FNA:10,1,_ZNKSt3__16chrono15__duration_castINS0_8durationIxNS_5ratioILl1ELl1000000000EEEEENS2_IxNS3_ILl1ELl1000000EEEEENS3_ILl1ELl1000EEELb1ELb0EEclB8ne180100ERKS5_
FNA:10,17,_ZNKSt3__16chrono15__duration_castINS0_8durationIxNS_5ratioILl1ELl1000000EEEEENS2_IiNS3_ILl86400ELl1EEEEENS3_ILl1ELl86400000000EEELb1ELb0EEclB8ne180100ERKS5_
FNL:11,89,92
FNA:11,408,_ZNKSt3__16chrono15__duration_castINS0_8durationIiNS_5ratioILl86400ELl1EEEEENS2_IxNS3_ILl1ELl1000000EEEEENS3_ILl86400000000ELl1EEELb0ELb1EEclB8ne180100ERKS5_
FNF:12
FNH:12
DA:80,18
DA:82,18
DA:83,18
DA:89,408
DA:91,408
DA:92,408
DA:106,426
DA:107,426
DA:128,17
DA:129,17
DA:130,17
DA:131,0
DA:132,17
DA:210,1706
DA:219,816
DA:220,816
DA:224,2331
DA:308,4
DA:309,4
DA:315,4
DA:316,4
DA:383,716
DA:385,716
DA:395,9
DA:397,9
DA:405,2
DA:407,2
LF:27
LH:26
end_of_record
TN:
SF:/Library/Developer/CommandLineTools/SDKs/MacOSX.sdk/usr/include/c++/v1/__chrono/month.h
FNL:0,33,34
FNA:0,412,_ZNSt3__16chrono5monthC1B8ne180100Ej
FNA:0,412,_ZNSt3__16chrono5monthC2B8ne180100Ej
FNL:1,55,55
FNA:1,2582,_ZNKSt3__16chrono5monthcvjB8ne180100Ev
FNL:2,56,56
FNA:2,779,_ZNKSt3__16chrono5month2okB8ne180100Ev
FNL:3,59,60
FNA:3,390,_ZNSt3__16chronoeqB8ne180100ERKNS0_5monthES3_
FNL:4,63,64
FNA:4,502,_ZNSt3__16chronossB8ne180100ERKNS0_5monthES3_
FNF:5
FNH:5
DA:33,824
DA:34,824
DA:55,2582
DA:56,779
DA:59,390
DA:60,390
DA:63,502
DA:64,502
LF:8
LH:8
end_of_record
TN:
SF:/Library/Developer/CommandLineTools/SDKs/MacOSX.sdk/usr/include/c++/v1/__chrono/monthday.h
FNL:0,96,96
FNA:0,390,_ZNSt3__16chrono14month_day_lastC1B8ne180100ERKNS0_5monthE
FNA:0,390,_ZNSt3__16chrono14month_day_lastC2B8ne180100ERKNS0_5monthE
FNL:1,97,97
FNA:1,1168,_ZNKSt3__16chrono14month_day_last5monthB8ne180100Ev
FNF:2
FNH:2
DA:96,780
DA:97,1168
LF:2
LH:2
end_of_record
TN:
SF:/Library/Developer/CommandLineTools/SDKs/MacOSX.sdk/usr/include/c++/v1/__chrono/time_point.h
FNL:0,122,123
FNA:0,4,_ZNSt3__16chronoeqB8ne180100INS0_12system_clockENS0_8durationIxNS_5ratioILl1ELl1000000EEEEES6_EEbRKNS0_10time_pointIT_T0_EERKNS7_IS8_T1_EE
FNL:1,174,175
FNA:1,699,_ZNSt3__16chronossB8ne180100INS0_12system_clockENS0_8durationIxNS_5ratioILl1ELl1000000EEEEES6_EEDaRKNS0_10time_pointIT_T0_EERKNS8_IS9_T1_EE
FNL:2,185,187
FNA:2,7,_ZNSt3__16chronoplB8ne180100INS0_12system_clockENS0_8durationIiNS_5ratioILl86400ELl1EEEEEiS5_EENS0_10time_pointIT_NS_11common_typeIJT0_NS3_IT1_T2_EEEE4typeEEERKNS7_IS8_SA_EERKSD_
FNA:2,2,_ZNSt3__16chronoplB8ne180100INS0_12system_clockENS0_8durationIxNS_5ratioILl1ELl1000000EEEEEiNS4_ILl86400ELl1EEEEENS0_10time_pointIT_NS_11common_typeIJT0_NS3_IT1_T2_EEEE4typeEEERKNS8_IS9_SB_EERKSE_
FNL:3,213,214
FNA:3,1,_ZNSt3__16chronomiB8ne180100INS0_12steady_clockENS0_8durationIxNS_5ratioILl1ELl1000000000EEEEES6_EENS_11common_typeIJT0_T1_EE4typeERKNS0_10time_pointIT_S8_EERKNSC_ISD_S9_EE
FNA:3,1,_ZNSt3__16chronomiB8ne180100INS0_12system_clockENS0_8durationIiNS_5ratioILl86400ELl1EEEEES6_EENS_11common_typeIJT0_T1_EE4typeERKNS0_10time_pointIT_S8_EERKNSC_ISD_S9_EE
FNL:4,49,49
FNA:4,431,_ZNSt3__16chrono10time_pointINS0_12system_clockENS0_8durationIiNS_5ratioILl86400ELl1EEEEEEC1B8ne180100ERKS6_
FNA:4,431,_ZNSt3__16chrono10time_pointINS0_12system_clockENS0_8durationIiNS_5ratioILl86400ELl1EEEEEEC2B8ne180100ERKS6_
FNA:4,2,_ZNSt3__16chrono10time_pointINS0_12system_clockENS0_8durationIxNS_5ratioILl1ELl1000000EEEEEEC1B8ne180100ERKS6_
FNA:4,2,_ZNSt3__16chrono10time_pointINS0_12system_clockENS0_8durationIxNS_5ratioILl1ELl1000000EEEEEEC2B8ne180100ERKS6_
FNL:5,53,54
FNA:5,389,_ZNSt3__16chrono10time_pointINS0_12system_clockENS0_8durationIxNS_5ratioILl1ELl1000000EEEEEEC1B8ne180100INS3_IiNS4_ILl86400ELl1EEEEELi0EEERKNS1_IS2_T_EE
FNA:5,389,_ZNSt3__16chrono10time_pointINS0_12system_clockENS0_8durationIxNS_5ratioILl1ELl1000000EEEEEEC2B8ne180100INS3_IiNS4_ILl86400ELl1EEEEELi0EEERKNS1_IS2_T_EE
FNL:6,58,58
FNA:6,2,_ZNKSt3__16chrono10time_pointINS0_12steady_clockENS0_8durationIxNS_5ratioILl1ELl1000000000EEEEEE16time_since_epochB8ne180100Ev
FNA:6,431,_ZNKSt3__16chrono10time_pointINS0_12system_clockENS0_8durationIiNS_5ratioILl86400ELl1EEEEEE16time_since_epochB8ne180100Ev
FNA:6,1425,_ZNKSt3__16chrono10time_pointINS0_12system_clockENS0_8durationIxNS_5ratioILl1ELl1000000EEEEEE16time_since_epochB8ne180100Ev
FNL:7,96,97
FNA:7,17,_ZNSt3__16chrono5floorB8ne180100INS0_8durationIiNS_5ratioILl86400ELl1EEEEENS0_12system_clockENS2_IxNS3_ILl1ELl1000000EEEEELi0EEENS0_10time_pointIT0_T_EERKNS9_ISA_T1_EE
FNF:8
FNH:8
DA:49,866
DA:53,778
DA:54,778
DA:58,1858
DA:96,17
DA:97,17
DA:122,4
DA:123,4
DA:174,699
DA:175,699
DA:185,9
DA:187,9
DA:213,2
DA:214,2
LF:14
LH:14
end_of_record
TN:
SF:/Library/Developer/CommandLineTools/SDKs/MacOSX.sdk/usr/include/c++/v1/__chrono/weekday.h
FNL:0,41,42
FNA:0,11,_ZNSt3__16chrono7weekdayC1B8ne180100ERKNS0_10time_pointINS0_12system_clockENS0_8durationIiNS_5ratioILl86400ELl1EEEEEEE
FNA:0,11,_ZNSt3__16chrono7weekdayC2B8ne180100ERKNS0_10time_pointINS0_12system_clockENS0_8durationIiNS_5ratioILl86400ELl1EEEEEEE
FNL:1,66,66
FNA:1,40,_ZNKSt3__16chrono7weekday10c_encodingB8ne180100Ev
FNL:2,74,75
FNA:2,11,_ZNSt3__16chrono7weekday19__weekday_from_daysB8ne180100Ei
FNL:3,78,79
FNA:3,20,_ZNSt3__16chronoeqB8ne180100ERKNS0_7weekdayES3_
FNF:4
FNH:4
DA:41,22
DA:42,22
DA:66,40
DA:74,11
DA:75,11
DA:78,20
DA:79,20
LF:7
LH:7
end_of_record
TN:
SF:/Library/Developer/CommandLineTools/SDKs/MacOSX.sdk/usr/include/c++/v1/__chrono/year.h
FNL:0,105,107
FNA:0,390,_ZNKSt3__16chrono4year2okB8ne180100Ev
FNL:1,37,37
FNA:1,838,_ZNSt3__16chrono4yearC1B8ne180100Ei
FNA:1,838,_ZNSt3__16chrono4yearC2B8ne180100Ei
FNL:2,62,63
FNA:2,2,_ZNKSt3__16chrono4year7is_leapB8ne180100Ev
FNL:3,65,65
FNA:3,1085,_ZNKSt3__16chrono4yearcviB8ne180100Ev
FNL:4,67,67
FNA:4,390,_ZNSt3__16chrono4year3minB8ne180100Ev
FNL:5,75,76
FNA:5,143,_ZNSt3__16chronossB8ne180100ERKNS0_4yearES3_
FNF:6
FNH:6
DA:37,1676
DA:62,2
DA:63,3
DA:65,1085
DA:67,390
DA:75,143
DA:76,143
DA:105,390
DA:107,390
LF:9
LH:9
end_of_record
TN:
SF:/Library/Developer/CommandLineTools/SDKs/MacOSX.sdk/usr/include/c++/v1/__chrono/year_month.h
FNL:0,35,36
FNA:0,816,_ZNSt3__16chrono10year_monthC1B8ne180100ERKNS0_4yearERKNS0_5monthE
FNA:0,816,_ZNSt3__16chrono10year_monthC2B8ne180100ERKNS0_4yearERKNS0_5monthE
FNL:1,37,37
FNA:1,816,_ZNKSt3__16chrono10year_month4yearB8ne180100Ev
FNL:2,38,38
FNA:2,816,_ZNKSt3__16chrono10year_month5monthB8ne180100Ev
FNL:3,46,47
FNA:3,816,_ZNSt3__16chronodvB8ne180100ERKNS0_4yearERKNS0_5monthE
FNF:4
FNH:4
DA:35,1632
DA:36,1632
DA:37,816
DA:38,816
DA:46,816
DA:47,816
LF:6
LH:6
end_of_record
TN:
SF:/Library/Developer/CommandLineTools/SDKs/MacOSX.sdk/usr/include/c++/v1/__chrono/year_month_day.h
FNL:0,112,118
FNA:0,143,_ZNSt3__16chronossB8ne180100ERKNS0_14year_month_dayES3_
FNL:1,120,121
FNA:1,426,_ZNSt3__16chronodvB8ne180100ERKNS0_10year_monthERKNS0_3dayE
FNL:2,124,125
FNA:2,36,_ZNSt3__16chronodvB8ne180100ERKNS0_10year_monthEi
FNL:3,197,198
FNA:3,390,_ZNSt3__16chrono19year_month_day_lastC1B8ne180100ERKNS0_4yearERKNS0_14month_day_lastE
FNA:3,390,_ZNSt3__16chrono19year_month_day_lastC2B8ne180100ERKNS0_4yearERKNS0_14month_day_lastE
FNL:4,206,206
FNA:4,1168,_ZNKSt3__16chrono19year_month_day_last5monthB8ne180100Ev
FNL:5,218,234
FNA:5,392,_ZNKSt3__16chrono19year_month_day_last3dayB8ne180100Ev
FNL:6,271,272
FNA:6,390,_ZNSt3__16chronodvB8ne180100ERKNS0_10year_monthENS0_9last_specE
FNL:7,347,351
FNA:7,390,_ZNKSt3__16chrono14year_month_day2okB8ne180100Ev
FNL:8,46,48
FNA:8,448,_ZNSt3__16chrono14year_month_dayC1B8ne180100ERKNS0_4yearERKNS0_5monthERKNS0_3dayE
FNA:8,448,_ZNSt3__16chrono14year_month_dayC2B8ne180100ERKNS0_4yearERKNS0_5monthERKNS0_3dayE
FNL:9,50,51
FNA:9,22,_ZNSt3__16chrono14year_month_dayC1B8ne180100ERKNS0_10time_pointINS0_12system_clockENS0_8durationIiNS_5ratioILl86400ELl1EEEEEEE
FNL:10,60,60
FNA:10,288,_ZNKSt3__16chrono14year_month_day4yearB8ne180100Ev
FNL:11,61,61
FNA:11,192,_ZNKSt3__16chrono14year_month_day5monthB8ne180100Ev
FNL:12,62,62
FNA:12,46,_ZNKSt3__16chrono14year_month_day3dayB8ne180100Ev
FNL:13,63,63
FNA:13,407,_ZNKSt3__16chrono14year_month_daycvNS0_10time_pointINS0_12system_clockENS0_8durationIiNS_5ratioILl86400ELl1EEEEEEEB8ne180100Ev
FNL:14,75,87
FNA:14,22,_ZNSt3__16chrono14year_month_day11__from_daysB8ne180100ENS0_8durationIiNS_5ratioILl86400ELl1EEEEE
FNL:15,91,103
FNA:15,407,_ZNKSt3__16chrono14year_month_day9__to_daysB8ne180100Ev
FNF:16
FNH:16
DA:46,896
DA:48,896
DA:50,22
DA:51,22
DA:60,288
DA:61,192
DA:62,46
DA:63,407
DA:75,22
DA:78,22
DA:79,22
DA:80,22
DA:81,22
DA:82,22
DA:83,22
DA:84,22
DA:85,22
DA:86,22
DA:87,22
DA:91,407
DA:95,407
DA:96,407
DA:97,407
DA:99,407
DA:100,407
DA:101,407
DA:102,407
DA:103,407
DA:112,143
DA:113,143
DA:114,48
DA:115,95
DA:116,73
DA:117,22
DA:118,143
DA:120,426
DA:121,426
DA:124,36
DA:125,36
DA:197,780
DA:198,780
DA:206,1168
DA:218,392
DA:219,392
DA:232,392
DA:233,389
DA:234,3
DA:271,390
DA:272,390
DA:347,390
DA:348,390
DA:349,0
DA:350,390
DA:351,390
LF:54
LH:53
end_of_record
TN:
SF:/Library/Developer/CommandLineTools/SDKs/MacOSX.sdk/usr/include/c++/v1/__compare/ordering.h
FNL:0,213,214
FNA:0,937,_ZNSt3__1eqB8ne180100ENS_15strong_orderingENS_20_CmpUnspecifiedParamE
FNL:1,217,218
FNA:1,1555,_ZNSt3__1ltB8ne180100ENS_15strong_orderingENS_20_CmpUnspecifiedParamE
FNL:2,221,222
FNA:2,1189,_ZNSt3__1leB8ne180100ENS_15strong_orderingENS_20_CmpUnspecifiedParamE
FNL:3,225,226
FNA:3,18,_ZNSt3__1gtB8ne180100ENS_15strong_orderingENS_20_CmpUnspecifiedParamE
FNL:4,229,230
FNA:4,4,_ZNSt3__1geB8ne180100ENS_15strong_orderingENS_20_CmpUnspecifiedParamE
FNL:5,37,37
FNA:5,3703,_ZNSt3__120_CmpUnspecifiedParamC1B8ne180100EMS0_i
FNA:5,3703,_ZNSt3__120_CmpUnspecifiedParamC2B8ne180100EMS0_i
FNF:6
FNH:6
DA:37,7406
DA:213,937
DA:214,937
DA:217,1555
DA:218,1555
DA:221,1189
DA:222,1189
DA:225,18
DA:226,18
DA:229,4
DA:230,4
LF:11
LH:11
end_of_record
TN:
SF:/Library/Developer/CommandLineTools/SDKs/MacOSX.sdk/usr/include/c++/v1/__debug_utils/randomize_range.h
FNL:0,26,38
FNA:0,4,_ZNSt3__123__debug_randomize_rangeB8ne180100INS_17_ClassicAlgPolicyENS_11__wrap_iterIPdEES4_EEvT0_T1_
FNA:0,95,_ZNSt3__123__debug_randomize_rangeB8ne180100INS_17_ClassicAlgPolicyENS_11__wrap_iterIPmEES4_EEvT0_T1_
FNA:0,0,_ZNSt3__123__debug_randomize_rangeB8ne180100INS_17_ClassicAlgPolicyEPmS2_EEvT0_T1_
FNF:1
FNH:1
DA:26,99
DA:38,99
LF:2
LH:2
end_of_record
TN:
SF:/Library/Developer/CommandLineTools/SDKs/MacOSX.sdk/usr/include/c++/v1/__debug_utils/strict_weak_ordering_check.h
FNL:0,28,73
FNA:0,4,_ZNSt3__135__check_strict_weak_ordering_sortedB8ne180100IPdNS_6__lessIvvEEEEvT_S4_RT0_
FNA:0,95,_ZNSt3__135__check_strict_weak_ordering_sortedB8ne180100IPmZN7pyfolio10TimeSeriesIdE12sort_by_timeEvEUlmmE_EEvT_S6_RT0_
FNF:1
FNH:1
DA:28,99
DA:71,99
DA:73,99
LF:3
LH:3
end_of_record
TN:
SF:/Library/Developer/CommandLineTools/SDKs/MacOSX.sdk/usr/include/c++/v1/__exception/exception.h
FNL:0,74,74
FNA:0,0,_ZNSt9exceptionC2B8ne180100Ev
FNF:1
FNH:0
DA:74,0
LF:1
LH:0
end_of_record
TN:
SF:/Library/Developer/CommandLineTools/SDKs/MacOSX.sdk/usr/include/c++/v1/__functional/function.h
FNL:0,105,106
FNA:0,0,_ZNSt3__110__function10__not_nullB8ne180100IZN7pyfolio11performance17aggregate_returnsERKNS2_10TimeSeriesIdEENS2_9FrequencyEE3$_0EEbRKT_
FNA:0,1,_ZNSt3__110__function10__not_nullB8ne180100IZNK7pyfolio10TimeSeriesIdE8resampleENS2_9FrequencyEEUlRKNS_6vectorIdNS_9allocatorIdEEEEE_EEbRKT_
FNL:1,150,150
FNA:1,0,_ZNKSt3__110__function12__alloc_funcIZN7pyfolio11performance17aggregate_returnsERKNS2_10TimeSeriesIdEENS2_9FrequencyEE3$_0NS_9allocatorIS9_EEFdRKNS_6vectorIdNSA_IdEEEEEE8__targetB8ne180100Ev
FNA:1,0,_ZNKSt3__110__function12__alloc_funcIZNK7pyfolio10TimeSeriesIdE8resampleENS2_9FrequencyEEUlRKNS_6vectorIdNS_9allocatorIdEEEEE_NS7_ISC_EEFdSB_EE8__targetB8ne180100Ev
FNL:2,153,153
FNA:2,0,_ZNKSt3__110__function12__alloc_funcIZN7pyfolio11performance17aggregate_returnsERKNS2_10TimeSeriesIdEENS2_9FrequencyEE3$_0NS_9allocatorIS9_EEFdRKNS_6vectorIdNSA_IdEEEEEE15__get_allocatorB8ne180100Ev
FNA:2,0,_ZNKSt3__110__function12__alloc_funcIZNK7pyfolio10TimeSeriesIdE8resampleENS2_9FrequencyEEUlRKNS_6vectorIdNS_9allocatorIdEEEEE_NS7_ISC_EEFdSB_EE15__get_allocatorB8ne180100Ev
FNL:3,158,159
FNA:3,0,_ZNSt3__110__function12__alloc_funcIZN7pyfolio11performance17aggregate_returnsERKNS2_10TimeSeriesIdEENS2_9FrequencyEE3$_0NS_9allocatorIS9_EEFdRKNS_6vectorIdNSA_IdEEEEEEC1B8ne180100ERKS9_RKSB_
FNA:3,0,_ZNSt3__110__function12__alloc_funcIZN7pyfolio11performance17aggregate_returnsERKNS2_10TimeSeriesIdEENS2_9FrequencyEE3$_0NS_9allocatorIS9_EEFdRKNS_6vectorIdNSA_IdEEEEEEC2B8ne180100ERKS9_RKSB_
FNA:3,0,_ZNSt3__110__function12__alloc_funcIZNK7pyfolio10TimeSeriesIdE8resampleENS2_9FrequencyEEUlRKNS_6vectorIdNS_9allocatorIdEEEEE_NS7_ISC_EEFdSB_EEC1B8ne180100ERKSC_RKSD_
FNA:3,0,_ZNSt3__110__function12__alloc_funcIZNK7pyfolio10TimeSeriesIdE8resampleENS2_9FrequencyEEUlRKNS_6vectorIdNS_9allocatorIdEEEEE_NS7_ISC_EEFdSB_EEC2B8ne180100ERKSC_RKSD_
FNL:4,161,162
FNA:4,0,_ZNSt3__110__function12__alloc_funcIZN7pyfolio11performance17aggregate_returnsERKNS2_10TimeSeriesIdEENS2_9FrequencyEE3$_0NS_9allocatorIS9_EEFdRKNS_6vectorIdNSA_IdEEEEEEC1B8ne180100ERKS9_OSB_
FNA:4,0,_ZNSt3__110__function12__alloc_funcIZN7pyfolio11performance17aggregate_returnsERKNS2_10TimeSeriesIdEENS2_9FrequencyEE3$_0NS_9allocatorIS9_EEFdRKNS_6vectorIdNSA_IdEEEEEEC2B8ne180100ERKS9_OSB_
FNA:4,0,_ZNSt3__110__function12__alloc_funcIZNK7pyfolio10TimeSeriesIdE8resampleENS2_9FrequencyEEUlRKNS_6vectorIdNS_9allocatorIdEEEEE_NS7_ISC_EEFdSB_EEC1B8ne180100ERKSC_OSD_
FNA:4,0,_ZNSt3__110__function12__alloc_funcIZNK7pyfolio10TimeSeriesIdE8resampleENS2_9FrequencyEEUlRKNS_6vectorIdNS_9allocatorIdEEEEE_NS7_ISC_EEFdSB_EEC2B8ne180100ERKSC_OSD_
FNL:5,164,165
FNA:5,0,_ZNSt3__110__function12__alloc_funcIZN7pyfolio11performance17aggregate_returnsERKNS2_10TimeSeriesIdEENS2_9FrequencyEE3$_0NS_9allocatorIS9_EEFdRKNS_6vectorIdNSA_IdEEEEEEC1B8ne180100EOS9_OSB_
FNA:5,0,_ZNSt3__110__function12__alloc_funcIZN7pyfolio11performance17aggregate_returnsERKNS2_10TimeSeriesIdEENS2_9FrequencyEE3$_0NS_9allocatorIS9_EEFdRKNS_6vectorIdNSA_IdEEEEEEC2B8ne180100EOS9_OSB_
FNA:5,1,_ZNSt3__110__function12__alloc_funcIZNK7pyfolio10TimeSeriesIdE8resampleENS2_9FrequencyEEUlRKNS_6vectorIdNS_9allocatorIdEEEEE_NS7_ISC_EEFdSB_EEC1B8ne180100EOSC_OSD_
FNA:5,1,_ZNSt3__110__function12__alloc_funcIZNK7pyfolio10TimeSeriesIdE8resampleENS2_9FrequencyEEUlRKNS_6vectorIdNS_9allocatorIdEEEEE_NS7_ISC_EEFdSB_EEC2B8ne180100EOSC_OSD_
FNL:6,167,169
FNA:6,0,_ZNSt3__110__function12__alloc_funcIZN7pyfolio11performance17aggregate_returnsERKNS2_10TimeSeriesIdEENS2_9FrequencyEE3$_0NS_9allocatorIS9_EEFdRKNS_6vectorIdNSA_IdEEEEEEclB8ne180100ESG_
FNA:6,5,_ZNSt3__110__function12__alloc_funcIZNK7pyfolio10TimeSeriesIdE8resampleENS2_9FrequencyEEUlRKNS_6vectorIdNS_9allocatorIdEEEEE_NS7_ISC_EEFdSB_EEclB8ne180100ESB_
FNL:7,182,182
FNA:7,0,_ZNSt3__110__function12__alloc_funcIZN7pyfolio11performance17aggregate_returnsERKNS2_10TimeSeriesIdEENS2_9FrequencyEE3$_0NS_9allocatorIS9_EEFdRKNS_6vectorIdNSA_IdEEEEEE7destroyB8ne180100Ev
FNA:7,1,_ZNSt3__110__function12__alloc_funcIZNK7pyfolio10TimeSeriesIdE8resampleENS2_9FrequencyEEUlRKNS_6vectorIdNS_9allocatorIdEEEEE_NS7_ISC_EEFdSB_EE7destroyB8ne180100Ev
FNL:8,237,237
FNA:8,1,_ZNSt3__110__function6__baseIFdRKNS_6vectorIdNS_9allocatorIdEEEEEEC2B8ne180100Ev
FNL:9,238,238
FNA:9,0,_ZNSt3__110__function6__baseIFdRKNS_6vectorIdNS_9allocatorIdEEEEEED0Ev
FNA:9,0,_ZNSt3__110__function6__baseIFdRKNS_6vectorIdNS_9allocatorIdEEEEEED1Ev
FNA:9,0,_ZNSt3__110__function6__baseIFdRKNS_6vectorIdNS_9allocatorIdEEEEEED2Ev
FNL:10,253
FNA:10,0,_ZNSt3__110__function6__funcIZN7pyfolio11performance17aggregate_returnsERKNS2_10TimeSeriesIdEENS2_9FrequencyEE3$_0NS_9allocatorIS9_EEFdRKNS_6vectorIdNSA_IdEEEEEED0Ev
FNA:10,0,_ZNSt3__110__function6__funcIZN7pyfolio11performance17aggregate_returnsERKNS2_10TimeSeriesIdEENS2_9FrequencyEE3$_0NS_9allocatorIS9_EEFdRKNS_6vectorIdNSA_IdEEEEEED1Ev
FNA:10,0,_ZNSt3__110__function6__funcIZN7pyfolio11performance17aggregate_returnsERKNS2_10TimeSeriesIdEENS2_9FrequencyEE3$_0NS_9allocatorIS9_EEFdRKNS_6vectorIdNSA_IdEEEEEED2Ev
FNA:10,0,_ZNSt3__110__function6__funcIZNK7pyfolio10TimeSeriesIdE8resampleENS2_9FrequencyEEUlRKNS_6vectorIdNS_9allocatorIdEEEEE_NS7_ISC_EEFdSB_EED0Ev
FNA:10,0,_ZNSt3__110__function6__funcIZNK7pyfolio10TimeSeriesIdE8resampleENS2_9FrequencyEEUlRKNS_6vectorIdNS_9allocatorIdEEEEE_NS7_ISC_EEFdSB_EED1Ev
FNA:10,0,_ZNSt3__110__function6__funcIZNK7pyfolio10TimeSeriesIdE8resampleENS2_9FrequencyEEUlRKNS_6vectorIdNS_9allocatorIdEEEEE_NS7_ISC_EEFdSB_EED2Ev
FNL:11,262,262
FNA:11,0,_ZNSt3__110__function6__funcIZN7pyfolio11performance17aggregate_returnsERKNS2_10TimeSeriesIdEENS2_9FrequencyEE3$_0NS_9allocatorIS9_EEFdRKNS_6vectorIdNSA_IdEEEEEEC1B8ne180100ERKS9_RKSB_
FNA:11,0,_ZNSt3__110__function6__funcIZN7pyfolio11performance17aggregate_returnsERKNS2_10TimeSeriesIdEENS2_9FrequencyEE3$_0NS_9allocatorIS9_EEFdRKNS_6vectorIdNSA_IdEEEEEEC2B8ne180100ERKS9_RKSB_
FNA:11,0,_ZNSt3__110__function6__funcIZNK7pyfolio10TimeSeriesIdE8resampleENS2_9FrequencyEEUlRKNS_6vectorIdNS_9allocatorIdEEEEE_NS7_ISC_EEFdSB_EEC1B8ne180100ERKSC_RKSD_
FNA:11,0,_ZNSt3__110__function6__funcIZNK7pyfolio10TimeSeriesIdE8resampleENS2_9FrequencyEEUlRKNS_6vectorIdNS_9allocatorIdEEEEE_NS7_ISC_EEFdSB_EEC2B8ne180100ERKSC_RKSD_
FNL:12,264,264
FNA:12,0,_ZNSt3__110__function6__funcIZN7pyfolio11performance17aggregate_returnsERKNS2_10TimeSeriesIdEENS2_9FrequencyEE3$_0NS_9allocatorIS9_EEFdRKNS_6vectorIdNSA_IdEEEEEEC1B8ne180100ERKS9_OSB_
FNA:12,0,_ZNSt3__110__function6__funcIZN7pyfolio11performance17aggregate_returnsERKNS2_10TimeSeriesIdEENS2_9FrequencyEE3$_0NS_9allocatorIS9_EEFdRKNS_6vectorIdNSA_IdEEEEEEC2B8ne180100ERKS9_OSB_
FNA:12,0,_ZNSt3__110__function6__funcIZNK7pyfolio10TimeSeriesIdE8resampleENS2_9FrequencyEEUlRKNS_6vectorIdNS_9allocatorIdEEEEE_NS7_ISC_EEFdSB_EEC1B8ne180100ERKSC_OSD_
FNA:12,0,_ZNSt3__110__function6__funcIZNK7pyfolio10TimeSeriesIdE8resampleENS2_9FrequencyEEUlRKNS_6vectorIdNS_9allocatorIdEEEEE_NS7_ISC_EEFdSB_EEC2B8ne180100ERKSC_OSD_
FNL:13,266,266
FNA:13,0,_ZNSt3__110__function6__funcIZN7pyfolio11performance17aggregate_returnsERKNS2_10TimeSeriesIdEENS2_9FrequencyEE3$_0NS_9allocatorIS9_EEFdRKNS_6vectorIdNSA_IdEEEEEEC1B8ne180100EOS9_OSB_
FNA:13,0,_ZNSt3__110__function6__funcIZN7pyfolio11performance17aggregate_returnsERKNS2_10TimeSeriesIdEENS2_9FrequencyEE3$_0NS_9allocatorIS9_EEFdRKNS_6vectorIdNSA_IdEEEEEEC2B8ne180100EOS9_OSB_
FNA:13,1,_ZNSt3__110__function6__funcIZNK7pyfolio10TimeSeriesIdE8resampleENS2_9FrequencyEEUlRKNS_6vectorIdNS_9allocatorIdEEEEE_NS7_ISC_EEFdSB_EEC1B8ne180100EOSC_OSD_
FNA:13,1,_ZNSt3__110__function6__funcIZNK7pyfolio10TimeSeriesIdE8resampleENS2_9FrequencyEEUlRKNS_6vectorIdNS_9allocatorIdEEEEE_NS7_ISC_EEFdSB_EEC2B8ne180100EOSC_OSD_
FNL:14,280,288
FNA:14,0,_ZNKSt3__110__function6__funcIZN7pyfolio11performance17aggregate_returnsERKNS2_10TimeSeriesIdEENS2_9FrequencyEE3$_0NS_9allocatorIS9_EEFdRKNS_6vectorIdNSA_IdEEEEEE7__cloneEv
FNA:14,0,_ZNKSt3__110__function6__funcIZNK7pyfolio10TimeSeriesIdE8resampleENS2_9FrequencyEEUlRKNS_6vectorIdNS_9allocatorIdEEEEE_NS7_ISC_EEFdSB_EE7__cloneEv
FNL:15,291,293
FNA:15,0,_ZNKSt3__110__function6__funcIZN7pyfolio11performance17aggregate_returnsERKNS2_10TimeSeriesIdEENS2_9FrequencyEE3$_0NS_9allocatorIS9_EEFdRKNS_6vectorIdNSA_IdEEEEEE7__cloneEPNS0_6__baseISH_EE
FNA:15,0,_ZNKSt3__110__function6__funcIZNK7pyfolio10TimeSeriesIdE8resampleENS2_9FrequencyEEUlRKNS_6vectorIdNS_9allocatorIdEEEEE_NS7_ISC_EEFdSB_EE7__cloneEPNS0_6__baseISE_EE
FNL:16,296,298
FNA:16,0,_ZNSt3__110__function6__funcIZN7pyfolio11performance17aggregate_returnsERKNS2_10TimeSeriesIdEENS2_9FrequencyEE3$_0NS_9allocatorIS9_EEFdRKNS_6vectorIdNSA_IdEEEEEE7destroyEv
FNA:16,1,_ZNSt3__110__function6__funcIZNK7pyfolio10TimeSeriesIdE8resampleENS2_9FrequencyEEUlRKNS_6vectorIdNS_9allocatorIdEEEEE_NS7_ISC_EEFdSB_EE7destroyEv
FNL:17,301,307
FNA:17,0,_ZNSt3__110__function6__funcIZN7pyfolio11performance17aggregate_returnsERKNS2_10TimeSeriesIdEENS2_9FrequencyEE3$_0NS_9allocatorIS9_EEFdRKNS_6vectorIdNSA_IdEEEEEE18destroy_deallocateEv
FNA:17,0,_ZNSt3__110__function6__funcIZNK7pyfolio10TimeSeriesIdE8resampleENS2_9FrequencyEEUlRKNS_6vectorIdNS_9allocatorIdEEEEE_NS7_ISC_EEFdSB_EE18destroy_deallocateEv
FNL:18,310,311
FNA:18,0,_ZNSt3__110__function6__funcIZN7pyfolio11performance17aggregate_returnsERKNS2_10TimeSeriesIdEENS2_9FrequencyEE3$_0NS_9allocatorIS9_EEFdRKNS_6vectorIdNSA_IdEEEEEEclESG_
FNA:18,5,_ZNSt3__110__function6__funcIZNK7pyfolio10TimeSeriesIdE8resampleENS2_9FrequencyEEUlRKNS_6vectorIdNS_9allocatorIdEEEEE_NS7_ISC_EEFdSB_EEclESB_
FNL:19,317,321
FNA:19,0,_ZNKSt3__110__function6__funcIZN7pyfolio11performance17aggregate_returnsERKNS2_10TimeSeriesIdEENS2_9FrequencyEE3$_0NS_9allocatorIS9_EEFdRKNS_6vectorIdNSA_IdEEEEEE6targetERKSt9type_info
FNA:19,0,_ZNKSt3__110__function6__funcIZNK7pyfolio10TimeSeriesIdE8resampleENS2_9FrequencyEEUlRKNS_6vectorIdNS_9allocatorIdEEEEE_NS7_ISC_EEFdSB_EE6targetERKSt9type_info
FNL:20,324,325
FNA:20,0,_ZNKSt3__110__function6__funcIZN7pyfolio11performance17aggregate_returnsERKNS2_10TimeSeriesIdEENS2_9FrequencyEE3$_0NS_9allocatorIS9_EEFdRKNS_6vectorIdNSA_IdEEEEEE11target_typeEv
FNA:20,0,_ZNKSt3__110__function6__funcIZNK7pyfolio10TimeSeriesIdE8resampleENS2_9FrequencyEEUlRKNS_6vectorIdNS_9allocatorIdEEEEE_NS7_ISC_EEFdSB_EE11target_typeEv
FNL:21,350,367
FNA:21,0,_ZNSt3__110__function12__value_funcIFdRKNS_6vectorIdNS_9allocatorIdEEEEEEC1B8ne180100IZN7pyfolio11performance17aggregate_returnsERKNSB_10TimeSeriesIdEENSB_9FrequencyEE3$_0NS3_ISI_EEEEOT_RKT0_
FNA:21,1,_ZNSt3__110__function12__value_funcIFdRKNS_6vectorIdNS_9allocatorIdEEEEEEC1B8ne180100IZNK7pyfolio10TimeSeriesIdE8resampleENSB_9FrequencyEEUlS7_E_NS3_ISF_EEEEOT_RKT0_
FNA:21,0,_ZNSt3__110__function12__value_funcIFdRKNS_6vectorIdNS_9allocatorIdEEEEEEC2B8ne180100IZN7pyfolio11performance17aggregate_returnsERKNSB_10TimeSeriesIdEENSB_9FrequencyEE3$_0NS3_ISI_EEEEOT_RKT0_
FNA:21,1,_ZNSt3__110__function12__value_funcIFdRKNS_6vectorIdNS_9allocatorIdEEEEEEC2B8ne180100IZNK7pyfolio10TimeSeriesIdE8resampleENSB_9FrequencyEEUlS7_E_NS3_ISF_EEEEOT_RKT0_
FNL:22,370,370
FNA:22,0,_ZNSt3__110__function12__value_funcIFdRKNS_6vectorIdNS_9allocatorIdEEEEEEC1B8ne180100IZN7pyfolio11performance17aggregate_returnsERKNSB_10TimeSeriesIdEENSB_9FrequencyEE3$_0Li0EEEOT_
FNA:22,1,_ZNSt3__110__function12__value_funcIFdRKNS_6vectorIdNS_9allocatorIdEEEEEEC1B8ne180100IZNK7pyfolio10TimeSeriesIdE8resampleENSB_9FrequencyEEUlS7_E_Li0EEEOT_
FNL:23,394,399
FNA:23,1,_ZNSt3__110__function12__value_funcIFdRKNS_6vectorIdNS_9allocatorIdEEEEEED1B8ne180100Ev
FNA:23,1,_ZNSt3__110__function12__value_funcIFdRKNS_6vectorIdNS_9allocatorIdEEEEEED2B8ne180100Ev
FNL:24,425,428
FNA:24,5,_ZNKSt3__110__function12__value_funcIFdRKNS_6vectorIdNS_9allocatorIdEEEEEEclB8ne180100ES7_
FNL:25,61,61
FNA:25,0,_ZNSt3__117bad_function_callC1B8ne180100Ev
FNA:25,0,_ZNSt3__117bad_function_callC2B8ne180100Ev
FNL:26,70,70
FNA:26,0,_ZNSt3__117bad_function_callD0Ev
FNA:26,0,_ZNSt3__117bad_function_callD1Ev
FNA:26,0,_ZNSt3__117bad_function_callD2Ev
FNL:27,79,81
FNA:27,0,_ZNSt3__125__throw_bad_function_callB8ne180100Ev
FNL:28,938,938
FNA:28,0,_ZNSt3__18functionIFdRKNS_6vectorIdNS_9allocatorIdEEEEEEC1IZN7pyfolio11performance17aggregate_returnsERKNSA_10TimeSeriesIdEENSA_9FrequencyEE3$_0vEET_
FNA:28,1,_ZNSt3__18functionIFdRKNS_6vectorIdNS_9allocatorIdEEEEEEC1IZNK7pyfolio10TimeSeriesIdE8resampleENSA_9FrequencyEEUlS6_E_vEET_
FNA:28,0,_ZNSt3__18functionIFdRKNS_6vectorIdNS_9allocatorIdEEEEEEC2IZN7pyfolio11performance17aggregate_returnsERKNSA_10TimeSeriesIdEENSA_9FrequencyEE3$_0vEET_
FNA:28,1,_ZNSt3__18functionIFdRKNS_6vectorIdNS_9allocatorIdEEEEEEC2IZNK7pyfolio10TimeSeriesIdE8resampleENSA_9FrequencyEEUlS6_E_vEET_
FNL:29,972,972
FNA:29,1,_ZNSt3__18functionIFdRKNS_6vectorIdNS_9allocatorIdEEEEEED1Ev
FNA:29,1,_ZNSt3__18functionIFdRKNS_6vectorIdNS_9allocatorIdEEEEEED2Ev
FNL:30,980,981
FNA:30,5,_ZNKSt3__18functionIFdRKNS_6vectorIdNS_9allocatorIdEEEEEEclES6_
FNF:31
FNH:15
DA:61,0
DA:70,0
DA:79,0
DA:81,0
DA:105,1
DA:106,1
DA:150,0
DA:153,0
DA:158,0
DA:159,0
DA:161,0
DA:162,0
DA:164,2
DA:165,2
DA:167,5
DA:169,5
DA:182,1
DA:237,1
DA:238,0
DA:262,0
DA:264,0
DA:266,2
DA:280,0
DA:283,0
DA:285,0
DA:286,0
DA:287,0
DA:288,0
DA:291,0
DA:292,0
DA:293,0
DA:296,1
DA:297,1
DA:298,1
DA:301,0
DA:304,0
DA:305,0
DA:306,0
DA:307,0
DA:310,5
DA:311,5
DA:317,0
DA:318,0
DA:319,0
DA:320,0
DA:321,0
DA:324,0
DA:325,0
DA:350,2
DA:355,1
DA:356,1
DA:359,1
DA:366,1
DA:367,2
DA:370,1
DA:394,2
DA:395,1
DA:396,1
DA:397,0
DA:398,0
DA:399,2
DA:425,5
DA:426,5
DA:427,0
DA:428,5
DA:938,2
DA:972,2
DA:980,5
DA:981,5
LF:69
LH:32
end_of_record
TN:
SF:/Library/Developer/CommandLineTools/SDKs/MacOSX.sdk/usr/include/c++/v1/__functional/identity.h
FNL:0,29,30
FNA:0,6,_ZNKSt3__110__identityclB8ne180100IRKN7pyfolio8DateTimeEEEOT_S7_
FNA:0,20,_ZNKSt3__110__identityclB8ne180100IRdEEOT_S4_
FNF:1
FNH:1
DA:29,26
DA:30,26
LF:2
LH:2
end_of_record
TN:
SF:/Library/Developer/CommandLineTools/SDKs/MacOSX.sdk/usr/include/c++/v1/__functional/operations.h
FNL:0,357,358
FNA:0,16,_ZNKSt3__14lessIN7pyfolio8DateTimeEEclB8ne180100ERKS2_S5_
FNA:0,720,_ZNKSt3__14lessINS_12basic_stringIcNS_11char_traitsIcEENS_9allocatorIcEEEEEclB8ne180100ERKS6_S9_
FNA:0,134,_ZNKSt3__14lessINS_6chrono14year_month_dayEEclB8ne180100ERKS2_S5_
FNF:1
FNH:1
DA:357,870
DA:358,870
LF:2
LH:2
end_of_record
TN:
SF:/Library/Developer/CommandLineTools/SDKs/MacOSX.sdk/usr/include/c++/v1/__iterator/advance.h
FNL:0,46,53
FNA:0,0,_ZNSt3__19__advanceB8ne180100INS_21__tree_const_iteratorINS_12__value_typeINS_12basic_stringIcNS_11char_traitsIcEENS_9allocatorIcEEEEdEEPNS_11__tree_nodeIS9_PvEElEEEEvRT_NS_15iterator_traitsISF_E15difference_typeENS_26bidirectional_iterator_tagE
FNL:1,57,59
FNA:1,6,_ZNSt3__19__advanceB8ne180100INS_11__wrap_iterIPKN7pyfolio8DateTimeEEEEEvRT_NS_15iterator_traitsIS7_E15difference_typeENS_26random_access_iterator_tagE
FNA:1,0,_ZNSt3__19__advanceB8ne180100INS_16reverse_iteratorIPNS_6threadEEEEEvRT_NS_15iterator_traitsIS5_E15difference_typeENS_26random_access_iterator_tagE
FNA:1,0,_ZNSt3__19__advanceB8ne180100IPKN7pyfolio8DateTimeEEEvRT_NS_15iterator_traitsIS5_E15difference_typeENS_26random_access_iterator_tagE
FNA:1,0,_ZNSt3__19__advanceB8ne180100IPKNS_3mapINS_12basic_stringIcNS_11char_traitsIcEENS_9allocatorIcEEEEdNS_4lessIS7_EENS5_INS_4pairIKS7_dEEEEEEEEvRT_NS_15iterator_traitsISH_E15difference_typeENS_26random_access_iterator_tagE
FNA:1,0,_ZNSt3__19__advanceB8ne180100IPKdEEvRT_NS_15iterator_traitsIS3_E15difference_typeENS_26random_access_iterator_tagE
FNA:1,0,_ZNSt3__19__advanceB8ne180100IPN7pyfolio8DateTimeEEEvRT_NS_15iterator_traitsIS4_E15difference_typeENS_26random_access_iterator_tagE
FNA:1,0,_ZNSt3__19__advanceB8ne180100IPNS_3mapINS_12basic_stringIcNS_11char_traitsIcEENS_9allocatorIcEEEEdNS_4lessIS7_EENS5_INS_4pairIKS7_dEEEEEEEEvRT_NS_15iterator_traitsISG_E15difference_typeENS_26random_access_iterator_tagE
FNA:1,15,_ZNSt3__19__advanceB8ne180100IPNS_6threadEEEvRT_NS_15iterator_traitsIS3_E15difference_typeENS_26random_access_iterator_tagE
FNL:2,65,72
FNA:2,6,_ZNSt3__17advanceB8ne180100INS_11__wrap_iterIPKN7pyfolio8DateTimeEEEllvEEvRT_T0_
FNA:2,0,_ZNSt3__17advanceB8ne180100INS_16reverse_iteratorIPNS_6threadEEEllvEEvRT_T0_
FNA:2,0,_ZNSt3__17advanceB8ne180100INS_21__tree_const_iteratorINS_12__value_typeINS_12basic_stringIcNS_11char_traitsIcEENS_9allocatorIcEEEEdEEPNS_11__tree_nodeIS9_PvEElEEllvEEvRT_T0_
FNA:2,0,_ZNSt3__17advanceB8ne180100IPKN7pyfolio8DateTimeEllvEEvRT_T0_
FNA:2,0,_ZNSt3__17advanceB8ne180100IPKNS_3mapINS_12basic_stringIcNS_11char_traitsIcEENS_9allocatorIcEEEEdNS_4lessIS7_EENS5_INS_4pairIKS7_dEEEEEEllvEEvRT_T0_
FNA:2,0,_ZNSt3__17advanceB8ne180100IPKdllvEEvRT_T0_
FNA:2,0,_ZNSt3__17advanceB8ne180100IPN7pyfolio8DateTimeEllvEEvRT_T0_
FNA:2,0,_ZNSt3__17advanceB8ne180100IPNS_3mapINS_12basic_stringIcNS_11char_traitsIcEENS_9allocatorIcEEEEdNS_4lessIS7_EENS5_INS_4pairIKS7_dEEEEEEllvEEvRT_T0_
FNA:2,15,_ZNSt3__17advanceB8ne180100IPNS_6threadEllvEEvRT_T0_
FNF:3
FNH:2
DA:46,0
DA:47,0
DA:48,0
DA:49,0
DA:51,0
DA:52,0
DA:53,0
DA:57,21
DA:58,21
DA:59,21
DA:65,21
DA:67,21
DA:71,21
DA:72,21
LF:14
LH:7
end_of_record
TN:
SF:/Library/Developer/CommandLineTools/SDKs/MacOSX.sdk/usr/include/c++/v1/__iterator/distance.h
FNL:0,40,41
FNA:0,5,_ZNSt3__110__distanceB8ne180100INS_11__wrap_iterIPKN7pyfolio8DateTimeEEEEENS_15iterator_traitsIT_E15difference_typeES8_S8_NS_26random_access_iterator_tagE
FNA:0,4,_ZNSt3__110__distanceB8ne180100INS_11__wrap_iterIPKdEEEENS_15iterator_traitsIT_E15difference_typeES6_S6_NS_26random_access_iterator_tagE
FNA:0,47,_ZNSt3__110__distanceB8ne180100IPKN7pyfolio8DateTimeEEENS_15iterator_traitsIT_E15difference_typeES6_S6_NS_26random_access_iterator_tagE
FNA:0,18,_ZNSt3__110__distanceB8ne180100IPKNS_3mapINS_12basic_stringIcNS_11char_traitsIcEENS_9allocatorIcEEEEdNS_4lessIS7_EENS5_INS_4pairIKS7_dEEEEEEEENS_15iterator_traitsIT_E15difference_typeESI_SI_NS_26random_access_iterator_tagE
FNA:0,82,_ZNSt3__110__distanceB8ne180100IPKdEENS_15iterator_traitsIT_E15difference_typeES4_S4_NS_26random_access_iterator_tagE
FNA:0,18,_ZNSt3__110__distanceB8ne180100IPN7pyfolio8DateTimeEEENS_15iterator_traitsIT_E15difference_typeES5_S5_NS_26random_access_iterator_tagE
FNL:1,46,47
FNA:1,5,_ZNSt3__18distanceB8ne180100INS_11__wrap_iterIPKN7pyfolio8DateTimeEEEEENS_15iterator_traitsIT_E15difference_typeES8_S8_
FNA:1,4,_ZNSt3__18distanceB8ne180100INS_11__wrap_iterIPKdEEEENS_15iterator_traitsIT_E15difference_typeES6_S6_
FNA:1,47,_ZNSt3__18distanceB8ne180100IPKN7pyfolio8DateTimeEEENS_15iterator_traitsIT_E15difference_typeES6_S6_
FNA:1,18,_ZNSt3__18distanceB8ne180100IPKNS_3mapINS_12basic_stringIcNS_11char_traitsIcEENS_9allocatorIcEEEEdNS_4lessIS7_EENS5_INS_4pairIKS7_dEEEEEEEENS_15iterator_traitsIT_E15difference_typeESI_SI_
FNA:1,82,_ZNSt3__18distanceB8ne180100IPKdEENS_15iterator_traitsIT_E15difference_typeES4_S4_
FNA:1,18,_ZNSt3__18distanceB8ne180100IPN7pyfolio8DateTimeEEENS_15iterator_traitsIT_E15difference_typeES5_S5_
FNF:2
FNH:2
DA:40,174
DA:41,174
DA:46,174
DA:47,174
LF:4
LH:4
end_of_record
TN:
SF:/Library/Developer/CommandLineTools/SDKs/MacOSX.sdk/usr/include/c++/v1/__iterator/next.h
FNL:0,29,36
FNA:0,3,_ZNSt3__14nextB8ne180100INS_11__wrap_iterIPKN7pyfolio8DateTimeEEELi0EEET_S7_NS_15iterator_traitsIS7_E15difference_typeE
FNA:0,0,_ZNSt3__14nextB8ne180100INS_21__tree_const_iteratorINS_12__value_typeINS_12basic_stringIcNS_11char_traitsIcEENS_9allocatorIcEEEEdEEPNS_11__tree_nodeIS9_PvEElEELi0EEET_SF_NS_15iterator_traitsISF_E15difference_typeE
FNA:0,0,_ZNSt3__14nextB8ne180100IPKN7pyfolio8DateTimeELi0EEET_S5_NS_15iterator_traitsIS5_E15difference_typeE
FNA:0,0,_ZNSt3__14nextB8ne180100IPKNS_3mapINS_12basic_stringIcNS_11char_traitsIcEENS_9allocatorIcEEEEdNS_4lessIS7_EENS5_INS_4pairIKS7_dEEEEEELi0EEET_SH_NS_15iterator_traitsISH_E15difference_typeE
FNA:0,0,_ZNSt3__14nextB8ne180100IPKdLi0EEET_S3_NS_15iterator_traitsIS3_E15difference_typeE
FNA:0,0,_ZNSt3__14nextB8ne180100IPN7pyfolio8DateTimeELi0EEET_S4_NS_15iterator_traitsIS4_E15difference_typeE
FNF:1
FNH:1
DA:29,3
DA:35,3
DA:36,3
LF:3
LH:3
end_of_record
TN:
SF:/Library/Developer/CommandLineTools/SDKs/MacOSX.sdk/usr/include/c++/v1/__iterator/ostreambuf_iterator.h
FNL:0,53,53
FNA:0,60,_ZNSt3__119ostreambuf_iteratorIcNS_11char_traitsIcEEEC1B8ne180100ERNS_13basic_ostreamIcS2_EE
FNA:0,60,_ZNSt3__119ostreambuf_iteratorIcNS_11char_traitsIcEEEC2B8ne180100ERNS_13basic_ostreamIcS2_EE
FNL:1,63,63
FNA:1,60,_ZNKSt3__119ostreambuf_iteratorIcNS_11char_traitsIcEEE6failedB8ne180100Ev
FNF:2
FNH:2
DA:53,120
DA:63,60
LF:2
LH:2
end_of_record
TN:
SF:/Library/Developer/CommandLineTools/SDKs/MacOSX.sdk/usr/include/c++/v1/__iterator/prev.h
FNL:0,29,35
FNA:0,0,_ZNSt3__14prevB8ne180100INS_16reverse_iteratorIPNS_6threadEEELi0EEET_S5_NS_15iterator_traitsIS5_E15difference_typeE
FNA:0,0,_ZNSt3__14prevB8ne180100IPNS_3mapINS_12basic_stringIcNS_11char_traitsIcEENS_9allocatorIcEEEEdNS_4lessIS7_EENS5_INS_4pairIKS7_dEEEEEELi0EEET_SG_NS_15iterator_traitsISG_E15difference_typeE
FNA:0,15,_ZNSt3__14prevB8ne180100IPNS_6threadELi0EEET_S3_NS_15iterator_traitsIS3_E15difference_typeE
FNF:1
FNH:1
DA:29,15
DA:34,15
DA:35,15
LF:3
LH:3
end_of_record
TN:
SF:/Library/Developer/CommandLineTools/SDKs/MacOSX.sdk/usr/include/c++/v1/__iterator/reverse_iterator.h
FNL:0,129,129
FNA:0,0,_ZNKSt3__116reverse_iteratorINS0_IPNS_6threadEEEE4baseB8ne180100Ev
FNA:0,0,_ZNKSt3__116reverse_iteratorIPN7pyfolio11performance12DrawdownInfoEE4baseB8ne180100Ev
FNA:0,367,_ZNKSt3__116reverse_iteratorIPN7pyfolio8DateTimeEE4baseB8ne180100Ev
FNA:0,0,_ZNKSt3__116reverse_iteratorIPNS_3mapINS_12basic_stringIcNS_11char_traitsIcEENS_9allocatorIcEEEEdNS_4lessIS7_EENS5_INS_4pairIKS7_dEEEEEEE4baseB8ne180100Ev
FNA:0,45,_ZNKSt3__116reverse_iteratorIPNS_6threadEE4baseB8ne180100Ev
FNA:0,568,_ZNKSt3__116reverse_iteratorIPdE4baseB8ne180100Ev
FNA:0,0,_ZNKSt3__116reverse_iteratorIPiE4baseB8ne180100Ev
FNL:1,130,132
FNA:1,0,_ZNKSt3__116reverse_iteratorIPN7pyfolio11performance12DrawdownInfoEEdeB8ne180100Ev
FNA:1,40,_ZNKSt3__116reverse_iteratorIPN7pyfolio8DateTimeEEdeB8ne180100Ev
FNA:1,15,_ZNKSt3__116reverse_iteratorIPNS_6threadEEdeB8ne180100Ev
FNA:1,142,_ZNKSt3__116reverse_iteratorIPdEdeB8ne180100Ev
FNA:1,0,_ZNKSt3__116reverse_iteratorIPiEdeB8ne180100Ev
FNL:2,136,142
FNA:2,0,_ZNKSt3__116reverse_iteratorINS0_IPNS_6threadEEEEptB8ne180100Ev
FNA:2,0,_ZNKSt3__116reverse_iteratorIPNS_3mapINS_12basic_stringIcNS_11char_traitsIcEENS_9allocatorIcEEEEdNS_4lessIS7_EENS5_INS_4pairIKS7_dEEEEEEEptB8ne180100Ev
FNA:2,15,_ZNKSt3__116reverse_iteratorIPNS_6threadEEptB8ne180100Ev
FNL:3,149,151
FNA:3,0,_ZNSt3__116reverse_iteratorINS0_IPNS_6threadEEEEppB8ne180100Ev
FNA:3,0,_ZNSt3__116reverse_iteratorIPN7pyfolio11performance12DrawdownInfoEEppB8ne180100Ev
FNA:3,40,_ZNSt3__116reverse_iteratorIPN7pyfolio8DateTimeEEppB8ne180100Ev
FNA:3,0,_ZNSt3__116reverse_iteratorIPNS_3mapINS_12basic_stringIcNS_11char_traitsIcEENS_9allocatorIcEEEEdNS_4lessIS7_EENS5_INS_4pairIKS7_dEEEEEEEppB8ne180100Ev
FNA:3,30,_ZNSt3__116reverse_iteratorIPNS_6threadEEppB8ne180100Ev
FNA:3,142,_ZNSt3__116reverse_iteratorIPdEppB8ne180100Ev
FNA:3,0,_ZNSt3__116reverse_iteratorIPiEppB8ne180100Ev
FNL:4,158,160
FNA:4,0,_ZNSt3__116reverse_iteratorIPNS_6threadEEmmB8ne180100Ev
FNL:5,170,172
FNA:5,0,_ZNSt3__116reverse_iteratorIPNS_6threadEEpLB8ne180100El
FNL:6,231,238
FNA:6,0,_ZNSt3__1neB8ne180100INS_16reverse_iteratorIPNS_6threadEEES4_EEbRKNS1_IT_EERKNS1_IT0_EE
FNA:6,0,_ZNSt3__1neB8ne180100IPN7pyfolio11performance12DrawdownInfoES4_EEbRKNS_16reverse_iteratorIT_EERKNS5_IT0_EE
FNA:6,129,_ZNSt3__1neB8ne180100IPN7pyfolio8DateTimeES3_EEbRKNS_16reverse_iteratorIT_EERKNS4_IT0_EE
FNA:6,0,_ZNSt3__1neB8ne180100IPNS_3mapINS_12basic_stringIcNS_11char_traitsIcEENS_9allocatorIcEEEEdNS_4lessIS7_EENS5_INS_4pairIKS7_dEEEEEESF_EEbRKNS_16reverse_iteratorIT_EERKNSG_IT0_EE
FNA:6,20,_ZNSt3__1neB8ne180100IPNS_6threadES2_EEbRKNS_16reverse_iteratorIT_EERKNS3_IT0_EE
FNA:6,213,_ZNSt3__1neB8ne180100IPdS1_EEbRKNS_16reverse_iteratorIT_EERKNS2_IT0_EE
FNA:6,0,_ZNSt3__1neB8ne180100IPiS1_EEbRKNS_16reverse_iteratorIT_EERKNS2_IT0_EE
FNL:7,97,97
FNA:7,0,_ZNSt3__116reverse_iteratorINS0_IPNS_6threadEEEEC1B8ne180100ES3_
FNA:7,0,_ZNSt3__116reverse_iteratorINS0_IPNS_6threadEEEEC2B8ne180100ES3_
FNA:7,0,_ZNSt3__116reverse_iteratorIPN7pyfolio11performance12DrawdownInfoEEC1B8ne180100ES4_
FNA:7,0,_ZNSt3__116reverse_iteratorIPN7pyfolio11performance12DrawdownInfoEEC2B8ne180100ES4_
FNA:7,327,_ZNSt3__116reverse_iteratorIPN7pyfolio8DateTimeEEC1B8ne180100ES3_
FNA:7,327,_ZNSt3__116reverse_iteratorIPN7pyfolio8DateTimeEEC2B8ne180100ES3_
FNA:7,0,_ZNSt3__116reverse_iteratorIPNS_3mapINS_12basic_stringIcNS_11char_traitsIcEENS_9allocatorIcEEEEdNS_4lessIS7_EENS5_INS_4pairIKS7_dEEEEEEEC1B8ne180100ESF_
FNA:7,0,_ZNSt3__116reverse_iteratorIPNS_3mapINS_12basic_stringIcNS_11char_traitsIcEENS_9allocatorIcEEEEdNS_4lessIS7_EENS5_INS_4pairIKS7_dEEEEEEEC2B8ne180100ESF_
FNA:7,15,_ZNSt3__116reverse_iteratorIPNS_6threadEEC1B8ne180100ES2_
FNA:7,15,_ZNSt3__116reverse_iteratorIPNS_6threadEEC2B8ne180100ES2_
FNA:7,426,_ZNSt3__116reverse_iteratorIPdEC1B8ne180100ES1_
FNA:7,426,_ZNSt3__116reverse_iteratorIPdEC2B8ne180100ES1_
FNA:7,0,_ZNSt3__116reverse_iteratorIPiEC1B8ne180100ES1_
FNA:7,0,_ZNSt3__116reverse_iteratorIPiEC2B8ne180100ES1_
FNF:8
FNH:6
DA:97,1536
DA:129,980
DA:130,197
DA:131,197
DA:132,197
DA:136,15
DA:140,15
DA:142,0
DA:149,212
DA:150,212
DA:151,212
DA:158,0
DA:159,0
DA:160,0
DA:170,0
DA:171,0
DA:172,0
DA:231,362
DA:238,362
LF:19
LH:12
end_of_record
TN:
SF:/Library/Developer/CommandLineTools/SDKs/MacOSX.sdk/usr/include/c++/v1/__iterator/wrap_iter.h
FNL:0,108,109
FNA:0,0,_ZNSt3__1eqB8ne180100IPKN7pyfolio11performance12DrawdownInfoEEEbRKNS_11__wrap_iterIT_EESA_
FNA:0,1,_ZNSt3__1eqB8ne180100IPKN7pyfolio8DateTimeEEEbRKNS_11__wrap_iterIT_EES9_
FNA:0,654,_ZNSt3__1eqB8ne180100IPKdEEbRKNS_11__wrap_iterIT_EES7_
FNA:0,11,_ZNSt3__1eqB8ne180100IPNS_6threadEEEbRKNS_11__wrap_iterIT_EES7_
FNA:0,185,_ZNSt3__1eqB8ne180100IPdEEbRKNS_11__wrap_iterIT_EES6_
FNA:0,0,_ZNSt3__1eqB8ne180100IPiEEbRKNS_11__wrap_iterIT_EES6_
FNA:0,1720,_ZNSt3__1eqB8ne180100IPmEEbRKNS_11__wrap_iterIT_EES6_
FNL:1,132,133
FNA:1,0,_ZNSt3__1neB8ne180100IPKN7pyfolio11performance12DrawdownInfoEEEbRKNS_11__wrap_iterIT_EESA_
FNA:1,654,_ZNSt3__1neB8ne180100IPKdEEbRKNS_11__wrap_iterIT_EES7_
FNA:1,11,_ZNSt3__1neB8ne180100IPNS_6threadEEEbRKNS_11__wrap_iterIT_EES7_
FNA:1,180,_ZNSt3__1neB8ne180100IPdEEbRKNS_11__wrap_iterIT_EES6_
FNA:1,0,_ZNSt3__1neB8ne180100IPiEEbRKNS_11__wrap_iterIT_EES6_
FNA:1,1720,_ZNSt3__1neB8ne180100IPmEEbRKNS_11__wrap_iterIT_EES6_
FNL:2,182,189
FNA:2,5,_ZNSt3__1miB8ne180100IPKN7pyfolio8DateTimeES4_EEDTmicldtfp_4baseEcldtfp0_4baseEERKNS_11__wrap_iterIT_EERKNS6_IT0_EE
FNA:2,4,_ZNSt3__1miB8ne180100IPKdS2_EEDTmicldtfp_4baseEcldtfp0_4baseEERKNS_11__wrap_iterIT_EERKNS4_IT0_EE
FNL:3,210,211
FNA:3,2,_ZNSt3__114pointer_traitsINS_11__wrap_iterIPKN7pyfolio8DateTimeEEEE10to_addressB8ne180100ES6_
FNA:3,8,_ZNSt3__114pointer_traitsINS_11__wrap_iterIPKdEEE10to_addressB8ne180100ES4_
FNA:3,16,_ZNSt3__114pointer_traitsINS_11__wrap_iterIPdEEE10to_addressB8ne180100ES3_
FNA:3,380,_ZNSt3__114pointer_traitsINS_11__wrap_iterIPmEEE10to_addressB8ne180100ES3_
FNL:4,48,48
FNA:4,0,_ZNKSt3__111__wrap_iterIPKN7pyfolio11performance12DrawdownInfoEEdeB8ne180100Ev
FNA:4,6,_ZNKSt3__111__wrap_iterIPKN7pyfolio8DateTimeEEdeB8ne180100Ev
FNA:4,573,_ZNKSt3__111__wrap_iterIPKdEdeB8ne180100Ev
FNA:4,10,_ZNKSt3__111__wrap_iterIPNS_6threadEEdeB8ne180100Ev
FNA:4,180,_ZNKSt3__111__wrap_iterIPdEdeB8ne180100Ev
FNA:4,0,_ZNKSt3__111__wrap_iterIPiEdeB8ne180100Ev
FNA:4,1530,_ZNKSt3__111__wrap_iterIPmEdeB8ne180100Ev
FNL:5,52,54
FNA:5,0,_ZNSt3__111__wrap_iterIPKN7pyfolio11performance12DrawdownInfoEEppB8ne180100Ev
FNA:5,3,_ZNSt3__111__wrap_iterIPKN7pyfolio8DateTimeEEppB8ne180100Ev
FNA:5,573,_ZNSt3__111__wrap_iterIPKdEppB8ne180100Ev
FNA:5,10,_ZNSt3__111__wrap_iterIPNS_6threadEEppB8ne180100Ev
FNA:5,166,_ZNSt3__111__wrap_iterIPdEppB8ne180100Ev
FNA:5,0,_ZNSt3__111__wrap_iterIPiEppB8ne180100Ev
FNA:5,1530,_ZNSt3__111__wrap_iterIPmEppB8ne180100Ev
FNL:6,71,74
FNA:6,2,_ZNKSt3__111__wrap_iterIPKN7pyfolio8DateTimeEEplB8ne180100El
FNA:6,2,_ZNKSt3__111__wrap_iterIPKdEplB8ne180100El
FNL:7,76,78
FNA:7,8,_ZNSt3__111__wrap_iterIPKN7pyfolio8DateTimeEEpLB8ne180100El
FNA:7,2,_ZNSt3__111__wrap_iterIPKdEpLB8ne180100El
FNL:8,91,91
FNA:8,0,_ZNKSt3__111__wrap_iterIPKN7pyfolio11performance12DrawdownInfoEE4baseB8ne180100Ev
FNA:8,14,_ZNKSt3__111__wrap_iterIPKN7pyfolio8DateTimeEE4baseB8ne180100Ev
FNA:8,1324,_ZNKSt3__111__wrap_iterIPKdE4baseB8ne180100Ev
FNA:8,22,_ZNKSt3__111__wrap_iterIPNS_6threadEE4baseB8ne180100Ev
FNA:8,386,_ZNKSt3__111__wrap_iterIPdE4baseB8ne180100Ev
FNA:8,0,_ZNKSt3__111__wrap_iterIPiE4baseB8ne180100Ev
FNA:8,3820,_ZNKSt3__111__wrap_iterIPmE4baseB8ne180100Ev
FNL:9,94,94
FNA:9,0,_ZNSt3__111__wrap_iterIPKN7pyfolio11performance12DrawdownInfoEEC1B8ne180100ES5_
FNA:9,0,_ZNSt3__111__wrap_iterIPKN7pyfolio11performance12DrawdownInfoEEC2B8ne180100ES5_
FNA:9,9,_ZNSt3__111__wrap_iterIPKN7pyfolio8DateTimeEEC1B8ne180100ES4_
FNA:9,9,_ZNSt3__111__wrap_iterIPKN7pyfolio8DateTimeEEC2B8ne180100ES4_
FNA:9,170,_ZNSt3__111__wrap_iterIPKdEC1B8ne180100ES2_
FNA:9,170,_ZNSt3__111__wrap_iterIPKdEC2B8ne180100ES2_
FNA:9,2,_ZNSt3__111__wrap_iterIPNS_6threadEEC1B8ne180100ES2_
FNA:9,2,_ZNSt3__111__wrap_iterIPNS_6threadEEC2B8ne180100ES2_
FNA:9,46,_ZNSt3__111__wrap_iterIPdEC1B8ne180100ES1_
FNA:9,46,_ZNSt3__111__wrap_iterIPdEC2B8ne180100ES1_
FNA:9,0,_ZNSt3__111__wrap_iterIPiEC1B8ne180100ES1_
FNA:9,0,_ZNSt3__111__wrap_iterIPiEC2B8ne180100ES1_
FNA:9,570,_ZNSt3__111__wrap_iterIPmEC1B8ne180100ES1_
FNA:9,570,_ZNSt3__111__wrap_iterIPmEC2B8ne180100ES1_
FNF:10
FNH:10
DA:48,2299
DA:52,2282
DA:53,2282
DA:54,2282
DA:71,4
DA:72,4
DA:73,4
DA:74,4
DA:76,10
DA:77,10
DA:78,10
DA:91,5566
DA:94,1594
DA:108,2571
DA:109,2571
DA:132,2565
DA:133,2565
DA:182,9
DA:189,9
DA:210,406
DA:211,406
LF:21
LH:21
end_of_record
TN:
SF:/Library/Developer/CommandLineTools/SDKs/MacOSX.sdk/usr/include/c++/v1/__locale
FNL:0,189
FNA:0,60,_ZNSt3__19use_facetB8ne180100INS_5ctypeIcEEEERKT_RKNS_6localeE
FNL:1,587
FNA:1,60,_ZNKSt3__15ctypeIcE5widenB8ne180100Ec
FNF:2
FNH:2
DA:189,60
DA:190,60
DA:587,60
LF:3
LH:3
end_of_record
TN:
SF:/Library/Developer/CommandLineTools/SDKs/MacOSX.sdk/usr/include/c++/v1/__math/roots.h
FNL:0,36,37
FNA:0,1,_ZNSt3__16__math4sqrtB8ne180100IiLi0EEEdT_
FNF:1
FNH:1
DA:36,1
DA:37,1
LF:2
LH:2
end_of_record
TN:
SF:/Library/Developer/CommandLineTools/SDKs/MacOSX.sdk/usr/include/c++/v1/__math/traits.h
FNL:0,49,50
FNA:0,18,_ZNSt3__16__math8isfiniteB8ne180100IdLi0EEEbT_
FNF:1
FNH:1
DA:49,18
DA:50,18
LF:2
LH:2
end_of_record
TN:
SF:/Library/Developer/CommandLineTools/SDKs/MacOSX.sdk/usr/include/c++/v1/__memory/allocate_at_least.h
FNL:0,54,55
FNA:0,0,_ZNSt3__119__allocate_at_leastB8ne180100INS_9allocatorIN7pyfolio11performance12DrawdownInfoEEEEENS_19__allocation_resultINS_16allocator_traitsIT_E7pointerEEERS8_m
FNA:0,284,_ZNSt3__119__allocate_at_leastB8ne180100INS_9allocatorIN7pyfolio8DateTimeEEEEENS_19__allocation_resultINS_16allocator_traitsIT_E7pointerEEERS7_m
FNA:0,18,_ZNSt3__119__allocate_at_leastB8ne180100INS_9allocatorINS_3mapINS_12basic_stringIcNS_11char_traitsIcEENS1_IcEEEEdNS_4lessIS7_EENS1_INS_4pairIKS7_dEEEEEEEEEENS_19__allocation_resultINS_16allocator_traitsIT_E7pointerEEERSI_m
FNA:0,5,_ZNSt3__119__allocate_at_leastB8ne180100INS_9allocatorINS_6threadEEEEENS_19__allocation_resultINS_16allocator_traitsIT_E7pointerEEERS6_m
FNA:0,363,_ZNSt3__119__allocate_at_leastB8ne180100INS_9allocatorIdEEEENS_19__allocation_resultINS_16allocator_traitsIT_E7pointerEEERS5_m
FNA:0,0,_ZNSt3__119__allocate_at_leastB8ne180100INS_9allocatorIiEEEENS_19__allocation_resultINS_16allocator_traitsIT_E7pointerEEERS5_m
FNA:0,95,_ZNSt3__119__allocate_at_leastB8ne180100INS_9allocatorImEEEENS_19__allocation_resultINS_16allocator_traitsIT_E7pointerEEERS5_m
FNF:1
FNH:1
DA:54,765
DA:55,765
LF:2
LH:2
end_of_record
TN:
SF:/Library/Developer/CommandLineTools/SDKs/MacOSX.sdk/usr/include/c++/v1/__memory/allocator.h
FNL:0,114,114
FNA:0,0,_ZNSt3__19allocatorIN7pyfolio11performance12DrawdownInfoEEC2B8ne180100Ev
FNA:0,245,_ZNSt3__19allocatorIN7pyfolio8DateTimeEEC2B8ne180100Ev
FNA:0,1,_ZNSt3__19allocatorINS_11__tree_nodeINS_12__value_typeIN7pyfolio8DateTimeENS_6vectorIdNS0_IdEEEEEEPvEEEC2B8ne180100Ev
FNA:0,180,_ZNSt3__19allocatorINS_11__tree_nodeINS_12__value_typeINS_12basic_stringIcNS_11char_traitsIcEENS0_IcEEEEdEEPvEEEC2B8ne180100Ev
FNA:0,6,_ZNSt3__19allocatorINS_11__tree_nodeINS_6chrono14year_month_dayEPvEEEC2B8ne180100Ev
FNA:0,18,_ZNSt3__19allocatorINS_3mapINS_12basic_stringIcNS_11char_traitsIcEENS0_IcEEEEdNS_4lessIS6_EENS0_INS_4pairIKS6_dEEEEEEEC2B8ne180100Ev
FNA:0,1,_ZNSt3__19allocatorINS_6threadEEC2B8ne180100Ev
FNA:0,0,_ZNSt3__19allocatorIZN7pyfolio11performance17aggregate_returnsERKNS1_10TimeSeriesIdEENS1_9FrequencyEE3$_0EC1B8ne180100Ev
FNA:0,0,_ZNSt3__19allocatorIZN7pyfolio11performance17aggregate_returnsERKNS1_10TimeSeriesIdEENS1_9FrequencyEE3$_0EC2B8ne180100Ev
FNA:0,1,_ZNSt3__19allocatorIZNK7pyfolio10TimeSeriesIdE8resampleENS1_9FrequencyEEUlRKNS_6vectorIdNS0_IdEEEEE_EC1B8ne180100Ev
FNA:0,1,_ZNSt3__19allocatorIZNK7pyfolio10TimeSeriesIdE8resampleENS1_9FrequencyEEUlRKNS_6vectorIdNS0_IdEEEEE_EC2B8ne180100Ev
FNA:0,1170,_ZNSt3__19allocatorIcEC1B8ne180100Ev
FNA:0,2795,_ZNSt3__19allocatorIcEC2B8ne180100Ev
FNA:0,281,_ZNSt3__19allocatorIdEC2B8ne180100Ev
FNA:0,0,_ZNSt3__19allocatorIiEC2B8ne180100Ev
FNA:0,95,_ZNSt3__19allocatorImEC2B8ne180100Ev
FNL:1,117,117
FNA:1,0,_ZNSt3__19allocatorINS_10__function6__funcIZN7pyfolio11performance17aggregate_returnsERKNS3_10TimeSeriesIdEENS3_9FrequencyEE3$_0NS0_ISA_EEFdRKNS_6vectorIdNS0_IdEEEEEEEEC1B8ne180100ISA_EERKNS0_IT_EE
FNA:1,0,_ZNSt3__19allocatorINS_10__function6__funcIZN7pyfolio11performance17aggregate_returnsERKNS3_10TimeSeriesIdEENS3_9FrequencyEE3$_0NS0_ISA_EEFdRKNS_6vectorIdNS0_IdEEEEEEEEC2B8ne180100ISA_EERKNS0_IT_EE
FNA:1,1,_ZNSt3__19allocatorINS_10__function6__funcIZNK7pyfolio10TimeSeriesIdE8resampleENS3_9FrequencyEEUlRKNS_6vectorIdNS0_IdEEEEE_NS0_ISC_EEFdSB_EEEEC1B8ne180100ISC_EERKNS0_IT_EE
FNA:1,1,_ZNSt3__19allocatorINS_10__function6__funcIZNK7pyfolio10TimeSeriesIdE8resampleENS3_9FrequencyEEUlRKNS_6vectorIdNS0_IdEEEEE_NS0_ISC_EEFdSB_EEEEC2B8ne180100ISC_EERKNS0_IT_EE
FNA:1,0,_ZNSt3__19allocatorIZN7pyfolio11performance17aggregate_returnsERKNS1_10TimeSeriesIdEENS1_9FrequencyEE3$_0EC1B8ne180100INS_10__function6__funcIS8_S9_FdRKNS_6vectorIdNS0_IdEEEEEEEEERKNS0_IT_EE
FNA:1,0,_ZNSt3__19allocatorIZN7pyfolio11performance17aggregate_returnsERKNS1_10TimeSeriesIdEENS1_9FrequencyEE3$_0EC2B8ne180100INS_10__function6__funcIS8_S9_FdRKNS_6vectorIdNS0_IdEEEEEEEEERKNS0_IT_EE
FNA:1,1,_ZNSt3__19allocatorIZNK7pyfolio10TimeSeriesIdE8resampleENS1_9FrequencyEEUlRKNS_6vectorIdNS0_IdEEEEE_EC1B8ne180100INS_10__function6__funcISA_SB_FdS9_EEEEERKNS0_IT_EE
FNA:1,1,_ZNSt3__19allocatorIZNK7pyfolio10TimeSeriesIdE8resampleENS1_9FrequencyEEUlRKNS_6vectorIdNS0_IdEEEEE_EC2B8ne180100INS_10__function6__funcISA_SB_FdS9_EEEEERKNS0_IT_EE
FNL:2,119,125
FNA:2,0,_ZNSt3__19allocatorIN7pyfolio11performance12DrawdownInfoEE8allocateB8ne180100Em
FNA:2,284,_ZNSt3__19allocatorIN7pyfolio8DateTimeEE8allocateB8ne180100Em
FNA:2,0,_ZNSt3__19allocatorINS_10__function6__funcIZN7pyfolio11performance17aggregate_returnsERKNS3_10TimeSeriesIdEENS3_9FrequencyEE3$_0NS0_ISA_EEFdRKNS_6vectorIdNS0_IdEEEEEEEE8allocateB8ne180100Em
FNA:2,0,_ZNSt3__19allocatorINS_10__function6__funcIZNK7pyfolio10TimeSeriesIdE8resampleENS3_9FrequencyEEUlRKNS_6vectorIdNS0_IdEEEEE_NS0_ISC_EEFdSB_EEEE8allocateB8ne180100Em
FNA:2,5,_ZNSt3__19allocatorINS_11__tree_nodeINS_12__value_typeIN7pyfolio8DateTimeENS_6vectorIdNS0_IdEEEEEEPvEEE8allocateB8ne180100Em
FNA:2,1080,_ZNSt3__19allocatorINS_11__tree_nodeINS_12__value_typeINS_12basic_stringIcNS_11char_traitsIcEENS0_IcEEEEdEEPvEEE8allocateB8ne180100Em
FNA:2,36,_ZNSt3__19allocatorINS_11__tree_nodeINS_6chrono14year_month_dayEPvEEE8allocateB8ne180100Em
FNA:2,18,_ZNSt3__19allocatorINS_3mapINS_12basic_stringIcNS_11char_traitsIcEENS0_IcEEEEdNS_4lessIS6_EENS0_INS_4pairIKS6_dEEEEEEE8allocateB8ne180100Em
FNA:2,5,_ZNSt3__19allocatorINS_6threadEE8allocateB8ne180100Em
FNA:2,0,_ZNSt3__19allocatorIcE8allocateB8ne180100Em
FNA:2,363,_ZNSt3__19allocatorIdE8allocateB8ne180100Em
FNA:2,0,_ZNSt3__19allocatorIiE8allocateB8ne180100Em
FNA:2,95,_ZNSt3__19allocatorImE8allocateB8ne180100Em
FNL:3,135,141
FNA:3,0,_ZNSt3__19allocatorIN7pyfolio11performance12DrawdownInfoEE10deallocateB8ne180100EPS3_m
FNA:3,284,_ZNSt3__19allocatorIN7pyfolio8DateTimeEE10deallocateB8ne180100EPS2_m
FNA:3,0,_ZNSt3__19allocatorINS_10__function6__funcIZN7pyfolio11performance17aggregate_returnsERKNS3_10TimeSeriesIdEENS3_9FrequencyEE3$_0NS0_ISA_EEFdRKNS_6vectorIdNS0_IdEEEEEEEE10deallocateB8ne180100EPSI_m
FNA:3,0,_ZNSt3__19allocatorINS_10__function6__funcIZNK7pyfolio10TimeSeriesIdE8resampleENS3_9FrequencyEEUlRKNS_6vectorIdNS0_IdEEEEE_NS0_ISC_EEFdSB_EEEE10deallocateB8ne180100EPSF_m
FNA:3,5,_ZNSt3__19allocatorINS_11__tree_nodeINS_12__value_typeIN7pyfolio8DateTimeENS_6vectorIdNS0_IdEEEEEEPvEEE10deallocateB8ne180100EPSA_m
FNA:3,1080,_ZNSt3__19allocatorINS_11__tree_nodeINS_12__value_typeINS_12basic_stringIcNS_11char_traitsIcEENS0_IcEEEEdEEPvEEE10deallocateB8ne180100EPSA_m
FNA:3,12,_ZNSt3__19allocatorINS_11__tree_nodeINS_6chrono14year_month_dayEPvEEE10deallocateB8ne180100EPS5_m
FNA:3,18,_ZNSt3__19allocatorINS_3mapINS_12basic_stringIcNS_11char_traitsIcEENS0_IcEEEEdNS_4lessIS6_EENS0_INS_4pairIKS6_dEEEEEEE10deallocateB8ne180100EPSD_m
FNA:3,5,_ZNSt3__19allocatorINS_6threadEE10deallocateB8ne180100EPS1_m
FNA:3,0,_ZNSt3__19allocatorIcE10deallocateB8ne180100EPcm
FNA:3,363,_ZNSt3__19allocatorIdE10deallocateB8ne180100EPdm
FNA:3,0,_ZNSt3__19allocatorIiE10deallocateB8ne180100EPim
FNA:3,95,_ZNSt3__19allocatorImE10deallocateB8ne180100EPmm
FNL:4,93,93
FNA:4,0,_ZNSt3__116__non_trivial_ifILb1ENS_9allocatorIN7pyfolio11performance12DrawdownInfoEEEEC2B8ne180100Ev
FNA:4,245,_ZNSt3__116__non_trivial_ifILb1ENS_9allocatorIN7pyfolio8DateTimeEEEEC2B8ne180100Ev
FNA:4,0,_ZNSt3__116__non_trivial_ifILb1ENS_9allocatorINS_10__function6__funcIZN7pyfolio11performance17aggregate_returnsERKNS4_10TimeSeriesIdEENS4_9FrequencyEE3$_0NS1_ISB_EEFdRKNS_6vectorIdNS1_IdEEEEEEEEEEC2B8ne180100Ev
FNA:4,1,_ZNSt3__116__non_trivial_ifILb1ENS_9allocatorINS_10__function6__funcIZNK7pyfolio10TimeSeriesIdE8resampleENS4_9FrequencyEEUlRKNS_6vectorIdNS1_IdEEEEE_NS1_ISD_EEFdSC_EEEEEEC2B8ne180100Ev
FNA:4,1,_ZNSt3__116__non_trivial_ifILb1ENS_9allocatorINS_11__tree_nodeINS_12__value_typeIN7pyfolio8DateTimeENS_6vectorIdNS1_IdEEEEEEPvEEEEEC2B8ne180100Ev
FNA:4,180,_ZNSt3__116__non_trivial_ifILb1ENS_9allocatorINS_11__tree_nodeINS_12__value_typeINS_12basic_stringIcNS_11char_traitsIcEENS1_IcEEEEdEEPvEEEEEC2B8ne180100Ev
FNA:4,6,_ZNSt3__116__non_trivial_ifILb1ENS_9allocatorINS_11__tree_nodeINS_6chrono14year_month_dayEPvEEEEEC2B8ne180100Ev
FNA:4,18,_ZNSt3__116__non_trivial_ifILb1ENS_9allocatorINS_3mapINS_12basic_stringIcNS_11char_traitsIcEENS1_IcEEEEdNS_4lessIS7_EENS1_INS_4pairIKS7_dEEEEEEEEEC2B8ne180100Ev
FNA:4,1,_ZNSt3__116__non_trivial_ifILb1ENS_9allocatorINS_6threadEEEEC2B8ne180100Ev
FNA:4,0,_ZNSt3__116__non_trivial_ifILb1ENS_9allocatorIZN7pyfolio11performance17aggregate_returnsERKNS2_10TimeSeriesIdEENS2_9FrequencyEE3$_0EEEC2B8ne180100Ev
FNA:4,2,_ZNSt3__116__non_trivial_ifILb1ENS_9allocatorIZNK7pyfolio10TimeSeriesIdE8resampleENS2_9FrequencyEEUlRKNS_6vectorIdNS1_IdEEEEE_EEEC2B8ne180100Ev
FNA:4,2795,_ZNSt3__116__non_trivial_ifILb1ENS_9allocatorIcEEEC2B8ne180100Ev
FNA:4,281,_ZNSt3__116__non_trivial_ifILb1ENS_9allocatorIdEEEC2B8ne180100Ev
FNA:4,0,_ZNSt3__116__non_trivial_ifILb1ENS_9allocatorIiEEEC2B8ne180100Ev
FNA:4,95,_ZNSt3__116__non_trivial_ifILb1ENS_9allocatorImEEEC2B8ne180100Ev
FNF:5
FNH:5
DA:93,3625
DA:114,4794
DA:117,4
DA:119,1886
DA:120,1886
DA:121,0
DA:125,1886
DA:135,1862
DA:139,1862
DA:141,1862
LF:10
LH:9
end_of_record
TN:
SF:/Library/Developer/CommandLineTools/SDKs/MacOSX.sdk/usr/include/c++/v1/__memory/allocator_destructor.h
FNL:0,34,34
FNA:0,0,_ZNSt3__122__allocator_destructorINS_9allocatorINS_10__function6__funcIZN7pyfolio11performance17aggregate_returnsERKNS4_10TimeSeriesIdEENS4_9FrequencyEE3$_0NS1_ISB_EEFdRKNS_6vectorIdNS1_IdEEEEEEEEEEC1B8ne180100ERSK_m
FNA:0,0,_ZNSt3__122__allocator_destructorINS_9allocatorINS_10__function6__funcIZN7pyfolio11performance17aggregate_returnsERKNS4_10TimeSeriesIdEENS4_9FrequencyEE3$_0NS1_ISB_EEFdRKNS_6vectorIdNS1_IdEEEEEEEEEEC2B8ne180100ERSK_m
FNA:0,0,_ZNSt3__122__allocator_destructorINS_9allocatorINS_10__function6__funcIZNK7pyfolio10TimeSeriesIdE8resampleENS4_9FrequencyEEUlRKNS_6vectorIdNS1_IdEEEEE_NS1_ISD_EEFdSC_EEEEEEC1B8ne180100ERSH_m
FNA:0,0,_ZNSt3__122__allocator_destructorINS_9allocatorINS_10__function6__funcIZNK7pyfolio10TimeSeriesIdE8resampleENS4_9FrequencyEEUlRKNS_6vectorIdNS1_IdEEEEE_NS1_ISD_EEFdSC_EEEEEEC2B8ne180100ERSH_m
FNL:1,35,35
FNA:1,0,_ZNSt3__122__allocator_destructorINS_9allocatorINS_10__function6__funcIZN7pyfolio11performance17aggregate_returnsERKNS4_10TimeSeriesIdEENS4_9FrequencyEE3$_0NS1_ISB_EEFdRKNS_6vectorIdNS1_IdEEEEEEEEEEclB8ne180100EPSJ_
FNA:1,0,_ZNSt3__122__allocator_destructorINS_9allocatorINS_10__function6__funcIZNK7pyfolio10TimeSeriesIdE8resampleENS4_9FrequencyEEUlRKNS_6vectorIdNS1_IdEEEEE_NS1_ISD_EEFdSC_EEEEEEclB8ne180100EPSG_
FNF:2
FNH:0
DA:34,0
DA:35,0
LF:2
LH:0
end_of_record
TN:
SF:/Library/Developer/CommandLineTools/SDKs/MacOSX.sdk/usr/include/c++/v1/__memory/allocator_traits.h
FNL:0,268,269
FNA:0,5,_ZNSt3__116allocator_traitsINS_9allocatorINS_11__tree_nodeINS_12__value_typeIN7pyfolio8DateTimeENS_6vectorIdNS1_IdEEEEEEPvEEEEE8allocateB8ne180100ERSC_m
FNA:0,1080,_ZNSt3__116allocator_traitsINS_9allocatorINS_11__tree_nodeINS_12__value_typeINS_12basic_stringIcNS_11char_traitsIcEENS1_IcEEEEdEEPvEEEEE8allocateB8ne180100ERSC_m
FNA:0,36,_ZNSt3__116allocator_traitsINS_9allocatorINS_11__tree_nodeINS_6chrono14year_month_dayEPvEEEEE8allocateB8ne180100ERS7_m
FNA:0,0,_ZNSt3__116allocator_traitsINS_9allocatorIcEEE8allocateB8ne180100ERS2_m
FNL:1,288,290
FNA:1,0,_ZNSt3__116allocator_traitsINS_9allocatorIN7pyfolio11performance12DrawdownInfoEEEE10deallocateB8ne180100ERS5_PS4_m
FNA:1,284,_ZNSt3__116allocator_traitsINS_9allocatorIN7pyfolio8DateTimeEEEE10deallocateB8ne180100ERS4_PS3_m
FNA:1,0,_ZNSt3__116allocator_traitsINS_9allocatorINS_10__function6__funcIZN7pyfolio11performance17aggregate_returnsERKNS4_10TimeSeriesIdEENS4_9FrequencyEE3$_0NS1_ISB_EEFdRKNS_6vectorIdNS1_IdEEEEEEEEEE10deallocateB8ne180100ERSK_PSJ_m
FNA:1,0,_ZNSt3__116allocator_traitsINS_9allocatorINS_10__function6__funcIZNK7pyfolio10TimeSeriesIdE8resampleENS4_9FrequencyEEUlRKNS_6vectorIdNS1_IdEEEEE_NS1_ISD_EEFdSC_EEEEEE10deallocateB8ne180100ERSH_PSG_m
FNA:1,5,_ZNSt3__116allocator_traitsINS_9allocatorINS_11__tree_nodeINS_12__value_typeIN7pyfolio8DateTimeENS_6vectorIdNS1_IdEEEEEEPvEEEEE10deallocateB8ne180100ERSC_PSB_m
FNA:1,1080,_ZNSt3__116allocator_traitsINS_9allocatorINS_11__tree_nodeINS_12__value_typeINS_12basic_stringIcNS_11char_traitsIcEENS1_IcEEEEdEEPvEEEEE10deallocateB8ne180100ERSC_PSB_m
FNA:1,12,_ZNSt3__116allocator_traitsINS_9allocatorINS_11__tree_nodeINS_6chrono14year_month_dayEPvEEEEE10deallocateB8ne180100ERS7_PS6_m
FNA:1,18,_ZNSt3__116allocator_traitsINS_9allocatorINS_3mapINS_12basic_stringIcNS_11char_traitsIcEENS1_IcEEEEdNS_4lessIS7_EENS1_INS_4pairIKS7_dEEEEEEEEE10deallocateB8ne180100ERSF_PSE_m
FNA:1,5,_ZNSt3__116allocator_traitsINS_9allocatorINS_6threadEEEE10deallocateB8ne180100ERS3_PS2_m
FNA:1,0,_ZNSt3__116allocator_traitsINS_9allocatorIcEEE10deallocateB8ne180100ERS2_Pcm
FNA:1,363,_ZNSt3__116allocator_traitsINS_9allocatorIdEEE10deallocateB8ne180100ERS2_Pdm
FNA:1,0,_ZNSt3__116allocator_traitsINS_9allocatorIiEEE10deallocateB8ne180100ERS2_Pim
FNA:1,95,_ZNSt3__116allocator_traitsINS_9allocatorImEEE10deallocateB8ne180100ERS2_Pmm
FNL:2,304,306
FNA:2,0,_ZNSt3__116allocator_traitsINS_9allocatorIN7pyfolio11performance12DrawdownInfoEEEE9constructB8ne180100IS4_JRKS4_EvvEEvRS5_PT_DpOT0_
FNA:2,783,_ZNSt3__116allocator_traitsINS_9allocatorIN7pyfolio8DateTimeEEEE9constructB8ne180100IS3_JRKS3_EvvEEvRS4_PT_DpOT0_
FNA:2,5,_ZNSt3__116allocator_traitsINS_9allocatorINS_11__tree_nodeINS_12__value_typeIN7pyfolio8DateTimeENS_6vectorIdNS1_IdEEEEEEPvEEEEE9constructB8ne180100INS_4pairIKS5_S8_EEJRKNS_21piecewise_construct_tENS_5tupleIJRSG_EEENSL_IJEEEEvvEEvRSC_PT_DpOT0_
FNA:2,1080,_ZNSt3__116allocator_traitsINS_9allocatorINS_11__tree_nodeINS_12__value_typeINS_12basic_stringIcNS_11char_traitsIcEENS1_IcEEEEdEEPvEEEEE9constructB8ne180100INS_4pairIKS8_dEEJRKSH_EvvEEvRSC_PT_DpOT0_
FNA:2,0,_ZNSt3__116allocator_traitsINS_9allocatorINS_11__tree_nodeINS_6chrono14year_month_dayEPvEEEEE9constructB8ne180100IS4_JRKS4_EvvEEvRS7_PT_DpOT0_
FNA:2,36,_ZNSt3__116allocator_traitsINS_9allocatorINS_11__tree_nodeINS_6chrono14year_month_dayEPvEEEEE9constructB8ne180100IS4_JS4_EvvEEvRS7_PT_DpOT0_
FNA:2,180,_ZNSt3__116allocator_traitsINS_9allocatorINS_3mapINS_12basic_stringIcNS_11char_traitsIcEENS1_IcEEEEdNS_4lessIS7_EENS1_INS_4pairIKS7_dEEEEEEEEE9constructB8ne180100ISE_JRKSE_EvvEEvRSF_PT_DpOT0_
FNA:2,15,_ZNSt3__116allocator_traitsINS_9allocatorINS_6threadEEEE9constructB8ne180100IS2_JS2_EvvEEvRS3_PT_DpOT0_
FNA:2,10,_ZNSt3__116allocator_traitsINS_9allocatorINS_6threadEEEE9constructB8ne180100IS2_JZN36CoreTypesTest_BasicThreadSafety_Test8TestBodyEvE3$_0EvvEEvRS3_PT_DpOT0_
FNA:2,784,_ZNSt3__116allocator_traitsINS_9allocatorIdEEE9constructB8ne180100IdJRKdEvvEEvRS2_PT_DpOT0_
FNA:2,107,_ZNSt3__116allocator_traitsINS_9allocatorIdEEE9constructB8ne180100IdJdEvvEEvRS2_PT_DpOT0_
FNA:2,0,_ZNSt3__116allocator_traitsINS_9allocatorIiEEE9constructB8ne180100IiJRKiEvvEEvRS2_PT_DpOT0_
FNA:2,765,_ZNSt3__116allocator_traitsINS_9allocatorImEEE9constructB8ne180100ImJEvvEEvRS2_PT_DpOT0_
FNL:3,315,317
FNA:3,0,_ZNSt3__116allocator_traitsINS_9allocatorIN7pyfolio11performance12DrawdownInfoEEEE7destroyB8ne180100IS4_vvEEvRS5_PT_
FNA:3,2189,_ZNSt3__116allocator_traitsINS_9allocatorIN7pyfolio8DateTimeEEEE7destroyB8ne180100IS3_vvEEvRS4_PT_
FNA:3,5,_ZNSt3__116allocator_traitsINS_9allocatorINS_11__tree_nodeINS_12__value_typeIN7pyfolio8DateTimeENS_6vectorIdNS1_IdEEEEEEPvEEEEE7destroyB8ne180100INS_4pairIKS5_S8_EEvvEEvRSC_PT_
FNA:3,1080,_ZNSt3__116allocator_traitsINS_9allocatorINS_11__tree_nodeINS_12__value_typeINS_12basic_stringIcNS_11char_traitsIcEENS1_IcEEEEdEEPvEEEEE7destroyB8ne180100INS_4pairIKS8_dEEvvEEvRSC_PT_
FNA:3,12,_ZNSt3__116allocator_traitsINS_9allocatorINS_11__tree_nodeINS_6chrono14year_month_dayEPvEEEEE7destroyB8ne180100IS4_vvEEvRS7_PT_
FNA:3,180,_ZNSt3__116allocator_traitsINS_9allocatorINS_3mapINS_12basic_stringIcNS_11char_traitsIcEENS1_IcEEEEdNS_4lessIS7_EENS1_INS_4pairIKS7_dEEEEEEEEE7destroyB8ne180100ISE_vvEEvRSF_PT_
FNA:3,25,_ZNSt3__116allocator_traitsINS_9allocatorINS_6threadEEEE7destroyB8ne180100IS2_vvEEvRS3_PT_
FNA:3,2723,_ZNSt3__116allocator_traitsINS_9allocatorIdEEE7destroyB8ne180100IdvvEEvRS2_PT_
FNA:3,0,_ZNSt3__116allocator_traitsINS_9allocatorIiEEE7destroyB8ne180100IivvEEvRS2_PT_
FNA:3,765,_ZNSt3__116allocator_traitsINS_9allocatorImEEE7destroyB8ne180100ImvvEEvRS2_PT_
FNL:4,326,327
FNA:4,0,_ZNSt3__116allocator_traitsINS_9allocatorIN7pyfolio11performance12DrawdownInfoEEEE8max_sizeB8ne180100IS5_vvEEmRKS5_
FNA:4,633,_ZNSt3__116allocator_traitsINS_9allocatorIN7pyfolio8DateTimeEEEE8max_sizeB8ne180100IS4_vvEEmRKS4_
FNA:4,0,_ZNSt3__116allocator_traitsINS_9allocatorINS_10__function6__funcIZN7pyfolio11performance17aggregate_returnsERKNS4_10TimeSeriesIdEENS4_9FrequencyEE3$_0NS1_ISB_EEFdRKNS_6vectorIdNS1_IdEEEEEEEEEE8max_sizeB8ne180100ISK_vvEEmRKSK_
FNA:4,0,_ZNSt3__116allocator_traitsINS_9allocatorINS_10__function6__funcIZNK7pyfolio10TimeSeriesIdE8resampleENS4_9FrequencyEEUlRKNS_6vectorIdNS1_IdEEEEE_NS1_ISD_EEFdSC_EEEEEE8max_sizeB8ne180100ISH_vvEEmRKSH_
FNA:4,5,_ZNSt3__116allocator_traitsINS_9allocatorINS_11__tree_nodeINS_12__value_typeIN7pyfolio8DateTimeENS_6vectorIdNS1_IdEEEEEEPvEEEEE8max_sizeB8ne180100ISC_vvEEmRKSC_
FNA:4,1080,_ZNSt3__116allocator_traitsINS_9allocatorINS_11__tree_nodeINS_12__value_typeINS_12basic_stringIcNS_11char_traitsIcEENS1_IcEEEEdEEPvEEEEE8max_sizeB8ne180100ISC_vvEEmRKSC_
FNA:4,36,_ZNSt3__116allocator_traitsINS_9allocatorINS_11__tree_nodeINS_6chrono14year_month_dayEPvEEEEE8max_sizeB8ne180100IS7_vvEEmRKS7_
FNA:4,54,_ZNSt3__116allocator_traitsINS_9allocatorINS_3mapINS_12basic_stringIcNS_11char_traitsIcEENS1_IcEEEEdNS_4lessIS7_EENS1_INS_4pairIKS7_dEEEEEEEEE8max_sizeB8ne180100ISF_vvEEmRKSF_
FNA:4,10,_ZNSt3__116allocator_traitsINS_9allocatorINS_6threadEEEE8max_sizeB8ne180100IS3_vvEEmRKS3_
FNA:4,11,_ZNSt3__116allocator_traitsINS_9allocatorIcEEE8max_sizeB8ne180100IS2_vvEEmRKS2_
FNA:4,808,_ZNSt3__116allocator_traitsINS_9allocatorIdEEE8max_sizeB8ne180100IS2_vvEEmRKS2_
FNA:4,0,_ZNSt3__116allocator_traitsINS_9allocatorIiEEE8max_sizeB8ne180100IS2_vvEEmRKS2_
FNA:4,190,_ZNSt3__116allocator_traitsINS_9allocatorImEEE8max_sizeB8ne180100IS2_vvEEmRKS2_
FNL:5,339,340
FNA:5,103,_ZNSt3__116allocator_traitsINS_9allocatorIN7pyfolio8DateTimeEEEE37select_on_container_copy_constructionB8ne180100IS4_vvEES4_RKS4_
FNA:5,180,_ZNSt3__116allocator_traitsINS_9allocatorINS_11__tree_nodeINS_12__value_typeINS_12basic_stringIcNS_11char_traitsIcEENS1_IcEEEEdEEPvEEEEE37select_on_container_copy_constructionB8ne180100ISC_vvEESC_RKSC_
FNA:5,11,_ZNSt3__116allocator_traitsINS_9allocatorIcEEE37select_on_container_copy_constructionB8ne180100IS2_vvEES2_RKS2_
FNA:5,129,_ZNSt3__116allocator_traitsINS_9allocatorIdEEE37select_on_container_copy_constructionB8ne180100IS2_vvEES2_RKS2_
FNF:6
FNH:6
DA:268,1121
DA:269,1121
DA:288,1862
DA:289,1862
DA:290,1862
DA:304,3765
DA:305,3765
DA:306,3765
DA:315,6979
DA:316,6979
DA:317,6979
DA:326,2827
DA:327,2827
DA:339,423
DA:340,423
LF:15
LH:15
end_of_record
TN:
SF:/Library/Developer/CommandLineTools/SDKs/MacOSX.sdk/usr/include/c++/v1/__memory/compressed_pair.h
FNL:0,114,115
FNA:0,1,_ZNSt3__117__compressed_pairINS_15__tree_end_nodeIPNS_16__tree_node_baseIPvEEEENS_9allocatorINS_11__tree_nodeINS_12__value_typeIN7pyfolio8DateTimeENS_6vectorIdNS7_IdEEEEEES3_EEEEEC1B8ne180100ILb1EvEEv
FNA:0,1,_ZNSt3__117__compressed_pairINS_15__tree_end_nodeIPNS_16__tree_node_baseIPvEEEENS_9allocatorINS_11__tree_nodeINS_12__value_typeIN7pyfolio8DateTimeENS_6vectorIdNS7_IdEEEEEES3_EEEEEC2B8ne180100ILb1EvEEv
FNA:0,180,_ZNSt3__117__compressed_pairINS_15__tree_end_nodeIPNS_16__tree_node_baseIPvEEEENS_9allocatorINS_11__tree_nodeINS_12__value_typeINS_12basic_stringIcNS_11char_traitsIcEENS7_IcEEEEdEES3_EEEEEC1B8ne180100ILb1EvEEv
FNA:0,180,_ZNSt3__117__compressed_pairINS_15__tree_end_nodeIPNS_16__tree_node_baseIPvEEEENS_9allocatorINS_11__tree_nodeINS_12__value_typeINS_12basic_stringIcNS_11char_traitsIcEENS7_IcEEEEdEES3_EEEEEC2B8ne180100ILb1EvEEv
FNA:0,6,_ZNSt3__117__compressed_pairINS_15__tree_end_nodeIPNS_16__tree_node_baseIPvEEEENS_9allocatorINS_11__tree_nodeINS_6chrono14year_month_dayES3_EEEEEC1B8ne180100ILb1EvEEv
FNA:0,6,_ZNSt3__117__compressed_pairINS_15__tree_end_nodeIPNS_16__tree_node_baseIPvEEEENS_9allocatorINS_11__tree_nodeINS_6chrono14year_month_dayES3_EEEEEC2B8ne180100ILb1EvEEv
FNL:1,118,119
FNA:1,108,_ZNSt3__117__compressed_pairINS_12basic_stringIcNS_11char_traitsIcEENS_9allocatorIcEEE5__repES5_EC1B8ne180100INS_16__value_init_tagENS_18__default_init_tagEEEOT_OT0_
FNA:1,35,_ZNSt3__117__compressed_pairINS_12basic_stringIcNS_11char_traitsIcEENS_9allocatorIcEEE5__repES5_EC1B8ne180100INS_18__default_init_tagERKS5_EEOT_OT0_
FNA:1,1517,_ZNSt3__117__compressed_pairINS_12basic_stringIcNS_11char_traitsIcEENS_9allocatorIcEEE5__repES5_EC1B8ne180100INS_18__default_init_tagESA_EEOT_OT0_
FNA:1,108,_ZNSt3__117__compressed_pairINS_12basic_stringIcNS_11char_traitsIcEENS_9allocatorIcEEE5__repES5_EC2B8ne180100INS_16__value_init_tagENS_18__default_init_tagEEEOT_OT0_
FNA:1,35,_ZNSt3__117__compressed_pairINS_12basic_stringIcNS_11char_traitsIcEENS_9allocatorIcEEE5__repES5_EC2B8ne180100INS_18__default_init_tagERKS5_EEOT_OT0_
FNA:1,1517,_ZNSt3__117__compressed_pairINS_12basic_stringIcNS_11char_traitsIcEENS_9allocatorIcEEE5__repES5_EC2B8ne180100INS_18__default_init_tagESA_EEOT_OT0_
FNA:1,180,_ZNSt3__117__compressed_pairINS_15__tree_end_nodeIPNS_16__tree_node_baseIPvEEEENS_9allocatorINS_11__tree_nodeINS_12__value_typeINS_12basic_stringIcNS_11char_traitsIcEENS7_IcEEEEdEES3_EEEEEC1B8ne180100INS_18__default_init_tagESH_EEOT_OT0_
FNA:1,180,_ZNSt3__117__compressed_pairINS_15__tree_end_nodeIPNS_16__tree_node_baseIPvEEEENS_9allocatorINS_11__tree_nodeINS_12__value_typeINS_12basic_stringIcNS_11char_traitsIcEENS7_IcEEEEdEES3_EEEEEC2B8ne180100INS_18__default_init_tagESH_EEOT_OT0_
FNA:1,0,_ZNSt3__117__compressed_pairIPN7pyfolio11performance12DrawdownInfoENS_9allocatorIS3_EEEC1B8ne180100IDnNS_18__default_init_tagEEEOT_OT0_
FNA:1,0,_ZNSt3__117__compressed_pairIPN7pyfolio11performance12DrawdownInfoENS_9allocatorIS3_EEEC1B8ne180100IDnS6_EEOT_OT0_
FNA:1,0,_ZNSt3__117__compressed_pairIPN7pyfolio11performance12DrawdownInfoENS_9allocatorIS3_EEEC2B8ne180100IDnNS_18__default_init_tagEEEOT_OT0_
FNA:1,0,_ZNSt3__117__compressed_pairIPN7pyfolio11performance12DrawdownInfoENS_9allocatorIS3_EEEC2B8ne180100IDnS6_EEOT_OT0_
FNA:1,0,_ZNSt3__117__compressed_pairIPN7pyfolio11performance12DrawdownInfoERNS_9allocatorIS3_EEEC1B8ne180100IDnS7_EEOT_OT0_
FNA:1,0,_ZNSt3__117__compressed_pairIPN7pyfolio11performance12DrawdownInfoERNS_9allocatorIS3_EEEC2B8ne180100IDnS7_EEOT_OT0_
FNA:1,245,_ZNSt3__117__compressed_pairIPN7pyfolio8DateTimeENS_9allocatorIS2_EEEC1B8ne180100IDnNS_18__default_init_tagEEEOT_OT0_
FNA:1,122,_ZNSt3__117__compressed_pairIPN7pyfolio8DateTimeENS_9allocatorIS2_EEEC1B8ne180100IDnS5_EEOT_OT0_
FNA:1,245,_ZNSt3__117__compressed_pairIPN7pyfolio8DateTimeENS_9allocatorIS2_EEEC2B8ne180100IDnNS_18__default_init_tagEEEOT_OT0_
FNA:1,122,_ZNSt3__117__compressed_pairIPN7pyfolio8DateTimeENS_9allocatorIS2_EEEC2B8ne180100IDnS5_EEOT_OT0_
FNA:1,109,_ZNSt3__117__compressed_pairIPN7pyfolio8DateTimeERNS_9allocatorIS2_EEEC1B8ne180100IDnS6_EEOT_OT0_
FNA:1,109,_ZNSt3__117__compressed_pairIPN7pyfolio8DateTimeERNS_9allocatorIS2_EEEC2B8ne180100IDnS6_EEOT_OT0_
FNA:1,0,_ZNSt3__117__compressed_pairIPNS_10__function6__funcIZN7pyfolio11performance17aggregate_returnsERKNS3_10TimeSeriesIdEENS3_9FrequencyEE3$_0NS_9allocatorISA_EEFdRKNS_6vectorIdNSB_IdEEEEEEENS_22__allocator_destructorINSB_ISJ_EEEEEC1B8ne180100IRSK_SN_EEOT_OT0_
FNA:1,0,_ZNSt3__117__compressed_pairIPNS_10__function6__funcIZN7pyfolio11performance17aggregate_returnsERKNS3_10TimeSeriesIdEENS3_9FrequencyEE3$_0NS_9allocatorISA_EEFdRKNS_6vectorIdNSB_IdEEEEEEENS_22__allocator_destructorINSB_ISJ_EEEEEC2B8ne180100IRSK_SN_EEOT_OT0_
FNA:1,0,_ZNSt3__117__compressed_pairIPNS_10__function6__funcIZNK7pyfolio10TimeSeriesIdE8resampleENS3_9FrequencyEEUlRKNS_6vectorIdNS_9allocatorIdEEEEE_NS8_ISD_EEFdSC_EEENS_22__allocator_destructorINS8_ISG_EEEEEC1B8ne180100IRSH_SK_EEOT_OT0_
FNA:1,0,_ZNSt3__117__compressed_pairIPNS_10__function6__funcIZNK7pyfolio10TimeSeriesIdE8resampleENS3_9FrequencyEEUlRKNS_6vectorIdNS_9allocatorIdEEEEE_NS8_ISD_EEFdSC_EEENS_22__allocator_destructorINS8_ISG_EEEEEC2B8ne180100IRSH_SK_EEOT_OT0_
FNA:1,5,_ZNSt3__117__compressed_pairIPNS_11__tree_nodeINS_12__value_typeIN7pyfolio8DateTimeENS_6vectorIdNS_9allocatorIdEEEEEEPvEENS_22__tree_node_destructorINS6_ISB_EEEEEC1B8ne180100IRSC_SF_EEOT_OT0_
FNA:1,5,_ZNSt3__117__compressed_pairIPNS_11__tree_nodeINS_12__value_typeIN7pyfolio8DateTimeENS_6vectorIdNS_9allocatorIdEEEEEEPvEENS_22__tree_node_destructorINS6_ISB_EEEEEC2B8ne180100IRSC_SF_EEOT_OT0_
FNA:1,1080,_ZNSt3__117__compressed_pairIPNS_11__tree_nodeINS_12__value_typeINS_12basic_stringIcNS_11char_traitsIcEENS_9allocatorIcEEEEdEEPvEENS_22__tree_node_destructorINS6_ISB_EEEEEC1B8ne180100IRSC_SF_EEOT_OT0_
FNA:1,1080,_ZNSt3__117__compressed_pairIPNS_11__tree_nodeINS_12__value_typeINS_12basic_stringIcNS_11char_traitsIcEENS_9allocatorIcEEEEdEEPvEENS_22__tree_node_destructorINS6_ISB_EEEEEC2B8ne180100IRSC_SF_EEOT_OT0_
FNA:1,36,_ZNSt3__117__compressed_pairIPNS_11__tree_nodeINS_6chrono14year_month_dayEPvEENS_22__tree_node_destructorINS_9allocatorIS5_EEEEEC1B8ne180100IRS6_SA_EEOT_OT0_
FNA:1,36,_ZNSt3__117__compressed_pairIPNS_11__tree_nodeINS_6chrono14year_month_dayEPvEENS_22__tree_node_destructorINS_9allocatorIS5_EEEEEC2B8ne180100IRS6_SA_EEOT_OT0_
FNA:1,93,_ZNSt3__117__compressed_pairIPNS_12basic_stringIcNS_11char_traitsIcEENS_9allocatorIcEEEENS_14default_deleteIS6_EEEC1B8ne180100INS_16__value_init_tagESC_EEOT_OT0_
FNA:1,93,_ZNSt3__117__compressed_pairIPNS_12basic_stringIcNS_11char_traitsIcEENS_9allocatorIcEEEENS_14default_deleteIS6_EEEC2B8ne180100INS_16__value_init_tagESC_EEOT_OT0_
FNA:1,10,_ZNSt3__117__compressed_pairIPNS_15__thread_structENS_14default_deleteIS1_EEEC1B8ne180100IRS2_NS_16__value_init_tagEEEOT_OT0_
FNA:1,10,_ZNSt3__117__compressed_pairIPNS_15__thread_structENS_14default_deleteIS1_EEEC1B8ne180100IS2_S4_EEOT_OT0_
FNA:1,10,_ZNSt3__117__compressed_pairIPNS_15__thread_structENS_14default_deleteIS1_EEEC2B8ne180100IRS2_NS_16__value_init_tagEEEOT_OT0_
FNA:1,10,_ZNSt3__117__compressed_pairIPNS_15__thread_structENS_14default_deleteIS1_EEEC2B8ne180100IS2_S4_EEOT_OT0_
FNA:1,18,_ZNSt3__117__compressed_pairIPNS_3mapINS_12basic_stringIcNS_11char_traitsIcEENS_9allocatorIcEEEEdNS_4lessIS7_EENS5_INS_4pairIKS7_dEEEEEENS5_ISE_EEEC1B8ne180100IDnNS_18__default_init_tagEEEOT_OT0_
FNA:1,18,_ZNSt3__117__compressed_pairIPNS_3mapINS_12basic_stringIcNS_11char_traitsIcEENS_9allocatorIcEEEEdNS_4lessIS7_EENS5_INS_4pairIKS7_dEEEEEENS5_ISE_EEEC2B8ne180100IDnNS_18__default_init_tagEEEOT_OT0_
FNA:1,20,_ZNSt3__117__compressed_pairIPNS_5tupleIJNS_10unique_ptrINS_15__thread_structENS_14default_deleteIS3_EEEEZN36CoreTypesTest_BasicThreadSafety_Test8TestBodyEvE3$_0EEENS4_IS9_EEEC1B8ne180100IRSA_NS_16__value_init_tagEEEOT_OT0_
FNA:1,20,_ZNSt3__117__compressed_pairIPNS_5tupleIJNS_10unique_ptrINS_15__thread_structENS_14default_deleteIS3_EEEEZN36CoreTypesTest_BasicThreadSafety_Test8TestBodyEvE3$_0EEENS4_IS9_EEEC2B8ne180100IRSA_NS_16__value_init_tagEEEOT_OT0_
FNA:1,1,_ZNSt3__117__compressed_pairIPNS_6threadENS_9allocatorIS1_EEEC1B8ne180100IDnNS_18__default_init_tagEEEOT_OT0_
FNA:1,1,_ZNSt3__117__compressed_pairIPNS_6threadENS_9allocatorIS1_EEEC2B8ne180100IDnNS_18__default_init_tagEEEOT_OT0_
FNA:1,5,_ZNSt3__117__compressed_pairIPNS_6threadERNS_9allocatorIS1_EEEC1B8ne180100IDnS5_EEOT_OT0_
FNA:1,5,_ZNSt3__117__compressed_pairIPNS_6threadERNS_9allocatorIS1_EEEC2B8ne180100IDnS5_EEOT_OT0_
FNA:1,281,_ZNSt3__117__compressed_pairIPdNS_9allocatorIdEEEC1B8ne180100IDnNS_18__default_init_tagEEEOT_OT0_
FNA:1,148,_ZNSt3__117__compressed_pairIPdNS_9allocatorIdEEEC1B8ne180100IDnS3_EEOT_OT0_
FNA:1,281,_ZNSt3__117__compressed_pairIPdNS_9allocatorIdEEEC2B8ne180100IDnNS_18__default_init_tagEEEOT_OT0_
FNA:1,148,_ZNSt3__117__compressed_pairIPdNS_9allocatorIdEEEC2B8ne180100IDnS3_EEOT_OT0_
FNA:1,142,_ZNSt3__117__compressed_pairIPdRNS_9allocatorIdEEEC1B8ne180100IDnS4_EEOT_OT0_
FNA:1,142,_ZNSt3__117__compressed_pairIPdRNS_9allocatorIdEEEC2B8ne180100IDnS4_EEOT_OT0_
FNA:1,0,_ZNSt3__117__compressed_pairIPiNS_9allocatorIiEEEC1B8ne180100IDnNS_18__default_init_tagEEEOT_OT0_
FNA:1,0,_ZNSt3__117__compressed_pairIPiNS_9allocatorIiEEEC2B8ne180100IDnNS_18__default_init_tagEEEOT_OT0_
FNA:1,0,_ZNSt3__117__compressed_pairIPiRNS_9allocatorIiEEEC1B8ne180100IDnS4_EEOT_OT0_
FNA:1,0,_ZNSt3__117__compressed_pairIPiRNS_9allocatorIiEEEC2B8ne180100IDnS4_EEOT_OT0_
FNA:1,95,_ZNSt3__117__compressed_pairIPmNS_9allocatorImEEEC1B8ne180100IDnNS_18__default_init_tagEEEOT_OT0_
FNA:1,95,_ZNSt3__117__compressed_pairIPmNS_9allocatorImEEEC2B8ne180100IDnNS_18__default_init_tagEEEOT_OT0_
FNA:1,1,_ZNSt3__117__compressed_pairImNS_19__map_value_compareIN7pyfolio8DateTimeENS_12__value_typeIS3_NS_6vectorIdNS_9allocatorIdEEEEEENS_4lessIS3_EELb1EEEEC1B8ne180100IiRKSC_EEOT_OT0_
FNA:1,1,_ZNSt3__117__compressed_pairImNS_19__map_value_compareIN7pyfolio8DateTimeENS_12__value_typeIS3_NS_6vectorIdNS_9allocatorIdEEEEEENS_4lessIS3_EELb1EEEEC2B8ne180100IiRKSC_EEOT_OT0_
FNA:1,360,_ZNSt3__117__compressed_pairImNS_19__map_value_compareINS_12basic_stringIcNS_11char_traitsIcEENS_9allocatorIcEEEENS_12__value_typeIS7_dEENS_4lessIS7_EELb1EEEEC1B8ne180100IiRKSC_EEOT_OT0_
FNA:1,360,_ZNSt3__117__compressed_pairImNS_19__map_value_compareINS_12basic_stringIcNS_11char_traitsIcEENS_9allocatorIcEEEENS_12__value_typeIS7_dEENS_4lessIS7_EELb1EEEEC2B8ne180100IiRKSC_EEOT_OT0_
FNA:1,6,_ZNSt3__117__compressed_pairImNS_4lessINS_6chrono14year_month_dayEEEEC1B8ne180100IiRKS4_EEOT_OT0_
FNA:1,6,_ZNSt3__117__compressed_pairImNS_4lessINS_6chrono14year_month_dayEEEEC2B8ne180100IiRKS4_EEOT_OT0_
FNL:2,123,126
FNA:2,0,_ZNSt3__117__compressed_pairIZN7pyfolio11performance17aggregate_returnsERKNS1_10TimeSeriesIdEENS1_9FrequencyEE3$_0NS_9allocatorIS8_EEEC1B8ne180100IJOS8_EJOSA_EEENS_21piecewise_construct_tENS_5tupleIJDpT_EEENSG_IJDpT0_EEE
FNA:2,0,_ZNSt3__117__compressed_pairIZN7pyfolio11performance17aggregate_returnsERKNS1_10TimeSeriesIdEENS1_9FrequencyEE3$_0NS_9allocatorIS8_EEEC1B8ne180100IJRKS8_EJOSA_EEENS_21piecewise_construct_tENS_5tupleIJDpT_EEENSH_IJDpT0_EEE
FNA:2,0,_ZNSt3__117__compressed_pairIZN7pyfolio11performance17aggregate_returnsERKNS1_10TimeSeriesIdEENS1_9FrequencyEE3$_0NS_9allocatorIS8_EEEC1B8ne180100IJRKS8_EJRKSA_EEENS_21piecewise_construct_tENS_5tupleIJDpT_EEENSI_IJDpT0_EEE
FNA:2,0,_ZNSt3__117__compressed_pairIZN7pyfolio11performance17aggregate_returnsERKNS1_10TimeSeriesIdEENS1_9FrequencyEE3$_0NS_9allocatorIS8_EEEC2B8ne180100IJOS8_EJOSA_EEENS_21piecewise_construct_tENS_5tupleIJDpT_EEENSG_IJDpT0_EEE
FNA:2,0,_ZNSt3__117__compressed_pairIZN7pyfolio11performance17aggregate_returnsERKNS1_10TimeSeriesIdEENS1_9FrequencyEE3$_0NS_9allocatorIS8_EEEC2B8ne180100IJRKS8_EJOSA_EEENS_21piecewise_construct_tENS_5tupleIJDpT_EEENSH_IJDpT0_EEE
FNA:2,0,_ZNSt3__117__compressed_pairIZN7pyfolio11performance17aggregate_returnsERKNS1_10TimeSeriesIdEENS1_9FrequencyEE3$_0NS_9allocatorIS8_EEEC2B8ne180100IJRKS8_EJRKSA_EEENS_21piecewise_construct_tENS_5tupleIJDpT_EEENSI_IJDpT0_EEE
FNA:2,1,_ZNSt3__117__compressed_pairIZNK7pyfolio10TimeSeriesIdE8resampleENS1_9FrequencyEEUlRKNS_6vectorIdNS_9allocatorIdEEEEE_NS6_ISB_EEEC1B8ne180100IJOSB_EJOSC_EEENS_21piecewise_construct_tENS_5tupleIJDpT_EEENSI_IJDpT0_EEE
FNA:2,0,_ZNSt3__117__compressed_pairIZNK7pyfolio10TimeSeriesIdE8resampleENS1_9FrequencyEEUlRKNS_6vectorIdNS_9allocatorIdEEEEE_NS6_ISB_EEEC1B8ne180100IJRKSB_EJOSC_EEENS_21piecewise_construct_tENS_5tupleIJDpT_EEENSJ_IJDpT0_EEE
FNA:2,0,_ZNSt3__117__compressed_pairIZNK7pyfolio10TimeSeriesIdE8resampleENS1_9FrequencyEEUlRKNS_6vectorIdNS_9allocatorIdEEEEE_NS6_ISB_EEEC1B8ne180100IJRKSB_EJRKSC_EEENS_21piecewise_construct_tENS_5tupleIJDpT_EEENSK_IJDpT0_EEE
FNA:2,1,_ZNSt3__117__compressed_pairIZNK7pyfolio10TimeSeriesIdE8resampleENS1_9FrequencyEEUlRKNS_6vectorIdNS_9allocatorIdEEEEE_NS6_ISB_EEEC2B8ne180100IJOSB_EJOSC_EEENS_21piecewise_construct_tENS_5tupleIJDpT_EEENSI_IJDpT0_EEE
FNA:2,0,_ZNSt3__117__compressed_pairIZNK7pyfolio10TimeSeriesIdE8resampleENS1_9FrequencyEEUlRKNS_6vectorIdNS_9allocatorIdEEEEE_NS6_ISB_EEEC2B8ne180100IJRKSB_EJOSC_EEENS_21piecewise_construct_tENS_5tupleIJDpT_EEENSJ_IJDpT0_EEE
FNA:2,0,_ZNSt3__117__compressed_pairIZNK7pyfolio10TimeSeriesIdE8resampleENS1_9FrequencyEEUlRKNS_6vectorIdNS_9allocatorIdEEEEE_NS6_ISB_EEEC2B8ne180100IJRKSB_EJRKSC_EEENS_21piecewise_construct_tENS_5tupleIJDpT_EEENSK_IJDpT0_EEE
FNL:3,129,130
FNA:3,460,_ZNSt3__117__compressed_pairINS_12basic_stringIcNS_11char_traitsIcEENS_9allocatorIcEEE5__repES5_E5firstB8ne180100Ev
FNA:3,8,_ZNSt3__117__compressed_pairINS_15__tree_end_nodeIPNS_16__tree_node_baseIPvEEEENS_9allocatorINS_11__tree_nodeINS_12__value_typeIN7pyfolio8DateTimeENS_6vectorIdNS7_IdEEEEEES3_EEEEE5firstB8ne180100Ev
FNA:3,2520,_ZNSt3__117__compressed_pairINS_15__tree_end_nodeIPNS_16__tree_node_baseIPvEEEENS_9allocatorINS_11__tree_nodeINS_12__value_typeINS_12basic_stringIcNS_11char_traitsIcEENS7_IcEEEEdEES3_EEEEE5firstB8ne180100Ev
FNA:3,48,_ZNSt3__117__compressed_pairINS_15__tree_end_nodeIPNS_16__tree_node_baseIPvEEEENS_9allocatorINS_11__tree_nodeINS_6chrono14year_month_dayES3_EEEEE5firstB8ne180100Ev
FNA:3,0,_ZNSt3__117__compressed_pairIPN7pyfolio11performance12DrawdownInfoENS_9allocatorIS3_EEE5firstB8ne180100Ev
FNA:3,0,_ZNSt3__117__compressed_pairIPN7pyfolio11performance12DrawdownInfoERNS_9allocatorIS3_EEE5firstB8ne180100Ev
FNA:3,1714,_ZNSt3__117__compressed_pairIPN7pyfolio8DateTimeENS_9allocatorIS2_EEE5firstB8ne180100Ev
FNA:3,218,_ZNSt3__117__compressed_pairIPN7pyfolio8DateTimeERNS_9allocatorIS2_EEE5firstB8ne180100Ev
FNA:3,0,_ZNSt3__117__compressed_pairIPNS_10__function6__funcIZN7pyfolio11performance17aggregate_returnsERKNS3_10TimeSeriesIdEENS3_9FrequencyEE3$_0NS_9allocatorISA_EEFdRKNS_6vectorIdNSB_IdEEEEEEENS_22__allocator_destructorINSB_ISJ_EEEEE5firstB8ne180100Ev
FNA:3,0,_ZNSt3__117__compressed_pairIPNS_10__function6__funcIZNK7pyfolio10TimeSeriesIdE8resampleENS3_9FrequencyEEUlRKNS_6vectorIdNS_9allocatorIdEEEEE_NS8_ISD_EEFdSC_EEENS_22__allocator_destructorINS8_ISG_EEEEE5firstB8ne180100Ev
FNA:3,20,_ZNSt3__117__compressed_pairIPNS_11__tree_nodeINS_12__value_typeIN7pyfolio8DateTimeENS_6vectorIdNS_9allocatorIdEEEEEEPvEENS_22__tree_node_destructorINS6_ISB_EEEEE5firstB8ne180100Ev
FNA:3,4320,_ZNSt3__117__compressed_pairIPNS_11__tree_nodeINS_12__value_typeINS_12basic_stringIcNS_11char_traitsIcEENS_9allocatorIcEEEEdEEPvEENS_22__tree_node_destructorINS6_ISB_EEEEE5firstB8ne180100Ev
FNA:3,144,_ZNSt3__117__compressed_pairIPNS_11__tree_nodeINS_6chrono14year_month_dayEPvEENS_22__tree_node_destructorINS_9allocatorIS5_EEEEE5firstB8ne180100Ev
FNA:3,466,_ZNSt3__117__compressed_pairIPNS_12basic_stringIcNS_11char_traitsIcEENS_9allocatorIcEEEENS_14default_deleteIS6_EEE5firstB8ne180100Ev
FNA:3,80,_ZNSt3__117__compressed_pairIPNS_15__thread_structENS_14default_deleteIS1_EEE5firstB8ne180100Ev
FNA:3,154,_ZNSt3__117__compressed_pairIPNS_18basic_stringstreamIcNS_11char_traitsIcEENS_9allocatorIcEEEENS_14default_deleteIS6_EEE5firstB8ne180100Ev
FNA:3,18,_ZNSt3__117__compressed_pairIPNS_3mapINS_12basic_stringIcNS_11char_traitsIcEENS_9allocatorIcEEEEdNS_4lessIS7_EENS5_INS_4pairIKS7_dEEEEEENS5_ISE_EEE5firstB8ne180100Ev
FNA:3,60,_ZNSt3__117__compressed_pairIPNS_5tupleIJNS_10unique_ptrINS_15__thread_structENS_14default_deleteIS3_EEEEZN36CoreTypesTest_BasicThreadSafety_Test8TestBodyEvE3$_0EEENS4_IS9_EEE5firstB8ne180100Ev
FNA:3,15,_ZNSt3__117__compressed_pairIPNS_6threadENS_9allocatorIS1_EEE5firstB8ne180100Ev
FNA:3,10,_ZNSt3__117__compressed_pairIPNS_6threadERNS_9allocatorIS1_EEE5firstB8ne180100Ev
FNA:3,1891,_ZNSt3__117__compressed_pairIPdNS_9allocatorIdEEE5firstB8ne180100Ev
FNA:3,284,_ZNSt3__117__compressed_pairIPdRNS_9allocatorIdEEE5firstB8ne180100Ev
FNA:3,0,_ZNSt3__117__compressed_pairIPiNS_9allocatorIiEEE5firstB8ne180100Ev
FNA:3,0,_ZNSt3__117__compressed_pairIPiRNS_9allocatorIiEEE5firstB8ne180100Ev
FNA:3,95,_ZNSt3__117__compressed_pairIPmNS_9allocatorImEEE5firstB8ne180100Ev
FNA:3,0,_ZNSt3__117__compressed_pairIZN7pyfolio11performance17aggregate_returnsERKNS1_10TimeSeriesIdEENS1_9FrequencyEE3$_0NS_9allocatorIS8_EEE5firstB8ne180100Ev
FNA:3,5,_ZNSt3__117__compressed_pairIZNK7pyfolio10TimeSeriesIdE8resampleENS1_9FrequencyEEUlRKNS_6vectorIdNS_9allocatorIdEEEEE_NS6_ISB_EEE5firstB8ne180100Ev
FNA:3,5,_ZNSt3__117__compressed_pairImNS_19__map_value_compareIN7pyfolio8DateTimeENS_12__value_typeIS3_NS_6vectorIdNS_9allocatorIdEEEEEENS_4lessIS3_EELb1EEEE5firstB8ne180100Ev
FNA:3,1080,_ZNSt3__117__compressed_pairImNS_19__map_value_compareINS_12basic_stringIcNS_11char_traitsIcEENS_9allocatorIcEEEENS_12__value_typeIS7_dEENS_4lessIS7_EELb1EEEE5firstB8ne180100Ev
FNA:3,36,_ZNSt3__117__compressed_pairImNS_4lessINS_6chrono14year_month_dayEEEE5firstB8ne180100Ev
FNL:4,133,134
FNA:4,9093,_ZNKSt3__117__compressed_pairINS_12basic_stringIcNS_11char_traitsIcEENS_9allocatorIcEEE5__repES5_E5firstB8ne180100Ev
FNA:4,11,_ZNKSt3__117__compressed_pairINS_15__tree_end_nodeIPNS_16__tree_node_baseIPvEEEENS_9allocatorINS_11__tree_nodeINS_12__value_typeIN7pyfolio8DateTimeENS_6vectorIdNS7_IdEEEEEES3_EEEEE5firstB8ne180100Ev
FNA:4,900,_ZNKSt3__117__compressed_pairINS_15__tree_end_nodeIPNS_16__tree_node_baseIPvEEEENS_9allocatorINS_11__tree_nodeINS_12__value_typeINS_12basic_stringIcNS_11char_traitsIcEENS7_IcEEEEdEES3_EEEEE5firstB8ne180100Ev
FNA:4,113,_ZNKSt3__117__compressed_pairINS_15__tree_end_nodeIPNS_16__tree_node_baseIPvEEEENS_9allocatorINS_11__tree_nodeINS_6chrono14year_month_dayES3_EEEEE5firstB8ne180100Ev
FNA:4,0,_ZNKSt3__117__compressed_pairIPN7pyfolio11performance12DrawdownInfoENS_9allocatorIS3_EEE5firstB8ne180100Ev
FNA:4,0,_ZNKSt3__117__compressed_pairIPN7pyfolio11performance12DrawdownInfoERNS_9allocatorIS3_EEE5firstB8ne180100Ev
FNA:4,513,_ZNKSt3__117__compressed_pairIPN7pyfolio8DateTimeENS_9allocatorIS2_EEE5firstB8ne180100Ev
FNA:4,10,_ZNKSt3__117__compressed_pairIPN7pyfolio8DateTimeERNS_9allocatorIS2_EEE5firstB8ne180100Ev
FNA:4,0,_ZNKSt3__117__compressed_pairIPNS_10__function6__funcIZN7pyfolio11performance17aggregate_returnsERKNS3_10TimeSeriesIdEENS3_9FrequencyEE3$_0NS_9allocatorISA_EEFdRKNS_6vectorIdNSB_IdEEEEEEENS_22__allocator_destructorINSB_ISJ_EEEEE5firstB8ne180100Ev
FNA:4,0,_ZNKSt3__117__compressed_pairIPNS_10__function6__funcIZNK7pyfolio10TimeSeriesIdE8resampleENS3_9FrequencyEEUlRKNS_6vectorIdNS_9allocatorIdEEEEE_NS8_ISD_EEFdSC_EEENS_22__allocator_destructorINS8_ISG_EEEEE5firstB8ne180100Ev
FNA:4,10,_ZNKSt3__117__compressed_pairIPNS_11__tree_nodeINS_12__value_typeIN7pyfolio8DateTimeENS_6vectorIdNS_9allocatorIdEEEEEEPvEENS_22__tree_node_destructorINS6_ISB_EEEEE5firstB8ne180100Ev
FNA:4,2160,_ZNKSt3__117__compressed_pairIPNS_11__tree_nodeINS_12__value_typeINS_12basic_stringIcNS_11char_traitsIcEENS_9allocatorIcEEEEdEEPvEENS_22__tree_node_destructorINS6_ISB_EEEEE5firstB8ne180100Ev
FNA:4,72,_ZNKSt3__117__compressed_pairIPNS_11__tree_nodeINS_6chrono14year_month_dayEPvEENS_22__tree_node_destructorINS_9allocatorIS5_EEEEE5firstB8ne180100Ev
FNA:4,150,_ZNKSt3__117__compressed_pairIPNS_12basic_stringIcNS_11char_traitsIcEENS_9allocatorIcEEEENS_14default_deleteIS6_EEE5firstB8ne180100Ev
FNA:4,60,_ZNKSt3__117__compressed_pairIPNS_18basic_stringstreamIcNS_11char_traitsIcEENS_9allocatorIcEEEENS_14default_deleteIS6_EEE5firstB8ne180100Ev
FNA:4,54,_ZNKSt3__117__compressed_pairIPNS_3mapINS_12basic_stringIcNS_11char_traitsIcEENS_9allocatorIcEEEEdNS_4lessIS7_EENS5_INS_4pairIKS7_dEEEEEENS5_ISE_EEE5firstB8ne180100Ev
FNA:4,30,_ZNKSt3__117__compressed_pairIPNS_5tupleIJNS_10unique_ptrINS_15__thread_structENS_14default_deleteIS3_EEEEZN36CoreTypesTest_BasicThreadSafety_Test8TestBodyEvE3$_0EEENS4_IS9_EEE5firstB8ne180100Ev
FNA:4,6,_ZNKSt3__117__compressed_pairIPNS_6threadENS_9allocatorIS1_EEE5firstB8ne180100Ev
FNA:4,4,_ZNKSt3__117__compressed_pairIPNS_6threadERNS_9allocatorIS1_EEE5firstB8ne180100Ev
FNA:4,642,_ZNKSt3__117__compressed_pairIPdNS_9allocatorIdEEE5firstB8ne180100Ev
FNA:4,27,_ZNKSt3__117__compressed_pairIPdRNS_9allocatorIdEEE5firstB8ne180100Ev
FNA:4,0,_ZNKSt3__117__compressed_pairIPiNS_9allocatorIiEEE5firstB8ne180100Ev
FNA:4,0,_ZNKSt3__117__compressed_pairIPiRNS_9allocatorIiEEE5firstB8ne180100Ev
FNA:4,95,_ZNKSt3__117__compressed_pairIPmNS_9allocatorImEEE5firstB8ne180100Ev
FNA:4,0,_ZNKSt3__117__compressed_pairIZN7pyfolio11performance17aggregate_returnsERKNS1_10TimeSeriesIdEENS1_9FrequencyEE3$_0NS_9allocatorIS8_EEE5firstB8ne180100Ev
FNA:4,0,_ZNKSt3__117__compressed_pairIZNK7pyfolio10TimeSeriesIdE8resampleENS1_9FrequencyEEUlRKNS_6vectorIdNS_9allocatorIdEEEEE_NS6_ISB_EEE5firstB8ne180100Ev
FNL:5,137,138
FNA:5,140,_ZNSt3__117__compressed_pairINS_12basic_stringIcNS_11char_traitsIcEENS_9allocatorIcEEE5__repES5_E6secondB8ne180100Ev
FNA:5,10,_ZNSt3__117__compressed_pairINS_15__tree_end_nodeIPNS_16__tree_node_baseIPvEEEENS_9allocatorINS_11__tree_nodeINS_12__value_typeIN7pyfolio8DateTimeENS_6vectorIdNS7_IdEEEEEES3_EEEEE6secondB8ne180100Ev
FNA:5,2160,_ZNSt3__117__compressed_pairINS_15__tree_end_nodeIPNS_16__tree_node_baseIPvEEEENS_9allocatorINS_11__tree_nodeINS_12__value_typeINS_12basic_stringIcNS_11char_traitsIcEENS7_IcEEEEdEES3_EEEEE6secondB8ne180100Ev
FNA:5,48,_ZNSt3__117__compressed_pairINS_15__tree_end_nodeIPNS_16__tree_node_baseIPvEEEENS_9allocatorINS_11__tree_nodeINS_6chrono14year_month_dayES3_EEEEE6secondB8ne180100Ev
FNA:5,0,_ZNSt3__117__compressed_pairIPN7pyfolio11performance12DrawdownInfoENS_9allocatorIS3_EEE6secondB8ne180100Ev
FNA:5,0,_ZNSt3__117__compressed_pairIPN7pyfolio11performance12DrawdownInfoERNS_9allocatorIS3_EEE6secondB8ne180100Ev
FNA:5,4129,_ZNSt3__117__compressed_pairIPN7pyfolio8DateTimeENS_9allocatorIS2_EEE6secondB8ne180100Ev
FNA:5,139,_ZNSt3__117__compressed_pairIPN7pyfolio8DateTimeERNS_9allocatorIS2_EEE6secondB8ne180100Ev
FNA:5,0,_ZNSt3__117__compressed_pairIPNS_10__function6__funcIZN7pyfolio11performance17aggregate_returnsERKNS3_10TimeSeriesIdEENS3_9FrequencyEE3$_0NS_9allocatorISA_EEFdRKNS_6vectorIdNSB_IdEEEEEEENS_22__allocator_destructorINSB_ISJ_EEEEE6secondB8ne180100Ev
FNA:5,0,_ZNSt3__117__compressed_pairIPNS_10__function6__funcIZNK7pyfolio10TimeSeriesIdE8resampleENS3_9FrequencyEEUlRKNS_6vectorIdNS_9allocatorIdEEEEE_NS8_ISD_EEFdSC_EEENS_22__allocator_destructorINS8_ISG_EEEEE6secondB8ne180100Ev
FNA:5,5,_ZNSt3__117__compressed_pairIPNS_11__tree_nodeINS_12__value_typeIN7pyfolio8DateTimeENS_6vectorIdNS_9allocatorIdEEEEEEPvEENS_22__tree_node_destructorINS6_ISB_EEEEE6secondB8ne180100Ev
FNA:5,1080,_ZNSt3__117__compressed_pairIPNS_11__tree_nodeINS_12__value_typeINS_12basic_stringIcNS_11char_traitsIcEENS_9allocatorIcEEEEdEEPvEENS_22__tree_node_destructorINS6_ISB_EEEEE6secondB8ne180100Ev
FNA:5,36,_ZNSt3__117__compressed_pairIPNS_11__tree_nodeINS_6chrono14year_month_dayEPvEENS_22__tree_node_destructorINS_9allocatorIS5_EEEEE6secondB8ne180100Ev
FNA:5,21,_ZNSt3__117__compressed_pairIPNS_12basic_stringIcNS_11char_traitsIcEENS_9allocatorIcEEEENS_14default_deleteIS6_EEE6secondB8ne180100Ev
FNA:5,10,_ZNSt3__117__compressed_pairIPNS_15__thread_structENS_14default_deleteIS1_EEE6secondB8ne180100Ev
FNA:5,77,_ZNSt3__117__compressed_pairIPNS_18basic_stringstreamIcNS_11char_traitsIcEENS_9allocatorIcEEEENS_14default_deleteIS6_EEE6secondB8ne180100Ev
FNA:5,234,_ZNSt3__117__compressed_pairIPNS_3mapINS_12basic_stringIcNS_11char_traitsIcEENS_9allocatorIcEEEEdNS_4lessIS7_EENS5_INS_4pairIKS7_dEEEEEENS5_ISE_EEE6secondB8ne180100Ev
FNA:5,10,_ZNSt3__117__compressed_pairIPNS_5tupleIJNS_10unique_ptrINS_15__thread_structENS_14default_deleteIS3_EEEEZN36CoreTypesTest_BasicThreadSafety_Test8TestBodyEvE3$_0EEENS4_IS9_EEE6secondB8ne180100Ev
FNA:5,26,_ZNSt3__117__compressed_pairIPNS_6threadENS_9allocatorIS1_EEE6secondB8ne180100Ev
FNA:5,24,_ZNSt3__117__compressed_pairIPNS_6threadERNS_9allocatorIS1_EEE6secondB8ne180100Ev
FNA:5,4912,_ZNSt3__117__compressed_pairIPdNS_9allocatorIdEEE6secondB8ne180100Ev
FNA:5,240,_ZNSt3__117__compressed_pairIPdRNS_9allocatorIdEEE6secondB8ne180100Ev
FNA:5,0,_ZNSt3__117__compressed_pairIPiNS_9allocatorIiEEE6secondB8ne180100Ev
FNA:5,0,_ZNSt3__117__compressed_pairIPiRNS_9allocatorIiEEE6secondB8ne180100Ev
FNA:5,1720,_ZNSt3__117__compressed_pairIPmNS_9allocatorImEEE6secondB8ne180100Ev
FNA:5,16,_ZNSt3__117__compressed_pairImNS_19__map_value_compareIN7pyfolio8DateTimeENS_12__value_typeIS3_NS_6vectorIdNS_9allocatorIdEEEEEENS_4lessIS3_EELb1EEEE6secondB8ne180100Ev
FNA:5,720,_ZNSt3__117__compressed_pairImNS_19__map_value_compareINS_12basic_stringIcNS_11char_traitsIcEENS_9allocatorIcEEEENS_12__value_typeIS7_dEENS_4lessIS7_EELb1EEEE6secondB8ne180100Ev
FNA:5,110,_ZNSt3__117__compressed_pairImNS_4lessINS_6chrono14year_month_dayEEEE6secondB8ne180100Ev
FNL:6,141,142
FNA:6,46,_ZNKSt3__117__compressed_pairINS_12basic_stringIcNS_11char_traitsIcEENS_9allocatorIcEEE5__repES5_E6secondB8ne180100Ev
FNA:6,180,_ZNKSt3__117__compressed_pairINS_15__tree_end_nodeIPNS_16__tree_node_baseIPvEEEENS_9allocatorINS_11__tree_nodeINS_12__value_typeINS_12basic_stringIcNS_11char_traitsIcEENS7_IcEEEEdEES3_EEEEE6secondB8ne180100Ev
FNA:6,0,_ZNKSt3__117__compressed_pairIPN7pyfolio11performance12DrawdownInfoENS_9allocatorIS3_EEE6secondB8ne180100Ev
FNA:6,452,_ZNKSt3__117__compressed_pairIPN7pyfolio8DateTimeENS_9allocatorIS2_EEE6secondB8ne180100Ev
FNA:6,36,_ZNKSt3__117__compressed_pairIPNS_3mapINS_12basic_stringIcNS_11char_traitsIcEENS_9allocatorIcEEEEdNS_4lessIS7_EENS5_INS_4pairIKS7_dEEEEEENS5_ISE_EEE6secondB8ne180100Ev
FNA:6,5,_ZNKSt3__117__compressed_pairIPNS_6threadENS_9allocatorIS1_EEE6secondB8ne180100Ev
FNA:6,574,_ZNKSt3__117__compressed_pairIPdNS_9allocatorIdEEE6secondB8ne180100Ev
FNA:6,0,_ZNKSt3__117__compressed_pairIPiNS_9allocatorIiEEE6secondB8ne180100Ev
FNA:6,95,_ZNKSt3__117__compressed_pairIPmNS_9allocatorImEEE6secondB8ne180100Ev
FNA:6,0,_ZNKSt3__117__compressed_pairIZN7pyfolio11performance17aggregate_returnsERKNS1_10TimeSeriesIdEENS1_9FrequencyEE3$_0NS_9allocatorIS8_EEE6secondB8ne180100Ev
FNA:6,0,_ZNKSt3__117__compressed_pairIZNK7pyfolio10TimeSeriesIdE8resampleENS1_9FrequencyEEUlRKNS_6vectorIdNS_9allocatorIdEEEEE_NS6_ISB_EEE6secondB8ne180100Ev
FNA:6,180,_ZNKSt3__117__compressed_pairImNS_19__map_value_compareINS_12basic_stringIcNS_11char_traitsIcEENS_9allocatorIcEEEENS_12__value_typeIS7_dEENS_4lessIS7_EELb1EEEE6secondB8ne180100Ev
FNA:6,24,_ZNKSt3__117__compressed_pairImNS_4lessINS_6chrono14year_month_dayEEEE6secondB8ne180100Ev
FNL:7,49,49
FNA:7,1552,_ZNSt3__122__compressed_pair_elemINS_12basic_stringIcNS_11char_traitsIcEENS_9allocatorIcEEE5__repELi0ELb0EEC2B8ne180100ENS_18__default_init_tagE
FNA:7,180,_ZNSt3__122__compressed_pair_elemINS_15__tree_end_nodeIPNS_16__tree_node_baseIPvEEEELi0ELb0EEC2B8ne180100ENS_18__default_init_tagE
FNL:8,50,50
FNA:8,108,_ZNSt3__122__compressed_pair_elemINS_12basic_stringIcNS_11char_traitsIcEENS_9allocatorIcEEE5__repELi0ELb0EEC2B8ne180100ENS_16__value_init_tagE
FNA:8,187,_ZNSt3__122__compressed_pair_elemINS_15__tree_end_nodeIPNS_16__tree_node_baseIPvEEEELi0ELb0EEC2B8ne180100ENS_16__value_init_tagE
FNA:8,93,_ZNSt3__122__compressed_pair_elemIPNS_12basic_stringIcNS_11char_traitsIcEENS_9allocatorIcEEEELi0ELb0EEC2B8ne180100ENS_16__value_init_tagE
FNL:9,53,54
FNA:9,0,_ZNSt3__122__compressed_pair_elemINS_22__allocator_destructorINS_9allocatorINS_10__function6__funcIZN7pyfolio11performance17aggregate_returnsERKNS5_10TimeSeriesIdEENS5_9FrequencyEE3$_0NS2_ISC_EEFdRKNS_6vectorIdNS2_IdEEEEEEEEEEELi1ELb0EEC2B8ne180100ISM_vEEOT_
FNA:9,0,_ZNSt3__122__compressed_pair_elemINS_22__allocator_destructorINS_9allocatorINS_10__function6__funcIZNK7pyfolio10TimeSeriesIdE8resampleENS5_9FrequencyEEUlRKNS_6vectorIdNS2_IdEEEEE_NS2_ISE_EEFdSD_EEEEEEELi1ELb0EEC2B8ne180100ISJ_vEEOT_
FNA:9,5,_ZNSt3__122__compressed_pair_elemINS_22__tree_node_destructorINS_9allocatorINS_11__tree_nodeINS_12__value_typeIN7pyfolio8DateTimeENS_6vectorIdNS2_IdEEEEEEPvEEEEEELi1ELb0EEC2B8ne180100ISE_vEEOT_
FNA:9,1080,_ZNSt3__122__compressed_pair_elemINS_22__tree_node_destructorINS_9allocatorINS_11__tree_nodeINS_12__value_typeINS_12basic_stringIcNS_11char_traitsIcEENS2_IcEEEEdEEPvEEEEEELi1ELb0EEC2B8ne180100ISE_vEEOT_
FNA:9,36,_ZNSt3__122__compressed_pair_elemINS_22__tree_node_destructorINS_9allocatorINS_11__tree_nodeINS_6chrono14year_month_dayEPvEEEEEELi1ELb0EEC2B8ne180100IS9_vEEOT_
FNA:9,0,_ZNSt3__122__compressed_pair_elemIPN7pyfolio11performance12DrawdownInfoELi0ELb0EEC2B8ne180100IDnvEEOT_
FNA:9,476,_ZNSt3__122__compressed_pair_elemIPN7pyfolio8DateTimeELi0ELb0EEC2B8ne180100IDnvEEOT_
FNA:9,0,_ZNSt3__122__compressed_pair_elemIPNS_10__function6__funcIZN7pyfolio11performance17aggregate_returnsERKNS3_10TimeSeriesIdEENS3_9FrequencyEE3$_0NS_9allocatorISA_EEFdRKNS_6vectorIdNSB_IdEEEEEEELi0ELb0EEC2B8ne180100IRSK_vEEOT_
FNA:9,0,_ZNSt3__122__compressed_pair_elemIPNS_10__function6__funcIZNK7pyfolio10TimeSeriesIdE8resampleENS3_9FrequencyEEUlRKNS_6vectorIdNS_9allocatorIdEEEEE_NS8_ISD_EEFdSC_EEELi0ELb0EEC2B8ne180100IRSH_vEEOT_
FNA:9,5,_ZNSt3__122__compressed_pair_elemIPNS_11__tree_nodeINS_12__value_typeIN7pyfolio8DateTimeENS_6vectorIdNS_9allocatorIdEEEEEEPvEELi0ELb0EEC2B8ne180100IRSC_vEEOT_
FNA:9,1080,_ZNSt3__122__compressed_pair_elemIPNS_11__tree_nodeINS_12__value_typeINS_12basic_stringIcNS_11char_traitsIcEENS_9allocatorIcEEEEdEEPvEELi0ELb0EEC2B8ne180100IRSC_vEEOT_
FNA:9,36,_ZNSt3__122__compressed_pair_elemIPNS_11__tree_nodeINS_6chrono14year_month_dayEPvEELi0ELb0EEC2B8ne180100IRS6_vEEOT_
FNA:9,10,_ZNSt3__122__compressed_pair_elemIPNS_15__thread_structELi0ELb0EEC2B8ne180100IRS2_vEEOT_
FNA:9,10,_ZNSt3__122__compressed_pair_elemIPNS_15__thread_structELi0ELb0EEC2B8ne180100IS2_vEEOT_
FNA:9,18,_ZNSt3__122__compressed_pair_elemIPNS_3mapINS_12basic_stringIcNS_11char_traitsIcEENS_9allocatorIcEEEEdNS_4lessIS7_EENS5_INS_4pairIKS7_dEEEEEELi0ELb0EEC2B8ne180100IDnvEEOT_
FNA:9,20,_ZNSt3__122__compressed_pair_elemIPNS_5tupleIJNS_10unique_ptrINS_15__thread_structENS_14default_deleteIS3_EEEEZN36CoreTypesTest_BasicThreadSafety_Test8TestBodyEvE3$_0EEELi0ELb0EEC2B8ne180100IRSA_vEEOT_
FNA:9,6,_ZNSt3__122__compressed_pair_elemIPNS_6threadELi0ELb0EEC2B8ne180100IDnvEEOT_
FNA:9,571,_ZNSt3__122__compressed_pair_elemIPdLi0ELb0EEC2B8ne180100IDnvEEOT_
FNA:9,0,_ZNSt3__122__compressed_pair_elemIPiLi0ELb0EEC2B8ne180100IDnvEEOT_
FNA:9,95,_ZNSt3__122__compressed_pair_elemIPmLi0ELb0EEC2B8ne180100IDnvEEOT_
FNA:9,0,_ZNSt3__122__compressed_pair_elemIRNS_9allocatorIN7pyfolio11performance12DrawdownInfoEEELi1ELb0EEC2B8ne180100IS6_vEEOT_
FNA:9,109,_ZNSt3__122__compressed_pair_elemIRNS_9allocatorIN7pyfolio8DateTimeEEELi1ELb0EEC2B8ne180100IS5_vEEOT_
FNA:9,5,_ZNSt3__122__compressed_pair_elemIRNS_9allocatorINS_6threadEEELi1ELb0EEC2B8ne180100IS4_vEEOT_
FNA:9,142,_ZNSt3__122__compressed_pair_elemIRNS_9allocatorIdEELi1ELb0EEC2B8ne180100IS3_vEEOT_
FNA:9,0,_ZNSt3__122__compressed_pair_elemIRNS_9allocatorIiEELi1ELb0EEC2B8ne180100IS3_vEEOT_
FNA:9,367,_ZNSt3__122__compressed_pair_elemImLi0ELb0EEC2B8ne180100IivEEOT_
FNL:10,63,63
FNA:10,460,_ZNSt3__122__compressed_pair_elemINS_12basic_stringIcNS_11char_traitsIcEENS_9allocatorIcEEE5__repELi0ELb0EE5__getB8ne180100Ev
FNA:10,2576,_ZNSt3__122__compressed_pair_elemINS_15__tree_end_nodeIPNS_16__tree_node_baseIPvEEEELi0ELb0EE5__getB8ne180100Ev
FNA:10,0,_ZNSt3__122__compressed_pair_elemINS_22__allocator_destructorINS_9allocatorINS_10__function6__funcIZN7pyfolio11performance17aggregate_returnsERKNS5_10TimeSeriesIdEENS5_9FrequencyEE3$_0NS2_ISC_EEFdRKNS_6vectorIdNS2_IdEEEEEEEEEEELi1ELb0EE5__getB8ne180100Ev
FNA:10,0,_ZNSt3__122__compressed_pair_elemINS_22__allocator_destructorINS_9allocatorINS_10__function6__funcIZNK7pyfolio10TimeSeriesIdE8resampleENS5_9FrequencyEEUlRKNS_6vectorIdNS2_IdEEEEE_NS2_ISE_EEFdSD_EEEEEEELi1ELb0EE5__getB8ne180100Ev
FNA:10,5,_ZNSt3__122__compressed_pair_elemINS_22__tree_node_destructorINS_9allocatorINS_11__tree_nodeINS_12__value_typeIN7pyfolio8DateTimeENS_6vectorIdNS2_IdEEEEEEPvEEEEEELi1ELb0EE5__getB8ne180100Ev
FNA:10,1080,_ZNSt3__122__compressed_pair_elemINS_22__tree_node_destructorINS_9allocatorINS_11__tree_nodeINS_12__value_typeINS_12basic_stringIcNS_11char_traitsIcEENS2_IcEEEEdEEPvEEEEEELi1ELb0EE5__getB8ne180100Ev
FNA:10,36,_ZNSt3__122__compressed_pair_elemINS_22__tree_node_destructorINS_9allocatorINS_11__tree_nodeINS_6chrono14year_month_dayEPvEEEEEELi1ELb0EE5__getB8ne180100Ev
FNA:10,0,_ZNSt3__122__compressed_pair_elemIPN7pyfolio11performance12DrawdownInfoELi0ELb0EE5__getB8ne180100Ev
FNA:10,1932,_ZNSt3__122__compressed_pair_elemIPN7pyfolio8DateTimeELi0ELb0EE5__getB8ne180100Ev
FNA:10,0,_ZNSt3__122__compressed_pair_elemIPNS_10__function6__funcIZN7pyfolio11performance17aggregate_returnsERKNS3_10TimeSeriesIdEENS3_9FrequencyEE3$_0NS_9allocatorISA_EEFdRKNS_6vectorIdNSB_IdEEEEEEELi0ELb0EE5__getB8ne180100Ev
FNA:10,0,_ZNSt3__122__compressed_pair_elemIPNS_10__function6__funcIZNK7pyfolio10TimeSeriesIdE8resampleENS3_9FrequencyEEUlRKNS_6vectorIdNS_9allocatorIdEEEEE_NS8_ISD_EEFdSC_EEELi0ELb0EE5__getB8ne180100Ev
FNA:10,20,_ZNSt3__122__compressed_pair_elemIPNS_11__tree_nodeINS_12__value_typeIN7pyfolio8DateTimeENS_6vectorIdNS_9allocatorIdEEEEEEPvEELi0ELb0EE5__getB8ne180100Ev
FNA:10,4320,_ZNSt3__122__compressed_pair_elemIPNS_11__tree_nodeINS_12__value_typeINS_12basic_stringIcNS_11char_traitsIcEENS_9allocatorIcEEEEdEEPvEELi0ELb0EE5__getB8ne180100Ev
FNA:10,144,_ZNSt3__122__compressed_pair_elemIPNS_11__tree_nodeINS_6chrono14year_month_dayEPvEELi0ELb0EE5__getB8ne180100Ev
FNA:10,466,_ZNSt3__122__compressed_pair_elemIPNS_12basic_stringIcNS_11char_traitsIcEENS_9allocatorIcEEEELi0ELb0EE5__getB8ne180100Ev
FNA:10,80,_ZNSt3__122__compressed_pair_elemIPNS_15__thread_structELi0ELb0EE5__getB8ne180100Ev
FNA:10,154,_ZNSt3__122__compressed_pair_elemIPNS_18basic_stringstreamIcNS_11char_traitsIcEENS_9allocatorIcEEEELi0ELb0EE5__getB8ne180100Ev
FNA:10,18,_ZNSt3__122__compressed_pair_elemIPNS_3mapINS_12basic_stringIcNS_11char_traitsIcEENS_9allocatorIcEEEEdNS_4lessIS7_EENS5_INS_4pairIKS7_dEEEEEELi0ELb0EE5__getB8ne180100Ev
FNA:10,60,_ZNSt3__122__compressed_pair_elemIPNS_5tupleIJNS_10unique_ptrINS_15__thread_structENS_14default_deleteIS3_EEEEZN36CoreTypesTest_BasicThreadSafety_Test8TestBodyEvE3$_0EEELi0ELb0EE5__getB8ne180100Ev
FNA:10,25,_ZNSt3__122__compressed_pair_elemIPNS_6threadELi0ELb0EE5__getB8ne180100Ev
FNA:10,2175,_ZNSt3__122__compressed_pair_elemIPdLi0ELb0EE5__getB8ne180100Ev
FNA:10,0,_ZNSt3__122__compressed_pair_elemIPiLi0ELb0EE5__getB8ne180100Ev
FNA:10,95,_ZNSt3__122__compressed_pair_elemIPmLi0ELb0EE5__getB8ne180100Ev
FNA:10,0,_ZNSt3__122__compressed_pair_elemIRNS_9allocatorIN7pyfolio11performance12DrawdownInfoEEELi1ELb0EE5__getB8ne180100Ev
FNA:10,139,_ZNSt3__122__compressed_pair_elemIRNS_9allocatorIN7pyfolio8DateTimeEEELi1ELb0EE5__getB8ne180100Ev
FNA:10,24,_ZNSt3__122__compressed_pair_elemIRNS_9allocatorINS_6threadEEELi1ELb0EE5__getB8ne180100Ev
FNA:10,240,_ZNSt3__122__compressed_pair_elemIRNS_9allocatorIdEELi1ELb0EE5__getB8ne180100Ev
FNA:10,0,_ZNSt3__122__compressed_pair_elemIRNS_9allocatorIiEELi1ELb0EE5__getB8ne180100Ev
FNA:10,1121,_ZNSt3__122__compressed_pair_elemImLi0ELb0EE5__getB8ne180100Ev
FNL:11,64,64
FNA:11,9093,_ZNKSt3__122__compressed_pair_elemINS_12basic_stringIcNS_11char_traitsIcEENS_9allocatorIcEEE5__repELi0ELb0EE5__getB8ne180100Ev
FNA:11,1024,_ZNKSt3__122__compressed_pair_elemINS_15__tree_end_nodeIPNS_16__tree_node_baseIPvEEEELi0ELb0EE5__getB8ne180100Ev
FNA:11,0,_ZNKSt3__122__compressed_pair_elemIPN7pyfolio11performance12DrawdownInfoELi0ELb0EE5__getB8ne180100Ev
FNA:11,523,_ZNKSt3__122__compressed_pair_elemIPN7pyfolio8DateTimeELi0ELb0EE5__getB8ne180100Ev
FNA:11,0,_ZNKSt3__122__compressed_pair_elemIPNS_10__function6__funcIZN7pyfolio11performance17aggregate_returnsERKNS3_10TimeSeriesIdEENS3_9FrequencyEE3$_0NS_9allocatorISA_EEFdRKNS_6vectorIdNSB_IdEEEEEEELi0ELb0EE5__getB8ne180100Ev
FNA:11,0,_ZNKSt3__122__compressed_pair_elemIPNS_10__function6__funcIZNK7pyfolio10TimeSeriesIdE8resampleENS3_9FrequencyEEUlRKNS_6vectorIdNS_9allocatorIdEEEEE_NS8_ISD_EEFdSC_EEELi0ELb0EE5__getB8ne180100Ev
FNA:11,10,_ZNKSt3__122__compressed_pair_elemIPNS_11__tree_nodeINS_12__value_typeIN7pyfolio8DateTimeENS_6vectorIdNS_9allocatorIdEEEEEEPvEELi0ELb0EE5__getB8ne180100Ev
FNA:11,2160,_ZNKSt3__122__compressed_pair_elemIPNS_11__tree_nodeINS_12__value_typeINS_12basic_stringIcNS_11char_traitsIcEENS_9allocatorIcEEEEdEEPvEELi0ELb0EE5__getB8ne180100Ev
FNA:11,72,_ZNKSt3__122__compressed_pair_elemIPNS_11__tree_nodeINS_6chrono14year_month_dayEPvEELi0ELb0EE5__getB8ne180100Ev
FNA:11,150,_ZNKSt3__122__compressed_pair_elemIPNS_12basic_stringIcNS_11char_traitsIcEENS_9allocatorIcEEEELi0ELb0EE5__getB8ne180100Ev
FNA:11,60,_ZNKSt3__122__compressed_pair_elemIPNS_18basic_stringstreamIcNS_11char_traitsIcEENS_9allocatorIcEEEELi0ELb0EE5__getB8ne180100Ev
FNA:11,54,_ZNKSt3__122__compressed_pair_elemIPNS_3mapINS_12basic_stringIcNS_11char_traitsIcEENS_9allocatorIcEEEEdNS_4lessIS7_EENS5_INS_4pairIKS7_dEEEEEELi0ELb0EE5__getB8ne180100Ev
FNA:11,30,_ZNKSt3__122__compressed_pair_elemIPNS_5tupleIJNS_10unique_ptrINS_15__thread_structENS_14default_deleteIS3_EEEEZN36CoreTypesTest_BasicThreadSafety_Test8TestBodyEvE3$_0EEELi0ELb0EE5__getB8ne180100Ev
FNA:11,10,_ZNKSt3__122__compressed_pair_elemIPNS_6threadELi0ELb0EE5__getB8ne180100Ev
FNA:11,669,_ZNKSt3__122__compressed_pair_elemIPdLi0ELb0EE5__getB8ne180100Ev
FNA:11,0,_ZNKSt3__122__compressed_pair_elemIPiLi0ELb0EE5__getB8ne180100Ev
FNA:11,95,_ZNKSt3__122__compressed_pair_elemIPmLi0ELb0EE5__getB8ne180100Ev
FNL:12,78,78
FNA:12,0,_ZNSt3__122__compressed_pair_elemINS_9allocatorIN7pyfolio11performance12DrawdownInfoEEELi1ELb1EEC2B8ne180100ENS_18__default_init_tagE
FNA:12,245,_ZNSt3__122__compressed_pair_elemINS_9allocatorIN7pyfolio8DateTimeEEELi1ELb1EEC2B8ne180100ENS_18__default_init_tagE
FNA:12,18,_ZNSt3__122__compressed_pair_elemINS_9allocatorINS_3mapINS_12basic_stringIcNS_11char_traitsIcEENS1_IcEEEEdNS_4lessIS7_EENS1_INS_4pairIKS7_dEEEEEEEELi1ELb1EEC2B8ne180100ENS_18__default_init_tagE
FNA:12,1,_ZNSt3__122__compressed_pair_elemINS_9allocatorINS_6threadEEELi1ELb1EEC2B8ne180100ENS_18__default_init_tagE
FNA:12,1625,_ZNSt3__122__compressed_pair_elemINS_9allocatorIcEELi1ELb1EEC2B8ne180100ENS_18__default_init_tagE
FNA:12,281,_ZNSt3__122__compressed_pair_elemINS_9allocatorIdEELi1ELb1EEC2B8ne180100ENS_18__default_init_tagE
FNA:12,0,_ZNSt3__122__compressed_pair_elemINS_9allocatorIiEELi1ELb1EEC2B8ne180100ENS_18__default_init_tagE
FNA:12,95,_ZNSt3__122__compressed_pair_elemINS_9allocatorImEELi1ELb1EEC2B8ne180100ENS_18__default_init_tagE
FNL:13,79,79
FNA:13,93,_ZNSt3__122__compressed_pair_elemINS_14default_deleteINS_12basic_stringIcNS_11char_traitsIcEENS_9allocatorIcEEEEEELi1ELb1EEC2B8ne180100ENS_16__value_init_tagE
FNA:13,10,_ZNSt3__122__compressed_pair_elemINS_14default_deleteINS_15__thread_structEEELi1ELb1EEC2B8ne180100ENS_16__value_init_tagE
FNA:13,20,_ZNSt3__122__compressed_pair_elemINS_14default_deleteINS_5tupleIJNS_10unique_ptrINS_15__thread_structENS1_IS4_EEEEZN36CoreTypesTest_BasicThreadSafety_Test8TestBodyEvE3$_0EEEEELi1ELb1EEC2B8ne180100ENS_16__value_init_tagE
FNA:13,1,_ZNSt3__122__compressed_pair_elemINS_9allocatorINS_11__tree_nodeINS_12__value_typeIN7pyfolio8DateTimeENS_6vectorIdNS1_IdEEEEEEPvEEEELi1ELb1EEC2B8ne180100ENS_16__value_init_tagE
FNA:13,180,_ZNSt3__122__compressed_pair_elemINS_9allocatorINS_11__tree_nodeINS_12__value_typeINS_12basic_stringIcNS_11char_traitsIcEENS1_IcEEEEdEEPvEEEELi1ELb1EEC2B8ne180100ENS_16__value_init_tagE
FNA:13,6,_ZNSt3__122__compressed_pair_elemINS_9allocatorINS_11__tree_nodeINS_6chrono14year_month_dayEPvEEEELi1ELb1EEC2B8ne180100ENS_16__value_init_tagE
FNL:14,82,83
FNA:14,10,_ZNSt3__122__compressed_pair_elemINS_14default_deleteINS_15__thread_structEEELi1ELb1EEC2B8ne180100IS3_vEEOT_
FNA:14,1,_ZNSt3__122__compressed_pair_elemINS_19__map_value_compareIN7pyfolio8DateTimeENS_12__value_typeIS3_NS_6vectorIdNS_9allocatorIdEEEEEENS_4lessIS3_EELb1EEELi1ELb1EEC2B8ne180100IRKSC_vEEOT_
FNA:14,360,_ZNSt3__122__compressed_pair_elemINS_19__map_value_compareINS_12basic_stringIcNS_11char_traitsIcEENS_9allocatorIcEEEENS_12__value_typeIS7_dEENS_4lessIS7_EELb1EEELi1ELb1EEC2B8ne180100IRKSC_vEEOT_
FNA:14,6,_ZNSt3__122__compressed_pair_elemINS_4lessINS_6chrono14year_month_dayEEELi1ELb1EEC2B8ne180100IRKS4_vEEOT_
FNA:14,0,_ZNSt3__122__compressed_pair_elemINS_9allocatorIN7pyfolio11performance12DrawdownInfoEEELi1ELb1EEC2B8ne180100IS5_vEEOT_
FNA:14,122,_ZNSt3__122__compressed_pair_elemINS_9allocatorIN7pyfolio8DateTimeEEELi1ELb1EEC2B8ne180100IS4_vEEOT_
FNA:14,180,_ZNSt3__122__compressed_pair_elemINS_9allocatorINS_11__tree_nodeINS_12__value_typeINS_12basic_stringIcNS_11char_traitsIcEENS1_IcEEEEdEEPvEEEELi1ELb1EEC2B8ne180100ISC_vEEOT_
FNA:14,35,_ZNSt3__122__compressed_pair_elemINS_9allocatorIcEELi1ELb1EEC2B8ne180100IRKS2_vEEOT_
FNA:14,148,_ZNSt3__122__compressed_pair_elemINS_9allocatorIdEELi1ELb1EEC2B8ne180100IS2_vEEOT_
FNL:15,88,89
FNA:15,0,_ZNSt3__122__compressed_pair_elemINS_9allocatorIZN7pyfolio11performance17aggregate_returnsERKNS2_10TimeSeriesIdEENS2_9FrequencyEE3$_0EELi1ELb1EEC2B8ne180100IJOSA_EJLm0EEEENS_21piecewise_construct_tENS_5tupleIJDpT_EEENS_15__tuple_indicesIJXspT0_EEEE
FNA:15,0,_ZNSt3__122__compressed_pair_elemINS_9allocatorIZN7pyfolio11performance17aggregate_returnsERKNS2_10TimeSeriesIdEENS2_9FrequencyEE3$_0EELi1ELb1EEC2B8ne180100IJRKSA_EJLm0EEEENS_21piecewise_construct_tENS_5tupleIJDpT_EEENS_15__tuple_indicesIJXspT0_EEEE
FNA:15,1,_ZNSt3__122__compressed_pair_elemINS_9allocatorIZNK7pyfolio10TimeSeriesIdE8resampleENS2_9FrequencyEEUlRKNS_6vectorIdNS1_IdEEEEE_EELi1ELb1EEC2B8ne180100IJOSC_EJLm0EEEENS_21piecewise_construct_tENS_5tupleIJDpT_EEENS_15__tuple_indicesIJXspT0_EEEE
FNA:15,0,_ZNSt3__122__compressed_pair_elemINS_9allocatorIZNK7pyfolio10TimeSeriesIdE8resampleENS2_9FrequencyEEUlRKNS_6vectorIdNS1_IdEEEEE_EELi1ELb1EEC2B8ne180100IJRKSC_EJLm0EEEENS_21piecewise_construct_tENS_5tupleIJDpT_EEENS_15__tuple_indicesIJXspT0_EEEE
FNA:15,0,_ZNSt3__122__compressed_pair_elemIZN7pyfolio11performance17aggregate_returnsERKNS1_10TimeSeriesIdEENS1_9FrequencyEE3$_0Li0ELb1EEC2B8ne180100IJOS8_EJLm0EEEENS_21piecewise_construct_tENS_5tupleIJDpT_EEENS_15__tuple_indicesIJXspT0_EEEE
FNA:15,0,_ZNSt3__122__compressed_pair_elemIZN7pyfolio11performance17aggregate_returnsERKNS1_10TimeSeriesIdEENS1_9FrequencyEE3$_0Li0ELb1EEC2B8ne180100IJRKS8_EJLm0EEEENS_21piecewise_construct_tENS_5tupleIJDpT_EEENS_15__tuple_indicesIJXspT0_EEEE
FNA:15,1,_ZNSt3__122__compressed_pair_elemIZNK7pyfolio10TimeSeriesIdE8resampleENS1_9FrequencyEEUlRKNS_6vectorIdNS_9allocatorIdEEEEE_Li0ELb1EEC2B8ne180100IJOSB_EJLm0EEEENS_21piecewise_construct_tENS_5tupleIJDpT_EEENS_15__tuple_indicesIJXspT0_EEEE
FNA:15,0,_ZNSt3__122__compressed_pair_elemIZNK7pyfolio10TimeSeriesIdE8resampleENS1_9FrequencyEEUlRKNS_6vectorIdNS_9allocatorIdEEEEE_Li0ELb1EEC2B8ne180100IJRKSB_EJLm0EEEENS_21piecewise_construct_tENS_5tupleIJDpT_EEENS_15__tuple_indicesIJXspT0_EEEE
FNL:16,92,92
FNA:16,21,_ZNSt3__122__compressed_pair_elemINS_14default_deleteINS_12basic_stringIcNS_11char_traitsIcEENS_9allocatorIcEEEEEELi1ELb1EE5__getB8ne180100Ev
FNA:16,10,_ZNSt3__122__compressed_pair_elemINS_14default_deleteINS_15__thread_structEEELi1ELb1EE5__getB8ne180100Ev
FNA:16,77,_ZNSt3__122__compressed_pair_elemINS_14default_deleteINS_18basic_stringstreamIcNS_11char_traitsIcEENS_9allocatorIcEEEEEELi1ELb1EE5__getB8ne180100Ev
FNA:16,10,_ZNSt3__122__compressed_pair_elemINS_14default_deleteINS_5tupleIJNS_10unique_ptrINS_15__thread_structENS1_IS4_EEEEZN36CoreTypesTest_BasicThreadSafety_Test8TestBodyEvE3$_0EEEEELi1ELb1EE5__getB8ne180100Ev
FNA:16,16,_ZNSt3__122__compressed_pair_elemINS_19__map_value_compareIN7pyfolio8DateTimeENS_12__value_typeIS3_NS_6vectorIdNS_9allocatorIdEEEEEENS_4lessIS3_EELb1EEELi1ELb1EE5__getB8ne180100Ev
FNA:16,720,_ZNSt3__122__compressed_pair_elemINS_19__map_value_compareINS_12basic_stringIcNS_11char_traitsIcEENS_9allocatorIcEEEENS_12__value_typeIS7_dEENS_4lessIS7_EELb1EEELi1ELb1EE5__getB8ne180100Ev
FNA:16,110,_ZNSt3__122__compressed_pair_elemINS_4lessINS_6chrono14year_month_dayEEELi1ELb1EE5__getB8ne180100Ev
FNA:16,0,_ZNSt3__122__compressed_pair_elemINS_9allocatorIN7pyfolio11performance12DrawdownInfoEEELi1ELb1EE5__getB8ne180100Ev
FNA:16,4129,_ZNSt3__122__compressed_pair_elemINS_9allocatorIN7pyfolio8DateTimeEEELi1ELb1EE5__getB8ne180100Ev
FNA:16,10,_ZNSt3__122__compressed_pair_elemINS_9allocatorINS_11__tree_nodeINS_12__value_typeIN7pyfolio8DateTimeENS_6vectorIdNS1_IdEEEEEEPvEEEELi1ELb1EE5__getB8ne180100Ev
FNA:16,2160,_ZNSt3__122__compressed_pair_elemINS_9allocatorINS_11__tree_nodeINS_12__value_typeINS_12basic_stringIcNS_11char_traitsIcEENS1_IcEEEEdEEPvEEEELi1ELb1EE5__getB8ne180100Ev
FNA:16,48,_ZNSt3__122__compressed_pair_elemINS_9allocatorINS_11__tree_nodeINS_6chrono14year_month_dayEPvEEEELi1ELb1EE5__getB8ne180100Ev
FNA:16,234,_ZNSt3__122__compressed_pair_elemINS_9allocatorINS_3mapINS_12basic_stringIcNS_11char_traitsIcEENS1_IcEEEEdNS_4lessIS7_EENS1_INS_4pairIKS7_dEEEEEEEELi1ELb1EE5__getB8ne180100Ev
FNA:16,26,_ZNSt3__122__compressed_pair_elemINS_9allocatorINS_6threadEEELi1ELb1EE5__getB8ne180100Ev
FNA:16,140,_ZNSt3__122__compressed_pair_elemINS_9allocatorIcEELi1ELb1EE5__getB8ne180100Ev
FNA:16,4912,_ZNSt3__122__compressed_pair_elemINS_9allocatorIdEELi1ELb1EE5__getB8ne180100Ev
FNA:16,0,_ZNSt3__122__compressed_pair_elemINS_9allocatorIiEELi1ELb1EE5__getB8ne180100Ev
FNA:16,1720,_ZNSt3__122__compressed_pair_elemINS_9allocatorImEELi1ELb1EE5__getB8ne180100Ev
FNA:16,0,_ZNSt3__122__compressed_pair_elemIZN7pyfolio11performance17aggregate_returnsERKNS1_10TimeSeriesIdEENS1_9FrequencyEE3$_0Li0ELb1EE5__getB8ne180100Ev
FNA:16,5,_ZNSt3__122__compressed_pair_elemIZNK7pyfolio10TimeSeriesIdE8resampleENS1_9FrequencyEEUlRKNS_6vectorIdNS_9allocatorIdEEEEE_Li0ELb1EE5__getB8ne180100Ev
FNL:17,93,93
FNA:17,180,_ZNKSt3__122__compressed_pair_elemINS_19__map_value_compareINS_12basic_stringIcNS_11char_traitsIcEENS_9allocatorIcEEEENS_12__value_typeIS7_dEENS_4lessIS7_EELb1EEELi1ELb1EE5__getB8ne180100Ev
FNA:17,24,_ZNKSt3__122__compressed_pair_elemINS_4lessINS_6chrono14year_month_dayEEELi1ELb1EE5__getB8ne180100Ev
FNA:17,0,_ZNKSt3__122__compressed_pair_elemINS_9allocatorIN7pyfolio11performance12DrawdownInfoEEELi1ELb1EE5__getB8ne180100Ev
FNA:17,452,_ZNKSt3__122__compressed_pair_elemINS_9allocatorIN7pyfolio8DateTimeEEELi1ELb1EE5__getB8ne180100Ev
FNA:17,180,_ZNKSt3__122__compressed_pair_elemINS_9allocatorINS_11__tree_nodeINS_12__value_typeINS_12basic_stringIcNS_11char_traitsIcEENS1_IcEEEEdEEPvEEEELi1ELb1EE5__getB8ne180100Ev
FNA:17,36,_ZNKSt3__122__compressed_pair_elemINS_9allocatorINS_3mapINS_12basic_stringIcNS_11char_traitsIcEENS1_IcEEEEdNS_4lessIS7_EENS1_INS_4pairIKS7_dEEEEEEEELi1ELb1EE5__getB8ne180100Ev
FNA:17,5,_ZNKSt3__122__compressed_pair_elemINS_9allocatorINS_6threadEEELi1ELb1EE5__getB8ne180100Ev
FNA:17,0,_ZNKSt3__122__compressed_pair_elemINS_9allocatorIZN7pyfolio11performance17aggregate_returnsERKNS2_10TimeSeriesIdEENS2_9FrequencyEE3$_0EELi1ELb1EE5__getB8ne180100Ev
FNA:17,0,_ZNKSt3__122__compressed_pair_elemINS_9allocatorIZNK7pyfolio10TimeSeriesIdE8resampleENS2_9FrequencyEEUlRKNS_6vectorIdNS1_IdEEEEE_EELi1ELb1EE5__getB8ne180100Ev
FNA:17,46,_ZNKSt3__122__compressed_pair_elemINS_9allocatorIcEELi1ELb1EE5__getB8ne180100Ev
FNA:17,574,_ZNKSt3__122__compressed_pair_elemINS_9allocatorIdEELi1ELb1EE5__getB8ne180100Ev
FNA:17,0,_ZNKSt3__122__compressed_pair_elemINS_9allocatorIiEELi1ELb1EE5__getB8ne180100Ev
FNA:17,95,_ZNKSt3__122__compressed_pair_elemINS_9allocatorImEELi1ELb1EE5__getB8ne180100Ev
FNA:17,0,_ZNKSt3__122__compressed_pair_elemIZN7pyfolio11performance17aggregate_returnsERKNS1_10TimeSeriesIdEENS1_9FrequencyEE3$_0Li0ELb1EE5__getB8ne180100Ev
FNA:17,0,_ZNKSt3__122__compressed_pair_elemIZNK7pyfolio10TimeSeriesIdE8resampleENS1_9FrequencyEEUlRKNS_6vectorIdNS_9allocatorIdEEEEE_Li0ELb1EE5__getB8ne180100Ev
FNF:18
FNH:18
DA:49,1732
DA:50,388
DA:53,4071
DA:54,4071
DA:63,15170
DA:64,13950
DA:78,2265
DA:79,310
DA:82,862
DA:83,862
DA:88,2
DA:89,2
DA:92,14348
DA:93,1592
DA:114,374
DA:115,374
DA:118,9254
DA:119,9254
DA:123,2
DA:125,1
DA:126,2
DA:129,13651
DA:130,13651
DA:133,13950
DA:134,13950
DA:137,15867
DA:138,15867
DA:141,1592
DA:142,1592
LF:29
LH:29
end_of_record
TN:
SF:/Library/Developer/CommandLineTools/SDKs/MacOSX.sdk/usr/include/c++/v1/__memory/construct_at.h
FNL:0,39,41
FNA:0,0,_ZNSt3__112construct_atB8ne180100IN7pyfolio11performance12DrawdownInfoEJRKS3_EPS3_EEPT_S8_DpOT0_
FNA:0,783,_ZNSt3__112construct_atB8ne180100IN7pyfolio8DateTimeEJRKS2_EPS2_EEPT_S7_DpOT0_
FNA:0,180,_ZNSt3__112construct_atB8ne180100INS_3mapINS_12basic_stringIcNS_11char_traitsIcEENS_9allocatorIcEEEEdNS_4lessIS7_EENS5_INS_4pairIKS7_dEEEEEEJRKSE_EPSE_EEPT_SJ_DpOT0_
FNA:0,5,_ZNSt3__112construct_atB8ne180100INS_4pairIKN7pyfolio8DateTimeENS_6vectorIdNS_9allocatorIdEEEEEEJRKNS_21piecewise_construct_tENS_5tupleIJRS4_EEENSD_IJEEEEPS9_EEPT_SJ_DpOT0_
FNA:0,1080,_ZNSt3__112construct_atB8ne180100INS_4pairIKNS_12basic_stringIcNS_11char_traitsIcEENS_9allocatorIcEEEEdEEJRKS9_EPS9_EEPT_SE_DpOT0_
FNA:0,0,_ZNSt3__112construct_atB8ne180100INS_6chrono14year_month_dayEJRKS2_EPS2_EEPT_S7_DpOT0_
FNA:0,36,_ZNSt3__112construct_atB8ne180100INS_6chrono14year_month_dayEJS2_EPS2_EEPT_S5_DpOT0_
FNA:0,15,_ZNSt3__112construct_atB8ne180100INS_6threadEJS1_EPS1_EEPT_S4_DpOT0_
FNA:0,10,_ZNSt3__112construct_atB8ne180100INS_6threadEJZN36CoreTypesTest_BasicThreadSafety_Test8TestBodyEvE3$_0EPS1_EEPT_S6_DpOT0_
FNA:0,784,_ZNSt3__112construct_atB8ne180100IdJRKdEPdEEPT_S5_DpOT0_
FNA:0,107,_ZNSt3__112construct_atB8ne180100IdJdEPdEEPT_S3_DpOT0_
FNA:0,0,_ZNSt3__112construct_atB8ne180100IiJRKiEPiEEPT_S5_DpOT0_
FNA:0,765,_ZNSt3__112construct_atB8ne180100ImJEPmEEPT_S3_DpOT0_
FNL:1,47,49
FNA:1,0,_ZNSt3__114__construct_atB8ne180100IN7pyfolio11performance12DrawdownInfoEJRKS3_EPS3_EEPT_S8_DpOT0_
FNA:1,783,_ZNSt3__114__construct_atB8ne180100IN7pyfolio8DateTimeEJRKS2_EPS2_EEPT_S7_DpOT0_
FNA:1,180,_ZNSt3__114__construct_atB8ne180100INS_3mapINS_12basic_stringIcNS_11char_traitsIcEENS_9allocatorIcEEEEdNS_4lessIS7_EENS5_INS_4pairIKS7_dEEEEEEJRKSE_EPSE_EEPT_SJ_DpOT0_
FNA:1,5,_ZNSt3__114__construct_atB8ne180100INS_4pairIKN7pyfolio8DateTimeENS_6vectorIdNS_9allocatorIdEEEEEEJRKNS_21piecewise_construct_tENS_5tupleIJRS4_EEENSD_IJEEEEPS9_EEPT_SJ_DpOT0_
FNA:1,1080,_ZNSt3__114__construct_atB8ne180100INS_4pairIKNS_12basic_stringIcNS_11char_traitsIcEENS_9allocatorIcEEEEdEEJRKS9_EPS9_EEPT_SE_DpOT0_
FNA:1,0,_ZNSt3__114__construct_atB8ne180100INS_6chrono14year_month_dayEJRKS2_EPS2_EEPT_S7_DpOT0_
FNA:1,36,_ZNSt3__114__construct_atB8ne180100INS_6chrono14year_month_dayEJS2_EPS2_EEPT_S5_DpOT0_
FNA:1,15,_ZNSt3__114__construct_atB8ne180100INS_6threadEJS1_EPS1_EEPT_S4_DpOT0_
FNA:1,10,_ZNSt3__114__construct_atB8ne180100INS_6threadEJZN36CoreTypesTest_BasicThreadSafety_Test8TestBodyEvE3$_0EPS1_EEPT_S6_DpOT0_
FNA:1,784,_ZNSt3__114__construct_atB8ne180100IdJRKdEPdEEPT_S5_DpOT0_
FNA:1,107,_ZNSt3__114__construct_atB8ne180100IdJdEPdEEPT_S3_DpOT0_
FNA:1,0,_ZNSt3__114__construct_atB8ne180100IiJRKiEPiEEPT_S5_DpOT0_
FNA:1,765,_ZNSt3__114__construct_atB8ne180100ImJEPmEEPT_S3_DpOT0_
FNL:2,65,68
FNA:2,0,_ZNSt3__112__destroy_atB8ne180100IN7pyfolio11performance12DrawdownInfoELi0EEEvPT_
FNA:2,2189,_ZNSt3__112__destroy_atB8ne180100IN7pyfolio8DateTimeELi0EEEvPT_
FNA:2,180,_ZNSt3__112__destroy_atB8ne180100INS_3mapINS_12basic_stringIcNS_11char_traitsIcEENS_9allocatorIcEEEEdNS_4lessIS7_EENS5_INS_4pairIKS7_dEEEEEELi0EEEvPT_
FNA:2,5,_ZNSt3__112__destroy_atB8ne180100INS_4pairIKN7pyfolio8DateTimeENS_6vectorIdNS_9allocatorIdEEEEEELi0EEEvPT_
FNA:2,1080,_ZNSt3__112__destroy_atB8ne180100INS_4pairIKNS_12basic_stringIcNS_11char_traitsIcEENS_9allocatorIcEEEEdEELi0EEEvPT_
FNA:2,12,_ZNSt3__112__destroy_atB8ne180100INS_6chrono14year_month_dayELi0EEEvPT_
FNA:2,25,_ZNSt3__112__destroy_atB8ne180100INS_6threadELi0EEEvPT_
FNA:2,2723,_ZNSt3__112__destroy_atB8ne180100IdLi0EEEvPT_
FNA:2,0,_ZNSt3__112__destroy_atB8ne180100IiLi0EEEvPT_
FNA:2,765,_ZNSt3__112__destroy_atB8ne180100ImLi0EEEvPT_
FNF:3
FNH:3
DA:39,3765
DA:41,3765
DA:47,3765
DA:49,3765
DA:65,6979
DA:67,6979
DA:68,6979
LF:7
LH:7
end_of_record
TN:
SF:/Library/Developer/CommandLineTools/SDKs/MacOSX.sdk/usr/include/c++/v1/__memory/pointer_traits.h
FNL:0,161,162
FNA:0,540,_ZNSt3__114pointer_traitsIPKNS_12__value_typeINS_12basic_stringIcNS_11char_traitsIcEENS_9allocatorIcEEEEdEEE10pointer_toB8ne180100ERS9_
FNA:0,1923,_ZNSt3__114pointer_traitsIPKcE10pointer_toB8ne180100ERS1_
FNA:0,10,_ZNSt3__114pointer_traitsIPNS_12__value_typeIN7pyfolio8DateTimeENS_6vectorIdNS_9allocatorIdEEEEEEE10pointer_toB8ne180100ERS8_
FNA:0,3600,_ZNSt3__114pointer_traitsIPNS_15__tree_end_nodeIPNS_16__tree_node_baseIPvEEEEE10pointer_toB8ne180100ERS6_
FNA:0,81,_ZNSt3__114pointer_traitsIPcE10pointer_toB8ne180100ERc
FNL:1,180,182
FNA:1,270,_ZNSt3__112__to_addressB8ne180100IKN7pyfolio8DateTimeEEEPT_S5_
FNA:1,36,_ZNSt3__112__to_addressB8ne180100IKNS_3mapINS_12basic_stringIcNS_11char_traitsIcEENS_9allocatorIcEEEEdNS_4lessIS7_EENS5_INS_4pairIKS7_dEEEEEEEEPT_SH_
FNA:1,2016,_ZNSt3__112__to_addressB8ne180100IKcEEPT_S3_
FNA:1,464,_ZNSt3__112__to_addressB8ne180100IKdEEPT_S3_
FNA:1,0,_ZNSt3__112__to_addressB8ne180100IN7pyfolio11performance12DrawdownInfoEEEPT_S5_
FNA:1,4277,_ZNSt3__112__to_addressB8ne180100IN7pyfolio8DateTimeEEEPT_S4_
FNA:1,396,_ZNSt3__112__to_addressB8ne180100INS_3mapINS_12basic_stringIcNS_11char_traitsIcEENS_9allocatorIcEEEEdNS_4lessIS7_EENS5_INS_4pairIKS7_dEEEEEEEEPT_SG_
FNA:1,50,_ZNSt3__112__to_addressB8ne180100INS_6threadEEEPT_S3_
FNA:1,79,_ZNSt3__112__to_addressB8ne180100IcEEPT_S2_
FNA:1,5172,_ZNSt3__112__to_addressB8ne180100IdEEPT_S2_
FNA:1,0,_ZNSt3__112__to_addressB8ne180100IiEEPT_S2_
FNA:1,1910,_ZNSt3__112__to_addressB8ne180100ImEEPT_S2_
FNL:2,207,208
FNA:2,2,_ZNSt3__112__to_addressB8ne180100INS_11__wrap_iterIPKN7pyfolio8DateTimeEEEvEEu7__decayIDTclsr19__to_address_helperIT_EE6__callclsr3stdE7declvalIRKS7_EEEEES9_
FNA:2,8,_ZNSt3__112__to_addressB8ne180100INS_11__wrap_iterIPKdEEvEEu7__decayIDTclsr19__to_address_helperIT_EE6__callclsr3stdE7declvalIRKS5_EEEEES7_
FNA:2,16,_ZNSt3__112__to_addressB8ne180100INS_11__wrap_iterIPdEEvEEu7__decayIDTclsr19__to_address_helperIT_EE6__callclsr3stdE7declvalIRKS4_EEEEES6_
FNA:2,380,_ZNSt3__112__to_addressB8ne180100INS_11__wrap_iterIPmEEvEEu7__decayIDTclsr19__to_address_helperIT_EE6__callclsr3stdE7declvalIRKS4_EEEEES6_
FNA:2,0,_ZNSt3__112__to_addressB8ne180100INS_16reverse_iteratorINS1_IPNS_6threadEEEEEvEEu7__decayIDTclsr19__to_address_helperIT_EE6__callclsr3stdE7declvalIRKS6_EEEEES8_
FNA:2,0,_ZNSt3__112__to_addressB8ne180100INS_16reverse_iteratorIPNS_3mapINS_12basic_stringIcNS_11char_traitsIcEENS_9allocatorIcEEEEdNS_4lessIS8_EENS6_INS_4pairIKS8_dEEEEEEEEvEEu7__decayIDTclsr19__to_address_helperIT_EE6__callclsr3stdE7declvalIRKSI_EEEEESK_
FNA:2,15,_ZNSt3__112__to_addressB8ne180100INS_16reverse_iteratorIPNS_6threadEEEvEEu7__decayIDTclsr19__to_address_helperIT_EE6__callclsr3stdE7declvalIRKS5_EEEEES7_
FNL:3,215,216
FNA:3,0,_ZNSt3__119__to_address_helperINS_16reverse_iteratorINS1_IPNS_6threadEEEEEvE6__callB8ne180100ERKS5_
FNA:3,0,_ZNSt3__119__to_address_helperINS_16reverse_iteratorIPNS_3mapINS_12basic_stringIcNS_11char_traitsIcEENS_9allocatorIcEEEEdNS_4lessIS8_EENS6_INS_4pairIKS8_dEEEEEEEEvE6__callB8ne180100ERKSH_
FNA:3,15,_ZNSt3__119__to_address_helperINS_16reverse_iteratorIPNS_6threadEEEvE6__callB8ne180100ERKS4_
FNL:4,225,226
FNA:4,2,_ZNSt3__119__to_address_helperINS_11__wrap_iterIPKN7pyfolio8DateTimeEEEvE6__callB8ne180100ERKS6_
FNA:4,8,_ZNSt3__119__to_address_helperINS_11__wrap_iterIPKdEEvE6__callB8ne180100ERKS4_
FNA:4,16,_ZNSt3__119__to_address_helperINS_11__wrap_iterIPdEEvE6__callB8ne180100ERKS3_
FNA:4,380,_ZNSt3__119__to_address_helperINS_11__wrap_iterIPmEEvE6__callB8ne180100ERKS3_
FNL:5,232,233
FNA:5,9,_ZNSt3__110to_addressB8ne180100IKdEEDaPT_
FNA:5,24,_ZNSt3__110to_addressB8ne180100IcEEDaPT_
FNF:6
FNH:6
DA:161,6154
DA:162,6154
DA:180,14670
DA:182,14670
DA:207,421
DA:208,421
DA:215,15
DA:216,15
DA:225,406
DA:226,406
DA:232,33
DA:233,33
LF:12
LH:12
end_of_record
TN:
SF:/Library/Developer/CommandLineTools/SDKs/MacOSX.sdk/usr/include/c++/v1/__memory/uninitialized_algorithms.h
FNL:0,517,520
FNA:0,0,_ZNSt3__119__allocator_destroyB8ne180100INS_9allocatorINS_3mapINS_12basic_stringIcNS_11char_traitsIcEENS1_IcEEEEdNS_4lessIS7_EENS1_INS_4pairIKS7_dEEEEEEEENS_16reverse_iteratorIPSE_EESI_EEvRT_T0_T1_
FNA:0,0,_ZNSt3__119__allocator_destroyB8ne180100INS_9allocatorINS_6threadEEENS_16reverse_iteratorINS4_IPS2_EEEES7_EEvRT_T0_T1_
FNL:1,526,527
FNA:1,18,_ZNSt3__129_AllocatorDestroyRangeReverseINS_9allocatorINS_3mapINS_12basic_stringIcNS_11char_traitsIcEENS1_IcEEEEdNS_4lessIS7_EENS1_INS_4pairIKS7_dEEEEEEEEPSE_EC1B8ne180100ERSF_RSG_SJ_
FNA:1,18,_ZNSt3__129_AllocatorDestroyRangeReverseINS_9allocatorINS_3mapINS_12basic_stringIcNS_11char_traitsIcEENS1_IcEEEEdNS_4lessIS7_EENS1_INS_4pairIKS7_dEEEEEEEEPSE_EC2B8ne180100ERSF_RSG_SJ_
FNA:1,5,_ZNSt3__129_AllocatorDestroyRangeReverseINS_9allocatorINS_6threadEEENS_16reverse_iteratorIPS2_EEEC1B8ne180100ERS3_RS6_S9_
FNA:1,5,_ZNSt3__129_AllocatorDestroyRangeReverseINS_9allocatorINS_6threadEEENS_16reverse_iteratorIPS2_EEEC2B8ne180100ERS3_RS6_S9_
FNL:2,529,531
FNA:2,0,_ZNKSt3__129_AllocatorDestroyRangeReverseINS_9allocatorINS_3mapINS_12basic_stringIcNS_11char_traitsIcEENS1_IcEEEEdNS_4lessIS7_EENS1_INS_4pairIKS7_dEEEEEEEEPSE_EclB8ne180100Ev
FNA:2,0,_ZNKSt3__129_AllocatorDestroyRangeReverseINS_9allocatorINS_6threadEEENS_16reverse_iteratorIPS2_EEEclB8ne180100Ev
FNL:3,545,556
FNA:3,18,_ZNSt3__135__uninitialized_allocator_copy_implB8ne180100INS_9allocatorINS_3mapINS_12basic_stringIcNS_11char_traitsIcEENS1_IcEEEEdNS_4lessIS7_EENS1_INS_4pairIKS7_dEEEEEEEEPKSE_SH_PSE_EET2_RT_T0_T1_SJ_
FNL:4,574,584
FNA:4,54,_ZNSt3__135__uninitialized_allocator_copy_implB8ne180100INS_9allocatorIN7pyfolio8DateTimeEEEKS3_S3_S3_LPv0EEEPT2_RT_PT0_SC_S8_
FNA:4,121,_ZNSt3__135__uninitialized_allocator_copy_implB8ne180100INS_9allocatorIN7pyfolio8DateTimeEEES3_S3_S3_LPv0EEEPT2_RT_PT0_SB_S7_
FNA:4,91,_ZNSt3__135__uninitialized_allocator_copy_implB8ne180100INS_9allocatorIdEEKdddLPv0EEEPT2_RT_PT0_SA_S6_
FNA:4,129,_ZNSt3__135__uninitialized_allocator_copy_implB8ne180100INS_9allocatorIdEEdddLPv0EEEPT2_RT_PT0_S9_S5_
FNL:5,590,594
FNA:5,1,_ZNSt3__130__uninitialized_allocator_copyB8ne180100INS_9allocatorIN7pyfolio8DateTimeEEENS_11__wrap_iterIPKS3_EES8_PS3_EET2_RT_T0_T1_SA_
FNA:5,53,_ZNSt3__130__uninitialized_allocator_copyB8ne180100INS_9allocatorIN7pyfolio8DateTimeEEEPKS3_S6_PS3_EET2_RT_T0_T1_S8_
FNA:5,121,_ZNSt3__130__uninitialized_allocator_copyB8ne180100INS_9allocatorIN7pyfolio8DateTimeEEEPS3_S5_S5_EET2_RT_T0_T1_S6_
FNA:5,18,_ZNSt3__130__uninitialized_allocator_copyB8ne180100INS_9allocatorINS_3mapINS_12basic_stringIcNS_11char_traitsIcEENS1_IcEEEEdNS_4lessIS7_EENS1_INS_4pairIKS7_dEEEEEEEEPKSE_SH_PSE_EET2_RT_T0_T1_SJ_
FNA:5,4,_ZNSt3__130__uninitialized_allocator_copyB8ne180100INS_9allocatorIdEENS_11__wrap_iterIPKdEES6_PdEET2_RT_T0_T1_S8_
FNA:5,87,_ZNSt3__130__uninitialized_allocator_copyB8ne180100INS_9allocatorIdEEPKdS4_PdEET2_RT_T0_T1_S6_
FNA:5,129,_ZNSt3__130__uninitialized_allocator_copyB8ne180100INS_9allocatorIdEEPdS3_S3_EET2_RT_T0_T1_S4_
FNL:6,604,621
FNA:6,5,_ZNSt3__142__uninitialized_allocator_move_if_noexceptB8ne180100INS_9allocatorINS_6threadEEENS_16reverse_iteratorIPS2_EES6_S6_EET2_RT_T0_T1_S7_
FNL:7,638,647
FNA:7,0,_ZNSt3__142__uninitialized_allocator_move_if_noexceptB8ne180100INS_9allocatorIN7pyfolio11performance12DrawdownInfoEEENS_16reverse_iteratorIPS4_EES8_S4_vEET1_RT_T0_SC_S9_
FNA:7,109,_ZNSt3__142__uninitialized_allocator_move_if_noexceptB8ne180100INS_9allocatorIN7pyfolio8DateTimeEEENS_16reverse_iteratorIPS3_EES7_S3_vEET1_RT_T0_SB_S8_
FNA:7,142,_ZNSt3__142__uninitialized_allocator_move_if_noexceptB8ne180100INS_9allocatorIdEENS_16reverse_iteratorIPdEES5_dvEET1_RT_T0_S9_S6_
FNA:7,0,_ZNSt3__142__uninitialized_allocator_move_if_noexceptB8ne180100INS_9allocatorIiEENS_16reverse_iteratorIPiEES5_ivEET1_RT_T0_S9_S6_
FNF:8
FNH:6
DA:517,0
DA:518,0
DA:519,0
DA:520,0
DA:526,46
DA:527,46
DA:529,0
DA:530,0
DA:531,0
DA:545,18
DA:546,18
DA:548,18
DA:549,198
DA:550,180
DA:551,180
DA:552,180
DA:554,18
DA:555,18
DA:556,18
DA:574,395
DA:584,395
DA:590,413
DA:591,413
DA:592,413
DA:593,413
DA:594,413
DA:604,5
DA:607,5
DA:609,5
DA:610,20
DA:612,15
DA:616,15
DA:617,15
DA:619,5
DA:620,5
DA:621,5
DA:638,251
DA:647,251
LF:38
LH:31
end_of_record
TN:
SF:/Library/Developer/CommandLineTools/SDKs/MacOSX.sdk/usr/include/c++/v1/__memory/unique_ptr.h
FNL:0,167,167
FNA:0,93,_ZNSt3__110unique_ptrINS_12basic_stringIcNS_11char_traitsIcEENS_9allocatorIcEEEENS_14default_deleteIS6_EEEC1B8ne180100ILb1EvEEv
FNA:0,93,_ZNSt3__110unique_ptrINS_12basic_stringIcNS_11char_traitsIcEENS_9allocatorIcEEEENS_14default_deleteIS6_EEEC2B8ne180100ILb1EvEEv
FNL:1,174,175
FNA:1,10,_ZNSt3__110unique_ptrINS_15__thread_structENS_14default_deleteIS1_EEEC1B8ne180100ILb1EvEEPS1_
FNA:1,10,_ZNSt3__110unique_ptrINS_15__thread_structENS_14default_deleteIS1_EEEC2B8ne180100ILb1EvEEPS1_
FNA:1,20,_ZNSt3__110unique_ptrINS_5tupleIJNS0_INS_15__thread_structENS_14default_deleteIS2_EEEEZN36CoreTypesTest_BasicThreadSafety_Test8TestBodyEvE3$_0EEENS3_IS8_EEEC1B8ne180100ILb1EvEEPS8_
FNA:1,20,_ZNSt3__110unique_ptrINS_5tupleIJNS0_INS_15__thread_structENS_14default_deleteIS2_EEEEZN36CoreTypesTest_BasicThreadSafety_Test8TestBodyEvE3$_0EEENS3_IS8_EEEC2B8ne180100ILb1EvEEPS8_
FNL:2,182,185
FNA:2,0,_ZNSt3__110unique_ptrINS_10__function6__funcIZN7pyfolio11performance17aggregate_returnsERKNS3_10TimeSeriesIdEENS3_9FrequencyEE3$_0NS_9allocatorISA_EEFdRKNS_6vectorIdNSB_IdEEEEEEENS_22__allocator_destructorINSB_ISJ_EEEEEC1B8ne180100ILb1EvEEPSJ_NS_16__dependent_typeINS_27__unique_ptr_deleter_sfinaeISM_EEXT_EE20__good_rval_ref_typeE
FNA:2,0,_ZNSt3__110unique_ptrINS_10__function6__funcIZN7pyfolio11performance17aggregate_returnsERKNS3_10TimeSeriesIdEENS3_9FrequencyEE3$_0NS_9allocatorISA_EEFdRKNS_6vectorIdNSB_IdEEEEEEENS_22__allocator_destructorINSB_ISJ_EEEEEC2B8ne180100ILb1EvEEPSJ_NS_16__dependent_typeINS_27__unique_ptr_deleter_sfinaeISM_EEXT_EE20__good_rval_ref_typeE
FNA:2,0,_ZNSt3__110unique_ptrINS_10__function6__funcIZNK7pyfolio10TimeSeriesIdE8resampleENS3_9FrequencyEEUlRKNS_6vectorIdNS_9allocatorIdEEEEE_NS8_ISD_EEFdSC_EEENS_22__allocator_destructorINS8_ISG_EEEEEC1B8ne180100ILb1EvEEPSG_NS_16__dependent_typeINS_27__unique_ptr_deleter_sfinaeISJ_EEXT_EE20__good_rval_ref_typeE
FNA:2,0,_ZNSt3__110unique_ptrINS_10__function6__funcIZNK7pyfolio10TimeSeriesIdE8resampleENS3_9FrequencyEEUlRKNS_6vectorIdNS_9allocatorIdEEEEE_NS8_ISD_EEFdSC_EEENS_22__allocator_destructorINS8_ISG_EEEEEC2B8ne180100ILb1EvEEPSG_NS_16__dependent_typeINS_27__unique_ptr_deleter_sfinaeISJ_EEXT_EE20__good_rval_ref_typeE
FNA:2,5,_ZNSt3__110unique_ptrINS_11__tree_nodeINS_12__value_typeIN7pyfolio8DateTimeENS_6vectorIdNS_9allocatorIdEEEEEEPvEENS_22__tree_node_destructorINS6_ISB_EEEEEC1B8ne180100ILb1EvEEPSB_NS_16__dependent_typeINS_27__unique_ptr_deleter_sfinaeISE_EEXT_EE20__good_rval_ref_typeE
FNA:2,5,_ZNSt3__110unique_ptrINS_11__tree_nodeINS_12__value_typeIN7pyfolio8DateTimeENS_6vectorIdNS_9allocatorIdEEEEEEPvEENS_22__tree_node_destructorINS6_ISB_EEEEEC2B8ne180100ILb1EvEEPSB_NS_16__dependent_typeINS_27__unique_ptr_deleter_sfinaeISE_EEXT_EE20__good_rval_ref_typeE
FNA:2,1080,_ZNSt3__110unique_ptrINS_11__tree_nodeINS_12__value_typeINS_12basic_stringIcNS_11char_traitsIcEENS_9allocatorIcEEEEdEEPvEENS_22__tree_node_destructorINS6_ISB_EEEEEC1B8ne180100ILb1EvEEPSB_NS_16__dependent_typeINS_27__unique_ptr_deleter_sfinaeISE_EEXT_EE20__good_rval_ref_typeE
FNA:2,1080,_ZNSt3__110unique_ptrINS_11__tree_nodeINS_12__value_typeINS_12basic_stringIcNS_11char_traitsIcEENS_9allocatorIcEEEEdEEPvEENS_22__tree_node_destructorINS6_ISB_EEEEEC2B8ne180100ILb1EvEEPSB_NS_16__dependent_typeINS_27__unique_ptr_deleter_sfinaeISE_EEXT_EE20__good_rval_ref_typeE
FNA:2,36,_ZNSt3__110unique_ptrINS_11__tree_nodeINS_6chrono14year_month_dayEPvEENS_22__tree_node_destructorINS_9allocatorIS5_EEEEEC1B8ne180100ILb1EvEEPS5_NS_16__dependent_typeINS_27__unique_ptr_deleter_sfinaeIS9_EEXT_EE20__good_rval_ref_typeE
FNA:2,36,_ZNSt3__110unique_ptrINS_11__tree_nodeINS_6chrono14year_month_dayEPvEENS_22__tree_node_destructorINS_9allocatorIS5_EEEEEC2B8ne180100ILb1EvEEPS5_NS_16__dependent_typeINS_27__unique_ptr_deleter_sfinaeIS9_EEXT_EE20__good_rval_ref_typeE
FNL:3,190,191
FNA:3,10,_ZNSt3__110unique_ptrINS_15__thread_structENS_14default_deleteIS1_EEEC1B8ne180100EOS4_
FNA:3,10,_ZNSt3__110unique_ptrINS_15__thread_structENS_14default_deleteIS1_EEEC2B8ne180100EOS4_
FNL:4,236,236
FNA:4,0,_ZNSt3__110unique_ptrINS_10__function6__funcIZN7pyfolio11performance17aggregate_returnsERKNS3_10TimeSeriesIdEENS3_9FrequencyEE3$_0NS_9allocatorISA_EEFdRKNS_6vectorIdNSB_IdEEEEEEENS_22__allocator_destructorINSB_ISJ_EEEEED1B8ne180100Ev
FNA:4,0,_ZNSt3__110unique_ptrINS_10__function6__funcIZN7pyfolio11performance17aggregate_returnsERKNS3_10TimeSeriesIdEENS3_9FrequencyEE3$_0NS_9allocatorISA_EEFdRKNS_6vectorIdNSB_IdEEEEEEENS_22__allocator_destructorINSB_ISJ_EEEEED2B8ne180100Ev
FNA:4,0,_ZNSt3__110unique_ptrINS_10__function6__funcIZNK7pyfolio10TimeSeriesIdE8resampleENS3_9FrequencyEEUlRKNS_6vectorIdNS_9allocatorIdEEEEE_NS8_ISD_EEFdSC_EEENS_22__allocator_destructorINS8_ISG_EEEEED1B8ne180100Ev
FNA:4,0,_ZNSt3__110unique_ptrINS_10__function6__funcIZNK7pyfolio10TimeSeriesIdE8resampleENS3_9FrequencyEEUlRKNS_6vectorIdNS_9allocatorIdEEEEE_NS8_ISD_EEFdSC_EEENS_22__allocator_destructorINS8_ISG_EEEEED2B8ne180100Ev
FNA:4,5,_ZNSt3__110unique_ptrINS_11__tree_nodeINS_12__value_typeIN7pyfolio8DateTimeENS_6vectorIdNS_9allocatorIdEEEEEEPvEENS_22__tree_node_destructorINS6_ISB_EEEEED1B8ne180100Ev
FNA:4,5,_ZNSt3__110unique_ptrINS_11__tree_nodeINS_12__value_typeIN7pyfolio8DateTimeENS_6vectorIdNS_9allocatorIdEEEEEEPvEENS_22__tree_node_destructorINS6_ISB_EEEEED2B8ne180100Ev
FNA:4,1080,_ZNSt3__110unique_ptrINS_11__tree_nodeINS_12__value_typeINS_12basic_stringIcNS_11char_traitsIcEENS_9allocatorIcEEEEdEEPvEENS_22__tree_node_destructorINS6_ISB_EEEEED1B8ne180100Ev
FNA:4,1080,_ZNSt3__110unique_ptrINS_11__tree_nodeINS_12__value_typeINS_12basic_stringIcNS_11char_traitsIcEENS_9allocatorIcEEEEdEEPvEENS_22__tree_node_destructorINS6_ISB_EEEEED2B8ne180100Ev
FNA:4,36,_ZNSt3__110unique_ptrINS_11__tree_nodeINS_6chrono14year_month_dayEPvEENS_22__tree_node_destructorINS_9allocatorIS5_EEEEED1B8ne180100Ev
FNA:4,36,_ZNSt3__110unique_ptrINS_11__tree_nodeINS_6chrono14year_month_dayEPvEENS_22__tree_node_destructorINS_9allocatorIS5_EEEEED2B8ne180100Ev
FNA:4,227,_ZNSt3__110unique_ptrINS_12basic_stringIcNS_11char_traitsIcEENS_9allocatorIcEEEENS_14default_deleteIS6_EEED1B8ne180100Ev
FNA:4,227,_ZNSt3__110unique_ptrINS_12basic_stringIcNS_11char_traitsIcEENS_9allocatorIcEEEENS_14default_deleteIS6_EEED2B8ne180100Ev
FNA:4,20,_ZNSt3__110unique_ptrINS_15__thread_structENS_14default_deleteIS1_EEED1B8ne180100Ev
FNA:4,20,_ZNSt3__110unique_ptrINS_15__thread_structENS_14default_deleteIS1_EEED2B8ne180100Ev
FNA:4,77,_ZNSt3__110unique_ptrINS_18basic_stringstreamIcNS_11char_traitsIcEENS_9allocatorIcEEEENS_14default_deleteIS6_EEED1B8ne180100Ev
FNA:4,77,_ZNSt3__110unique_ptrINS_18basic_stringstreamIcNS_11char_traitsIcEENS_9allocatorIcEEEENS_14default_deleteIS6_EEED2B8ne180100Ev
FNA:4,20,_ZNSt3__110unique_ptrINS_5tupleIJNS0_INS_15__thread_structENS_14default_deleteIS2_EEEEZN36CoreTypesTest_BasicThreadSafety_Test8TestBodyEvE3$_0EEENS3_IS8_EEED1B8ne180100Ev
FNA:4,20,_ZNSt3__110unique_ptrINS_5tupleIJNS0_INS_15__thread_structENS_14default_deleteIS2_EEEEZN36CoreTypesTest_BasicThreadSafety_Test8TestBodyEvE3$_0EEENS3_IS8_EEED2B8ne180100Ev
FNL:5,243,244
FNA:5,60,_ZNKSt3__110unique_ptrINS_18basic_stringstreamIcNS_11char_traitsIcEENS_9allocatorIcEEEENS_14default_deleteIS6_EEEdeB8ne180100Ev
FNL:6,246,246
FNA:6,5,_ZNKSt3__110unique_ptrINS_11__tree_nodeINS_12__value_typeIN7pyfolio8DateTimeENS_6vectorIdNS_9allocatorIdEEEEEEPvEENS_22__tree_node_destructorINS6_ISB_EEEEEptB8ne180100Ev
FNA:6,1080,_ZNKSt3__110unique_ptrINS_11__tree_nodeINS_12__value_typeINS_12basic_stringIcNS_11char_traitsIcEENS_9allocatorIcEEEEdEEPvEENS_22__tree_node_destructorINS6_ISB_EEEEEptB8ne180100Ev
FNA:6,36,_ZNKSt3__110unique_ptrINS_11__tree_nodeINS_6chrono14year_month_dayEPvEENS_22__tree_node_destructorINS_9allocatorIS5_EEEEEptB8ne180100Ev
FNA:6,75,_ZNKSt3__110unique_ptrINS_12basic_stringIcNS_11char_traitsIcEENS_9allocatorIcEEEENS_14default_deleteIS6_EEEptB8ne180100Ev
FNL:7,247,247
FNA:7,0,_ZNKSt3__110unique_ptrINS_10__function6__funcIZN7pyfolio11performance17aggregate_returnsERKNS3_10TimeSeriesIdEENS3_9FrequencyEE3$_0NS_9allocatorISA_EEFdRKNS_6vectorIdNSB_IdEEEEEEENS_22__allocator_destructorINSB_ISJ_EEEEE3getB8ne180100Ev
FNA:7,0,_ZNKSt3__110unique_ptrINS_10__function6__funcIZNK7pyfolio10TimeSeriesIdE8resampleENS3_9FrequencyEEUlRKNS_6vectorIdNS_9allocatorIdEEEEE_NS8_ISD_EEFdSC_EEENS_22__allocator_destructorINS8_ISG_EEEEE3getB8ne180100Ev
FNA:7,5,_ZNKSt3__110unique_ptrINS_11__tree_nodeINS_12__value_typeIN7pyfolio8DateTimeENS_6vectorIdNS_9allocatorIdEEEEEEPvEENS_22__tree_node_destructorINS6_ISB_EEEEE3getB8ne180100Ev
FNA:7,1080,_ZNKSt3__110unique_ptrINS_11__tree_nodeINS_12__value_typeINS_12basic_stringIcNS_11char_traitsIcEENS_9allocatorIcEEEEdEEPvEENS_22__tree_node_destructorINS6_ISB_EEEEE3getB8ne180100Ev
FNA:7,36,_ZNKSt3__110unique_ptrINS_11__tree_nodeINS_6chrono14year_month_dayEPvEENS_22__tree_node_destructorINS_9allocatorIS5_EEEEE3getB8ne180100Ev
FNA:7,75,_ZNKSt3__110unique_ptrINS_12basic_stringIcNS_11char_traitsIcEENS_9allocatorIcEEEENS_14default_deleteIS6_EEE3getB8ne180100Ev
FNA:7,30,_ZNKSt3__110unique_ptrINS_5tupleIJNS0_INS_15__thread_structENS_14default_deleteIS2_EEEEZN36CoreTypesTest_BasicThreadSafety_Test8TestBodyEvE3$_0EEENS3_IS8_EEE3getB8ne180100Ev
FNL:8,248,248
FNA:8,5,_ZNSt3__110unique_ptrINS_11__tree_nodeINS_12__value_typeIN7pyfolio8DateTimeENS_6vectorIdNS_9allocatorIdEEEEEEPvEENS_22__tree_node_destructorINS6_ISB_EEEEE11get_deleterB8ne180100Ev
FNA:8,1080,_ZNSt3__110unique_ptrINS_11__tree_nodeINS_12__value_typeINS_12basic_stringIcNS_11char_traitsIcEENS_9allocatorIcEEEEdEEPvEENS_22__tree_node_destructorINS6_ISB_EEEEE11get_deleterB8ne180100Ev
FNA:8,36,_ZNSt3__110unique_ptrINS_11__tree_nodeINS_6chrono14year_month_dayEPvEENS_22__tree_node_destructorINS_9allocatorIS5_EEEEE11get_deleterB8ne180100Ev
FNA:8,10,_ZNSt3__110unique_ptrINS_15__thread_structENS_14default_deleteIS1_EEE11get_deleterB8ne180100Ev
FNL:9,256,259
FNA:9,0,_ZNSt3__110unique_ptrINS_10__function6__funcIZN7pyfolio11performance17aggregate_returnsERKNS3_10TimeSeriesIdEENS3_9FrequencyEE3$_0NS_9allocatorISA_EEFdRKNS_6vectorIdNSB_IdEEEEEEENS_22__allocator_destructorINSB_ISJ_EEEEE7releaseB8ne180100Ev
FNA:9,0,_ZNSt3__110unique_ptrINS_10__function6__funcIZNK7pyfolio10TimeSeriesIdE8resampleENS3_9FrequencyEEUlRKNS_6vectorIdNS_9allocatorIdEEEEE_NS8_ISD_EEFdSC_EEENS_22__allocator_destructorINS8_ISG_EEEEE7releaseB8ne180100Ev
FNA:9,5,_ZNSt3__110unique_ptrINS_11__tree_nodeINS_12__value_typeIN7pyfolio8DateTimeENS_6vectorIdNS_9allocatorIdEEEEEEPvEENS_22__tree_node_destructorINS6_ISB_EEEEE7releaseB8ne180100Ev
FNA:9,1080,_ZNSt3__110unique_ptrINS_11__tree_nodeINS_12__value_typeINS_12basic_stringIcNS_11char_traitsIcEENS_9allocatorIcEEEEdEEPvEENS_22__tree_node_destructorINS6_ISB_EEEEE7releaseB8ne180100Ev
FNA:9,36,_ZNSt3__110unique_ptrINS_11__tree_nodeINS_6chrono14year_month_dayEPvEENS_22__tree_node_destructorINS_9allocatorIS5_EEEEE7releaseB8ne180100Ev
FNA:9,20,_ZNSt3__110unique_ptrINS_15__thread_structENS_14default_deleteIS1_EEE7releaseB8ne180100Ev
FNA:9,10,_ZNSt3__110unique_ptrINS_5tupleIJNS0_INS_15__thread_structENS_14default_deleteIS2_EEEEZN36CoreTypesTest_BasicThreadSafety_Test8TestBodyEvE3$_0EEENS3_IS8_EEE7releaseB8ne180100Ev
FNL:10,262,267
FNA:10,0,_ZNSt3__110unique_ptrINS_10__function6__funcIZN7pyfolio11performance17aggregate_returnsERKNS3_10TimeSeriesIdEENS3_9FrequencyEE3$_0NS_9allocatorISA_EEFdRKNS_6vectorIdNSB_IdEEEEEEENS_22__allocator_destructorINSB_ISJ_EEEEE5resetB8ne180100EPSJ_
FNA:10,0,_ZNSt3__110unique_ptrINS_10__function6__funcIZNK7pyfolio10TimeSeriesIdE8resampleENS3_9FrequencyEEUlRKNS_6vectorIdNS_9allocatorIdEEEEE_NS8_ISD_EEFdSC_EEENS_22__allocator_destructorINS8_ISG_EEEEE5resetB8ne180100EPSG_
FNA:10,5,_ZNSt3__110unique_ptrINS_11__tree_nodeINS_12__value_typeIN7pyfolio8DateTimeENS_6vectorIdNS_9allocatorIdEEEEEEPvEENS_22__tree_node_destructorINS6_ISB_EEEEE5resetB8ne180100EPSB_
FNA:10,1080,_ZNSt3__110unique_ptrINS_11__tree_nodeINS_12__value_typeINS_12basic_stringIcNS_11char_traitsIcEENS_9allocatorIcEEEEdEEPvEENS_22__tree_node_destructorINS6_ISB_EEEEE5resetB8ne180100EPSB_
FNA:10,36,_ZNSt3__110unique_ptrINS_11__tree_nodeINS_6chrono14year_month_dayEPvEENS_22__tree_node_destructorINS_9allocatorIS5_EEEEE5resetB8ne180100EPS5_
FNA:10,233,_ZNSt3__110unique_ptrINS_12basic_stringIcNS_11char_traitsIcEENS_9allocatorIcEEEENS_14default_deleteIS6_EEE5resetB8ne180100EPS6_
FNA:10,20,_ZNSt3__110unique_ptrINS_15__thread_structENS_14default_deleteIS1_EEE5resetB8ne180100EPS1_
FNA:10,77,_ZNSt3__110unique_ptrINS_18basic_stringstreamIcNS_11char_traitsIcEENS_9allocatorIcEEEENS_14default_deleteIS6_EEE5resetB8ne180100EPS6_
FNA:10,20,_ZNSt3__110unique_ptrINS_5tupleIJNS0_INS_15__thread_structENS_14default_deleteIS2_EEEEZN36CoreTypesTest_BasicThreadSafety_Test8TestBodyEvE3$_0EEENS3_IS8_EEE5resetB8ne180100EPS8_
FNL:11,63,67
FNA:11,21,_ZNKSt3__114default_deleteINS_12basic_stringIcNS_11char_traitsIcEENS_9allocatorIcEEEEEclB8ne180100EPS6_
FNA:11,0,_ZNKSt3__114default_deleteINS_15__thread_structEEclB8ne180100EPS1_
FNA:11,77,_ZNKSt3__114default_deleteINS_18basic_stringstreamIcNS_11char_traitsIcEENS_9allocatorIcEEEEEclB8ne180100EPS6_
FNA:11,10,_ZNKSt3__114default_deleteINS_5tupleIJNS_10unique_ptrINS_15__thread_structENS0_IS3_EEEEZN36CoreTypesTest_BasicThreadSafety_Test8TestBodyEvE3$_0EEEEclB8ne180100EPS8_
FNF:12
FNH:12
DA:63,108
DA:66,108
DA:67,108
DA:167,186
DA:174,60
DA:175,60
DA:182,2242
DA:183,2242
DA:185,2242
DA:190,20
DA:191,20
DA:236,2930
DA:243,60
DA:244,60
DA:246,1196
DA:247,1226
DA:248,1131
DA:256,1151
DA:257,1151
DA:258,1151
DA:259,1151
DA:262,1471
DA:263,1471
DA:264,1471
DA:265,1471
DA:266,108
DA:267,1471
LF:27
LH:27
end_of_record
TN:
SF:/Library/Developer/CommandLineTools/SDKs/MacOSX.sdk/usr/include/c++/v1/__numeric/accumulate.h
FNL:0,27,34
FNA:0,12,_ZNSt3__110accumulateB8ne180100INS_11__wrap_iterIPKdEEdEET0_T_S6_S5_
FNA:0,1,_ZNSt3__110accumulateB8ne180100INS_11__wrap_iterIPdEEdEET0_T_S5_S4_
FNA:0,0,_ZNSt3__110accumulateB8ne180100INS_11__wrap_iterIPiEEdEET0_T_S5_S4_
FNF:1
FNH:1
DA:27,13
DA:28,109
DA:30,96
DA:34,13
LF:4
LH:4
end_of_record
TN:
SF:/Library/Developer/CommandLineTools/SDKs/MacOSX.sdk/usr/include/c++/v1/__numeric/iota.h
FNL:0,23,26
FNA:0,95,_ZNSt3__14iotaB8ne180100INS_11__wrap_iterIPmEEiEEvT_S4_T0_
FNF:1
FNH:1
DA:23,95
DA:24,860
DA:25,765
DA:26,95
LF:4
LH:4
end_of_record
TN:
SF:/Library/Developer/CommandLineTools/SDKs/MacOSX.sdk/usr/include/c++/v1/__ranges/data.h
FNL:0,54,55
FNA:0,0,_ZNKSt3__16ranges6__data4__fnclB8ne180100IRKNS_6vectorIdNS_9allocatorIdEEEEEEDaOT_
FNA:0,8,_ZNKSt3__16ranges6__data4__fnclB8ne180100IRNS_6vectorIdNS_9allocatorIdEEEEEEDaOT_
FNF:1
FNH:1
DA:54,8
DA:55,8
LF:2
LH:2
end_of_record
TN:
SF:/Library/Developer/CommandLineTools/SDKs/MacOSX.sdk/usr/include/c++/v1/__ranges/size.h
FNL:0,83,85
FNA:0,0,_ZNKSt3__16ranges6__size4__fnclB8ne180100IRKNS_6vectorIdNS_9allocatorIdEEEEEEDaOT_
FNA:0,8,_ZNKSt3__16ranges6__size4__fnclB8ne180100IRNS_6vectorIdNS_9allocatorIdEEEEEEDaOT_
FNF:1
FNH:1
DA:83,8
DA:85,8
LF:2
LH:2
end_of_record
TN:
SF:/Library/Developer/CommandLineTools/SDKs/MacOSX.sdk/usr/include/c++/v1/__split_buffer
FNL:0,104
FNA:0,0,_ZNSt3__114__split_bufferIN7pyfolio11performance12DrawdownInfoERNS_9allocatorIS3_EEE7__allocB8ne180100Ev
FNA:0,139,_ZNSt3__114__split_bufferIN7pyfolio8DateTimeERNS_9allocatorIS2_EEE7__allocB8ne180100Ev
FNA:0,24,_ZNSt3__114__split_bufferINS_6threadERNS_9allocatorIS1_EEE7__allocB8ne180100Ev
FNA:0,240,_ZNSt3__114__split_bufferIdRNS_9allocatorIdEEE7__allocB8ne180100Ev
FNA:0,0,_ZNSt3__114__split_bufferIiRNS_9allocatorIiEEE7__allocB8ne180100Ev
FNL:1,109
FNA:1,0,_ZNSt3__114__split_bufferIN7pyfolio11performance12DrawdownInfoERNS_9allocatorIS3_EEE9__end_capB8ne180100Ev
FNA:1,218,_ZNSt3__114__split_bufferIN7pyfolio8DateTimeERNS_9allocatorIS2_EEE9__end_capB8ne180100Ev
FNA:1,10,_ZNSt3__114__split_bufferINS_6threadERNS_9allocatorIS1_EEE9__end_capB8ne180100Ev
FNA:1,284,_ZNSt3__114__split_bufferIdRNS_9allocatorIdEEE9__end_capB8ne180100Ev
FNA:1,0,_ZNSt3__114__split_bufferIiRNS_9allocatorIiEEE9__end_capB8ne180100Ev
FNL:2,110
FNA:2,0,_ZNKSt3__114__split_bufferIN7pyfolio11performance12DrawdownInfoERNS_9allocatorIS3_EEE9__end_capB8ne180100Ev
FNA:2,10,_ZNKSt3__114__split_bufferIN7pyfolio8DateTimeERNS_9allocatorIS2_EEE9__end_capB8ne180100Ev
FNA:2,4,_ZNKSt3__114__split_bufferINS_6threadERNS_9allocatorIS1_EEE9__end_capB8ne180100Ev
FNA:2,27,_ZNKSt3__114__split_bufferIdRNS_9allocatorIdEEE9__end_capB8ne180100Ev
FNA:2,0,_ZNKSt3__114__split_bufferIiRNS_9allocatorIiEEE9__end_capB8ne180100Ev
FNL:3,120
FNA:3,0,_ZNSt3__114__split_bufferIN7pyfolio11performance12DrawdownInfoERNS_9allocatorIS3_EEE5clearB8ne180100Ev
FNA:3,109,_ZNSt3__114__split_bufferIN7pyfolio8DateTimeERNS_9allocatorIS2_EEE5clearB8ne180100Ev
FNA:3,5,_ZNSt3__114__split_bufferINS_6threadERNS_9allocatorIS1_EEE5clearB8ne180100Ev
FNA:3,142,_ZNSt3__114__split_bufferIdRNS_9allocatorIdEEE5clearB8ne180100Ev
FNA:3,0,_ZNSt3__114__split_bufferIiRNS_9allocatorIiEEE5clearB8ne180100Ev
FNL:4,128
FNA:4,0,_ZNKSt3__114__split_bufferIN7pyfolio11performance12DrawdownInfoERNS_9allocatorIS3_EEE8capacityB8ne180100Ev
FNA:4,10,_ZNKSt3__114__split_bufferIN7pyfolio8DateTimeERNS_9allocatorIS2_EEE8capacityB8ne180100Ev
FNA:4,4,_ZNKSt3__114__split_bufferINS_6threadERNS_9allocatorIS1_EEE8capacityB8ne180100Ev
FNA:4,27,_ZNKSt3__114__split_bufferIdRNS_9allocatorIdEEE8capacityB8ne180100Ev
FNA:4,0,_ZNKSt3__114__split_bufferIiRNS_9allocatorIiEEE8capacityB8ne180100Ev
FNL:5,183
FNA:5,0,_ZNSt3__114__split_bufferIN7pyfolio11performance12DrawdownInfoERNS_9allocatorIS3_EEE17__destruct_at_endB8ne180100EPS3_
FNA:5,109,_ZNSt3__114__split_bufferIN7pyfolio8DateTimeERNS_9allocatorIS2_EEE17__destruct_at_endB8ne180100EPS2_
FNA:5,5,_ZNSt3__114__split_bufferINS_6threadERNS_9allocatorIS1_EEE17__destruct_at_endB8ne180100EPS1_
FNA:5,142,_ZNSt3__114__split_bufferIdRNS_9allocatorIdEEE17__destruct_at_endB8ne180100EPd
FNA:5,0,_ZNSt3__114__split_bufferIiRNS_9allocatorIiEEE17__destruct_at_endB8ne180100EPi
FNL:6,325
FNA:6,0,_ZNSt3__114__split_bufferIN7pyfolio11performance12DrawdownInfoERNS_9allocatorIS3_EEE17__destruct_at_endB8ne180100EPS3_NS_17integral_constantIbLb0EEE
FNA:6,109,_ZNSt3__114__split_bufferIN7pyfolio8DateTimeERNS_9allocatorIS2_EEE17__destruct_at_endB8ne180100EPS2_NS_17integral_constantIbLb0EEE
FNA:6,5,_ZNSt3__114__split_bufferINS_6threadERNS_9allocatorIS1_EEE17__destruct_at_endB8ne180100EPS1_NS_17integral_constantIbLb0EEE
FNA:6,142,_ZNSt3__114__split_bufferIdRNS_9allocatorIdEEE17__destruct_at_endB8ne180100EPdNS_17integral_constantIbLb0EEE
FNA:6,0,_ZNSt3__114__split_bufferIiRNS_9allocatorIiEEE17__destruct_at_endB8ne180100EPiNS_17integral_constantIbLb0EEE
FNL:7,338
FNA:7,0,_ZNSt3__114__split_bufferIN7pyfolio11performance12DrawdownInfoERNS_9allocatorIS3_EEEC1EmmS6_
FNA:7,0,_ZNSt3__114__split_bufferIN7pyfolio11performance12DrawdownInfoERNS_9allocatorIS3_EEEC2EmmS6_
FNA:7,109,_ZNSt3__114__split_bufferIN7pyfolio8DateTimeERNS_9allocatorIS2_EEEC1EmmS5_
FNA:7,109,_ZNSt3__114__split_bufferIN7pyfolio8DateTimeERNS_9allocatorIS2_EEEC2EmmS5_
FNA:7,5,_ZNSt3__114__split_bufferINS_6threadERNS_9allocatorIS1_EEEC1EmmS4_
FNA:7,5,_ZNSt3__114__split_bufferINS_6threadERNS_9allocatorIS1_EEEC2EmmS4_
FNA:7,142,_ZNSt3__114__split_bufferIdRNS_9allocatorIdEEEC1EmmS3_
FNA:7,142,_ZNSt3__114__split_bufferIdRNS_9allocatorIdEEEC2EmmS3_
FNA:7,0,_ZNSt3__114__split_bufferIiRNS_9allocatorIiEEEC1EmmS3_
FNA:7,0,_ZNSt3__114__split_bufferIiRNS_9allocatorIiEEEC2EmmS3_
FNL:8,352
FNA:8,0,_ZNSt3__114__split_bufferIN7pyfolio11performance12DrawdownInfoERNS_9allocatorIS3_EEED1Ev
FNA:8,0,_ZNSt3__114__split_bufferIN7pyfolio11performance12DrawdownInfoERNS_9allocatorIS3_EEED2Ev
FNA:8,109,_ZNSt3__114__split_bufferIN7pyfolio8DateTimeERNS_9allocatorIS2_EEED1Ev
FNA:8,109,_ZNSt3__114__split_bufferIN7pyfolio8DateTimeERNS_9allocatorIS2_EEED2Ev
FNA:8,5,_ZNSt3__114__split_bufferINS_6threadERNS_9allocatorIS1_EEED1Ev
FNA:8,5,_ZNSt3__114__split_bufferINS_6threadERNS_9allocatorIS1_EEED2Ev
FNA:8,142,_ZNSt3__114__split_bufferIdRNS_9allocatorIdEEED1Ev
FNA:8,142,_ZNSt3__114__split_bufferIdRNS_9allocatorIdEEED2Ev
FNA:8,0,_ZNSt3__114__split_bufferIiRNS_9allocatorIiEEED1Ev
FNA:8,0,_ZNSt3__114__split_bufferIiRNS_9allocatorIiEEED2Ev
FNF:9
FNH:9
DA:104,403
DA:109,512
DA:110,41
DA:111,41
DA:120,256
DA:128,41
DA:129,41
DA:183,256
DA:184,256
DA:185,256
DA:325,256
DA:326,362
DA:327,106
DA:328,256
DA:338,512
DA:339,512
DA:340,256
DA:341,0
DA:342,0
DA:343,256
DA:344,256
DA:345,256
DA:347,256
DA:348,256
DA:349,512
DA:352,512
DA:353,256
DA:354,256
DA:355,41
DA:356,512
LF:30
LH:28
end_of_record
TN:
SF:/Library/Developer/CommandLineTools/SDKs/MacOSX.sdk/usr/include/c++/v1/__string/char_traits.h
FNL:0,189,191
FNA:0,70,_ZNSt3__111char_traitsIcE6assignB8ne180100ERcRKc
FNL:1,204,222
FNA:1,1119,_ZNSt3__111char_traitsIcE7compareB8ne180100EPKcS3_m
FNL:2,226,227
FNA:2,1975,_ZNSt3__111char_traitsIcE6lengthB8ne180100EPKc
FNL:3,231,235
FNA:3,1,_ZNSt3__111char_traitsIcE4findB8ne180100EPKcmRS2_
FNL:4,243,247
FNA:4,22,_ZNSt3__111char_traitsIcE4copyB8ne180100EPcPKcm
FNL:5,251,253
FNA:5,11,_ZNSt3__111char_traitsIcE6assignB8ne180100EPcmc
FNL:6,265,266
FNA:6,60,_ZNSt3__111char_traitsIcE11eq_int_typeB8ne180100Eii
FNL:7,268,268
FNA:7,88,_ZNSt3__111char_traitsIcE3eofB8ne180100Ev
FNL:8,624,659
FNA:8,1,_ZNSt3__118__search_substringB8ne180100IcNS_11char_traitsIcEEEEPKT_S5_S5_S5_S5_
FNL:9,663,675
FNA:9,1,_ZNSt3__110__str_findB8ne180100IcmNS_11char_traitsIcEELm18446744073709551615EEET0_PKT_S3_S6_S3_S3_
FNF:10
FNH:10
DA:189,70
DA:190,70
DA:191,70
DA:204,1119
DA:222,1119
DA:226,1975
DA:227,1975
DA:231,1
DA:232,1
DA:233,0
DA:234,1
DA:235,1
DA:243,22
DA:246,22
DA:247,22
DA:251,11
DA:252,11
DA:253,11
DA:265,60
DA:266,60
DA:268,88
DA:624,1
DA:628,1
DA:629,1
DA:630,0
DA:632,1
DA:633,1
DA:634,0
DA:637,1
DA:638,1
DA:639,1
DA:641,1
DA:642,0
DA:645,1
DA:646,1
DA:647,0
DA:654,1
DA:655,1
DA:657,0
DA:659,1
DA:663,1
DA:664,1
DA:665,0
DA:667,1
DA:668,0
DA:670,1
DA:672,1
DA:673,0
DA:674,1
DA:675,1
LF:50
LH:41
end_of_record
TN:
SF:/Library/Developer/CommandLineTools/SDKs/MacOSX.sdk/usr/include/c++/v1/__string/constexpr_c_functions.h
FNL:0,116,136
FNA:0,1,_ZNSt3__118__constexpr_memchrB8ne180100IKccEEPT_S3_T0_m
FNL:1,195,214
FNA:1,54,_ZNSt3__119__constexpr_memmoveB8ne180100IN7pyfolio8DateTimeEKS2_Li0EEEPT_S5_PT0_NS_15__element_countE
FNA:1,121,_ZNSt3__119__constexpr_memmoveB8ne180100IN7pyfolio8DateTimeES2_Li0EEEPT_S4_PT0_NS_15__element_countE
FNA:1,22,_ZNSt3__119__constexpr_memmoveB8ne180100IcKcLi0EEEPT_S3_PT0_NS_15__element_countE
FNA:1,91,_ZNSt3__119__constexpr_memmoveB8ne180100IdKdLi0EEEPT_S3_PT0_NS_15__element_countE
FNA:1,129,_ZNSt3__119__constexpr_memmoveB8ne180100IddLi0EEEPT_S2_PT0_NS_15__element_countE
FNL:2,38,49
FNA:2,1975,_ZNSt3__118__constexpr_strlenB8ne180100EPKc
FNF:3
FNH:3
DA:38,1975
DA:49,1975
DA:116,1
DA:134,1
DA:135,1
DA:136,1
DA:195,417
DA:196,417
DA:211,417
DA:212,406
DA:213,406
DA:214,417
LF:12
LH:12
end_of_record
TN:
SF:/Library/Developer/CommandLineTools/SDKs/MacOSX.sdk/usr/include/c++/v1/__thread/thread.h
FNL:0,109,112
FNA:0,10,_ZNSt3__121__thread_specific_ptrINS_15__thread_structEE11set_pointerEPS1_
FNL:1,171,171
FNA:1,15,_ZNSt3__16threadC1B8ne180100EOS0_
FNA:1,15,_ZNSt3__16threadC2B8ne180100EOS0_
FNL:2,198,200
FNA:2,10,_ZNSt3__116__thread_executeB8ne180100INS_10unique_ptrINS_15__thread_structENS_14default_deleteIS2_EEEEZN36CoreTypesTest_BasicThreadSafety_Test8TestBodyEvE3$_0JEJEEEvRNS_5tupleIJT_T0_DpT1_EEENS_15__tuple_indicesIJXspT2_EEEE
FNL:3,203,210
FNA:3,10,_ZNSt3__114__thread_proxyB8ne180100INS_5tupleIJNS_10unique_ptrINS_15__thread_structENS_14default_deleteIS3_EEEEZN36CoreTypesTest_BasicThreadSafety_Test8TestBodyEvE3$_0EEEEEPvSA_
FNL:4,213,223
FNA:4,10,_ZNSt3__16threadC1IZN36CoreTypesTest_BasicThreadSafety_Test8TestBodyEvE3$_0JEvEEOT_DpOT0_
FNA:4,10,_ZNSt3__16threadC2IZN36CoreTypesTest_BasicThreadSafety_Test8TestBodyEvE3$_0JEvEEOT_DpOT0_
FNF:5
FNH:5
DA:109,10
DA:111,10
DA:112,10
DA:171,30
DA:198,10
DA:199,10
DA:200,10
DA:203,10
DA:205,10
DA:206,10
DA:208,10
DA:210,10
DA:213,20
DA:215,10
DA:217,10
DA:218,10
DA:219,10
DA:220,10
DA:222,0
DA:223,20
LF:20
LH:19
end_of_record
TN:
SF:/Library/Developer/CommandLineTools/SDKs/MacOSX.sdk/usr/include/c++/v1/__threading_support
FNL:0,316
FNA:0,10,_ZNSt3__122__libcpp_thread_createB8ne180100EPP17_opaque_pthread_tPFPvS3_ES3_
FNL:1,352
FNA:1,10,_ZNSt3__116__libcpp_tls_setB8ne180100EmPv
FNF:2
FNH:2
DA:316,10
DA:317,10
DA:352,10
LF:3
LH:3
end_of_record
TN:
SF:/Library/Developer/CommandLineTools/SDKs/MacOSX.sdk/usr/include/c++/v1/__tree
FNL:0,1000
FNA:0,1,_ZNSt3__16__treeINS_12__value_typeIN7pyfolio8DateTimeENS_6vectorIdNS_9allocatorIdEEEEEENS_19__map_value_compareIS3_S8_NS_4lessIS3_EELb1EEENS5_IS8_EEE5beginB8ne180100Ev
FNA:0,1080,_ZNSt3__16__treeINS_12__value_typeINS_12basic_stringIcNS_11char_traitsIcEENS_9allocatorIcEEEEdEENS_19__map_value_compareIS7_S8_NS_4lessIS7_EELb1EEENS5_IS8_EEE5beginB8ne180100Ev
FNL:1,1001
FNA:1,180,_ZNKSt3__16__treeINS_12__value_typeINS_12basic_stringIcNS_11char_traitsIcEENS_9allocatorIcEEEEdEENS_19__map_value_compareIS7_S8_NS_4lessIS7_EELb1EEENS5_IS8_EEE5beginB8ne180100Ev
FNL:2,1002
FNA:2,1,_ZNSt3__16__treeINS_12__value_typeIN7pyfolio8DateTimeENS_6vectorIdNS_9allocatorIdEEEEEENS_19__map_value_compareIS3_S8_NS_4lessIS3_EELb1EEENS5_IS8_EEE3endB8ne180100Ev
FNA:2,1080,_ZNSt3__16__treeINS_12__value_typeINS_12basic_stringIcNS_11char_traitsIcEENS_9allocatorIcEEEEdEENS_19__map_value_compareIS7_S8_NS_4lessIS7_EELb1EEENS5_IS8_EEE3endB8ne180100Ev
FNL:3,1003
FNA:3,540,_ZNKSt3__16__treeINS_12__value_typeINS_12basic_stringIcNS_11char_traitsIcEENS_9allocatorIcEEEEdEENS_19__map_value_compareIS7_S8_NS_4lessIS7_EELb1EEENS5_IS8_EEE3endB8ne180100Ev
FNA:3,21,_ZNKSt3__16__treeINS_6chrono14year_month_dayENS_4lessIS2_EENS_9allocatorIS2_EEE3endB8ne180100Ev
FNL:4,1104
FNA:4,1,_ZNSt3__16__treeINS_6chrono14year_month_dayENS_4lessIS2_EENS_9allocatorIS2_EEE15__insert_uniqueB8ne180100ERKS2_
FNL:5,1108
FNA:5,1080,_ZNSt3__16__treeINS_12__value_typeINS_12basic_stringIcNS_11char_traitsIcEENS_9allocatorIcEEEEdEENS_19__map_value_compareIS7_S8_NS_4lessIS7_EELb1EEENS5_IS8_EEE15__insert_uniqueB8ne180100ENS_21__tree_const_iteratorIS8_PNS_11__tree_nodeIS8_PvEElEERKNS_4pairIKS7_dEE
FNL:6,111
FNA:6,1668,_ZNSt3__120__tree_is_left_childB8ne180100IPNS_16__tree_node_baseIPvEEEEbT_
FNL:7,1112
FNA:7,36,_ZNSt3__16__treeINS_6chrono14year_month_dayENS_4lessIS2_EENS_9allocatorIS2_EEE15__insert_uniqueB8ne180100EOS2_
FNL:8,1139
FNA:8,0,_ZNSt3__16__treeINS_12__value_typeINS_12basic_stringIcNS_11char_traitsIcEENS_9allocatorIcEEEEdEENS_19__map_value_compareIS7_S8_NS_4lessIS7_EELb1EEENS5_IS8_EEE14__insert_multiB8ne180100IRKNS_4pairIKS7_dEEEENS_15__tree_iteratorIS8_PNS_11__tree_nodeIS8_PvEElEEOT_
FNL:9,1261
FNA:9,0,_ZNSt3__16__treeINS_12__value_typeINS_12basic_stringIcNS_11char_traitsIcEENS_9allocatorIcEEEEdEENS_19__map_value_compareIS7_S8_NS_4lessIS7_EELb1EEENS5_IS8_EEE19__copy_assign_allocB8ne180100ERKSE_
FNL:10,1270
FNA:10,0,_ZNSt3__16__treeINS_12__value_typeINS_12basic_stringIcNS_11char_traitsIcEENS_9allocatorIcEEEEdEENS_19__map_value_compareIS7_S8_NS_4lessIS7_EELb1EEENS5_IS8_EEE19__copy_assign_allocB8ne180100ERKSE_NS_17integral_constantIbLb0EEE
FNL:11,1289
FNA:11,0,_ZNSt3__16__treeINS_12__value_typeINS_12basic_stringIcNS_11char_traitsIcEENS_9allocatorIcEEEEdEENS_19__map_value_compareIS7_S8_NS_4lessIS7_EELb1EEENS5_IS8_EEE18_DetachedTreeCacheC1B8ne180100EPSE_
FNA:11,0,_ZNSt3__16__treeINS_12__value_typeINS_12basic_stringIcNS_11char_traitsIcEENS_9allocatorIcEEEEdEENS_19__map_value_compareIS7_S8_NS_4lessIS7_EELb1EEENS5_IS8_EEE18_DetachedTreeCacheC2B8ne180100EPSE_
FNL:12,1295
FNA:12,0,_ZNKSt3__16__treeINS_12__value_typeINS_12basic_stringIcNS_11char_traitsIcEENS_9allocatorIcEEEEdEENS_19__map_value_compareIS7_S8_NS_4lessIS7_EELb1EEENS5_IS8_EEE18_DetachedTreeCache5__getB8ne180100Ev
FNL:13,1297
FNA:13,0,_ZNSt3__16__treeINS_12__value_typeINS_12basic_stringIcNS_11char_traitsIcEENS_9allocatorIcEEEEdEENS_19__map_value_compareIS7_S8_NS_4lessIS7_EELb1EEENS5_IS8_EEE18_DetachedTreeCache9__advanceB8ne180100Ev
FNL:14,1304
FNA:14,0,_ZNSt3__16__treeINS_12__value_typeINS_12basic_stringIcNS_11char_traitsIcEENS_9allocatorIcEEEEdEENS_19__map_value_compareIS7_S8_NS_4lessIS7_EELb1EEENS5_IS8_EEE18_DetachedTreeCacheD1B8ne180100Ev
FNA:14,0,_ZNSt3__16__treeINS_12__value_typeINS_12basic_stringIcNS_11char_traitsIcEENS_9allocatorIcEEEEdEENS_19__map_value_compareIS7_S8_NS_4lessIS7_EELb1EEENS5_IS8_EEE18_DetachedTreeCacheD2B8ne180100Ev
FNL:15,1332
FNA:15,1,_ZNSt3__16__treeINS_12__value_typeIN7pyfolio8DateTimeENS_6vectorIdNS_9allocatorIdEEEEEENS_19__map_value_compareIS3_S8_NS_4lessIS3_EELb1EEENS5_IS8_EEEC1ERKSC_
FNA:15,1,_ZNSt3__16__treeINS_12__value_typeIN7pyfolio8DateTimeENS_6vectorIdNS_9allocatorIdEEEEEENS_19__map_value_compareIS3_S8_NS_4lessIS3_EELb1EEENS5_IS8_EEEC2ERKSC_
FNA:15,180,_ZNSt3__16__treeINS_12__value_typeINS_12basic_stringIcNS_11char_traitsIcEENS_9allocatorIcEEEEdEENS_19__map_value_compareIS7_S8_NS_4lessIS7_EELb1EEENS5_IS8_EEEC1ERKSC_
FNA:15,180,_ZNSt3__16__treeINS_12__value_typeINS_12basic_stringIcNS_11char_traitsIcEENS_9allocatorIcEEEEdEENS_19__map_value_compareIS7_S8_NS_4lessIS7_EELb1EEENS5_IS8_EEEC2ERKSC_
FNA:15,6,_ZNSt3__16__treeINS_6chrono14year_month_dayENS_4lessIS2_EENS_9allocatorIS2_EEEC1ERKS4_
FNA:15,6,_ZNSt3__16__treeINS_6chrono14year_month_dayENS_4lessIS2_EENS_9allocatorIS2_EEEC2ERKS4_
FNL:16,1355
FNA:16,0,_ZNSt3__16__treeINS_12__value_typeINS_12basic_stringIcNS_11char_traitsIcEENS_9allocatorIcEEEEdEENS_19__map_value_compareIS7_S8_NS_4lessIS7_EELb1EEENS5_IS8_EEE18_DetachedTreeCache18__detach_from_treeEPSE_
FNL:17,1375
FNA:17,0,_ZNSt3__16__treeINS_12__value_typeINS_12basic_stringIcNS_11char_traitsIcEENS_9allocatorIcEEEEdEENS_19__map_value_compareIS7_S8_NS_4lessIS7_EELb1EEENS5_IS8_EEE18_DetachedTreeCache13__detach_nextEPNS_11__tree_nodeIS8_PvEE
FNL:18,1394
FNA:18,0,_ZNSt3__16__treeINS_12__value_typeINS_12basic_stringIcNS_11char_traitsIcEENS_9allocatorIcEEEEdEENS_19__map_value_compareIS7_S8_NS_4lessIS7_EELb1EEENS5_IS8_EEEaSERKSE_
FNL:19,1425
FNA:19,0,_ZNSt3__16__treeINS_12__value_typeINS_12basic_stringIcNS_11char_traitsIcEENS_9allocatorIcEEEEdEENS_19__map_value_compareIS7_S8_NS_4lessIS7_EELb1EEENS5_IS8_EEE14__assign_multiINS_21__tree_const_iteratorIS8_PNS_11__tree_nodeIS8_PvEElEEEEvT_SM_
FNL:20,1445
FNA:20,180,_ZNSt3__16__treeINS_12__value_typeINS_12basic_stringIcNS_11char_traitsIcEENS_9allocatorIcEEEEdEENS_19__map_value_compareIS7_S8_NS_4lessIS7_EELb1EEENS5_IS8_EEEC1ERKSE_
FNA:20,180,_ZNSt3__16__treeINS_12__value_typeINS_12basic_stringIcNS_11char_traitsIcEENS_9allocatorIcEEEEdEENS_19__map_value_compareIS7_S8_NS_4lessIS7_EELb1EEENS5_IS8_EEEC2ERKSE_
FNL:21,1537
FNA:21,1,_ZNSt3__16__treeINS_12__value_typeIN7pyfolio8DateTimeENS_6vectorIdNS_9allocatorIdEEEEEENS_19__map_value_compareIS3_S8_NS_4lessIS3_EELb1EEENS5_IS8_EEED1Ev
FNA:21,1,_ZNSt3__16__treeINS_12__value_typeIN7pyfolio8DateTimeENS_6vectorIdNS_9allocatorIdEEEEEENS_19__map_value_compareIS3_S8_NS_4lessIS3_EELb1EEENS5_IS8_EEED2Ev
FNA:21,360,_ZNSt3__16__treeINS_12__value_typeINS_12basic_stringIcNS_11char_traitsIcEENS_9allocatorIcEEEEdEENS_19__map_value_compareIS7_S8_NS_4lessIS7_EELb1EEENS5_IS8_EEED1Ev
FNA:21,360,_ZNSt3__16__treeINS_12__value_typeINS_12basic_stringIcNS_11char_traitsIcEENS_9allocatorIcEEEEdEENS_19__map_value_compareIS7_S8_NS_4lessIS7_EELb1EEENS5_IS8_EEED2Ev
FNA:21,2,_ZNSt3__16__treeINS_6chrono14year_month_dayENS_4lessIS2_EENS_9allocatorIS2_EEED1Ev
FNA:21,2,_ZNSt3__16__treeINS_6chrono14year_month_dayENS_4lessIS2_EENS_9allocatorIS2_EEED2Ev
FNL:22,1543
FNA:22,11,_ZNSt3__16__treeINS_12__value_typeIN7pyfolio8DateTimeENS_6vectorIdNS_9allocatorIdEEEEEENS_19__map_value_compareIS3_S8_NS_4lessIS3_EELb1EEENS5_IS8_EEE7destroyEPNS_11__tree_nodeIS8_PvEE
FNA:22,2520,_ZNSt3__16__treeINS_12__value_typeINS_12basic_stringIcNS_11char_traitsIcEENS_9allocatorIcEEEEdEENS_19__map_value_compareIS7_S8_NS_4lessIS7_EELb1EEENS5_IS8_EEE7destroyEPNS_11__tree_nodeIS8_PvEE
FNA:22,26,_ZNSt3__16__treeINS_6chrono14year_month_dayENS_4lessIS2_EENS_9allocatorIS2_EEE7destroyEPNS_11__tree_nodeIS2_PvEE
FNL:23,1620
FNA:23,0,_ZNSt3__16__treeINS_12__value_typeINS_12basic_stringIcNS_11char_traitsIcEENS_9allocatorIcEEEEdEENS_19__map_value_compareIS7_S8_NS_4lessIS7_EELb1EEENS5_IS8_EEE16__find_leaf_highERPNS_15__tree_end_nodeIPNS_16__tree_node_baseIPvEEEERKS7_
FNL:24,168
FNA:24,182,_ZNSt3__110__tree_minB8ne180100IPNS_16__tree_node_baseIPvEEEET_S5_
FNL:25,1682
FNA:25,5,_ZNSt3__16__treeINS_12__value_typeIN7pyfolio8DateTimeENS_6vectorIdNS_9allocatorIdEEEEEENS_19__map_value_compareIS3_S8_NS_4lessIS3_EELb1EEENS5_IS8_EEE12__find_equalIS3_EERPNS_16__tree_node_baseIPvEERPNS_15__tree_end_nodeISJ_EERKT_
FNA:25,0,_ZNSt3__16__treeINS_12__value_typeINS_12basic_stringIcNS_11char_traitsIcEENS_9allocatorIcEEEEdEENS_19__map_value_compareIS7_S8_NS_4lessIS7_EELb1EEENS5_IS8_EEE12__find_equalIS7_EERPNS_16__tree_node_baseIPvEERPNS_15__tree_end_nodeISJ_EERKT_
FNA:25,37,_ZNSt3__16__treeINS_6chrono14year_month_dayENS_4lessIS2_EENS_9allocatorIS2_EEE12__find_equalIS2_EERPNS_16__tree_node_baseIPvEERPNS_15__tree_end_nodeISC_EERKT_
FNL:26,1722
FNA:26,1080,_ZNSt3__16__treeINS_12__value_typeINS_12basic_stringIcNS_11char_traitsIcEENS_9allocatorIcEEEEdEENS_19__map_value_compareIS7_S8_NS_4lessIS7_EELb1EEENS5_IS8_EEE12__find_equalIS7_EERPNS_16__tree_node_baseIPvEENS_21__tree_const_iteratorIS8_PNS_11__tree_nodeIS8_SH_EElEERPNS_15__tree_end_nodeISJ_EESK_RKT_
FNL:27,1764
FNA:27,5,_ZNSt3__16__treeINS_12__value_typeIN7pyfolio8DateTimeENS_6vectorIdNS_9allocatorIdEEEEEENS_19__map_value_compareIS3_S8_NS_4lessIS3_EELb1EEENS5_IS8_EEE16__insert_node_atEPNS_15__tree_end_nodeIPNS_16__tree_node_baseIPvEEEERSJ_SJ_
FNA:27,1080,_ZNSt3__16__treeINS_12__value_typeINS_12basic_stringIcNS_11char_traitsIcEENS_9allocatorIcEEEEdEENS_19__map_value_compareIS7_S8_NS_4lessIS7_EELb1EEENS5_IS8_EEE16__insert_node_atEPNS_15__tree_end_nodeIPNS_16__tree_node_baseIPvEEEERSJ_SJ_
FNA:27,36,_ZNSt3__16__treeINS_6chrono14year_month_dayENS_4lessIS2_EENS_9allocatorIS2_EEE16__insert_node_atEPNS_15__tree_end_nodeIPNS_16__tree_node_baseIPvEEEERSC_SC_
FNL:28,177
FNA:28,720,_ZNSt3__110__tree_maxB8ne180100IPNS_16__tree_node_baseIPvEEEET_S5_
FNL:29,1780
FNA:29,5,_ZNSt3__16__treeINS_12__value_typeIN7pyfolio8DateTimeENS_6vectorIdNS_9allocatorIdEEEEEENS_19__map_value_compareIS3_S8_NS_4lessIS3_EELb1EEENS5_IS8_EEE25__emplace_unique_key_argsIS3_JRKNS_21piecewise_construct_tENS_5tupleIJRKS3_EEENSJ_IJEEEEEENS_4pairINS_15__tree_iteratorIS8_PNS_11__tree_nodeIS8_PvEElEEbEERKT_DpOT0_
FNA:29,1,_ZNSt3__16__treeINS_6chrono14year_month_dayENS_4lessIS2_EENS_9allocatorIS2_EEE25__emplace_unique_key_argsIS2_JRKS2_EEENS_4pairINS_15__tree_iteratorIS2_PNS_11__tree_nodeIS2_PvEElEEbEERKT_DpOT0_
FNA:29,36,_ZNSt3__16__treeINS_6chrono14year_month_dayENS_4lessIS2_EENS_9allocatorIS2_EEE25__emplace_unique_key_argsIS2_JS2_EEENS_4pairINS_15__tree_iteratorIS2_PNS_11__tree_nodeIS2_PvEElEEbEERKT_DpOT0_
FNL:30,1797
FNA:30,1080,_ZNSt3__16__treeINS_12__value_typeINS_12basic_stringIcNS_11char_traitsIcEENS_9allocatorIcEEEEdEENS_19__map_value_compareIS7_S8_NS_4lessIS7_EELb1EEENS5_IS8_EEE30__emplace_hint_unique_key_argsIS7_JRKNS_4pairIKS7_dEEEEENSG_INS_15__tree_iteratorIS8_PNS_11__tree_nodeIS8_PvEElEEbEENS_21__tree_const_iteratorIS8_SP_lEERKT_DpOT0_
FNL:31,1816
FNA:31,5,_ZNSt3__16__treeINS_12__value_typeIN7pyfolio8DateTimeENS_6vectorIdNS_9allocatorIdEEEEEENS_19__map_value_compareIS3_S8_NS_4lessIS3_EELb1EEENS5_IS8_EEE16__construct_nodeIJRKNS_21piecewise_construct_tENS_5tupleIJRKS3_EEENSJ_IJEEEEEENS_10unique_ptrINS_11__tree_nodeIS8_PvEENS_22__tree_node_destructorINS5_ISR_EEEEEEDpOT_
FNA:31,1080,_ZNSt3__16__treeINS_12__value_typeINS_12basic_stringIcNS_11char_traitsIcEENS_9allocatorIcEEEEdEENS_19__map_value_compareIS7_S8_NS_4lessIS7_EELb1EEENS5_IS8_EEE16__construct_nodeIJRKNS_4pairIKS7_dEEEEENS_10unique_ptrINS_11__tree_nodeIS8_PvEENS_22__tree_node_destructorINS5_ISO_EEEEEEDpOT_
FNA:31,0,_ZNSt3__16__treeINS_6chrono14year_month_dayENS_4lessIS2_EENS_9allocatorIS2_EEE16__construct_nodeIJRKS2_EEENS_10unique_ptrINS_11__tree_nodeIS2_PvEENS_22__tree_node_destructorINS5_ISE_EEEEEEDpOT_
FNA:31,36,_ZNSt3__16__treeINS_6chrono14year_month_dayENS_4lessIS2_EENS_9allocatorIS2_EEE16__construct_nodeIJS2_EEENS_10unique_ptrINS_11__tree_nodeIS2_PvEENS_22__tree_node_destructorINS5_ISC_EEEEEEDpOT_
FNL:32,1861
FNA:32,0,_ZNSt3__16__treeINS_12__value_typeINS_12basic_stringIcNS_11char_traitsIcEENS_9allocatorIcEEEEdEENS_19__map_value_compareIS7_S8_NS_4lessIS7_EELb1EEENS5_IS8_EEE15__emplace_multiIJRKNS_4pairIKS7_dEEEEENS_15__tree_iteratorIS8_PNS_11__tree_nodeIS8_PvEElEEDpOT_
FNL:33,1898
FNA:33,0,_ZNSt3__16__treeINS_12__value_typeINS_12basic_stringIcNS_11char_traitsIcEENS_9allocatorIcEEEEdEENS_19__map_value_compareIS7_S8_NS_4lessIS7_EELb1EEENS5_IS8_EEE19__node_insert_multiEPNS_11__tree_nodeIS8_PvEE
FNL:34,196
FNA:34,545,_ZNSt3__116__tree_next_iterB8ne180100IPNS_15__tree_end_nodeIPNS_16__tree_node_baseIPvEEEES5_EET_T0_
FNL:35,208
FNA:35,720,_ZNSt3__116__tree_prev_iterB8ne180100IPNS_16__tree_node_baseIPvEEPNS_15__tree_end_nodeIS4_EEEET_T0_
FNL:36,2097
FNA:36,8,_ZNKSt3__16__treeINS_6chrono14year_month_dayENS_4lessIS2_EENS_9allocatorIS2_EEE4findIS2_EENS_21__tree_const_iteratorIS2_PNS_11__tree_nodeIS2_PvEElEERKT_
FNL:37,2156
FNA:37,8,_ZNKSt3__16__treeINS_6chrono14year_month_dayENS_4lessIS2_EENS_9allocatorIS2_EEE13__lower_boundIS2_EENS_21__tree_const_iteratorIS2_PNS_11__tree_nodeIS2_PvEElEERKT_SD_PNS_15__tree_end_nodeIPNS_16__tree_node_baseISB_EEEE
FNL:38,220
FNA:38,0,_ZNSt3__111__tree_leafB8ne180100IPNS_16__tree_node_baseIPvEEEET_S5_
FNL:39,239
FNA:39,368,_ZNSt3__118__tree_left_rotateB8ne180100IPNS_16__tree_node_baseIPvEEEEvT_
FNL:40,258
FNA:40,6,_ZNSt3__119__tree_right_rotateB8ne180100IPNS_16__tree_node_baseIPvEEEEvT_
FNL:41,282
FNA:41,1121,_ZNSt3__127__tree_balance_after_insertB8ne180100IPNS_16__tree_node_baseIPvEEEEvT_S5_
FNL:42,522
FNA:42,37,_ZNSt3__122__tree_key_value_typesINS_6chrono14year_month_dayEE9__get_keyB8ne180100ERKS2_
FNL:43,524
FNA:43,48,_ZNSt3__122__tree_key_value_typesINS_6chrono14year_month_dayEE9__get_ptrB8ne180100ERS2_
FNL:44,537
FNA:44,0,_ZNSt3__122__tree_key_value_typesINS_12__value_typeINS_12basic_stringIcNS_11char_traitsIcEENS_9allocatorIcEEEEdEEE9__get_keyB8ne180100ERKS8_
FNL:45,542
FNA:45,1080,_ZNSt3__122__tree_key_value_typesINS_12__value_typeINS_12basic_stringIcNS_11char_traitsIcEENS_9allocatorIcEEEEdEEE9__get_keyB8ne180100IKNS_4pairIKS7_dEELi0EEERSC_RT_
FNL:46,546
FNA:46,0,_ZNSt3__122__tree_key_value_typesINS_12__value_typeINS_12basic_stringIcNS_11char_traitsIcEENS_9allocatorIcEEEEdEEE11__get_valueB8ne180100ERKS8_
FNL:47,557
FNA:47,10,_ZNSt3__122__tree_key_value_typesINS_12__value_typeIN7pyfolio8DateTimeENS_6vectorIdNS_9allocatorIdEEEEEEE9__get_ptrB8ne180100ERS8_
FNA:47,2160,_ZNSt3__122__tree_key_value_typesINS_12__value_typeINS_12basic_stringIcNS_11char_traitsIcEENS_9allocatorIcEEEEdEEE9__get_ptrB8ne180100ERS8_
FNL:48,639
FNA:48,367,_ZNSt3__115__tree_end_nodeIPNS_16__tree_node_baseIPvEEEC1B8ne180100Ev
FNA:48,367,_ZNSt3__115__tree_end_nodeIPNS_16__tree_node_baseIPvEEEC2B8ne180100Ev
FNL:49,654
FNA:49,2479,_ZNKSt3__116__tree_node_baseIPvE15__parent_unsafeB8ne180100Ev
FNL:50,656
FNA:50,374,_ZNSt3__116__tree_node_baseIPvE12__set_parentB8ne180100EPS2_
FNL:51,697
FNA:51,5,_ZNSt3__122__tree_node_destructorINS_9allocatorINS_11__tree_nodeINS_12__value_typeIN7pyfolio8DateTimeENS_6vectorIdNS1_IdEEEEEEPvEEEEEC1B8ne180100ERSC_b
FNA:51,5,_ZNSt3__122__tree_node_destructorINS_9allocatorINS_11__tree_nodeINS_12__value_typeIN7pyfolio8DateTimeENS_6vectorIdNS1_IdEEEEEEPvEEEEEC2B8ne180100ERSC_b
FNA:51,1080,_ZNSt3__122__tree_node_destructorINS_9allocatorINS_11__tree_nodeINS_12__value_typeINS_12basic_stringIcNS_11char_traitsIcEENS1_IcEEEEdEEPvEEEEEC1B8ne180100ERSC_b
FNA:51,1080,_ZNSt3__122__tree_node_destructorINS_9allocatorINS_11__tree_nodeINS_12__value_typeINS_12basic_stringIcNS_11char_traitsIcEENS1_IcEEEEdEEPvEEEEEC2B8ne180100ERSC_b
FNA:51,36,_ZNSt3__122__tree_node_destructorINS_9allocatorINS_11__tree_nodeINS_6chrono14year_month_dayEPvEEEEEC1B8ne180100ERS7_b
FNA:51,36,_ZNSt3__122__tree_node_destructorINS_9allocatorINS_11__tree_nodeINS_6chrono14year_month_dayEPvEEEEEC2B8ne180100ERS7_b
FNL:52,701
FNA:52,0,_ZNSt3__122__tree_node_destructorINS_9allocatorINS_11__tree_nodeINS_12__value_typeIN7pyfolio8DateTimeENS_6vectorIdNS1_IdEEEEEEPvEEEEEclB8ne180100EPSB_
FNA:52,0,_ZNSt3__122__tree_node_destructorINS_9allocatorINS_11__tree_nodeINS_12__value_typeINS_12basic_stringIcNS_11char_traitsIcEENS1_IcEEEEdEEPvEEEEEclB8ne180100EPSB_
FNA:52,0,_ZNSt3__122__tree_node_destructorINS_9allocatorINS_11__tree_nodeINS_6chrono14year_month_dayEPvEEEEEclB8ne180100EPS6_
FNL:53,747
FNA:53,10,_ZNKSt3__115__tree_iteratorINS_12__value_typeIN7pyfolio8DateTimeENS_6vectorIdNS_9allocatorIdEEEEEEPNS_11__tree_nodeIS8_PvEElEptB8ne180100Ev
FNL:54,749
FNA:54,5,_ZNSt3__115__tree_iteratorINS_12__value_typeIN7pyfolio8DateTimeENS_6vectorIdNS_9allocatorIdEEEEEEPNS_11__tree_nodeIS8_PvEElEppB8ne180100Ev
FNL:55,771
FNA:55,6,_ZNSt3__1eqB8ne180100ERKNS_15__tree_iteratorINS_12__value_typeIN7pyfolio8DateTimeENS_6vectorIdNS_9allocatorIdEEEEEEPNS_11__tree_nodeIS8_PvEElEESF_
FNL:56,774
FNA:56,6,_ZNSt3__1neB8ne180100ERKNS_15__tree_iteratorINS_12__value_typeIN7pyfolio8DateTimeENS_6vectorIdNS_9allocatorIdEEEEEEPNS_11__tree_nodeIS8_PvEElEESF_
FNL:57,779
FNA:57,5,_ZNSt3__115__tree_iteratorINS_12__value_typeIN7pyfolio8DateTimeENS_6vectorIdNS_9allocatorIdEEEEEEPNS_11__tree_nodeIS8_PvEElEC1B8ne180100ESC_
FNA:57,5,_ZNSt3__115__tree_iteratorINS_12__value_typeIN7pyfolio8DateTimeENS_6vectorIdNS_9allocatorIdEEEEEEPNS_11__tree_nodeIS8_PvEElEC2B8ne180100ESC_
FNA:57,1080,_ZNSt3__115__tree_iteratorINS_12__value_typeINS_12basic_stringIcNS_11char_traitsIcEENS_9allocatorIcEEEEdEEPNS_11__tree_nodeIS8_PvEElEC1B8ne180100ESC_
FNA:57,1080,_ZNSt3__115__tree_iteratorINS_12__value_typeINS_12basic_stringIcNS_11char_traitsIcEENS_9allocatorIcEEEEdEEPNS_11__tree_nodeIS8_PvEElEC2B8ne180100ESC_
FNA:57,37,_ZNSt3__115__tree_iteratorINS_6chrono14year_month_dayEPNS_11__tree_nodeIS2_PvEElEC1B8ne180100ES6_
FNA:57,37,_ZNSt3__115__tree_iteratorINS_6chrono14year_month_dayEPNS_11__tree_nodeIS2_PvEElEC2B8ne180100ES6_
FNL:58,780
FNA:58,2,_ZNSt3__115__tree_iteratorINS_12__value_typeIN7pyfolio8DateTimeENS_6vectorIdNS_9allocatorIdEEEEEEPNS_11__tree_nodeIS8_PvEElEC1B8ne180100EPNS_15__tree_end_nodeIPNS_16__tree_node_baseISA_EEEE
FNA:58,2,_ZNSt3__115__tree_iteratorINS_12__value_typeIN7pyfolio8DateTimeENS_6vectorIdNS_9allocatorIdEEEEEEPNS_11__tree_nodeIS8_PvEElEC2B8ne180100EPNS_15__tree_end_nodeIPNS_16__tree_node_baseISA_EEEE
FNA:58,2160,_ZNSt3__115__tree_iteratorINS_12__value_typeINS_12basic_stringIcNS_11char_traitsIcEENS_9allocatorIcEEEEdEEPNS_11__tree_nodeIS8_PvEElEC1B8ne180100EPNS_15__tree_end_nodeIPNS_16__tree_node_baseISA_EEEE
FNA:58,2160,_ZNSt3__115__tree_iteratorINS_12__value_typeINS_12basic_stringIcNS_11char_traitsIcEENS_9allocatorIcEEEEdEEPNS_11__tree_nodeIS8_PvEElEC2B8ne180100EPNS_15__tree_end_nodeIPNS_16__tree_node_baseISA_EEEE
FNL:59,781
FNA:59,10,_ZNKSt3__115__tree_iteratorINS_12__value_typeIN7pyfolio8DateTimeENS_6vectorIdNS_9allocatorIdEEEEEEPNS_11__tree_nodeIS8_PvEElE8__get_npB8ne180100Ev
FNL:60,827
FNA:60,2160,_ZNSt3__121__tree_const_iteratorINS_12__value_typeINS_12basic_stringIcNS_11char_traitsIcEENS_9allocatorIcEEEEdEEPNS_11__tree_nodeIS8_PvEElEC1B8ne180100ENS_15__tree_iteratorIS8_SC_lEE
FNA:60,2160,_ZNSt3__121__tree_const_iteratorINS_12__value_typeINS_12basic_stringIcNS_11char_traitsIcEENS_9allocatorIcEEEEdEEPNS_11__tree_nodeIS8_PvEElEC2B8ne180100ENS_15__tree_iteratorIS8_SC_lEE
FNA:60,37,_ZNSt3__121__tree_const_iteratorINS_6chrono14year_month_dayEPNS_11__tree_nodeIS2_PvEElEC1B8ne180100ENS_15__tree_iteratorIS2_S6_lEE
FNA:60,37,_ZNSt3__121__tree_const_iteratorINS_6chrono14year_month_dayEPNS_11__tree_nodeIS2_PvEElEC2B8ne180100ENS_15__tree_iteratorIS2_S6_lEE
FNL:61,829
FNA:61,720,_ZNKSt3__121__tree_const_iteratorINS_12__value_typeINS_12basic_stringIcNS_11char_traitsIcEENS_9allocatorIcEEEEdEEPNS_11__tree_nodeIS8_PvEElEdeB8ne180100Ev
FNA:61,8,_ZNKSt3__121__tree_const_iteratorINS_6chrono14year_month_dayEPNS_11__tree_nodeIS2_PvEElEdeB8ne180100Ev
FNL:62,830
FNA:62,540,_ZNKSt3__121__tree_const_iteratorINS_12__value_typeINS_12basic_stringIcNS_11char_traitsIcEENS_9allocatorIcEEEEdEEPNS_11__tree_nodeIS8_PvEElEptB8ne180100Ev
FNL:63,832
FNA:63,540,_ZNSt3__121__tree_const_iteratorINS_12__value_typeINS_12basic_stringIcNS_11char_traitsIcEENS_9allocatorIcEEEEdEEPNS_11__tree_nodeIS8_PvEElEppB8ne180100Ev
FNL:64,844
FNA:64,720,_ZNSt3__121__tree_const_iteratorINS_12__value_typeINS_12basic_stringIcNS_11char_traitsIcEENS_9allocatorIcEEEEdEEPNS_11__tree_nodeIS8_PvEElEmmB8ne180100Ev
FNL:65,856
FNA:65,2880,_ZNSt3__1eqB8ne180100ERKNS_21__tree_const_iteratorINS_12__value_typeINS_12basic_stringIcNS_11char_traitsIcEENS_9allocatorIcEEEEdEEPNS_11__tree_nodeIS8_PvEElEESF_
FNA:65,16,_ZNSt3__1eqB8ne180100ERKNS_21__tree_const_iteratorINS_6chrono14year_month_dayEPNS_11__tree_nodeIS2_PvEElEES9_
FNL:66,859
FNA:66,720,_ZNSt3__1neB8ne180100ERKNS_21__tree_const_iteratorINS_12__value_typeINS_12basic_stringIcNS_11char_traitsIcEENS_9allocatorIcEEEEdEEPNS_11__tree_nodeIS8_PvEElEESF_
FNA:66,9,_ZNSt3__1neB8ne180100ERKNS_21__tree_const_iteratorINS_6chrono14year_month_dayEPNS_11__tree_nodeIS2_PvEElEES9_
FNL:67,865
FNA:67,720,_ZNSt3__121__tree_const_iteratorINS_12__value_typeINS_12basic_stringIcNS_11char_traitsIcEENS_9allocatorIcEEEEdEEPNS_11__tree_nodeIS8_PvEElEC1B8ne180100EPNS_15__tree_end_nodeIPNS_16__tree_node_baseISA_EEEE
FNA:67,720,_ZNSt3__121__tree_const_iteratorINS_12__value_typeINS_12basic_stringIcNS_11char_traitsIcEENS_9allocatorIcEEEEdEEPNS_11__tree_nodeIS8_PvEElEC2B8ne180100EPNS_15__tree_end_nodeIPNS_16__tree_node_baseISA_EEEE
FNA:67,29,_ZNSt3__121__tree_const_iteratorINS_6chrono14year_month_dayEPNS_11__tree_nodeIS2_PvEElEC1B8ne180100EPNS_15__tree_end_nodeIPNS_16__tree_node_baseIS4_EEEE
FNA:67,29,_ZNSt3__121__tree_const_iteratorINS_6chrono14year_month_dayEPNS_11__tree_nodeIS2_PvEElEC2B8ne180100EPNS_15__tree_end_nodeIPNS_16__tree_node_baseIS4_EEEE
FNL:68,866
FNA:68,1260,_ZNKSt3__121__tree_const_iteratorINS_12__value_typeINS_12basic_stringIcNS_11char_traitsIcEENS_9allocatorIcEEEEdEEPNS_11__tree_nodeIS8_PvEElE8__get_npB8ne180100Ev
FNA:68,8,_ZNKSt3__121__tree_const_iteratorINS_6chrono14year_month_dayEPNS_11__tree_nodeIS2_PvEElE8__get_npB8ne180100Ev
FNL:69,945
FNA:69,8,_ZNSt3__16__treeINS_12__value_typeIN7pyfolio8DateTimeENS_6vectorIdNS_9allocatorIdEEEEEENS_19__map_value_compareIS3_S8_NS_4lessIS3_EELb1EEENS5_IS8_EEE10__end_nodeB8ne180100Ev
FNA:69,2520,_ZNSt3__16__treeINS_12__value_typeINS_12basic_stringIcNS_11char_traitsIcEENS_9allocatorIcEEEEdEENS_19__map_value_compareIS7_S8_NS_4lessIS7_EELb1EEENS5_IS8_EEE10__end_nodeB8ne180100Ev
FNA:69,48,_ZNSt3__16__treeINS_6chrono14year_month_dayENS_4lessIS2_EENS_9allocatorIS2_EEE10__end_nodeB8ne180100Ev
FNL:70,948
FNA:70,11,_ZNKSt3__16__treeINS_12__value_typeIN7pyfolio8DateTimeENS_6vectorIdNS_9allocatorIdEEEEEENS_19__map_value_compareIS3_S8_NS_4lessIS3_EELb1EEENS5_IS8_EEE10__end_nodeB8ne180100Ev
FNA:70,900,_ZNKSt3__16__treeINS_12__value_typeINS_12basic_stringIcNS_11char_traitsIcEENS_9allocatorIcEEEEdEENS_19__map_value_compareIS7_S8_NS_4lessIS7_EELb1EEENS5_IS8_EEE10__end_nodeB8ne180100Ev
FNA:70,113,_ZNKSt3__16__treeINS_6chrono14year_month_dayENS_4lessIS2_EENS_9allocatorIS2_EEE10__end_nodeB8ne180100Ev
FNL:71,952
FNA:71,10,_ZNSt3__16__treeINS_12__value_typeIN7pyfolio8DateTimeENS_6vectorIdNS_9allocatorIdEEEEEENS_19__map_value_compareIS3_S8_NS_4lessIS3_EELb1EEENS5_IS8_EEE12__node_allocB8ne180100Ev
FNA:71,2160,_ZNSt3__16__treeINS_12__value_typeINS_12basic_stringIcNS_11char_traitsIcEENS_9allocatorIcEEEEdEENS_19__map_value_compareIS7_S8_NS_4lessIS7_EELb1EEENS5_IS8_EEE12__node_allocB8ne180100Ev
FNA:71,48,_ZNSt3__16__treeINS_6chrono14year_month_dayENS_4lessIS2_EENS_9allocatorIS2_EEE12__node_allocB8ne180100Ev
FNL:72,955
FNA:72,180,_ZNKSt3__16__treeINS_12__value_typeINS_12basic_stringIcNS_11char_traitsIcEENS_9allocatorIcEEEEdEENS_19__map_value_compareIS7_S8_NS_4lessIS7_EELb1EEENS5_IS8_EEE12__node_allocB8ne180100Ev
FNL:73,956
FNA:73,9,_ZNSt3__16__treeINS_12__value_typeIN7pyfolio8DateTimeENS_6vectorIdNS_9allocatorIdEEEEEENS_19__map_value_compareIS3_S8_NS_4lessIS3_EELb1EEENS5_IS8_EEE12__begin_nodeB8ne180100Ev
FNA:73,3240,_ZNSt3__16__treeINS_12__value_typeINS_12basic_stringIcNS_11char_traitsIcEENS_9allocatorIcEEEEdEENS_19__map_value_compareIS7_S8_NS_4lessIS7_EELb1EEENS5_IS8_EEE12__begin_nodeB8ne180100Ev
FNA:73,54,_ZNSt3__16__treeINS_6chrono14year_month_dayENS_4lessIS2_EENS_9allocatorIS2_EEE12__begin_nodeB8ne180100Ev
FNL:74,957
FNA:74,180,_ZNKSt3__16__treeINS_12__value_typeINS_12basic_stringIcNS_11char_traitsIcEENS_9allocatorIcEEEEdEENS_19__map_value_compareIS7_S8_NS_4lessIS7_EELb1EEENS5_IS8_EEE12__begin_nodeB8ne180100Ev
FNL:75,963
FNA:75,5,_ZNSt3__16__treeINS_12__value_typeIN7pyfolio8DateTimeENS_6vectorIdNS_9allocatorIdEEEEEENS_19__map_value_compareIS3_S8_NS_4lessIS3_EELb1EEENS5_IS8_EEE4sizeB8ne180100Ev
FNA:75,1080,_ZNSt3__16__treeINS_12__value_typeINS_12basic_stringIcNS_11char_traitsIcEENS_9allocatorIcEEEEdEENS_19__map_value_compareIS7_S8_NS_4lessIS7_EELb1EEENS5_IS8_EEE4sizeB8ne180100Ev
FNA:75,36,_ZNSt3__16__treeINS_6chrono14year_month_dayENS_4lessIS2_EENS_9allocatorIS2_EEE4sizeB8ne180100Ev
FNL:76,967
FNA:76,16,_ZNSt3__16__treeINS_12__value_typeIN7pyfolio8DateTimeENS_6vectorIdNS_9allocatorIdEEEEEENS_19__map_value_compareIS3_S8_NS_4lessIS3_EELb1EEENS5_IS8_EEE10value_compB8ne180100Ev
FNA:76,720,_ZNSt3__16__treeINS_12__value_typeINS_12basic_stringIcNS_11char_traitsIcEENS_9allocatorIcEEEEdEENS_19__map_value_compareIS7_S8_NS_4lessIS7_EELb1EEENS5_IS8_EEE10value_compB8ne180100Ev
FNA:76,110,_ZNSt3__16__treeINS_6chrono14year_month_dayENS_4lessIS2_EENS_9allocatorIS2_EEE10value_compB8ne180100Ev
FNL:77,968
FNA:77,180,_ZNKSt3__16__treeINS_12__value_typeINS_12basic_stringIcNS_11char_traitsIcEENS_9allocatorIcEEEEdEENS_19__map_value_compareIS7_S8_NS_4lessIS7_EELb1EEENS5_IS8_EEE10value_compB8ne180100Ev
FNA:77,24,_ZNKSt3__16__treeINS_6chrono14year_month_dayENS_4lessIS2_EENS_9allocatorIS2_EEE10value_compB8ne180100Ev
FNL:78,971
FNA:78,6,_ZNKSt3__16__treeINS_12__value_typeIN7pyfolio8DateTimeENS_6vectorIdNS_9allocatorIdEEEEEENS_19__map_value_compareIS3_S8_NS_4lessIS3_EELb1EEENS5_IS8_EEE6__rootB8ne180100Ev
FNA:78,360,_ZNKSt3__16__treeINS_12__value_typeINS_12basic_stringIcNS_11char_traitsIcEENS_9allocatorIcEEEEdEENS_19__map_value_compareIS7_S8_NS_4lessIS7_EELb1EEENS5_IS8_EEE6__rootB8ne180100Ev
FNA:78,47,_ZNKSt3__16__treeINS_6chrono14year_month_dayENS_4lessIS2_EENS_9allocatorIS2_EEE6__rootB8ne180100Ev
FNL:79,975
FNA:79,5,_ZNKSt3__16__treeINS_12__value_typeIN7pyfolio8DateTimeENS_6vectorIdNS_9allocatorIdEEEEEENS_19__map_value_compareIS3_S8_NS_4lessIS3_EELb1EEENS5_IS8_EEE10__root_ptrB8ne180100Ev
FNA:79,0,_ZNKSt3__16__treeINS_12__value_typeINS_12basic_stringIcNS_11char_traitsIcEENS_9allocatorIcEEEEdEENS_19__map_value_compareIS7_S8_NS_4lessIS7_EELb1EEENS5_IS8_EEE10__root_ptrB8ne180100Ev
FNA:79,37,_ZNKSt3__16__treeINS_6chrono14year_month_dayENS_4lessIS2_EENS_9allocatorIS2_EEE10__root_ptrB8ne180100Ev
FNF:80
FNH:62
DA:111,1668
DA:112,1668
DA:168,182
DA:170,183
DA:171,1
DA:172,182
DA:177,720
DA:179,1080
DA:180,360
DA:181,720
DA:196,545
DA:198,545
DA:199,182
DA:200,545
DA:201,182
DA:202,363
DA:203,545
DA:208,720
DA:210,720
DA:211,720
DA:212,0
DA:213,0
DA:214,0
DA:215,0
DA:216,720
DA:220,0
DA:222,0
DA:223,0
DA:224,0
DA:225,0
DA:227,0
DA:228,0
DA:229,0
DA:231,0
DA:233,0
DA:239,368
DA:242,368
DA:243,368
DA:244,368
DA:245,0
DA:246,368
DA:247,368
DA:248,367
DA:250,1
DA:251,368
DA:252,368
DA:253,368
DA:258,6
DA:261,6
DA:262,6
DA:263,6
DA:264,0
DA:265,6
DA:266,6
DA:267,0
DA:269,6
DA:270,6
DA:271,6
DA:272,6
DA:282,1121
DA:285,1121
DA:286,1134
DA:288,381
DA:289,0
DA:290,0
DA:291,0
DA:292,0
DA:293,0
DA:294,0
DA:295,0
DA:296,0
DA:297,0
DA:298,0
DA:299,0
DA:300,0
DA:301,0
DA:302,0
DA:303,0
DA:304,0
DA:305,0
DA:306,0
DA:308,0
DA:309,381
DA:310,381
DA:311,13
DA:312,13
DA:313,13
DA:314,13
DA:315,13
DA:316,13
DA:317,368
DA:318,6
DA:319,6
DA:320,6
DA:321,368
DA:322,368
DA:323,368
DA:324,368
DA:325,368
DA:326,368
DA:330,1121
DA:522,37
DA:524,48
DA:537,0
DA:538,0
DA:542,1080
DA:543,1080
DA:546,0
DA:547,0
DA:557,2170
DA:558,2170
DA:639,734
DA:654,2479
DA:656,374
DA:697,2242
DA:698,1121
DA:699,2242
DA:701,0
DA:702,0
DA:703,0
DA:704,0
DA:705,0
DA:706,0
DA:747,10
DA:749,5
DA:750,5
DA:751,5
DA:752,5
DA:771,6
DA:772,6
DA:774,6
DA:775,6
DA:779,2244
DA:780,4324
DA:781,10
DA:827,4394
DA:829,728
DA:830,540
DA:832,540
DA:833,540
DA:834,540
DA:835,540
DA:844,720
DA:845,720
DA:846,720
DA:847,720
DA:856,2896
DA:857,2896
DA:859,729
DA:860,729
DA:865,1498
DA:866,1268
DA:945,2576
DA:946,2576
DA:948,1024
DA:949,1024
DA:950,1024
DA:952,2218
DA:955,180
DA:956,3303
DA:957,180
DA:963,1121
DA:967,846
DA:968,204
DA:971,413
DA:972,413
DA:975,42
DA:976,42
DA:982,187
DA:1000,1081
DA:1001,180
DA:1002,1081
DA:1003,561
DA:1104,1
DA:1105,1
DA:1108,1080
DA:1109,1080
DA:1112,36
DA:1113,36
DA:1139,0
DA:1140,0
DA:1261,0
DA:1262,0
DA:1263,0
DA:1270,0
DA:1289,0
DA:1290,0
DA:1291,0
DA:1292,0
DA:1293,0
DA:1295,0
DA:1297,0
DA:1298,0
DA:1299,0
DA:1300,0
DA:1301,0
DA:1302,0
DA:1304,0
DA:1305,0
DA:1306,0
DA:1307,0
DA:1308,0
DA:1309,0
DA:1310,0
DA:1311,0
DA:1332,374
DA:1334,374
DA:1335,187
DA:1336,374
DA:1355,0
DA:1356,0
DA:1357,0
DA:1358,0
DA:1359,0
DA:1360,0
DA:1362,0
DA:1363,0
DA:1366,0
DA:1375,0
DA:1376,0
DA:1377,0
DA:1378,0
DA:1379,0
DA:1380,0
DA:1381,0
DA:1382,0
DA:1383,0
DA:1386,0
DA:1387,0
DA:1388,0
DA:1389,0
DA:1390,0
DA:1391,0
DA:1394,0
DA:1395,0
DA:1396,0
DA:1397,0
DA:1398,0
DA:1399,0
DA:1400,0
DA:1425,0
DA:1432,0
DA:1433,0
DA:1434,0
DA:1435,0
DA:1436,0
DA:1437,0
DA:1438,0
DA:1439,0
DA:1440,0
DA:1441,0
DA:1442,0
DA:1445,360
DA:1446,180
DA:1447,180
DA:1448,360
DA:1449,180
DA:1450,360
DA:1537,726
DA:1539,363
DA:1540,726
DA:1543,2557
DA:1544,2557
DA:1545,1097
DA:1546,1097
DA:1547,1097
DA:1548,1097
DA:1549,1097
DA:1550,1097
DA:1551,2557
DA:1620,0
DA:1621,0
DA:1622,0
DA:1623,0
DA:1624,0
DA:1625,0
DA:1626,0
DA:1628,0
DA:1629,0
DA:1631,0
DA:1632,0
DA:1633,0
DA:1635,0
DA:1636,0
DA:1641,0
DA:1642,0
DA:1643,0
DA:1682,42
DA:1683,42
DA:1684,42
DA:1685,42
DA:1686,69
DA:1687,69
DA:1688,12
DA:1689,0
DA:1690,0
DA:1691,0
DA:1692,12
DA:1693,12
DA:1695,57
DA:1696,56
DA:1697,34
DA:1698,34
DA:1699,34
DA:1700,22
DA:1701,22
DA:1703,34
DA:1704,1
DA:1705,1
DA:1709,7
DA:1710,7
DA:1711,42
DA:1722,1080
DA:1724,1080
DA:1727,1080
DA:1728,1080
DA:1730,1080
DA:1731,360
DA:1732,360
DA:1734,720
DA:1735,720
DA:1739,0
DA:1740,0
DA:1743,0
DA:1744,0
DA:1746,0
DA:1747,0
DA:1748,0
DA:1750,0
DA:1751,0
DA:1755,0
DA:1758,0
DA:1759,0
DA:1760,0
DA:1761,1080
DA:1764,1121
DA:1766,1121
DA:1767,1121
DA:1768,1121
DA:1770,1121
DA:1771,1121
DA:1772,367
DA:1773,1121
DA:1774,1121
DA:1775,1121
DA:1780,42
DA:1782,42
DA:1783,42
DA:1784,42
DA:1785,42
DA:1786,41
DA:1787,41
DA:1788,41
DA:1789,41
DA:1790,41
DA:1791,42
DA:1797,1080
DA:1801,1080
DA:1802,1080
DA:1803,1080
DA:1804,1080
DA:1805,1080
DA:1806,1080
DA:1807,1080
DA:1808,1080
DA:1809,1080
DA:1810,1080
DA:1816,1121
DA:1818,1121
DA:1819,1121
DA:1820,1121
DA:1821,1121
DA:1822,1121
DA:1823,1121
DA:1861,0
DA:1862,0
DA:1864,0
DA:1865,0
DA:1866,0
DA:1867,0
DA:1898,0
DA:1900,0
DA:1901,0
DA:1902,0
DA:2097,8
DA:2098,8
DA:2099,8
DA:2100,3
DA:2101,5
DA:2102,8
DA:2156,8
DA:2158,24
DA:2159,16
DA:2160,9
DA:2161,9
DA:2162,9
DA:2163,7
DA:2165,8
LF:398
LH:240
end_of_record
TN:
SF:/Library/Developer/CommandLineTools/SDKs/MacOSX.sdk/usr/include/c++/v1/__type_traits/invoke.h
FNL:0,342,344
FNA:0,6,_ZNSt3__18__invokeB8ne180100IRNS_10__identityEJRKN7pyfolio8DateTimeEEEEDTclclsr3stdE7declvalIT_EEspclsr3stdE7declvalIT0_EEEEOS7_DpOS8_
FNA:0,20,_ZNSt3__18__invokeB8ne180100IRNS_10__identityEJRdEEEDTclclsr3stdE7declvalIT_EEspclsr3stdE7declvalIT0_EEEEOS4_DpOS5_
FNA:0,6,_ZNSt3__18__invokeB8ne180100IRNS_6__lessIvvEEJRKN7pyfolio8DateTimeES7_EEEDTclclsr3stdE7declvalIT_EEspclsr3stdE7declvalIT0_EEEEOS8_DpOS9_
FNA:0,10,_ZNSt3__18__invokeB8ne180100IRNS_6__lessIvvEEJRdS4_EEEDTclclsr3stdE7declvalIT_EEspclsr3stdE7declvalIT0_EEEEOS5_DpOS6_
FNA:0,0,_ZNSt3__18__invokeB8ne180100IRZN7pyfolio11performance17aggregate_returnsERKNS1_10TimeSeriesIdEENS1_9FrequencyEE3$_0JRKNS_6vectorIdNS_9allocatorIdEEEEEEEDTclclsr3stdE7declvalIT_EEspclsr3stdE7declvalIT0_EEEEOSG_DpOSH_
FNA:0,5,_ZNSt3__18__invokeB8ne180100IRZNK7pyfolio10TimeSeriesIdE8resampleENS1_9FrequencyEEUlRKNS_6vectorIdNS_9allocatorIdEEEEE_JSA_EEEDTclclsr3stdE7declvalIT_EEspclsr3stdE7declvalIT0_EEEEOSD_DpOSE_
FNA:0,10,_ZNSt3__18__invokeB8ne180100IZN36CoreTypesTest_BasicThreadSafety_Test8TestBodyEvE3$_0JEEEDTclclsr3stdE7declvalIT_EEspclsr3stdE7declvalIT0_EEEEOS3_DpOS4_
FNA:0,0,_ZNSt3__18__invokeB8ne180100IZNS_16__variant_detail6__ctorINS1_8__traitsIJN7pyfolio10TimeSeriesIdEENS4_5ErrorEEEEE19__generic_constructB8ne180100INS1_18__move_constructorIS8_LNS1_6_TraitE1EEEEEvRS9_OT_EUlRSF_OT0_E_JRNS1_5__altILm0ES6_EESM_EEEDTclclsr3stdE7declvalISF_EEspclsr3stdE7declvalIT0_EEEESG_DpOSO_
FNA:0,0,_ZNSt3__18__invokeB8ne180100IZNS_16__variant_detail6__ctorINS1_8__traitsIJN7pyfolio10TimeSeriesIdEENS4_5ErrorEEEEE19__generic_constructB8ne180100INS1_18__move_constructorIS8_LNS1_6_TraitE1EEEEEvRS9_OT_EUlRSF_OT0_E_JRNS1_5__altILm1ES7_EESM_EEEDTclclsr3stdE7declvalISF_EEspclsr3stdE7declvalIT0_EEEESG_DpOSO_
FNA:0,0,_ZNSt3__18__invokeB8ne180100IZNS_16__variant_detail6__ctorINS1_8__traitsIJdN7pyfolio5ErrorEEEEE19__generic_constructB8ne180100INS1_18__move_constructorIS6_LNS1_6_TraitE1EEEEEvRS7_OT_EUlRSD_OT0_E_JRNS1_5__altILm0EdEESK_EEEDTclclsr3stdE7declvalISD_EEspclsr3stdE7declvalIT0_EEEESE_DpOSM_
FNA:0,1,_ZNSt3__18__invokeB8ne180100IZNS_16__variant_detail6__ctorINS1_8__traitsIJdN7pyfolio5ErrorEEEEE19__generic_constructB8ne180100INS1_18__move_constructorIS6_LNS1_6_TraitE1EEEEEvRS7_OT_EUlRSD_OT0_E_JRNS1_5__altILm1ES5_EESK_EEEDTclclsr3stdE7declvalISD_EEspclsr3stdE7declvalIT0_EEEESE_DpOSM_
FNA:0,2,_ZNSt3__18__invokeB8ne180100IZNS_16__variant_detail6__dtorINS1_8__traitsIJN7pyfolio10Statistics15AlphaBetaResultENS4_5ErrorEEEELNS1_6_TraitE1EE9__destroyB8ne180100EvEUlRT_E_JRNS1_5__altILm0ES6_EEEEEDTclclsr3stdE7declvalISB_EEspclsr3stdE7declvalIT0_EEEEOSB_DpOSH_
FNA:0,0,_ZNSt3__18__invokeB8ne180100IZNS_16__variant_detail6__dtorINS1_8__traitsIJN7pyfolio10Statistics15AlphaBetaResultENS4_5ErrorEEEELNS1_6_TraitE1EE9__destroyB8ne180100EvEUlRT_E_JRNS1_5__altILm1ES7_EEEEEDTclclsr3stdE7declvalISB_EEspclsr3stdE7declvalIT0_EEEEOSB_DpOSH_
FNA:0,2,_ZNSt3__18__invokeB8ne180100IZNS_16__variant_detail6__dtorINS1_8__traitsIJN7pyfolio10Statistics18SimpleDrawdownInfoENS4_5ErrorEEEELNS1_6_TraitE1EE9__destroyB8ne180100EvEUlRT_E_JRNS1_5__altILm0ES6_EEEEEDTclclsr3stdE7declvalISB_EEspclsr3stdE7declvalIT0_EEEEOSB_DpOSH_
FNA:0,0,_ZNSt3__18__invokeB8ne180100IZNS_16__variant_detail6__dtorINS1_8__traitsIJN7pyfolio10Statistics18SimpleDrawdownInfoENS4_5ErrorEEEELNS1_6_TraitE1EE9__destroyB8ne180100EvEUlRT_E_JRNS1_5__altILm1ES7_EEEEEDTclclsr3stdE7declvalISB_EEspclsr3stdE7declvalIT0_EEEEOSB_DpOSH_
FNA:0,13,_ZNSt3__18__invokeB8ne180100IZNS_16__variant_detail6__dtorINS1_8__traitsIJN7pyfolio10TimeSeriesIdEENS4_5ErrorEEEELNS1_6_TraitE1EE9__destroyB8ne180100EvEUlRT_E_JRNS1_5__altILm0ES6_EEEEEDTclclsr3stdE7declvalISB_EEspclsr3stdE7declvalIT0_EEEEOSB_DpOSH_
FNA:0,1,_ZNSt3__18__invokeB8ne180100IZNS_16__variant_detail6__dtorINS1_8__traitsIJN7pyfolio10TimeSeriesIdEENS4_5ErrorEEEELNS1_6_TraitE1EE9__destroyB8ne180100EvEUlRT_E_JRNS1_5__altILm1ES7_EEEEEDTclclsr3stdE7declvalISB_EEspclsr3stdE7declvalIT0_EEEEOSB_DpOSH_
FNA:0,1,_ZNSt3__18__invokeB8ne180100IZNS_16__variant_detail6__dtorINS1_8__traitsIJN7pyfolio18PerformanceMetrics18CaptureRatioResultENS4_5ErrorEEEELNS1_6_TraitE1EE9__destroyB8ne180100EvEUlRT_E_JRNS1_5__altILm0ES6_EEEEEDTclclsr3stdE7declvalISB_EEspclsr3stdE7declvalIT0_EEEEOSB_DpOSH_
FNA:0,0,_ZNSt3__18__invokeB8ne180100IZNS_16__variant_detail6__dtorINS1_8__traitsIJN7pyfolio18PerformanceMetrics18CaptureRatioResultENS4_5ErrorEEEELNS1_6_TraitE1EE9__destroyB8ne180100EvEUlRT_E_JRNS1_5__altILm1ES7_EEEEEDTclclsr3stdE7declvalISB_EEspclsr3stdE7declvalIT0_EEEEOSB_DpOSH_
FNA:0,389,_ZNSt3__18__invokeB8ne180100IZNS_16__variant_detail6__dtorINS1_8__traitsIJN7pyfolio8DateTimeENS4_5ErrorEEEELNS1_6_TraitE1EE9__destroyB8ne180100EvEUlRT_E_JRNS1_5__altILm0ES5_EEEEEDTclclsr3stdE7declvalISA_EEspclsr3stdE7declvalIT0_EEEEOSA_DpOSG_
FNA:0,2,_ZNSt3__18__invokeB8ne180100IZNS_16__variant_detail6__dtorINS1_8__traitsIJN7pyfolio8DateTimeENS4_5ErrorEEEELNS1_6_TraitE1EE9__destroyB8ne180100EvEUlRT_E_JRNS1_5__altILm1ES6_EEEEEDTclclsr3stdE7declvalISA_EEspclsr3stdE7declvalIT0_EEEEOSA_DpOSG_
FNA:0,1,_ZNSt3__18__invokeB8ne180100IZNS_16__variant_detail6__dtorINS1_8__traitsIJN7pyfolio9analytics10statistics18StatisticalSummaryENS4_5ErrorEEEELNS1_6_TraitE1EE9__destroyB8ne180100EvEUlRT_E_JRNS1_5__altILm0ES7_EEEEEDTclclsr3stdE7declvalISC_EEspclsr3stdE7declvalIT0_EEEEOSC_DpOSI_
FNA:0,2,_ZNSt3__18__invokeB8ne180100IZNS_16__variant_detail6__dtorINS1_8__traitsIJN7pyfolio9analytics10statistics18StatisticalSummaryENS4_5ErrorEEEELNS1_6_TraitE1EE9__destroyB8ne180100EvEUlRT_E_JRNS1_5__altILm1ES8_EEEEEDTclclsr3stdE7declvalISC_EEspclsr3stdE7declvalIT0_EEEEOSC_DpOSI_
FNA:0,1,_ZNSt3__18__invokeB8ne180100IZNS_16__variant_detail6__dtorINS1_8__traitsIJN7pyfolio9analytics18PerformanceMetricsENS4_5ErrorEEEELNS1_6_TraitE1EE9__destroyB8ne180100EvEUlRT_E_JRNS1_5__altILm0ES6_EEEEEDTclclsr3stdE7declvalISB_EEspclsr3stdE7declvalIT0_EEEEOSB_DpOSH_
FNA:0,0,_ZNSt3__18__invokeB8ne180100IZNS_16__variant_detail6__dtorINS1_8__traitsIJN7pyfolio9analytics18PerformanceMetricsENS4_5ErrorEEEELNS1_6_TraitE1EE9__destroyB8ne180100EvEUlRT_E_JRNS1_5__altILm1ES7_EEEEEDTclclsr3stdE7declvalISB_EEspclsr3stdE7declvalIT0_EEEEOSB_DpOSH_
FNA:0,1,_ZNSt3__18__invokeB8ne180100IZNS_16__variant_detail6__dtorINS1_8__traitsIJNS_4pairIN7pyfolio10TimeSeriesIdEES7_EENS5_5ErrorEEEELNS1_6_TraitE1EE9__destroyB8ne180100EvEUlRT_E_JRNS1_5__altILm0ES8_EEEEEDTclclsr3stdE7declvalISD_EEspclsr3stdE7declvalIT0_EEEEOSD_DpOSJ_
FNA:0,0,_ZNSt3__18__invokeB8ne180100IZNS_16__variant_detail6__dtorINS1_8__traitsIJNS_4pairIN7pyfolio10TimeSeriesIdEES7_EENS5_5ErrorEEEELNS1_6_TraitE1EE9__destroyB8ne180100EvEUlRT_E_JRNS1_5__altILm1ES9_EEEEEDTclclsr3stdE7declvalISD_EEspclsr3stdE7declvalIT0_EEEEOSD_DpOSJ_
FNA:0,0,_ZNSt3__18__invokeB8ne180100IZNS_16__variant_detail6__dtorINS1_8__traitsIJNS_6vectorIN7pyfolio11performance12DrawdownInfoENS_9allocatorIS7_EEEENS5_5ErrorEEEELNS1_6_TraitE1EE9__destroyB8ne180100EvEUlRT_E_JRNS1_5__altILm0ESA_EEEEEDTclclsr3stdE7declvalISF_EEspclsr3stdE7declvalIT0_EEEEOSF_DpOSL_
FNA:0,0,_ZNSt3__18__invokeB8ne180100IZNS_16__variant_detail6__dtorINS1_8__traitsIJNS_6vectorIN7pyfolio11performance12DrawdownInfoENS_9allocatorIS7_EEEENS5_5ErrorEEEELNS1_6_TraitE1EE9__destroyB8ne180100EvEUlRT_E_JRNS1_5__altILm1ESB_EEEEEDTclclsr3stdE7declvalISF_EEspclsr3stdE7declvalIT0_EEEEOSF_DpOSL_
FNA:0,0,_ZNSt3__18__invokeB8ne180100IZNS_16__variant_detail6__dtorINS1_8__traitsIJNS_6vectorIdNS_9allocatorIdEEEEN7pyfolio5ErrorEEEELNS1_6_TraitE1EE9__destroyB8ne180100EvEUlRT_E_JRNS1_5__altILm0ES7_EEEEEDTclclsr3stdE7declvalISD_EEspclsr3stdE7declvalIT0_EEEEOSD_DpOSJ_
FNA:0,0,_ZNSt3__18__invokeB8ne180100IZNS_16__variant_detail6__dtorINS1_8__traitsIJNS_6vectorIdNS_9allocatorIdEEEEN7pyfolio5ErrorEEEELNS1_6_TraitE1EE9__destroyB8ne180100EvEUlRT_E_JRNS1_5__altILm1ES9_EEEEEDTclclsr3stdE7declvalISD_EEspclsr3stdE7declvalIT0_EEEEOSD_DpOSJ_
FNA:0,100094,_ZNSt3__18__invokeB8ne180100IZNS_16__variant_detail6__dtorINS1_8__traitsIJdN7pyfolio5ErrorEEEELNS1_6_TraitE1EE9__destroyB8ne180100EvEUlRT_E_JRNS1_5__altILm0EdEEEEEDTclclsr3stdE7declvalIS9_EEspclsr3stdE7declvalIT0_EEEEOS9_DpOSF_
FNA:0,11,_ZNSt3__18__invokeB8ne180100IZNS_16__variant_detail6__dtorINS1_8__traitsIJdN7pyfolio5ErrorEEEELNS1_6_TraitE1EE9__destroyB8ne180100EvEUlRT_E_JRNS1_5__altILm1ES5_EEEEEDTclclsr3stdE7declvalIS9_EEspclsr3stdE7declvalIT0_EEEEOS9_DpOSF_
FNA:0,12,_ZNSt3__18__invokeB8ne180100IZNS_16__variant_detail6__dtorINS1_8__traitsIJiN7pyfolio5ErrorEEEELNS1_6_TraitE1EE9__destroyB8ne180100EvEUlRT_E_JRNS1_5__altILm0EiEEEEEDTclclsr3stdE7declvalIS9_EEspclsr3stdE7declvalIT0_EEEEOS9_DpOSF_
FNA:0,1,_ZNSt3__18__invokeB8ne180100IZNS_16__variant_detail6__dtorINS1_8__traitsIJiN7pyfolio5ErrorEEEELNS1_6_TraitE1EE9__destroyB8ne180100EvEUlRT_E_JRNS1_5__altILm1ES5_EEEEEDTclclsr3stdE7declvalIS9_EEspclsr3stdE7declvalIT0_EEEEOS9_DpOSF_
FNL:1,410,411
FNA:1,0,_ZNSt3__128__invoke_void_return_wrapperIdLb0EE6__callB8ne180100IJRZN7pyfolio11performance17aggregate_returnsERKNS3_10TimeSeriesIdEENS3_9FrequencyEE3$_0RKNS_6vectorIdNS_9allocatorIdEEEEEEEdDpOT_
FNA:1,5,_ZNSt3__128__invoke_void_return_wrapperIdLb0EE6__callB8ne180100IJRZNK7pyfolio10TimeSeriesIdE8resampleENS3_9FrequencyEEUlRKNS_6vectorIdNS_9allocatorIdEEEEE_SC_EEEdDpOT_
FNF:2
FNH:2
DA:342,100591
DA:344,100591
DA:410,5
DA:411,5
LF:4
LH:4
end_of_record
TN:
SF:/Library/Developer/CommandLineTools/SDKs/MacOSX.sdk/usr/include/c++/v1/__utility/convert_to_integral.h
FNL:0,28,28
FNA:0,21,_ZNSt3__121__convert_to_integralB8ne180100El
FNL:1,30,31
FNA:1,11,_ZNSt3__121__convert_to_integralB8ne180100Em
FNF:2
FNH:2
DA:28,21
DA:30,11
DA:31,11
LF:3
LH:3
end_of_record
TN:
SF:/Library/Developer/CommandLineTools/SDKs/MacOSX.sdk/usr/include/c++/v1/__utility/exception_guard.h
FNL:0,136,137
FNA:0,18,_ZNSt3__122__make_exception_guardB8ne180100INS_29_AllocatorDestroyRangeReverseINS_9allocatorINS_3mapINS_12basic_stringIcNS_11char_traitsIcEENS2_IcEEEEdNS_4lessIS8_EENS2_INS_4pairIKS8_dEEEEEEEEPSF_EEEENS_28__exception_guard_exceptionsIT_EESK_
FNA:0,5,_ZNSt3__122__make_exception_guardB8ne180100INS_29_AllocatorDestroyRangeReverseINS_9allocatorINS_6threadEEENS_16reverse_iteratorIPS3_EEEEEENS_28__exception_guard_exceptionsIT_EESA_
FNA:0,110,_ZNSt3__122__make_exception_guardB8ne180100INS_6vectorIN7pyfolio8DateTimeENS_9allocatorIS3_EEE16__destroy_vectorEEENS_28__exception_guard_exceptionsIT_EES9_
FNA:0,139,_ZNSt3__122__make_exception_guardB8ne180100INS_6vectorIdNS_9allocatorIdEEE16__destroy_vectorEEENS_28__exception_guard_exceptionsIT_EES7_
FNA:0,95,_ZNSt3__122__make_exception_guardB8ne180100INS_6vectorImNS_9allocatorImEEE16__destroy_vectorEEENS_28__exception_guard_exceptionsIT_EES7_
FNL:1,68,69
FNA:1,18,_ZNSt3__128__exception_guard_exceptionsINS_29_AllocatorDestroyRangeReverseINS_9allocatorINS_3mapINS_12basic_stringIcNS_11char_traitsIcEENS2_IcEEEEdNS_4lessIS8_EENS2_INS_4pairIKS8_dEEEEEEEEPSF_EEEC1B8ne180100ESI_
FNA:1,18,_ZNSt3__128__exception_guard_exceptionsINS_29_AllocatorDestroyRangeReverseINS_9allocatorINS_3mapINS_12basic_stringIcNS_11char_traitsIcEENS2_IcEEEEdNS_4lessIS8_EENS2_INS_4pairIKS8_dEEEEEEEEPSF_EEEC2B8ne180100ESI_
FNA:1,5,_ZNSt3__128__exception_guard_exceptionsINS_29_AllocatorDestroyRangeReverseINS_9allocatorINS_6threadEEENS_16reverse_iteratorIPS3_EEEEEC1B8ne180100ES8_
FNA:1,5,_ZNSt3__128__exception_guard_exceptionsINS_29_AllocatorDestroyRangeReverseINS_9allocatorINS_6threadEEENS_16reverse_iteratorIPS3_EEEEEC2B8ne180100ES8_
FNA:1,110,_ZNSt3__128__exception_guard_exceptionsINS_6vectorIN7pyfolio8DateTimeENS_9allocatorIS3_EEE16__destroy_vectorEEC1B8ne180100ES7_
FNA:1,110,_ZNSt3__128__exception_guard_exceptionsINS_6vectorIN7pyfolio8DateTimeENS_9allocatorIS3_EEE16__destroy_vectorEEC2B8ne180100ES7_
FNA:1,139,_ZNSt3__128__exception_guard_exceptionsINS_6vectorIdNS_9allocatorIdEEE16__destroy_vectorEEC1B8ne180100ES5_
FNA:1,139,_ZNSt3__128__exception_guard_exceptionsINS_6vectorIdNS_9allocatorIdEEE16__destroy_vectorEEC2B8ne180100ES5_
FNA:1,95,_ZNSt3__128__exception_guard_exceptionsINS_6vectorImNS_9allocatorImEEE16__destroy_vectorEEC1B8ne180100ES5_
FNA:1,95,_ZNSt3__128__exception_guard_exceptionsINS_6vectorImNS_9allocatorImEEE16__destroy_vectorEEC2B8ne180100ES5_
FNL:2,82,82
FNA:2,18,_ZNSt3__128__exception_guard_exceptionsINS_29_AllocatorDestroyRangeReverseINS_9allocatorINS_3mapINS_12basic_stringIcNS_11char_traitsIcEENS2_IcEEEEdNS_4lessIS8_EENS2_INS_4pairIKS8_dEEEEEEEEPSF_EEE10__completeB8ne180100Ev
FNA:2,5,_ZNSt3__128__exception_guard_exceptionsINS_29_AllocatorDestroyRangeReverseINS_9allocatorINS_6threadEEENS_16reverse_iteratorIPS3_EEEEE10__completeB8ne180100Ev
FNA:2,110,_ZNSt3__128__exception_guard_exceptionsINS_6vectorIN7pyfolio8DateTimeENS_9allocatorIS3_EEE16__destroy_vectorEE10__completeB8ne180100Ev
FNA:2,139,_ZNSt3__128__exception_guard_exceptionsINS_6vectorIdNS_9allocatorIdEEE16__destroy_vectorEE10__completeB8ne180100Ev
FNA:2,95,_ZNSt3__128__exception_guard_exceptionsINS_6vectorImNS_9allocatorImEEE16__destroy_vectorEE10__completeB8ne180100Ev
FNL:3,84,87
FNA:3,18,_ZNSt3__128__exception_guard_exceptionsINS_29_AllocatorDestroyRangeReverseINS_9allocatorINS_3mapINS_12basic_stringIcNS_11char_traitsIcEENS2_IcEEEEdNS_4lessIS8_EENS2_INS_4pairIKS8_dEEEEEEEEPSF_EEED1B8ne180100Ev
FNA:3,18,_ZNSt3__128__exception_guard_exceptionsINS_29_AllocatorDestroyRangeReverseINS_9allocatorINS_3mapINS_12basic_stringIcNS_11char_traitsIcEENS2_IcEEEEdNS_4lessIS8_EENS2_INS_4pairIKS8_dEEEEEEEEPSF_EEED2B8ne180100Ev
FNA:3,5,_ZNSt3__128__exception_guard_exceptionsINS_29_AllocatorDestroyRangeReverseINS_9allocatorINS_6threadEEENS_16reverse_iteratorIPS3_EEEEED1B8ne180100Ev
FNA:3,5,_ZNSt3__128__exception_guard_exceptionsINS_29_AllocatorDestroyRangeReverseINS_9allocatorINS_6threadEEENS_16reverse_iteratorIPS3_EEEEED2B8ne180100Ev
FNA:3,110,_ZNSt3__128__exception_guard_exceptionsINS_6vectorIN7pyfolio8DateTimeENS_9allocatorIS3_EEE16__destroy_vectorEED1B8ne180100Ev
FNA:3,110,_ZNSt3__128__exception_guard_exceptionsINS_6vectorIN7pyfolio8DateTimeENS_9allocatorIS3_EEE16__destroy_vectorEED2B8ne180100Ev
FNA:3,139,_ZNSt3__128__exception_guard_exceptionsINS_6vectorIdNS_9allocatorIdEEE16__destroy_vectorEED1B8ne180100Ev
FNA:3,139,_ZNSt3__128__exception_guard_exceptionsINS_6vectorIdNS_9allocatorIdEEE16__destroy_vectorEED2B8ne180100Ev
FNA:3,95,_ZNSt3__128__exception_guard_exceptionsINS_6vectorImNS_9allocatorImEEE16__destroy_vectorEED1B8ne180100Ev
FNA:3,95,_ZNSt3__128__exception_guard_exceptionsINS_6vectorImNS_9allocatorImEEE16__destroy_vectorEED2B8ne180100Ev
FNF:4
FNH:4
DA:68,734
DA:69,734
DA:82,367
DA:84,734
DA:85,367
DA:86,0
DA:87,734
DA:136,367
DA:137,367
LF:9
LH:8
end_of_record
TN:
SF:/Library/Developer/CommandLineTools/SDKs/MacOSX.sdk/usr/include/c++/v1/__utility/pair.h
FNL:0,176,178
FNA:0,1,_ZNSt3__14pairIN7pyfolio10TimeSeriesIdEES3_EC1B8ne180100ILb1ELi0EEERKS3_S7_
FNA:0,1,_ZNSt3__14pairIN7pyfolio10TimeSeriesIdEES3_EC2B8ne180100ILb1ELi0EEERKS3_S7_
FNA:0,0,_ZNSt3__14pairIRNS_12basic_stringIcNS_11char_traitsIcEENS_9allocatorIcEEEERdEC1B8ne180100ILb1ELi0EEES7_S8_
FNA:0,0,_ZNSt3__14pairIRNS_12basic_stringIcNS_11char_traitsIcEENS_9allocatorIcEEEERdEC2B8ne180100ILb1ELi0EEES7_S8_
FNL:1,204,208
FNA:1,540,_ZNSt3__14pairIKNS_12basic_stringIcNS_11char_traitsIcEENS_9allocatorIcEEEEdEC1B8ne180100IRA5_KcdLi0EEEOT_OT0_
FNA:1,540,_ZNSt3__14pairIKNS_12basic_stringIcNS_11char_traitsIcEENS_9allocatorIcEEEEdEC2B8ne180100IRA5_KcdLi0EEEOT_OT0_
FNA:1,1,_ZNSt3__14pairINS_11__wrap_iterIPdEES3_EC1B8ne180100IRS3_S6_Li0EEEOT_OT0_
FNA:1,1,_ZNSt3__14pairINS_11__wrap_iterIPdEES3_EC2B8ne180100IRS3_S6_Li0EEEOT_OT0_
FNA:1,5,_ZNSt3__14pairINS_15__tree_iteratorINS_12__value_typeIN7pyfolio8DateTimeENS_6vectorIdNS_9allocatorIdEEEEEEPNS_11__tree_nodeIS9_PvEElEEbEC1B8ne180100ISE_RbLi0EEEOT_OT0_
FNA:1,5,_ZNSt3__14pairINS_15__tree_iteratorINS_12__value_typeIN7pyfolio8DateTimeENS_6vectorIdNS_9allocatorIdEEEEEEPNS_11__tree_nodeIS9_PvEElEEbEC2B8ne180100ISE_RbLi0EEEOT_OT0_
FNA:1,1080,_ZNSt3__14pairINS_15__tree_iteratorINS_12__value_typeINS_12basic_stringIcNS_11char_traitsIcEENS_9allocatorIcEEEEdEEPNS_11__tree_nodeIS9_PvEElEEbEC1B8ne180100ISE_RbLi0EEEOT_OT0_
FNA:1,1080,_ZNSt3__14pairINS_15__tree_iteratorINS_12__value_typeINS_12basic_stringIcNS_11char_traitsIcEENS_9allocatorIcEEEEdEEPNS_11__tree_nodeIS9_PvEElEEbEC2B8ne180100ISE_RbLi0EEEOT_OT0_
FNA:1,37,_ZNSt3__14pairINS_15__tree_iteratorINS_6chrono14year_month_dayEPNS_11__tree_nodeIS3_PvEElEEbEC1B8ne180100IS8_RbLi0EEEOT_OT0_
FNA:1,37,_ZNSt3__14pairINS_15__tree_iteratorINS_6chrono14year_month_dayEPNS_11__tree_nodeIS3_PvEElEEbEC2B8ne180100IS8_RbLi0EEEOT_OT0_
FNA:1,0,_ZNSt3__14pairINS_16reverse_iteratorIPN7pyfolio11performance12DrawdownInfoEEES6_EC1B8ne180100IS6_S6_Li0EEEOT_OT0_
FNA:1,0,_ZNSt3__14pairINS_16reverse_iteratorIPN7pyfolio11performance12DrawdownInfoEEES6_EC2B8ne180100IS6_S6_Li0EEEOT_OT0_
FNA:1,327,_ZNSt3__14pairINS_16reverse_iteratorIPN7pyfolio8DateTimeEEES5_EC1B8ne180100IS5_S5_Li0EEEOT_OT0_
FNA:1,327,_ZNSt3__14pairINS_16reverse_iteratorIPN7pyfolio8DateTimeEEES5_EC2B8ne180100IS5_S5_Li0EEEOT_OT0_
FNA:1,426,_ZNSt3__14pairINS_16reverse_iteratorIPdEES3_EC1B8ne180100IS3_S3_Li0EEEOT_OT0_
FNA:1,426,_ZNSt3__14pairINS_16reverse_iteratorIPdEES3_EC2B8ne180100IS3_S3_Li0EEEOT_OT0_
FNA:1,0,_ZNSt3__14pairINS_16reverse_iteratorIPiEES3_EC1B8ne180100IS3_S3_Li0EEEOT_OT0_
FNA:1,0,_ZNSt3__14pairINS_16reverse_iteratorIPiEES3_EC2B8ne180100IS3_S3_Li0EEEOT_OT0_
FNA:1,54,_ZNSt3__14pairIPKN7pyfolio8DateTimeEPS2_EC1B8ne180100IRS4_S5_Li0EEEOT_OT0_
FNA:1,54,_ZNSt3__14pairIPKN7pyfolio8DateTimeEPS2_EC1B8ne180100IS4_S5_Li0EEEOT_OT0_
FNA:1,54,_ZNSt3__14pairIPKN7pyfolio8DateTimeEPS2_EC2B8ne180100IRS4_S5_Li0EEEOT_OT0_
FNA:1,54,_ZNSt3__14pairIPKN7pyfolio8DateTimeEPS2_EC2B8ne180100IS4_S5_Li0EEEOT_OT0_
FNA:1,108,_ZNSt3__14pairIPKN7pyfolio8DateTimeES4_EC1B8ne180100IS4_S4_Li0EEEOT_OT0_
FNA:1,108,_ZNSt3__14pairIPKN7pyfolio8DateTimeES4_EC2B8ne180100IS4_S4_Li0EEEOT_OT0_
FNA:1,0,_ZNSt3__14pairIPKNS_3mapINS_12basic_stringIcNS_11char_traitsIcEENS_9allocatorIcEEEEdNS_4lessIS7_EENS5_INS0_IKS7_dEEEEEEPSD_EC1B8ne180100ISF_SG_Li0EEEOT_OT0_
FNA:1,0,_ZNSt3__14pairIPKNS_3mapINS_12basic_stringIcNS_11char_traitsIcEENS_9allocatorIcEEEEdNS_4lessIS7_EENS5_INS0_IKS7_dEEEEEEPSD_EC2B8ne180100ISF_SG_Li0EEEOT_OT0_
FNA:1,18,_ZNSt3__14pairIPKNS_3mapINS_12basic_stringIcNS_11char_traitsIcEENS_9allocatorIcEEEEdNS_4lessIS7_EENS5_INS0_IKS7_dEEEEEESF_EC1B8ne180100ISF_SF_Li0EEEOT_OT0_
FNA:1,18,_ZNSt3__14pairIPKNS_3mapINS_12basic_stringIcNS_11char_traitsIcEENS_9allocatorIcEEEEdNS_4lessIS7_EENS5_INS0_IKS7_dEEEEEESF_EC2B8ne180100ISF_SF_Li0EEEOT_OT0_
FNA:1,22,_ZNSt3__14pairIPKcPcEC1B8ne180100IRS2_S3_Li0EEEOT_OT0_
FNA:1,22,_ZNSt3__14pairIPKcPcEC1B8ne180100IS2_S3_Li0EEEOT_OT0_
FNA:1,22,_ZNSt3__14pairIPKcPcEC2B8ne180100IRS2_S3_Li0EEEOT_OT0_
FNA:1,22,_ZNSt3__14pairIPKcPcEC2B8ne180100IS2_S3_Li0EEEOT_OT0_
FNA:1,22,_ZNSt3__14pairIPKcS2_EC1B8ne180100IS2_S2_Li0EEEOT_OT0_
FNA:1,22,_ZNSt3__14pairIPKcS2_EC2B8ne180100IS2_S2_Li0EEEOT_OT0_
FNA:1,91,_ZNSt3__14pairIPKdPdEC1B8ne180100IRS2_S3_Li0EEEOT_OT0_
FNA:1,91,_ZNSt3__14pairIPKdPdEC1B8ne180100IS2_S3_Li0EEEOT_OT0_
FNA:1,91,_ZNSt3__14pairIPKdPdEC2B8ne180100IRS2_S3_Li0EEEOT_OT0_
FNA:1,91,_ZNSt3__14pairIPKdPdEC2B8ne180100IS2_S3_Li0EEEOT_OT0_
FNA:1,182,_ZNSt3__14pairIPKdS2_EC1B8ne180100IS2_S2_Li0EEEOT_OT0_
FNA:1,182,_ZNSt3__14pairIPKdS2_EC2B8ne180100IS2_S2_Li0EEEOT_OT0_
FNA:1,121,_ZNSt3__14pairIPN7pyfolio8DateTimeES3_EC1B8ne180100IRS3_S3_Li0EEEOT_OT0_
FNA:1,363,_ZNSt3__14pairIPN7pyfolio8DateTimeES3_EC1B8ne180100IS3_S3_Li0EEEOT_OT0_
FNA:1,121,_ZNSt3__14pairIPN7pyfolio8DateTimeES3_EC2B8ne180100IRS3_S3_Li0EEEOT_OT0_
FNA:1,363,_ZNSt3__14pairIPN7pyfolio8DateTimeES3_EC2B8ne180100IS3_S3_Li0EEEOT_OT0_
FNA:1,129,_ZNSt3__14pairIPdS1_EC1B8ne180100IRS1_S1_Li0EEEOT_OT0_
FNA:1,387,_ZNSt3__14pairIPdS1_EC1B8ne180100IS1_S1_Li0EEEOT_OT0_
FNA:1,129,_ZNSt3__14pairIPdS1_EC2B8ne180100IRS1_S1_Li0EEEOT_OT0_
FNA:1,387,_ZNSt3__14pairIPdS1_EC2B8ne180100IS1_S1_Li0EEEOT_OT0_
FNA:1,0,_ZNSt3__14pairIPmbEC1B8ne180100IRS1_RbLi0EEEOT_OT0_
FNA:1,0,_ZNSt3__14pairIPmbEC2B8ne180100IRS1_RbLi0EEEOT_OT0_
FNL:2,243,246
FNA:2,37,_ZNSt3__14pairINS_21__tree_const_iteratorINS_6chrono14year_month_dayEPNS_11__tree_nodeIS3_PvEElEEbEC1B8ne180100INS_15__tree_iteratorIS3_S7_lEEbLi0EEEONS0_IT_T0_EE
FNA:2,37,_ZNSt3__14pairINS_21__tree_const_iteratorINS_6chrono14year_month_dayEPNS_11__tree_nodeIS3_PvEElEEbEC2B8ne180100INS_15__tree_iteratorIS3_S7_lEEbLi0EEEONS0_IT_T0_EE
FNL:3,279,286
FNA:3,5,_ZNSt3__14pairIKN7pyfolio8DateTimeENS_6vectorIdNS_9allocatorIdEEEEEC1B8ne180100IJRS3_EJEEENS_21piecewise_construct_tENS_5tupleIJDpT_EEENSC_IJDpT0_EEE
FNL:4,311,314
FNA:4,0,_ZNSt3__14pairIRNS_12basic_stringIcNS_11char_traitsIcEENS_9allocatorIcEEEERdEaSB8ne180100IKS6_dLPv0EEERS9_RKNS0_IT_T0_EE
FNL:5,599,601
FNA:5,0,_ZNSt3__19make_pairB8ne180100INS_16reverse_iteratorIPN7pyfolio11performance12DrawdownInfoEEES6_EENS_4pairINS_18__unwrap_ref_decayIT_E4typeENS8_IT0_E4typeEEEOS9_OSC_
FNA:5,218,_ZNSt3__19make_pairB8ne180100INS_16reverse_iteratorIPN7pyfolio8DateTimeEEES5_EENS_4pairINS_18__unwrap_ref_decayIT_E4typeENS7_IT0_E4typeEEEOS8_OSB_
FNA:5,284,_ZNSt3__19make_pairB8ne180100INS_16reverse_iteratorIPdEES3_EENS_4pairINS_18__unwrap_ref_decayIT_E4typeENS5_IT0_E4typeEEEOS6_OS9_
FNA:5,0,_ZNSt3__19make_pairB8ne180100INS_16reverse_iteratorIPiEES3_EENS_4pairINS_18__unwrap_ref_decayIT_E4typeENS5_IT0_E4typeEEEOS6_OS9_
FNA:5,54,_ZNSt3__19make_pairB8ne180100IPKN7pyfolio8DateTimeEPS2_EENS_4pairINS_18__unwrap_ref_decayIT_E4typeENS7_IT0_E4typeEEEOS8_OSB_
FNA:5,0,_ZNSt3__19make_pairB8ne180100IPKNS_3mapINS_12basic_stringIcNS_11char_traitsIcEENS_9allocatorIcEEEEdNS_4lessIS7_EENS5_INS_4pairIKS7_dEEEEEEPSE_EENSA_INS_18__unwrap_ref_decayIT_E4typeENSI_IT0_E4typeEEEOSJ_OSM_
FNA:5,22,_ZNSt3__19make_pairB8ne180100IPKcPcEENS_4pairINS_18__unwrap_ref_decayIT_E4typeENS5_IT0_E4typeEEEOS6_OS9_
FNA:5,91,_ZNSt3__19make_pairB8ne180100IPKdPdEENS_4pairINS_18__unwrap_ref_decayIT_E4typeENS5_IT0_E4typeEEEOS6_OS9_
FNA:5,121,_ZNSt3__19make_pairB8ne180100IPN7pyfolio8DateTimeES3_EENS_4pairINS_18__unwrap_ref_decayIT_E4typeENS5_IT0_E4typeEEEOS6_OS9_
FNA:5,129,_ZNSt3__19make_pairB8ne180100IPdS1_EENS_4pairINS_18__unwrap_ref_decayIT_E4typeENS3_IT0_E4typeEEEOS4_OS7_
FNA:5,1,_ZNSt3__19make_pairB8ne180100IRKN7pyfolio10TimeSeriesIdEES5_EENS_4pairINS_18__unwrap_ref_decayIT_E4typeENS7_IT0_E4typeEEEOS8_OSB_
FNA:5,54,_ZNSt3__19make_pairB8ne180100IRPKN7pyfolio8DateTimeEPS2_EENS_4pairINS_18__unwrap_ref_decayIT_E4typeENS8_IT0_E4typeEEEOS9_OSC_
FNA:5,22,_ZNSt3__19make_pairB8ne180100IRPKcPcEENS_4pairINS_18__unwrap_ref_decayIT_E4typeENS6_IT0_E4typeEEEOS7_OSA_
FNA:5,91,_ZNSt3__19make_pairB8ne180100IRPKdPdEENS_4pairINS_18__unwrap_ref_decayIT_E4typeENS6_IT0_E4typeEEEOS7_OSA_
FNA:5,121,_ZNSt3__19make_pairB8ne180100IRPN7pyfolio8DateTimeES3_EENS_4pairINS_18__unwrap_ref_decayIT_E4typeENS6_IT0_E4typeEEEOS7_OSA_
FNA:5,129,_ZNSt3__19make_pairB8ne180100IRPdS1_EENS_4pairINS_18__unwrap_ref_decayIT_E4typeENS4_IT0_E4typeEEEOS5_OS8_
FNA:5,0,_ZNSt3__19make_pairB8ne180100IRPmRbEENS_4pairINS_18__unwrap_ref_decayIT_E4typeENS5_IT0_E4typeEEEOS6_OS9_
FNL:6,633,634
FNA:6,5,_ZNSt3__110__get_pairILm0EE3getB8ne180100IKN7pyfolio8DateTimeENS_6vectorIdNS_9allocatorIdEEEEEERKT_RKNS_4pairISA_T0_EE
FNL:7,638,639
FNA:7,1,_ZNSt3__110__get_pairILm0EE3getB8ne180100IN7pyfolio10TimeSeriesIdEES5_EEOT_ONS_4pairIS6_T0_EE
FNL:8,656,657
FNA:8,5,_ZNSt3__110__get_pairILm1EE3getB8ne180100IKN7pyfolio8DateTimeENS_6vectorIdNS_9allocatorIdEEEEEERKT0_RKNS_4pairIT_SA_EE
FNL:9,661,662
FNA:9,1,_ZNSt3__110__get_pairILm1EE3getB8ne180100IN7pyfolio10TimeSeriesIdEES5_EEOT0_ONS_4pairIT_S6_EE
FNL:10,679,680
FNA:10,5,_ZNSt3__13getB8ne180100ILm0EKN7pyfolio8DateTimeENS_6vectorIdNS_9allocatorIdEEEEEERKNS_13tuple_elementIXT_ENS_4pairIT0_T1_EEE4typeERKSC_
FNA:10,5,_ZNSt3__13getB8ne180100ILm1EKN7pyfolio8DateTimeENS_6vectorIdNS_9allocatorIdEEEEEERKNS_13tuple_elementIXT_ENS_4pairIT0_T1_EEE4typeERKSC_
FNL:11,685,686
FNA:11,1,_ZNSt3__13getB8ne180100ILm0EN7pyfolio10TimeSeriesIdEES3_EEONS_13tuple_elementIXT_ENS_4pairIT0_T1_EEE4typeEOS8_
FNA:11,1,_ZNSt3__13getB8ne180100ILm1EN7pyfolio10TimeSeriesIdEES3_EEONS_13tuple_elementIXT_ENS_4pairIT0_T1_EEE4typeEOS8_
FNL:12,80,91
FNA:12,5,_ZNSt3__14pairIKN7pyfolio8DateTimeENS_6vectorIdNS_9allocatorIdEEEEED1Ev
FNA:12,5,_ZNSt3__14pairIKN7pyfolio8DateTimeENS_6vectorIdNS_9allocatorIdEEEEED2Ev
FNA:12,1620,_ZNSt3__14pairIKNS_12basic_stringIcNS_11char_traitsIcEENS_9allocatorIcEEEEdED1Ev
FNA:12,1620,_ZNSt3__14pairIKNS_12basic_stringIcNS_11char_traitsIcEENS_9allocatorIcEEEEdED2Ev
FNA:12,3,_ZNSt3__14pairIN7pyfolio10TimeSeriesIdEES3_ED1Ev
FNA:12,3,_ZNSt3__14pairIN7pyfolio10TimeSeriesIdEES3_ED2Ev
FNL:13,91,91
FNA:13,1080,_ZNSt3__14pairIKNS_12basic_stringIcNS_11char_traitsIcEENS_9allocatorIcEEEEdEC1B8ne180100ERKS8_
FNA:13,1080,_ZNSt3__14pairIKNS_12basic_stringIcNS_11char_traitsIcEENS_9allocatorIcEEEEdEC2B8ne180100ERKS8_
FNA:13,1,_ZNSt3__14pairIN7pyfolio10TimeSeriesIdEES3_EC1B8ne180100ERKS4_
FNA:13,1,_ZNSt3__14pairIN7pyfolio10TimeSeriesIdEES3_EC2B8ne180100ERKS4_
FNL:14,92,92
FNA:14,1,_ZNSt3__14pairIN7pyfolio10TimeSeriesIdEES3_EC1B8ne180100EOS4_
FNA:14,1,_ZNSt3__14pairIN7pyfolio10TimeSeriesIdEES3_EC2B8ne180100EOS4_
FNF:15
FNH:14
DA:91,2162
DA:92,2
DA:176,2
DA:178,2
DA:204,8160
DA:207,8160
DA:208,8160
DA:243,74
DA:246,74
DA:279,5
DA:282,5
DA:286,5
DA:311,0
DA:312,0
DA:313,0
DA:314,0
DA:599,1337
DA:600,1337
DA:601,1337
DA:633,5
DA:634,5
DA:638,1
DA:639,1
DA:656,5
DA:657,5
DA:661,1
DA:662,1
DA:679,10
DA:680,10
DA:685,2
DA:686,2
LF:31
LH:27
end_of_record
TN:
SF:/Library/Developer/CommandLineTools/SDKs/MacOSX.sdk/usr/include/c++/v1/__utility/swap.h
FNL:0,40,45
FNA:0,0,_ZNSt3__14swapB8ne180100IPN7pyfolio11performance12DrawdownInfoEEENS_9enable_ifIXaasr21is_move_constructibleIT_EE5valuesr18is_move_assignableIS6_EE5valueEvE4typeERS6_S9_
FNA:0,327,_ZNSt3__14swapB8ne180100IPN7pyfolio8DateTimeEEENS_9enable_ifIXaasr21is_move_constructibleIT_EE5valuesr18is_move_assignableIS5_EE5valueEvE4typeERS5_S8_
FNA:0,15,_ZNSt3__14swapB8ne180100IPNS_6threadEEENS_9enable_ifIXaasr21is_move_constructibleIT_EE5valuesr18is_move_assignableIS4_EE5valueEvE4typeERS4_S7_
FNA:0,426,_ZNSt3__14swapB8ne180100IPdEENS_9enable_ifIXaasr21is_move_constructibleIT_EE5valuesr18is_move_assignableIS3_EE5valueEvE4typeERS3_S6_
FNA:0,0,_ZNSt3__14swapB8ne180100IPiEENS_9enable_ifIXaasr21is_move_constructibleIT_EE5valuesr18is_move_assignableIS3_EE5valueEvE4typeERS3_S6_
FNA:0,0,_ZNSt3__14swapB8ne180100ImEENS_9enable_ifIXaasr21is_move_constructibleIT_EE5valuesr18is_move_assignableIS2_EE5valueEvE4typeERS2_S5_
FNF:1
FNH:1
DA:40,768
DA:42,768
DA:43,768
DA:44,768
DA:45,768
LF:5
LH:5
end_of_record
TN:
SF:/Library/Developer/CommandLineTools/SDKs/MacOSX.sdk/usr/include/c++/v1/initializer_list
FNL:0,78
FNA:0,18,_ZNKSt16initializer_listIN7pyfolio8DateTimeEE4sizeB8ne180100Ev
FNA:0,15,_ZNKSt16initializer_listIdE4sizeB8ne180100Ev
FNL:1,80
FNA:1,53,_ZNKSt16initializer_listIN7pyfolio8DateTimeEE5beginB8ne180100Ev
FNA:1,18,_ZNKSt16initializer_listINSt3__13mapINS0_12basic_stringIcNS0_11char_traitsIcEENS0_9allocatorIcEEEEdNS0_4lessIS7_EENS5_INS0_4pairIKS7_dEEEEEEE5beginB8ne180100Ev
FNA:1,180,_ZNKSt16initializer_listINSt3__14pairIKNS0_12basic_stringIcNS0_11char_traitsIcEENS0_9allocatorIcEEEEdEEE5beginB8ne180100Ev
FNA:1,87,_ZNKSt16initializer_listIdE5beginB8ne180100Ev
FNL:2,82
FNA:2,53,_ZNKSt16initializer_listIN7pyfolio8DateTimeEE3endB8ne180100Ev
FNA:2,18,_ZNKSt16initializer_listINSt3__13mapINS0_12basic_stringIcNS0_11char_traitsIcEENS0_9allocatorIcEEEEdNS0_4lessIS7_EENS5_INS0_4pairIKS7_dEEEEEEE3endB8ne180100Ev
FNA:2,180,_ZNKSt16initializer_listINSt3__14pairIKNS0_12basic_stringIcNS0_11char_traitsIcEENS0_9allocatorIcEEEEdEEE3endB8ne180100Ev
FNA:2,87,_ZNKSt16initializer_listIdE3endB8ne180100Ev
FNF:3
FNH:3
DA:78,33
DA:80,338
DA:82,338
LF:3
LH:3
end_of_record
TN:
SF:/Library/Developer/CommandLineTools/SDKs/MacOSX.sdk/usr/include/c++/v1/iomanip
FNL:0,167
FNA:0,4,_ZNSt3__18__iom_t5C1B8ne180100Ei
FNA:0,4,_ZNSt3__18__iom_t5C2B8ne180100Ei
FNL:1,178
FNA:1,4,_ZNSt3__1lsB8ne180100IcNS_11char_traitsIcEEEERNS_13basic_ostreamIT_T0_EES7_RKNS_8__iom_t5E
FNL:2,184
FNA:2,4,_ZNSt3__112setprecisionB8ne180100Ei
FNF:3
FNH:3
DA:167,8
DA:178,4
DA:179,4
DA:180,4
DA:184,4
LF:5
LH:5
end_of_record
TN:
SF:/Library/Developer/CommandLineTools/SDKs/MacOSX.sdk/usr/include/c++/v1/ios
FNL:0,363
FNA:0,28,_ZNSt3__18ios_baseC2B8ne180100Ev
FNL:1,367
FNA:1,60,_ZNKSt3__18ios_base5rdbufB8ne180100Ev
FNL:2,455
FNA:2,60,_ZNKSt3__18ios_base5flagsB8ne180100Ev
FNL:3,482
FNA:3,4,_ZNSt3__18ios_base9precisionB8ne180100El
FNL:4,490
FNA:4,60,_ZNKSt3__18ios_base5widthB8ne180100Ev
FNL:5,492
FNA:5,60,_ZNSt3__18ios_base5widthB8ne180100El
FNL:6,502
FNA:6,0,_ZNSt3__18ios_base8setstateB8ne180100Ej
FNL:7,544
FNA:7,0,_ZNSt3__19basic_iosIcNS_11char_traitsIcEEE8setstateB8ne180100Ej
FNL:8,575
FNA:8,28,_ZNSt3__19basic_iosIcNS_11char_traitsIcEEEC2B8ne180100Ev
FNL:9,598
FNA:9,28,_ZNSt3__19basic_iosIcNS_11char_traitsIcEEE4initB8ne180100EPNS_15basic_streambufIcS2_EE
FNL:10,618
FNA:10,60,_ZNKSt3__19basic_iosIcNS_11char_traitsIcEEE5rdbufB8ne180100Ev
FNL:11,645
FNA:11,60,_ZNKSt3__19basic_iosIcNS_11char_traitsIcEEE5widenB8ne180100Ec
FNL:12,650
FNA:12,60,_ZNKSt3__19basic_iosIcNS_11char_traitsIcEEE4fillB8ne180100Ev
FNF:13
FNH:11
DA:363,28
DA:364,28
DA:367,60
DA:455,60
DA:482,4
DA:483,4
DA:484,4
DA:485,4
DA:490,60
DA:492,60
DA:493,60
DA:494,60
DA:495,60
DA:502,0
DA:544,0
DA:575,28
DA:576,28
DA:598,28
DA:599,28
DA:600,28
DA:601,28
DA:602,28
DA:618,60
DA:619,60
DA:645,60
DA:646,60
DA:647,0
DA:650,60
DA:651,60
DA:652,60
DA:653,60
LF:31
LH:28
end_of_record
TN:
SF:/Library/Developer/CommandLineTools/SDKs/MacOSX.sdk/usr/include/c++/v1/istream
FNL:0,1172
FNA:0,28,_ZNSt3__114basic_iostreamIcNS_11char_traitsIcEEEC2B8ne180100EPNS_15basic_streambufIcS2_EE
FNL:1,200
FNA:1,28,_ZNSt3__113basic_istreamIcNS_11char_traitsIcEEEC2B8ne180100EPNS_15basic_streambufIcS2_EE
FNF:2
FNH:2
DA:200,28
DA:201,28
DA:202,28
DA:203,28
DA:1172,56
DA:1173,28
LF:6
LH:6
end_of_record
TN:
SF:/Library/Developer/CommandLineTools/SDKs/MacOSX.sdk/usr/include/c++/v1/limits
FNL:0,203
FNA:0,930,_ZNSt3__123__libcpp_numeric_limitsIlLb1EE3maxB8ne180100Ev
FNA:0,2838,_ZNSt3__123__libcpp_numeric_limitsImLb1EE3maxB8ne180100Ev
FNL:1,367
FNA:1,0,_ZNSt3__123__libcpp_numeric_limitsIdLb1EE8infinityB8ne180100Ev
FNL:2,368
FNA:2,0,_ZNSt3__123__libcpp_numeric_limitsIdLb1EE9quiet_NaNB8ne180100Ev
FNL:3,446
FNA:3,930,_ZNSt3__114numeric_limitsIlE3maxB8ne180100Ev
FNA:3,2838,_ZNSt3__114numeric_limitsImE3maxB8ne180100Ev
FNL:4,471
FNA:4,0,_ZNSt3__114numeric_limitsIdE8infinityB8ne180100Ev
FNL:5,472
FNA:5,0,_ZNSt3__114numeric_limitsIdE9quiet_NaNB8ne180100Ev
FNF:6
FNH:2
DA:203,3768
DA:367,0
DA:368,0
DA:446,3768
DA:471,0
DA:472,0
LF:6
LH:2
end_of_record
TN:
SF:/Library/Developer/CommandLineTools/SDKs/MacOSX.sdk/usr/include/c++/v1/locale
FNL:0,1240
FNA:0,60,_ZNSt3__116__pad_and_outputB8ne180100IcNS_11char_traitsIcEEEENS_19ostreambuf_iteratorIT_T0_EES6_PKS4_S8_S8_RNS_8ios_baseES4_
FNF:1
FNH:1
DA:1240,60
DA:1247,60
DA:1248,0
DA:1249,60
DA:1250,60
DA:1251,60
DA:1252,0
DA:1254,60
DA:1255,60
DA:1256,60
DA:1257,0
DA:1258,0
DA:1259,0
DA:1261,0
DA:1262,60
DA:1263,0
DA:1264,0
DA:1265,0
DA:1266,0
DA:1268,0
DA:1269,60
DA:1270,60
DA:1271,60
DA:1272,0
DA:1273,0
DA:1275,60
DA:1276,60
DA:1277,60
DA:1278,60
LF:29
LH:16
end_of_record
TN:
SF:/Library/Developer/CommandLineTools/SDKs/MacOSX.sdk/usr/include/c++/v1/map
FNL:0,1029
FNA:0,1,_ZNSt3__13mapIN7pyfolio8DateTimeENS_6vectorIdNS_9allocatorIdEEEENS_4lessIS2_EENS4_INS_4pairIKS2_S6_EEEEEC1B8ne180100Ev
FNA:0,1,_ZNSt3__13mapIN7pyfolio8DateTimeENS_6vectorIdNS_9allocatorIdEEEENS_4lessIS2_EENS4_INS_4pairIKS2_S6_EEEEEC2B8ne180100Ev
FNL:1,1078
FNA:1,180,_ZNSt3__13mapINS_12basic_stringIcNS_11char_traitsIcEENS_9allocatorIcEEEEdNS_4lessIS6_EENS4_INS_4pairIKS6_dEEEEEC1B8ne180100ERKSD_
FNA:1,180,_ZNSt3__13mapINS_12basic_stringIcNS_11char_traitsIcEENS_9allocatorIcEEEEdNS_4lessIS6_EENS4_INS_4pairIKS6_dEEEEEC2B8ne180100ERKSD_
FNL:2,1080
FNA:2,0,_ZNSt3__13mapINS_12basic_stringIcNS_11char_traitsIcEENS_9allocatorIcEEEEdNS_4lessIS6_EENS4_INS_4pairIKS6_dEEEEEaSB8ne180100ERKSD_
FNL:3,1106
FNA:3,180,_ZNSt3__13mapINS_12basic_stringIcNS_11char_traitsIcEENS_9allocatorIcEEEEdNS_4lessIS6_EENS4_INS_4pairIKS6_dEEEEEC1B8ne180100ESt16initializer_listISB_ERKS8_
FNA:3,180,_ZNSt3__13mapINS_12basic_stringIcNS_11char_traitsIcEENS_9allocatorIcEEEEdNS_4lessIS6_EENS4_INS_4pairIKS6_dEEEEEC2B8ne180100ESt16initializer_listISB_ERKS8_
FNL:4,1135
FNA:4,1,_ZNSt3__13mapIN7pyfolio8DateTimeENS_6vectorIdNS_9allocatorIdEEEENS_4lessIS2_EENS4_INS_4pairIKS2_S6_EEEEED1B8ne180100Ev
FNA:4,1,_ZNSt3__13mapIN7pyfolio8DateTimeENS_6vectorIdNS_9allocatorIdEEEENS_4lessIS2_EENS4_INS_4pairIKS2_S6_EEEEED2B8ne180100Ev
FNA:4,360,_ZNSt3__13mapINS_12basic_stringIcNS_11char_traitsIcEENS_9allocatorIcEEEEdNS_4lessIS6_EENS4_INS_4pairIKS6_dEEEEED1B8ne180100Ev
FNA:4,360,_ZNSt3__13mapINS_12basic_stringIcNS_11char_traitsIcEENS_9allocatorIcEEEEdNS_4lessIS6_EENS4_INS_4pairIKS6_dEEEEED2B8ne180100Ev
FNL:5,1137
FNA:5,1,_ZNSt3__13mapIN7pyfolio8DateTimeENS_6vectorIdNS_9allocatorIdEEEENS_4lessIS2_EENS4_INS_4pairIKS2_S6_EEEEE5beginB8ne180100Ev
FNL:6,1138
FNA:6,180,_ZNKSt3__13mapINS_12basic_stringIcNS_11char_traitsIcEENS_9allocatorIcEEEEdNS_4lessIS6_EENS4_INS_4pairIKS6_dEEEEE5beginB8ne180100Ev
FNL:7,1139
FNA:7,1,_ZNSt3__13mapIN7pyfolio8DateTimeENS_6vectorIdNS_9allocatorIdEEEENS_4lessIS2_EENS4_INS_4pairIKS2_S6_EEEEE3endB8ne180100Ev
FNL:8,1140
FNA:8,540,_ZNKSt3__13mapINS_12basic_stringIcNS_11char_traitsIcEENS_9allocatorIcEEEEdNS_4lessIS6_EENS4_INS_4pairIKS6_dEEEEE3endB8ne180100Ev
FNL:9,1148
FNA:9,360,_ZNKSt3__13mapINS_12basic_stringIcNS_11char_traitsIcEENS_9allocatorIcEEEEdNS_4lessIS6_EENS4_INS_4pairIKS6_dEEEEE4cendB8ne180100Ev
FNL:10,1193
FNA:10,1080,_ZNSt3__13mapINS_12basic_stringIcNS_11char_traitsIcEENS_9allocatorIcEEEEdNS_4lessIS6_EENS4_INS_4pairIKS6_dEEEEE6insertB8ne180100ENS_20__map_const_iteratorINS_21__tree_const_iteratorINS_12__value_typeIS6_dEEPNS_11__tree_nodeISH_PvEElEEEERKSB_
FNL:11,1210
FNA:11,180,_ZNSt3__13mapINS_12basic_stringIcNS_11char_traitsIcEENS_9allocatorIcEEEEdNS_4lessIS6_EENS4_INS_4pairIKS6_dEEEEE6insertB8ne180100INS_20__map_const_iteratorINS_21__tree_const_iteratorINS_12__value_typeIS6_dEEPNS_11__tree_nodeISI_PvEElEEEEEEvT_SP_
FNA:11,180,_ZNSt3__13mapINS_12basic_stringIcNS_11char_traitsIcEENS_9allocatorIcEEEEdNS_4lessIS6_EENS4_INS_4pairIKS6_dEEEEE6insertB8ne180100IPKSB_EEvT_SH_
FNL:12,1517
FNA:12,5,_ZNSt3__13mapIN7pyfolio8DateTimeENS_6vectorIdNS_9allocatorIdEEEENS_4lessIS2_EENS4_INS_4pairIKS2_S6_EEEEEixERSA_
FNL:13,633
FNA:13,1,_ZNSt3__119__map_value_compareIN7pyfolio8DateTimeENS_12__value_typeIS2_NS_6vectorIdNS_9allocatorIdEEEEEENS_4lessIS2_EELb1EEC1B8ne180100ESA_
FNA:13,1,_ZNSt3__119__map_value_compareIN7pyfolio8DateTimeENS_12__value_typeIS2_NS_6vectorIdNS_9allocatorIdEEEEEENS_4lessIS2_EELb1EEC2B8ne180100ESA_
FNA:13,180,_ZNSt3__119__map_value_compareINS_12basic_stringIcNS_11char_traitsIcEENS_9allocatorIcEEEENS_12__value_typeIS6_dEENS_4lessIS6_EELb1EEC1B8ne180100ESA_
FNA:13,180,_ZNSt3__119__map_value_compareINS_12basic_stringIcNS_11char_traitsIcEENS_9allocatorIcEEEENS_12__value_typeIS6_dEENS_4lessIS6_EELb1EEC2B8ne180100ESA_
FNL:14,639
FNA:14,8,_ZNKSt3__119__map_value_compareIN7pyfolio8DateTimeENS_12__value_typeIS2_NS_6vectorIdNS_9allocatorIdEEEEEENS_4lessIS2_EELb1EEclB8ne180100ERKS8_RKS2_
FNA:14,720,_ZNKSt3__119__map_value_compareINS_12basic_stringIcNS_11char_traitsIcEENS_9allocatorIcEEEENS_12__value_typeIS6_dEENS_4lessIS6_EELb1EEclB8ne180100ERKS8_RKS6_
FNL:15,642
FNA:15,8,_ZNKSt3__119__map_value_compareIN7pyfolio8DateTimeENS_12__value_typeIS2_NS_6vectorIdNS_9allocatorIdEEEEEENS_4lessIS2_EELb1EEclB8ne180100ERKS2_RKS8_
FNA:15,0,_ZNKSt3__119__map_value_compareINS_12basic_stringIcNS_11char_traitsIcEENS_9allocatorIcEEEENS_12__value_typeIS6_dEENS_4lessIS6_EELb1EEclB8ne180100ERKS6_RKS8_
FNL:16,770
FNA:16,20,_ZNSt3__112__value_typeIN7pyfolio8DateTimeENS_6vectorIdNS_9allocatorIdEEEEE11__get_valueB8ne180100Ev
FNA:16,2160,_ZNSt3__112__value_typeINS_12basic_stringIcNS_11char_traitsIcEENS_9allocatorIcEEEEdE11__get_valueB8ne180100Ev
FNL:17,778
FNA:17,16,_ZNKSt3__112__value_typeIN7pyfolio8DateTimeENS_6vectorIdNS_9allocatorIdEEEEE11__get_valueB8ne180100Ev
FNA:17,1260,_ZNKSt3__112__value_typeINS_12basic_stringIcNS_11char_traitsIcEENS_9allocatorIcEEEEdE11__get_valueB8ne180100Ev
FNL:18,786
FNA:18,0,_ZNSt3__112__value_typeINS_12basic_stringIcNS_11char_traitsIcEENS_9allocatorIcEEEEdE5__refB8ne180100Ev
FNL:19,796
FNA:19,0,_ZNSt3__112__value_typeINS_12basic_stringIcNS_11char_traitsIcEENS_9allocatorIcEEEEdEaSB8ne180100ERKS7_
FNL:20,868
FNA:20,2,_ZNSt3__114__map_iteratorINS_15__tree_iteratorINS_12__value_typeIN7pyfolio8DateTimeENS_6vectorIdNS_9allocatorIdEEEEEEPNS_11__tree_nodeIS9_PvEElEEEC1B8ne180100ESE_
FNA:20,2,_ZNSt3__114__map_iteratorINS_15__tree_iteratorINS_12__value_typeIN7pyfolio8DateTimeENS_6vectorIdNS_9allocatorIdEEEEEEPNS_11__tree_nodeIS9_PvEElEEEC2B8ne180100ESE_
FNA:20,1080,_ZNSt3__114__map_iteratorINS_15__tree_iteratorINS_12__value_typeINS_12basic_stringIcNS_11char_traitsIcEENS_9allocatorIcEEEEdEEPNS_11__tree_nodeIS9_PvEElEEEC1B8ne180100ESE_
FNA:20,1080,_ZNSt3__114__map_iteratorINS_15__tree_iteratorINS_12__value_typeINS_12basic_stringIcNS_11char_traitsIcEENS_9allocatorIcEEEEdEEPNS_11__tree_nodeIS9_PvEElEEEC2B8ne180100ESE_
FNL:21,870
FNA:21,5,_ZNKSt3__114__map_iteratorINS_15__tree_iteratorINS_12__value_typeIN7pyfolio8DateTimeENS_6vectorIdNS_9allocatorIdEEEEEEPNS_11__tree_nodeIS9_PvEElEEEdeB8ne180100Ev
FNL:22,873
FNA:22,5,_ZNSt3__114__map_iteratorINS_15__tree_iteratorINS_12__value_typeIN7pyfolio8DateTimeENS_6vectorIdNS_9allocatorIdEEEEEEPNS_11__tree_nodeIS9_PvEElEEEppB8ne180100Ev
FNL:23,896
FNA:23,6,_ZNSt3__1neB8ne180100ERKNS_14__map_iteratorINS_15__tree_iteratorINS_12__value_typeIN7pyfolio8DateTimeENS_6vectorIdNS_9allocatorIdEEEEEEPNS_11__tree_nodeIS9_PvEElEEEESH_
FNL:24,924
FNA:24,1800,_ZNSt3__120__map_const_iteratorINS_21__tree_const_iteratorINS_12__value_typeINS_12basic_stringIcNS_11char_traitsIcEENS_9allocatorIcEEEEdEEPNS_11__tree_nodeIS9_PvEElEEEC1B8ne180100ESE_
FNA:24,1800,_ZNSt3__120__map_const_iteratorINS_21__tree_const_iteratorINS_12__value_typeINS_12basic_stringIcNS_11char_traitsIcEENS_9allocatorIcEEEEdEEPNS_11__tree_nodeIS9_PvEElEEEC2B8ne180100ESE_
FNL:25,928
FNA:25,540,_ZNKSt3__120__map_const_iteratorINS_21__tree_const_iteratorINS_12__value_typeINS_12basic_stringIcNS_11char_traitsIcEENS_9allocatorIcEEEEdEEPNS_11__tree_nodeIS9_PvEElEEEdeB8ne180100Ev
FNL:26,931
FNA:26,540,_ZNSt3__120__map_const_iteratorINS_21__tree_const_iteratorINS_12__value_typeINS_12basic_stringIcNS_11char_traitsIcEENS_9allocatorIcEEEEdEEPNS_11__tree_nodeIS9_PvEElEEEppB8ne180100Ev
FNL:27,954
FNA:27,720,_ZNSt3__1neB8ne180100ERKNS_20__map_const_iteratorINS_21__tree_const_iteratorINS_12__value_typeINS_12basic_stringIcNS_11char_traitsIcEENS_9allocatorIcEEEEdEEPNS_11__tree_nodeIS9_PvEElEEEESH_
FNF:28
FNH:25
DA:633,362
DA:634,362
DA:639,728
DA:640,728
DA:642,8
DA:643,8
DA:770,2180
DA:772,2180
DA:778,1276
DA:780,1276
DA:786,0
DA:787,0
DA:788,0
DA:796,0
DA:797,0
DA:798,0
DA:868,2164
DA:870,5
DA:873,5
DA:874,5
DA:875,5
DA:896,6
DA:897,6
DA:924,3600
DA:928,540
DA:931,540
DA:932,540
DA:933,540
DA:954,720
DA:955,720
DA:1029,2
DA:1032,2
DA:1078,360
DA:1080,0
DA:1082,0
DA:1091,0
DA:1106,360
DA:1107,360
DA:1108,180
DA:1109,360
DA:1135,722
DA:1137,1
DA:1138,180
DA:1139,1
DA:1140,540
DA:1148,360
DA:1193,1080
DA:1194,1080
DA:1210,360
DA:1211,1440
DA:1212,1080
DA:1213,360
DA:1517,5
DA:1518,15
DA:1519,5
DA:1520,10
DA:1521,5
LF:57
LH:48
end_of_record
TN:
SF:/Library/Developer/CommandLineTools/SDKs/MacOSX.sdk/usr/include/c++/v1/new
FNL:0,173
FNA:0,0,_ZSt28__throw_bad_array_new_lengthB8ne180100v
FNL:1,292
FNA:1,3748,_ZNSt3__124__is_overaligned_for_newB8ne180100Em
FNL:2,301
FNA:2,1886,_ZNSt3__121__libcpp_operator_newB8ne180100IJmEEEPvDpT_
FNA:2,0,_ZNSt3__121__libcpp_operator_newB8ne180100IJmSt11align_val_tEEEPvDpT_
FNL:3,310
FNA:3,1862,_ZNSt3__124__libcpp_operator_deleteB8ne180100IJPvEEEvDpT_
FNA:3,0,_ZNSt3__124__libcpp_operator_deleteB8ne180100IJPvSt11align_val_tEEEvDpT_
FNL:4,318
FNA:4,1886,_ZNSt3__117__libcpp_allocateB8ne180100Emm
FNL:5,331
FNA:5,1862,_ZNSt3__127__do_deallocate_handle_sizeB8ne180100IJEEEvPvmDpT_
FNA:5,0,_ZNSt3__127__do_deallocate_handle_sizeB8ne180100IJSt11align_val_tEEEvPvmDpT_
FNL:6,340
FNA:6,1862,_ZNSt3__119__libcpp_deallocateB8ne180100EPvmm
FNL:7,369
FNA:7,16,_ZNSt3__19__launderB8ne180100IKNS_4pairIKN7pyfolio8DateTimeENS_6vectorIdNS_9allocatorIdEEEEEEEEPT_SC_
FNA:7,1260,_ZNSt3__19__launderB8ne180100IKNS_4pairIKNS_12basic_stringIcNS_11char_traitsIcEENS_9allocatorIcEEEEdEEEEPT_SC_
FNA:7,20,_ZNSt3__19__launderB8ne180100INS_4pairIKN7pyfolio8DateTimeENS_6vectorIdNS_9allocatorIdEEEEEEEEPT_SB_
FNA:7,2160,_ZNSt3__19__launderB8ne180100INS_4pairIKNS_12basic_stringIcNS_11char_traitsIcEENS_9allocatorIcEEEEdEEEEPT_SB_
FNL:8,377
FNA:8,16,_ZNSt3__17launderB8ne180100IKNS_4pairIKN7pyfolio8DateTimeENS_6vectorIdNS_9allocatorIdEEEEEEEEPT_SC_
FNA:8,1260,_ZNSt3__17launderB8ne180100IKNS_4pairIKNS_12basic_stringIcNS_11char_traitsIcEENS_9allocatorIcEEEEdEEEEPT_SC_
FNA:8,20,_ZNSt3__17launderB8ne180100INS_4pairIKN7pyfolio8DateTimeENS_6vectorIdNS_9allocatorIdEEEEEEEEPT_SB_
FNA:8,2160,_ZNSt3__17launderB8ne180100INS_4pairIKNS_12basic_stringIcNS_11char_traitsIcEENS_9allocatorIcEEEEdEEEEPT_SB_
FNF:9
FNH:8
DA:173,0
DA:175,0
DA:292,3748
DA:294,3748
DA:301,1886
DA:303,1886
DA:310,1862
DA:312,1862
DA:316,1862
DA:318,1886
DA:320,1886
DA:321,0
DA:322,0
DA:327,1886
DA:328,1886
DA:331,1862
DA:334,1862
DA:340,1862
DA:345,1862
DA:346,0
DA:347,0
DA:349,1862
DA:352,1862
DA:369,3456
DA:372,3456
DA:377,3456
DA:378,3456
LF:27
LH:21
end_of_record
TN:
SF:/Library/Developer/CommandLineTools/SDKs/MacOSX.sdk/usr/include/c++/v1/ostream
FNL:0,295
FNA:0,28,_ZNSt3__113basic_ostreamIcNS_11char_traitsIcEEEC2B8ne180100Ev
FNL:1,309
FNA:1,60,_ZNKSt3__113basic_ostreamIcNS_11char_traitsIcEEE6sentrycvbB8ne180100Ev
FNL:2,667
FNA:2,60,_ZNSt3__124__put_character_sequenceB8ne180100IcNS_11char_traitsIcEEEERNS_13basic_ostreamIT_T0_EES7_PKS4_m
FNL:3,786
FNA:3,48,_ZNSt3__1lsB8ne180100INS_11char_traitsIcEEEERNS_13basic_ostreamIcT_EES6_PKc
FNL:4,925
FNA:4,12,_ZNSt3__1lsB8ne180100IcNS_11char_traitsIcEENS_9allocatorIcEEEERNS_13basic_ostreamIT_T0_EES9_RKNS_12basic_stringIS6_S7_T1_EE
FNF:5
FNH:5
DA:295,28
DA:309,60
DA:667,60
DA:671,60
DA:672,60
DA:674,60
DA:675,60
DA:676,60
DA:677,60
DA:678,60
DA:679,60
DA:680,60
DA:681,60
DA:682,0
DA:683,60
DA:685,60
DA:686,0
DA:687,0
DA:689,60
DA:690,0
DA:786,48
DA:787,48
DA:925,12
DA:926,12
LF:24
LH:20
end_of_record
TN:
SF:/Library/Developer/CommandLineTools/SDKs/MacOSX.sdk/usr/include/c++/v1/set
FNL:0,608
FNA:0,6,_ZNSt3__13setINS_6chrono14year_month_dayENS_4lessIS2_EENS_9allocatorIS2_EEEC1B8ne180100Ev
FNA:0,6,_ZNSt3__13setINS_6chrono14year_month_dayENS_4lessIS2_EENS_9allocatorIS2_EEEC2B8ne180100Ev
FNL:1,702
FNA:1,2,_ZNSt3__13setINS_6chrono14year_month_dayENS_4lessIS2_EENS_9allocatorIS2_EEED1B8ne180100Ev
FNA:1,2,_ZNSt3__13setINS_6chrono14year_month_dayENS_4lessIS2_EENS_9allocatorIS2_EEED2B8ne180100Ev
FNL:2,707
FNA:2,8,_ZNKSt3__13setINS_6chrono14year_month_dayENS_4lessIS2_EENS_9allocatorIS2_EEE3endB8ne180100Ev
FNL:3,735
FNA:3,1,_ZNSt3__13setINS_6chrono14year_month_dayENS_4lessIS2_EENS_9allocatorIS2_EEE6insertB8ne180100ERKS2_
FNL:4,757
FNA:4,36,_ZNSt3__13setINS_6chrono14year_month_dayENS_4lessIS2_EENS_9allocatorIS2_EEE6insertB8ne180100EOS2_
FNL:5,826
FNA:5,8,_ZNKSt3__13setINS_6chrono14year_month_dayENS_4lessIS2_EENS_9allocatorIS2_EEE4findB8ne180100ERKS2_
FNF:6
FNH:6
DA:608,12
DA:611,12
DA:702,4
DA:707,8
DA:735,1
DA:757,36
DA:758,36
DA:826,8
LF:8
LH:8
end_of_record
TN:
SF:/Library/Developer/CommandLineTools/SDKs/MacOSX.sdk/usr/include/c++/v1/source_location
FNL:0,67
FNA:0,1,_ZNKSt3__115source_location4lineB8ne180100Ev
FNL:1,73
FNA:1,1,_ZNKSt3__115source_location9file_nameB8ne180100Ev
FNF:2
FNH:2
DA:67,1
DA:68,1
DA:73,1
DA:74,1
LF:4
LH:4
end_of_record
TN:
SF:/Library/Developer/CommandLineTools/SDKs/MacOSX.sdk/usr/include/c++/v1/span
FNL:0,420
FNA:0,9,_ZNSt3__14spanIKdLm18446744073709551615EEC1B8ne180100IPS1_EET_m
FNA:0,9,_ZNSt3__14spanIKdLm18446744073709551615EEC2B8ne180100IPS1_EET_m
FNL:1,443
FNA:1,0,_ZNSt3__14spanIKdLm18446744073709551615EEC1B8ne180100IRKNS_6vectorIdNS_9allocatorIdEEEEEEOT_
FNA:1,8,_ZNSt3__14spanIKdLm18446744073709551615EEC1B8ne180100IRNS_6vectorIdNS_9allocatorIdEEEEEEOT_
FNA:1,0,_ZNSt3__14spanIKdLm18446744073709551615EEC2B8ne180100IRKNS_6vectorIdNS_9allocatorIdEEEEEEOT_
FNA:1,8,_ZNSt3__14spanIKdLm18446744073709551615EEC2B8ne180100IRNS_6vectorIdNS_9allocatorIdEEEEEEOT_
FNL:2,489
FNA:2,74,_ZNKSt3__14spanIKdLm18446744073709551615EE4sizeB8ne180100Ev
FNL:3,491
FNA:3,15,_ZNKSt3__14spanIKdLm18446744073709551615EE5emptyB8ne180100Ev
FNL:4,493
FNA:4,0,_ZNKSt3__14spanIKdLm18446744073709551615EEixB8ne180100Em
FNL:5,516
FNA:5,68,_ZNKSt3__14spanIKdLm18446744073709551615EE4dataB8ne180100Ev
FNL:6,519
FNA:6,34,_ZNKSt3__14spanIKdLm18446744073709551615EE5beginB8ne180100Ev
FNL:7,526
FNA:7,34,_ZNKSt3__14spanIKdLm18446744073709551615EE3endB8ne180100Ev
FNF:8
FNH:7
DA:420,18
DA:421,18
DA:443,16
DA:489,74
DA:491,15
DA:493,0
DA:495,0
DA:516,68
DA:519,34
DA:523,34
DA:526,34
DA:530,34
LF:12
LH:10
end_of_record
TN:
SF:/Library/Developer/CommandLineTools/SDKs/MacOSX.sdk/usr/include/c++/v1/sstream
FNL:0,1009
FNA:0,28,_ZNSt3__118basic_stringstreamIcNS_11char_traitsIcEENS_9allocatorIcEEEC1B8ne180100Ev
FNL:1,1067
FNA:1,24,_ZNKRSt3__118basic_stringstreamIcNS_11char_traitsIcEENS_9allocatorIcEEE3strB8ne180100Ev
FNL:2,1101
FNA:2,28,_ZNSt3__115basic_stringbufIcNS_11char_traitsIcEENS_9allocatorIcEEED1Ev
FNA:2,28,_ZNSt3__115basic_stringbufIcNS_11char_traitsIcEENS_9allocatorIcEEED2Ev
FNL:3,1102
FNA:3,28,_ZNSt3__118basic_stringstreamIcNS_11char_traitsIcEENS_9allocatorIcEEED1Ev
FNA:3,28,_ZNSt3__118basic_stringstreamIcNS_11char_traitsIcEENS_9allocatorIcEEED2Ev
FNL:4,325
FNA:4,28,_ZNSt3__115basic_stringbufIcNS_11char_traitsIcEENS_9allocatorIcEEEC1B8ne180100Ej
FNA:4,28,_ZNSt3__115basic_stringbufIcNS_11char_traitsIcEENS_9allocatorIcEEEC2B8ne180100Ej
FNL:5,394
FNA:5,24,_ZNKRSt3__115basic_stringbufIcNS_11char_traitsIcEENS_9allocatorIcEEE3strB8ne180100Ev
FNL:6,412
FNA:6,24,_ZNKSt3__115basic_stringbufIcNS_11char_traitsIcEENS_9allocatorIcEEE3strB8ne180100IS4_EENS_12basic_stringIcS2_T_EERKS8_
FNL:7,652
FNA:7,24,_ZNKSt3__115basic_stringbufIcNS_11char_traitsIcEENS_9allocatorIcEEE4viewB8ne180100Ev
FNF:8
FNH:8
DA:325,56
DA:394,24
DA:412,24
DA:413,24
DA:652,24
DA:653,24
DA:654,24
DA:655,11
DA:656,24
DA:657,0
DA:658,0
DA:659,0
DA:660,24
DA:1009,56
DA:1010,56
DA:1067,24
LF:16
LH:13
end_of_record
TN:
SF:/Library/Developer/CommandLineTools/SDKs/MacOSX.sdk/usr/include/c++/v1/stdexcept
FNL:0,153
FNA:0,0,_ZNSt12length_errorC1B8ne180100EPKc
FNA:0,0,_ZNSt12length_errorC2B8ne180100EPKc
FNL:1,164
FNA:1,0,_ZNSt12out_of_rangeC1B8ne180100EPKc
FNA:1,0,_ZNSt12out_of_rangeC2B8ne180100EPKc
FNL:2,240
FNA:2,0,_ZNSt3__120__throw_length_errorB8ne180100EPKc
FNL:3,251
FNA:3,0,_ZNSt3__120__throw_out_of_rangeB8ne180100EPKc
FNF:4
FNH:0
DA:153,0
DA:164,0
DA:240,0
DA:242,0
DA:249,0
DA:251,0
DA:253,0
DA:260,0
LF:8
LH:0
end_of_record
TN:
SF:/Library/Developer/CommandLineTools/SDKs/MacOSX.sdk/usr/include/c++/v1/stdlib.h
FNL:0,123,124
FNA:0,9,_Z3absB8ne180100d
FNF:1
FNH:1
DA:123,9
DA:124,9
LF:2
LH:2
end_of_record
TN:
SF:/Library/Developer/CommandLineTools/SDKs/MacOSX.sdk/usr/include/c++/v1/streambuf
FNL:0,218
FNA:0,60,_ZNSt3__115basic_streambufIcNS_11char_traitsIcEEE5sputnB8ne180100EPKcl
FNL:1,229
FNA:1,0,_ZNKSt3__115basic_streambufIcNS_11char_traitsIcEEE5ebackB8ne180100Ev
FNL:2,231
FNA:2,0,_ZNKSt3__115basic_streambufIcNS_11char_traitsIcEEE5egptrB8ne180100Ev
FNL:3,242
FNA:3,24,_ZNKSt3__115basic_streambufIcNS_11char_traitsIcEEE5pbaseB8ne180100Ev
FNL:4,243
FNA:4,35,_ZNKSt3__115basic_streambufIcNS_11char_traitsIcEEE4pptrB8ne180100Ev
FNF:5
FNH:3
DA:218,60
DA:219,60
DA:229,0
DA:231,0
DA:242,24
DA:243,35
LF:6
LH:4
end_of_record
TN:
SF:/Library/Developer/CommandLineTools/SDKs/MacOSX.sdk/usr/include/c++/v1/string
FNL:0,1057
FNA:0,24,_ZNSt3__112basic_stringIcNS_11char_traitsIcEENS_9allocatorIcEEEC1INS_17basic_string_viewIcS2_EELi0EEERKT_RKS4_
FNA:0,24,_ZNSt3__112basic_stringIcNS_11char_traitsIcEENS_9allocatorIcEEEC2INS_17basic_string_viewIcS2_EELi0EEERKT_RKS4_
FNL:1,1108
FNA:1,1838,_ZNKSt3__112basic_stringIcNS_11char_traitsIcEENS_9allocatorIcEEEcvNS_17basic_string_viewIcS2_EEB8ne180100Ev
FNL:2,1125
FNA:2,70,_ZNSt3__112basic_stringIcNS_11char_traitsIcEENS_9allocatorIcEEEaSB8ne180100EOS5_
FNL:3,1176
FNA:3,2384,_ZNKSt3__112basic_stringIcNS_11char_traitsIcEENS_9allocatorIcEEE4sizeB8ne180100Ev
FNL:4,1179
FNA:4,391,_ZNKSt3__112basic_stringIcNS_11char_traitsIcEENS_9allocatorIcEEE6lengthB8ne180100Ev
FNL:5,1181
FNA:5,11,_ZNKSt3__112basic_stringIcNS_11char_traitsIcEENS_9allocatorIcEEE8max_sizeB8ne180100Ev
FNL:6,1216
FNA:6,4,_ZNKSt3__112basic_stringIcNS_11char_traitsIcEENS_9allocatorIcEEE5emptyB8ne180100Ev
FNL:7,1268
FNA:7,7,_ZNSt3__112basic_stringIcNS_11char_traitsIcEENS_9allocatorIcEEE6appendB8ne180100ERKS5_
FNL:8,1575
FNA:8,1170,_ZNKSt3__112basic_stringIcNS_11char_traitsIcEENS_9allocatorIcEEE6substrB8ne180100Emm
FNL:9,1595
FNA:9,77,_ZNKSt3__112basic_stringIcNS_11char_traitsIcEENS_9allocatorIcEEE5c_strB8ne180100Ev
FNL:10,1596
FNA:10,1950,_ZNKSt3__112basic_stringIcNS_11char_traitsIcEENS_9allocatorIcEEE4dataB8ne180100Ev
FNL:11,1600
FNA:11,0,_ZNSt3__112basic_stringIcNS_11char_traitsIcEENS_9allocatorIcEEE4dataB8ne180100Ev
FNL:12,1605
FNA:12,35,_ZNKSt3__112basic_stringIcNS_11char_traitsIcEENS_9allocatorIcEEE13get_allocatorB8ne180100Ev
FNL:13,1769
FNA:13,4689,_ZNKSt3__112basic_stringIcNS_11char_traitsIcEENS_9allocatorIcEEE9__is_longB8ne180100Ev
FNL:14,1776
FNA:14,0,_ZNSt3__112basic_stringIcNS_11char_traitsIcEENS_9allocatorIcEEE16__begin_lifetimeB8ne180100EPcm
FNL:15,1788
FNA:15,11,_ZNSt3__112basic_stringIcNS_11char_traitsIcEENS_9allocatorIcEEE13__fits_in_ssoB8ne180100Em
FNL:16,1826
FNA:16,140,_ZNSt3__112basic_stringIcNS_11char_traitsIcEENS_9allocatorIcEEE7__allocB8ne180100Ev
FNL:17,1827
FNA:17,46,_ZNKSt3__112basic_stringIcNS_11char_traitsIcEENS_9allocatorIcEEE7__allocB8ne180100Ev
FNL:18,1830
FNA:18,81,_ZNSt3__112basic_stringIcNS_11char_traitsIcEENS_9allocatorIcEEE16__set_short_sizeB8ne180100Em
FNL:19,1837
FNA:19,2450,_ZNKSt3__112basic_stringIcNS_11char_traitsIcEENS_9allocatorIcEEE16__get_short_sizeB8ne180100Ev
FNL:20,1842
FNA:20,0,_ZNSt3__112basic_stringIcNS_11char_traitsIcEENS_9allocatorIcEEE15__set_long_sizeB8ne180100Em
FNL:21,1845
FNA:21,4,_ZNKSt3__112basic_stringIcNS_11char_traitsIcEENS_9allocatorIcEEE15__get_long_sizeB8ne180100Ev
FNL:22,1855
FNA:22,0,_ZNSt3__112basic_stringIcNS_11char_traitsIcEENS_9allocatorIcEEE14__set_long_capB8ne180100Em
FNL:23,1860
FNA:23,0,_ZNKSt3__112basic_stringIcNS_11char_traitsIcEENS_9allocatorIcEEE14__get_long_capB8ne180100Ev
FNL:24,1864
FNA:24,0,_ZNSt3__112basic_stringIcNS_11char_traitsIcEENS_9allocatorIcEEE18__set_long_pointerB8ne180100EPc
FNL:25,1867
FNA:25,0,_ZNSt3__112basic_stringIcNS_11char_traitsIcEENS_9allocatorIcEEE18__get_long_pointerB8ne180100Ev
FNL:26,1870
FNA:26,27,_ZNKSt3__112basic_stringIcNS_11char_traitsIcEENS_9allocatorIcEEE18__get_long_pointerB8ne180100Ev
FNL:27,1873
FNA:27,81,_ZNSt3__112basic_stringIcNS_11char_traitsIcEENS_9allocatorIcEEE19__get_short_pointerB8ne180100Ev
FNL:28,1876
FNA:28,1923,_ZNKSt3__112basic_stringIcNS_11char_traitsIcEENS_9allocatorIcEEE19__get_short_pointerB8ne180100Ev
FNL:29,1879
FNA:29,11,_ZNSt3__112basic_stringIcNS_11char_traitsIcEENS_9allocatorIcEEE13__get_pointerB8ne180100Ev
FNL:30,1882
FNA:30,1950,_ZNKSt3__112basic_stringIcNS_11char_traitsIcEENS_9allocatorIcEEE13__get_pointerB8ne180100Ev
FNL:31,1904
FNA:31,301,_ZNKSt3__112basic_stringIcNS_11char_traitsIcEENS_9allocatorIcEEE14__annotate_newB8ne180100Em
FNL:32,1912
FNA:32,116,_ZNKSt3__112basic_stringIcNS_11char_traitsIcEENS_9allocatorIcEEE17__annotate_deleteB8ne180100Ev
FNL:33,1927
FNA:33,70,_ZNKSt3__112basic_stringIcNS_11char_traitsIcEENS_9allocatorIcEEE17__annotate_shrinkB8ne180100Em
FNL:34,1936
FNA:34,0,_ZNSt3__112basic_stringIcNS_11char_traitsIcEENS_9allocatorIcEEE10__align_itB8ne180100ILm8EEEmm
FNL:35,1942
FNA:35,0,_ZNSt3__112basic_stringIcNS_11char_traitsIcEENS_9allocatorIcEEE11__recommendB8ne180100Em
FNL:36,2064
FNA:36,70,_ZNSt3__112basic_stringIcNS_11char_traitsIcEENS_9allocatorIcEEE19__move_assign_allocB8ne180100ERS5_
FNL:37,2071
FNA:37,70,_ZNSt3__112basic_stringIcNS_11char_traitsIcEENS_9allocatorIcEEE19__move_assign_allocB8ne180100ERS5_NS_17integral_constantIbLb1EEE
FNL:38,2112
FNA:38,0,_ZNKSt3__112basic_stringIcNS_11char_traitsIcEENS_9allocatorIcEEE20__throw_length_errorB8ne180100Ev
FNL:39,2562
FNA:39,70,_ZNSt3__112basic_stringIcNS_11char_traitsIcEENS_9allocatorIcEEE13__move_assignB8ne180100ERS5_NS_17integral_constantIbLb1EEE
FNL:40,3361
FNA:40,1,_ZNKSt3__112basic_stringIcNS_11char_traitsIcEENS_9allocatorIcEEE4findB8ne180100EPKcm
FNL:41,3703
FNA:41,2,_ZNSt3__1eqB8ne180100INS_9allocatorIcEEEEbRKNS_12basic_stringIcNS_11char_traitsIcEET_EES9_
FNL:42,3733
FNA:42,398,_ZNSt3__1eqB8ne180100IcNS_11char_traitsIcEENS_9allocatorIcEEEEbRKNS_12basic_stringIT_T0_T1_EEPKS6_
FNL:43,3749
FNA:43,720,_ZNSt3__1ssB8ne180100IcNS_11char_traitsIcEENS_9allocatorIcEEEEDaRKNS_12basic_stringIT_T0_T1_EESC_
FNL:44,3913
FNA:44,11,_ZNSt3__1plB8ne180100IcNS_11char_traitsIcEENS_9allocatorIcEEEENS_12basic_stringIT_T0_T1_EERKS9_PKS6_
FNL:45,3946
FNA:45,1,_ZNSt3__1plB8ne180100IcNS_11char_traitsIcEENS_9allocatorIcEEEENS_12basic_stringIT_T0_T1_EEOS9_RKS9_
FNL:46,3958
FNA:46,6,_ZNSt3__1plB8ne180100IcNS_11char_traitsIcEENS_9allocatorIcEEEENS_12basic_stringIT_T0_T1_EEOS9_SA_
FNL:47,3964
FNA:47,0,_ZNSt3__1plB8ne180100IcNS_11char_traitsIcEENS_9allocatorIcEEEENS_12basic_stringIT_T0_T1_EEPKS6_OS9_
FNL:48,3977
FNA:48,11,_ZNSt3__1plB8ne180100IcNS_11char_traitsIcEENS_9allocatorIcEEEENS_12basic_stringIT_T0_T1_EEOS9_PKS6_
FNL:49,845
FNA:49,11,_ZNSt3__112basic_stringIcNS_11char_traitsIcEENS_9allocatorIcEEEC1B8ne180100ENS_24__uninitialized_size_tagEmRKS4_
FNA:49,11,_ZNSt3__112basic_stringIcNS_11char_traitsIcEENS_9allocatorIcEEEC2B8ne180100ENS_24__uninitialized_size_tagEmRKS4_
FNL:50,880
FNA:50,108,_ZNSt3__112basic_stringIcNS_11char_traitsIcEENS_9allocatorIcEEEC1B8ne180100Ev
FNA:50,108,_ZNSt3__112basic_stringIcNS_11char_traitsIcEENS_9allocatorIcEEEC2B8ne180100Ev
FNL:51,916
FNA:51,66,_ZNSt3__112basic_stringIcNS_11char_traitsIcEENS_9allocatorIcEEEC1B8ne180100EOS5_
FNA:51,66,_ZNSt3__112basic_stringIcNS_11char_traitsIcEENS_9allocatorIcEEEC2B8ne180100EOS5_
FNL:52,925
FNA:52,66,_ZZNSt3__112basic_stringIcNS_11char_traitsIcEENS_9allocatorIcEEEC1B8ne180100EOS5_ENKUlRS5_E_clES7_
FNL:53,951
FNA:53,1517,_ZNSt3__112basic_stringIcNS_11char_traitsIcEENS_9allocatorIcEEEC1B8ne180100ILi0EEEPKc
FNA:53,1517,_ZNSt3__112basic_stringIcNS_11char_traitsIcEENS_9allocatorIcEEEC2B8ne180100ILi0EEEPKc
FNL:54,981
FNA:54,0,_ZNSt3__112basic_stringIcNS_11char_traitsIcEENS_9allocatorIcEEEC1B8ne180100Emc
FNA:54,0,_ZNSt3__112basic_stringIcNS_11char_traitsIcEENS_9allocatorIcEEEC2B8ne180100Emc
FNF:55
FNH:43
DA:845,22
DA:847,22
DA:848,11
DA:849,0
DA:850,11
DA:851,11
DA:852,11
DA:853,11
DA:854,0
DA:855,0
DA:856,0
DA:857,0
DA:858,0
DA:859,0
DA:861,11
DA:862,22
DA:880,216
DA:882,216
DA:883,108
DA:884,216
DA:916,132
DA:925,198
DA:926,66
DA:927,66
DA:928,66
DA:929,46
DA:930,132
DA:951,3034
DA:952,3034
DA:954,1517
DA:955,3034
DA:981,0
DA:982,0
DA:983,0
DA:984,0
DA:1057,48
DA:1059,48
DA:1060,24
DA:1061,24
DA:1062,48
DA:1108,1838
DA:1109,1838
DA:1125,70
DA:1127,70
DA:1128,70
DA:1176,2384
DA:1177,2384
DA:1179,391
DA:1181,11
DA:1182,11
DA:1183,11
DA:1184,0
DA:1186,11
DA:1187,11
DA:1189,11
DA:1216,4
DA:1217,4
DA:1268,7
DA:1269,7
DA:1575,1170
DA:1576,1170
DA:1595,77
DA:1596,1950
DA:1597,1950
DA:1600,0
DA:1601,0
DA:1605,35
DA:1606,35
DA:1769,4689
DA:1773,4689
DA:1776,0
DA:1786,0
DA:1788,11
DA:1826,140
DA:1827,46
DA:1830,81
DA:1832,81
DA:1833,81
DA:1834,81
DA:1837,2450
DA:1839,2450
DA:1842,0
DA:1843,0
DA:1844,0
DA:1845,4
DA:1846,4
DA:1855,0
DA:1856,0
DA:1857,0
DA:1858,0
DA:1860,0
DA:1861,0
DA:1864,0
DA:1865,0
DA:1866,0
DA:1867,0
DA:1868,0
DA:1870,27
DA:1871,27
DA:1873,81
DA:1874,81
DA:1876,1923
DA:1877,1923
DA:1879,11
DA:1880,11
DA:1882,1950
DA:1883,1950
DA:1904,301
DA:1910,301
DA:1912,116
DA:1917,116
DA:1927,70
DA:1933,70
DA:1936,0
DA:1937,0
DA:1942,0
DA:1943,0
DA:1944,0
DA:1946,0
DA:1947,0
DA:1948,0
DA:1949,0
DA:1950,0
DA:1951,0
DA:2064,70
DA:2067,70
DA:2068,70
DA:2069,70
DA:2071,70
DA:2073,70
DA:2074,70
DA:2112,0
DA:2113,0
DA:2562,70
DA:2569,70
DA:2570,70
DA:2571,0
DA:2579,0
DA:2580,70
DA:2581,70
DA:2583,70
DA:2584,70
DA:2585,70
DA:2586,70
DA:2588,70
DA:2589,70
DA:2593,0
DA:2602,70
DA:2604,70
DA:2605,70
DA:3361,1
DA:3363,1
DA:3364,1
DA:3703,2
DA:3705,2
DA:3706,2
DA:3707,0
DA:3708,2
DA:3709,2
DA:3710,2
DA:3711,0
DA:3712,2
DA:3713,2
DA:3714,2
DA:3715,0
DA:3716,2
DA:3733,398
DA:3735,398
DA:3749,720
DA:3751,720
DA:3913,11
DA:3915,11
DA:3916,11
DA:3917,22
DA:3918,11
DA:3919,11
DA:3920,11
DA:3921,11
DA:3922,11
DA:3923,11
DA:3924,11
DA:3925,11
DA:3946,1
DA:3947,1
DA:3958,6
DA:3959,6
DA:3964,0
DA:3965,0
DA:3977,11
DA:3978,11
LF:190
LH:139
end_of_record
TN:
SF:/Library/Developer/CommandLineTools/SDKs/MacOSX.sdk/usr/include/c++/v1/string_view
FNL:0,264
FNA:0,398,_ZNSt3__128__char_traits_length_checkedB8ne180100INS_11char_traitsIcEEEEmPKNT_9char_typeE
FNL:1,300
FNA:1,0,_ZNSt3__117basic_string_viewIcNS_11char_traitsIcEEEC1B8ne180100Ev
FNA:1,0,_ZNSt3__117basic_string_viewIcNS_11char_traitsIcEEEC2B8ne180100Ev
FNL:2,306
FNA:2,1838,_ZNSt3__117basic_string_viewIcNS_11char_traitsIcEEEC1B8ne180100EPKcm
FNA:2,1838,_ZNSt3__117basic_string_viewIcNS_11char_traitsIcEEEC2B8ne180100EPKcm
FNL:3,323
FNA:3,24,_ZNSt3__117basic_string_viewIcNS_11char_traitsIcEEEC1B8ne180100IPcS5_EET_T0_
FNA:3,24,_ZNSt3__117basic_string_viewIcNS_11char_traitsIcEEEC2B8ne180100IPcS5_EET_T0_
FNL:4,340
FNA:4,398,_ZNSt3__117basic_string_viewIcNS_11char_traitsIcEEEC1B8ne180100EPKc
FNA:4,398,_ZNSt3__117basic_string_viewIcNS_11char_traitsIcEEEC2B8ne180100EPKc
FNL:5,385
FNA:5,3850,_ZNKSt3__117basic_string_viewIcNS_11char_traitsIcEEE4sizeB8ne180100Ev
FNL:6,414
FNA:6,2260,_ZNKSt3__117basic_string_viewIcNS_11char_traitsIcEEE4dataB8ne180100Ev
FNL:7,452
FNA:7,1118,_ZNKSt3__117basic_string_viewIcNS_11char_traitsIcEEE7compareES3_
FNL:8,704
FNA:8,398,_ZNSt3__1eqB8ne180100IcNS_11char_traitsIcEEEEbNS_17basic_string_viewIT_T0_EENS_13type_identityIS6_E4typeE
FNL:9,712
FNA:9,720,_ZNSt3__1ssB8ne180100IcNS_11char_traitsIcEEEEDaNS_17basic_string_viewIT_T0_EENS_13type_identityIS7_E4typeE
FNF:10
FNH:9
DA:264,398
DA:266,398
DA:268,398
DA:300,0
DA:306,3676
DA:307,1838
DA:308,3676
DA:318,3676
DA:323,48
DA:324,48
DA:327,48
DA:340,796
DA:341,796
DA:385,3850
DA:414,2260
DA:452,1118
DA:453,1118
DA:454,1118
DA:455,1118
DA:456,397
DA:457,1118
DA:704,398
DA:706,398
DA:707,0
DA:708,398
DA:709,398
DA:712,720
DA:718,720
LF:28
LH:26
end_of_record
TN:
SF:/Library/Developer/CommandLineTools/SDKs/MacOSX.sdk/usr/include/c++/v1/tuple
FNL:0,1070
FNA:0,10,_ZNSt3__13getB8ne180100ILm0EJNS_10unique_ptrINS_15__thread_structENS_14default_deleteIS2_EEEEZN36CoreTypesTest_BasicThreadSafety_Test8TestBodyEvE3$_0EEERNS_13tuple_elementIXT_ENS_5tupleIJDpT0_EEEE4typeERSC_
FNA:0,0,_ZNSt3__13getB8ne180100ILm0EJONS_9allocatorIZN7pyfolio11performance17aggregate_returnsERKNS2_10TimeSeriesIdEENS2_9FrequencyEE3$_0EEEEERNS_13tuple_elementIXT_ENS_5tupleIJDpT0_EEEE4typeERSG_
FNA:0,1,_ZNSt3__13getB8ne180100ILm0EJONS_9allocatorIZNK7pyfolio10TimeSeriesIdE8resampleENS2_9FrequencyEEUlRKNS_6vectorIdNS1_IdEEEEE_EEEEERNS_13tuple_elementIXT_ENS_5tupleIJDpT0_EEEE4typeERSI_
FNA:0,0,_ZNSt3__13getB8ne180100ILm0EJOZN7pyfolio11performance17aggregate_returnsERKNS1_10TimeSeriesIdEENS1_9FrequencyEE3$_0EEERNS_13tuple_elementIXT_ENS_5tupleIJDpT0_EEEE4typeERSE_
FNA:0,1,_ZNSt3__13getB8ne180100ILm0EJOZNK7pyfolio10TimeSeriesIdE8resampleENS1_9FrequencyEEUlRKNS_6vectorIdNS_9allocatorIdEEEEE_EEERNS_13tuple_elementIXT_ENS_5tupleIJDpT0_EEEE4typeERSH_
FNA:0,5,_ZNSt3__13getB8ne180100ILm0EJRKN7pyfolio8DateTimeEEEERNS_13tuple_elementIXT_ENS_5tupleIJDpT0_EEEE4typeERS9_
FNA:0,0,_ZNSt3__13getB8ne180100ILm0EJRKNS_9allocatorIZN7pyfolio11performance17aggregate_returnsERKNS2_10TimeSeriesIdEENS2_9FrequencyEE3$_0EEEEERNS_13tuple_elementIXT_ENS_5tupleIJDpT0_EEEE4typeERSH_
FNA:0,0,_ZNSt3__13getB8ne180100ILm0EJRKNS_9allocatorIZNK7pyfolio10TimeSeriesIdE8resampleENS2_9FrequencyEEUlRKNS_6vectorIdNS1_IdEEEEE_EEEEERNS_13tuple_elementIXT_ENS_5tupleIJDpT0_EEEE4typeERSJ_
FNA:0,0,_ZNSt3__13getB8ne180100ILm0EJRKZN7pyfolio11performance17aggregate_returnsERKNS1_10TimeSeriesIdEENS1_9FrequencyEE3$_0EEERNS_13tuple_elementIXT_ENS_5tupleIJDpT0_EEEE4typeERSF_
FNA:0,0,_ZNSt3__13getB8ne180100ILm0EJRKZNK7pyfolio10TimeSeriesIdE8resampleENS1_9FrequencyEEUlRKNS_6vectorIdNS_9allocatorIdEEEEE_EEERNS_13tuple_elementIXT_ENS_5tupleIJDpT0_EEEE4typeERSI_
FNA:0,10,_ZNSt3__13getB8ne180100ILm1EJNS_10unique_ptrINS_15__thread_structENS_14default_deleteIS2_EEEEZN36CoreTypesTest_BasicThreadSafety_Test8TestBodyEvE3$_0EEERNS_13tuple_elementIXT_ENS_5tupleIJDpT0_EEEE4typeERSC_
FNL:1,1184
FNA:1,5,_ZNSt3__116forward_as_tupleB8ne180100IJEEENS_5tupleIJDpOT_EEES4_
FNA:1,0,_ZNSt3__116forward_as_tupleB8ne180100IJNS_9allocatorIZN7pyfolio11performance17aggregate_returnsERKNS2_10TimeSeriesIdEENS2_9FrequencyEE3$_0EEEEENS_5tupleIJDpOT_EEESE_
FNA:1,1,_ZNSt3__116forward_as_tupleB8ne180100IJNS_9allocatorIZNK7pyfolio10TimeSeriesIdE8resampleENS2_9FrequencyEEUlRKNS_6vectorIdNS1_IdEEEEE_EEEEENS_5tupleIJDpOT_EEESG_
FNA:1,5,_ZNSt3__116forward_as_tupleB8ne180100IJRKN7pyfolio8DateTimeEEEENS_5tupleIJDpOT_EEES8_
FNA:1,0,_ZNSt3__116forward_as_tupleB8ne180100IJRKNS_9allocatorIZN7pyfolio11performance17aggregate_returnsERKNS2_10TimeSeriesIdEENS2_9FrequencyEE3$_0EEEEENS_5tupleIJDpOT_EEESG_
FNA:1,0,_ZNSt3__116forward_as_tupleB8ne180100IJRKNS_9allocatorIZNK7pyfolio10TimeSeriesIdE8resampleENS2_9FrequencyEEUlRKNS_6vectorIdNS1_IdEEEEE_EEEEENS_5tupleIJDpOT_EEESI_
FNA:1,0,_ZNSt3__116forward_as_tupleB8ne180100IJRKZN7pyfolio11performance17aggregate_returnsERKNS1_10TimeSeriesIdEENS1_9FrequencyEE3$_0EEENS_5tupleIJDpOT_EEESE_
FNA:1,0,_ZNSt3__116forward_as_tupleB8ne180100IJRKZNK7pyfolio10TimeSeriesIdE8resampleENS1_9FrequencyEEUlRKNS_6vectorIdNS_9allocatorIdEEEEE_EEENS_5tupleIJDpOT_EEESH_
FNA:1,0,_ZNSt3__116forward_as_tupleB8ne180100IJZN7pyfolio11performance17aggregate_returnsERKNS1_10TimeSeriesIdEENS1_9FrequencyEE3$_0EEENS_5tupleIJDpOT_EEESC_
FNA:1,1,_ZNSt3__116forward_as_tupleB8ne180100IJZNK7pyfolio10TimeSeriesIdE8resampleENS1_9FrequencyEEUlRKNS_6vectorIdNS_9allocatorIdEEEEE_EEENS_5tupleIJDpOT_EEESF_
FNL:2,1403
FNA:2,5,_ZNSt3__14pairIKN7pyfolio8DateTimeENS_6vectorIdNS_9allocatorIdEEEEEC1B8ne180100IJRS3_EJEJLm0EEJEEENS_21piecewise_construct_tERNS_5tupleIJDpT_EEERNSC_IJDpT0_EEENS_15__tuple_indicesIJXspT1_EEEENSL_IJXspT2_EEEE
FNA:2,5,_ZNSt3__14pairIKN7pyfolio8DateTimeENS_6vectorIdNS_9allocatorIdEEEEEC2B8ne180100IJRS3_EJEJLm0EEJEEENS_21piecewise_construct_tERNS_5tupleIJDpT_EEERNSC_IJDpT0_EEENS_15__tuple_indicesIJXspT1_EEEENSL_IJXspT2_EEEE
FNL:3,305
FNA:3,10,_ZNSt3__112__tuple_leafILm0ENS_10unique_ptrINS_15__thread_structENS_14default_deleteIS2_EEEELb0EED2Ev
FNL:4,343
FNA:4,10,_ZNSt3__112__tuple_leafILm0ENS_10unique_ptrINS_15__thread_structENS_14default_deleteIS2_EEEELb0EEC2B8ne180100IS5_vEEOT_
FNA:4,0,_ZNSt3__112__tuple_leafILm0EONS_9allocatorIZN7pyfolio11performance17aggregate_returnsERKNS2_10TimeSeriesIdEENS2_9FrequencyEE3$_0EELb0EEC2B8ne180100ISA_vEEOT_
FNA:4,1,_ZNSt3__112__tuple_leafILm0EONS_9allocatorIZNK7pyfolio10TimeSeriesIdE8resampleENS2_9FrequencyEEUlRKNS_6vectorIdNS1_IdEEEEE_EELb0EEC2B8ne180100ISC_vEEOT_
FNA:4,0,_ZNSt3__112__tuple_leafILm0EOZN7pyfolio11performance17aggregate_returnsERKNS1_10TimeSeriesIdEENS1_9FrequencyEE3$_0Lb0EEC2B8ne180100IS8_vEEOT_
FNA:4,1,_ZNSt3__112__tuple_leafILm0EOZNK7pyfolio10TimeSeriesIdE8resampleENS1_9FrequencyEEUlRKNS_6vectorIdNS_9allocatorIdEEEEE_Lb0EEC2B8ne180100ISB_vEEOT_
FNA:4,5,_ZNSt3__112__tuple_leafILm0ERKN7pyfolio8DateTimeELb0EEC2B8ne180100IS4_vEEOT_
FNA:4,0,_ZNSt3__112__tuple_leafILm0ERKNS_9allocatorIZN7pyfolio11performance17aggregate_returnsERKNS2_10TimeSeriesIdEENS2_9FrequencyEE3$_0EELb0EEC2B8ne180100ISC_vEEOT_
FNA:4,0,_ZNSt3__112__tuple_leafILm0ERKNS_9allocatorIZNK7pyfolio10TimeSeriesIdE8resampleENS2_9FrequencyEEUlRKNS_6vectorIdNS1_IdEEEEE_EELb0EEC2B8ne180100ISE_vEEOT_
FNA:4,0,_ZNSt3__112__tuple_leafILm0ERKZN7pyfolio11performance17aggregate_returnsERKNS1_10TimeSeriesIdEENS1_9FrequencyEE3$_0Lb0EEC2B8ne180100ISA_vEEOT_
FNA:4,0,_ZNSt3__112__tuple_leafILm0ERKZNK7pyfolio10TimeSeriesIdE8resampleENS1_9FrequencyEEUlRKNS_6vectorIdNS_9allocatorIdEEEEE_Lb0EEC2B8ne180100ISD_vEEOT_
FNA:4,10,_ZNSt3__112__tuple_leafILm1EZN36CoreTypesTest_BasicThreadSafety_Test8TestBodyEvE3$_0Lb0EEC2B8ne180100IS2_vEEOT_
FNL:5,387
FNA:5,10,_ZNSt3__112__tuple_leafILm0ENS_10unique_ptrINS_15__thread_structENS_14default_deleteIS2_EEEELb0EE3getB8ne180100Ev
FNA:5,0,_ZNSt3__112__tuple_leafILm0EONS_9allocatorIZN7pyfolio11performance17aggregate_returnsERKNS2_10TimeSeriesIdEENS2_9FrequencyEE3$_0EELb0EE3getB8ne180100Ev
FNA:5,1,_ZNSt3__112__tuple_leafILm0EONS_9allocatorIZNK7pyfolio10TimeSeriesIdE8resampleENS2_9FrequencyEEUlRKNS_6vectorIdNS1_IdEEEEE_EELb0EE3getB8ne180100Ev
FNA:5,0,_ZNSt3__112__tuple_leafILm0EOZN7pyfolio11performance17aggregate_returnsERKNS1_10TimeSeriesIdEENS1_9FrequencyEE3$_0Lb0EE3getB8ne180100Ev
FNA:5,1,_ZNSt3__112__tuple_leafILm0EOZNK7pyfolio10TimeSeriesIdE8resampleENS1_9FrequencyEEUlRKNS_6vectorIdNS_9allocatorIdEEEEE_Lb0EE3getB8ne180100Ev
FNA:5,5,_ZNSt3__112__tuple_leafILm0ERKN7pyfolio8DateTimeELb0EE3getB8ne180100Ev
FNA:5,0,_ZNSt3__112__tuple_leafILm0ERKNS_9allocatorIZN7pyfolio11performance17aggregate_returnsERKNS2_10TimeSeriesIdEENS2_9FrequencyEE3$_0EELb0EE3getB8ne180100Ev
FNA:5,0,_ZNSt3__112__tuple_leafILm0ERKNS_9allocatorIZNK7pyfolio10TimeSeriesIdE8resampleENS2_9FrequencyEEUlRKNS_6vectorIdNS1_IdEEEEE_EELb0EE3getB8ne180100Ev
FNA:5,0,_ZNSt3__112__tuple_leafILm0ERKZN7pyfolio11performance17aggregate_returnsERKNS1_10TimeSeriesIdEENS1_9FrequencyEE3$_0Lb0EE3getB8ne180100Ev
FNA:5,0,_ZNSt3__112__tuple_leafILm0ERKZNK7pyfolio10TimeSeriesIdE8resampleENS1_9FrequencyEEUlRKNS_6vectorIdNS_9allocatorIdEEEEE_Lb0EE3getB8ne180100Ev
FNA:5,10,_ZNSt3__112__tuple_leafILm1EZN36CoreTypesTest_BasicThreadSafety_Test8TestBodyEvE3$_0Lb0EE3getB8ne180100Ev
FNL:6,463
FNA:6,10,_ZNSt3__112__tuple_implINS_15__tuple_indicesIJLm0ELm1EEEEJNS_10unique_ptrINS_15__thread_structENS_14default_deleteIS4_EEEEZN36CoreTypesTest_BasicThreadSafety_Test8TestBodyEvE3$_0EED1Ev
FNA:6,10,_ZNSt3__112__tuple_implINS_15__tuple_indicesIJLm0ELm1EEEEJNS_10unique_ptrINS_15__thread_structENS_14default_deleteIS4_EEEEZN36CoreTypesTest_BasicThreadSafety_Test8TestBodyEvE3$_0EED2Ev
FNL:7,469
FNA:7,0,_ZNSt3__112__tuple_implINS_15__tuple_indicesIJLm0EEEEJONS_9allocatorIZN7pyfolio11performance17aggregate_returnsERKNS4_10TimeSeriesIdEENS4_9FrequencyEE3$_0EEEEC1B8ne180100IJLm0EEJSD_EJEJEJSC_EEENS1_IJXspT_EEEENS_13__tuple_typesIJDpT0_EEENS1_IJXspT1_EEEENSH_IJDpT2_EEEDpOT3_
FNA:7,0,_ZNSt3__112__tuple_implINS_15__tuple_indicesIJLm0EEEEJONS_9allocatorIZN7pyfolio11performance17aggregate_returnsERKNS4_10TimeSeriesIdEENS4_9FrequencyEE3$_0EEEEC2B8ne180100IJLm0EEJSD_EJEJEJSC_EEENS1_IJXspT_EEEENS_13__tuple_typesIJDpT0_EEENS1_IJXspT1_EEEENSH_IJDpT2_EEEDpOT3_
FNA:7,1,_ZNSt3__112__tuple_implINS_15__tuple_indicesIJLm0EEEEJONS_9allocatorIZNK7pyfolio10TimeSeriesIdE8resampleENS4_9FrequencyEEUlRKNS_6vectorIdNS3_IdEEEEE_EEEEC1B8ne180100IJLm0EEJSF_EJEJEJSE_EEENS1_IJXspT_EEEENS_13__tuple_typesIJDpT0_EEENS1_IJXspT1_EEEENSJ_IJDpT2_EEEDpOT3_
FNA:7,1,_ZNSt3__112__tuple_implINS_15__tuple_indicesIJLm0EEEEJONS_9allocatorIZNK7pyfolio10TimeSeriesIdE8resampleENS4_9FrequencyEEUlRKNS_6vectorIdNS3_IdEEEEE_EEEEC2B8ne180100IJLm0EEJSF_EJEJEJSE_EEENS1_IJXspT_EEEENS_13__tuple_typesIJDpT0_EEENS1_IJXspT1_EEEENSJ_IJDpT2_EEEDpOT3_
FNA:7,0,_ZNSt3__112__tuple_implINS_15__tuple_indicesIJLm0EEEEJOZN7pyfolio11performance17aggregate_returnsERKNS3_10TimeSeriesIdEENS3_9FrequencyEE3$_0EEC1B8ne180100IJLm0EEJSB_EJEJEJSA_EEENS1_IJXspT_EEEENS_13__tuple_typesIJDpT0_EEENS1_IJXspT1_EEEENSF_IJDpT2_EEEDpOT3_
FNA:7,0,_ZNSt3__112__tuple_implINS_15__tuple_indicesIJLm0EEEEJOZN7pyfolio11performance17aggregate_returnsERKNS3_10TimeSeriesIdEENS3_9FrequencyEE3$_0EEC2B8ne180100IJLm0EEJSB_EJEJEJSA_EEENS1_IJXspT_EEEENS_13__tuple_typesIJDpT0_EEENS1_IJXspT1_EEEENSF_IJDpT2_EEEDpOT3_
FNA:7,1,_ZNSt3__112__tuple_implINS_15__tuple_indicesIJLm0EEEEJOZNK7pyfolio10TimeSeriesIdE8resampleENS3_9FrequencyEEUlRKNS_6vectorIdNS_9allocatorIdEEEEE_EEC1B8ne180100IJLm0EEJSE_EJEJEJSD_EEENS1_IJXspT_EEEENS_13__tuple_typesIJDpT0_EEENS1_IJXspT1_EEEENSI_IJDpT2_EEEDpOT3_
FNA:7,1,_ZNSt3__112__tuple_implINS_15__tuple_indicesIJLm0EEEEJOZNK7pyfolio10TimeSeriesIdE8resampleENS3_9FrequencyEEUlRKNS_6vectorIdNS_9allocatorIdEEEEE_EEC2B8ne180100IJLm0EEJSE_EJEJEJSD_EEENS1_IJXspT_EEEENS_13__tuple_typesIJDpT0_EEENS1_IJXspT1_EEEENSI_IJDpT2_EEEDpOT3_
FNA:7,5,_ZNSt3__112__tuple_implINS_15__tuple_indicesIJLm0EEEEJRKN7pyfolio8DateTimeEEEC1B8ne180100IJLm0EEJS6_EJEJEJS6_EEENS1_IJXspT_EEEENS_13__tuple_typesIJDpT0_EEENS1_IJXspT1_EEEENSA_IJDpT2_EEEDpOT3_
FNA:7,5,_ZNSt3__112__tuple_implINS_15__tuple_indicesIJLm0EEEEJRKN7pyfolio8DateTimeEEEC2B8ne180100IJLm0EEJS6_EJEJEJS6_EEENS1_IJXspT_EEEENS_13__tuple_typesIJDpT0_EEENS1_IJXspT1_EEEENSA_IJDpT2_EEEDpOT3_
FNA:7,0,_ZNSt3__112__tuple_implINS_15__tuple_indicesIJLm0EEEEJRKNS_9allocatorIZN7pyfolio11performance17aggregate_returnsERKNS4_10TimeSeriesIdEENS4_9FrequencyEE3$_0EEEEC1B8ne180100IJLm0EEJSE_EJEJEJSE_EEENS1_IJXspT_EEEENS_13__tuple_typesIJDpT0_EEENS1_IJXspT1_EEEENSI_IJDpT2_EEEDpOT3_
FNA:7,0,_ZNSt3__112__tuple_implINS_15__tuple_indicesIJLm0EEEEJRKNS_9allocatorIZN7pyfolio11performance17aggregate_returnsERKNS4_10TimeSeriesIdEENS4_9FrequencyEE3$_0EEEEC2B8ne180100IJLm0EEJSE_EJEJEJSE_EEENS1_IJXspT_EEEENS_13__tuple_typesIJDpT0_EEENS1_IJXspT1_EEEENSI_IJDpT2_EEEDpOT3_
FNA:7,0,_ZNSt3__112__tuple_implINS_15__tuple_indicesIJLm0EEEEJRKNS_9allocatorIZNK7pyfolio10TimeSeriesIdE8resampleENS4_9FrequencyEEUlRKNS_6vectorIdNS3_IdEEEEE_EEEEC1B8ne180100IJLm0EEJSG_EJEJEJSG_EEENS1_IJXspT_EEEENS_13__tuple_typesIJDpT0_EEENS1_IJXspT1_EEEENSK_IJDpT2_EEEDpOT3_
FNA:7,0,_ZNSt3__112__tuple_implINS_15__tuple_indicesIJLm0EEEEJRKNS_9allocatorIZNK7pyfolio10TimeSeriesIdE8resampleENS4_9FrequencyEEUlRKNS_6vectorIdNS3_IdEEEEE_EEEEC2B8ne180100IJLm0EEJSG_EJEJEJSG_EEENS1_IJXspT_EEEENS_13__tuple_typesIJDpT0_EEENS1_IJXspT1_EEEENSK_IJDpT2_EEEDpOT3_
FNA:7,0,_ZNSt3__112__tuple_implINS_15__tuple_indicesIJLm0EEEEJRKZN7pyfolio11performance17aggregate_returnsERKNS3_10TimeSeriesIdEENS3_9FrequencyEE3$_0EEC1B8ne180100IJLm0EEJSC_EJEJEJSC_EEENS1_IJXspT_EEEENS_13__tuple_typesIJDpT0_EEENS1_IJXspT1_EEEENSG_IJDpT2_EEEDpOT3_
FNA:7,0,_ZNSt3__112__tuple_implINS_15__tuple_indicesIJLm0EEEEJRKZN7pyfolio11performance17aggregate_returnsERKNS3_10TimeSeriesIdEENS3_9FrequencyEE3$_0EEC2B8ne180100IJLm0EEJSC_EJEJEJSC_EEENS1_IJXspT_EEEENS_13__tuple_typesIJDpT0_EEENS1_IJXspT1_EEEENSG_IJDpT2_EEEDpOT3_
FNA:7,0,_ZNSt3__112__tuple_implINS_15__tuple_indicesIJLm0EEEEJRKZNK7pyfolio10TimeSeriesIdE8resampleENS3_9FrequencyEEUlRKNS_6vectorIdNS_9allocatorIdEEEEE_EEC1B8ne180100IJLm0EEJSF_EJEJEJSF_EEENS1_IJXspT_EEEENS_13__tuple_typesIJDpT0_EEENS1_IJXspT1_EEEENSJ_IJDpT2_EEEDpOT3_
FNA:7,0,_ZNSt3__112__tuple_implINS_15__tuple_indicesIJLm0EEEEJRKZNK7pyfolio10TimeSeriesIdE8resampleENS3_9FrequencyEEUlRKNS_6vectorIdNS_9allocatorIdEEEEE_EEC2B8ne180100IJLm0EEJSF_EJEJEJSF_EEENS1_IJXspT_EEEENS_13__tuple_typesIJDpT0_EEENS1_IJXspT1_EEEENSJ_IJDpT2_EEEDpOT3_
FNA:7,10,_ZNSt3__112__tuple_implINS_15__tuple_indicesIJLm0ELm1EEEEJNS_10unique_ptrINS_15__thread_structENS_14default_deleteIS4_EEEEZN36CoreTypesTest_BasicThreadSafety_Test8TestBodyEvE3$_0EEC1B8ne180100IJLm0ELm1EEJS7_S9_EJEJEJS7_S9_EEENS1_IJXspT_EEEENS_13__tuple_typesIJDpT0_EEENS1_IJXspT1_EEEENSD_IJDpT2_EEEDpOT3_
FNA:7,10,_ZNSt3__112__tuple_implINS_15__tuple_indicesIJLm0ELm1EEEEJNS_10unique_ptrINS_15__thread_structENS_14default_deleteIS4_EEEEZN36CoreTypesTest_BasicThreadSafety_Test8TestBodyEvE3$_0EEC2B8ne180100IJLm0ELm1EEJS7_S9_EJEJEJS7_S9_EEENS1_IJXspT_EEEENS_13__tuple_typesIJDpT0_EEENS1_IJXspT1_EEEENSD_IJDpT2_EEEDpOT3_
FNL:8,533
FNA:8,10,_ZNSt3__15tupleIJNS_10unique_ptrINS_15__thread_structENS_14default_deleteIS2_EEEEZN36CoreTypesTest_BasicThreadSafety_Test8TestBodyEvE3$_0EED1Ev
FNA:8,10,_ZNSt3__15tupleIJNS_10unique_ptrINS_15__thread_structENS_14default_deleteIS2_EEEEZN36CoreTypesTest_BasicThreadSafety_Test8TestBodyEvE3$_0EED2Ev
FNL:9,581
FNA:9,5,_ZNSt3__15tupleIJRKN7pyfolio8DateTimeEEEC1B8ne180100INS_4_AndELi0EEES4_
FNA:9,5,_ZNSt3__15tupleIJRKN7pyfolio8DateTimeEEEC2B8ne180100INS_4_AndELi0EEES4_
FNA:9,0,_ZNSt3__15tupleIJRKNS_9allocatorIZN7pyfolio11performance17aggregate_returnsERKNS2_10TimeSeriesIdEENS2_9FrequencyEE3$_0EEEEC1B8ne180100INS_4_AndELi0EEESC_
FNA:9,0,_ZNSt3__15tupleIJRKNS_9allocatorIZN7pyfolio11performance17aggregate_returnsERKNS2_10TimeSeriesIdEENS2_9FrequencyEE3$_0EEEEC2B8ne180100INS_4_AndELi0EEESC_
FNA:9,0,_ZNSt3__15tupleIJRKNS_9allocatorIZNK7pyfolio10TimeSeriesIdE8resampleENS2_9FrequencyEEUlRKNS_6vectorIdNS1_IdEEEEE_EEEEC1B8ne180100INS_4_AndELi0EEESE_
FNA:9,0,_ZNSt3__15tupleIJRKNS_9allocatorIZNK7pyfolio10TimeSeriesIdE8resampleENS2_9FrequencyEEUlRKNS_6vectorIdNS1_IdEEEEE_EEEEC2B8ne180100INS_4_AndELi0EEESE_
FNA:9,0,_ZNSt3__15tupleIJRKZN7pyfolio11performance17aggregate_returnsERKNS1_10TimeSeriesIdEENS1_9FrequencyEE3$_0EEC1B8ne180100INS_4_AndELi0EEESA_
FNA:9,0,_ZNSt3__15tupleIJRKZN7pyfolio11performance17aggregate_returnsERKNS1_10TimeSeriesIdEENS1_9FrequencyEE3$_0EEC2B8ne180100INS_4_AndELi0EEESA_
FNA:9,0,_ZNSt3__15tupleIJRKZNK7pyfolio10TimeSeriesIdE8resampleENS1_9FrequencyEEUlRKNS_6vectorIdNS_9allocatorIdEEEEE_EEC1B8ne180100INS_4_AndELi0EEESD_
FNA:9,0,_ZNSt3__15tupleIJRKZNK7pyfolio10TimeSeriesIdE8resampleENS1_9FrequencyEEUlRKNS_6vectorIdNS_9allocatorIdEEEEE_EEC2B8ne180100INS_4_AndELi0EEESD_
FNL:10,619
FNA:10,10,_ZNSt3__15tupleIJNS_10unique_ptrINS_15__thread_structENS_14default_deleteIS2_EEEEZN36CoreTypesTest_BasicThreadSafety_Test8TestBodyEvE3$_0EEC1B8ne180100IJS5_S7_ELi0EEEDpOT_
FNA:10,10,_ZNSt3__15tupleIJNS_10unique_ptrINS_15__thread_structENS_14default_deleteIS2_EEEEZN36CoreTypesTest_BasicThreadSafety_Test8TestBodyEvE3$_0EEC2B8ne180100IJS5_S7_ELi0EEEDpOT_
FNA:10,0,_ZNSt3__15tupleIJONS_9allocatorIZN7pyfolio11performance17aggregate_returnsERKNS2_10TimeSeriesIdEENS2_9FrequencyEE3$_0EEEEC1B8ne180100IJSA_ELi0EEEDpOT_
FNA:10,0,_ZNSt3__15tupleIJONS_9allocatorIZN7pyfolio11performance17aggregate_returnsERKNS2_10TimeSeriesIdEENS2_9FrequencyEE3$_0EEEEC2B8ne180100IJSA_ELi0EEEDpOT_
FNA:10,1,_ZNSt3__15tupleIJONS_9allocatorIZNK7pyfolio10TimeSeriesIdE8resampleENS2_9FrequencyEEUlRKNS_6vectorIdNS1_IdEEEEE_EEEEC1B8ne180100IJSC_ELi0EEEDpOT_
FNA:10,1,_ZNSt3__15tupleIJONS_9allocatorIZNK7pyfolio10TimeSeriesIdE8resampleENS2_9FrequencyEEUlRKNS_6vectorIdNS1_IdEEEEE_EEEEC2B8ne180100IJSC_ELi0EEEDpOT_
FNA:10,0,_ZNSt3__15tupleIJOZN7pyfolio11performance17aggregate_returnsERKNS1_10TimeSeriesIdEENS1_9FrequencyEE3$_0EEC1B8ne180100IJS8_ELi0EEEDpOT_
FNA:10,0,_ZNSt3__15tupleIJOZN7pyfolio11performance17aggregate_returnsERKNS1_10TimeSeriesIdEENS1_9FrequencyEE3$_0EEC2B8ne180100IJS8_ELi0EEEDpOT_
FNA:10,1,_ZNSt3__15tupleIJOZNK7pyfolio10TimeSeriesIdE8resampleENS1_9FrequencyEEUlRKNS_6vectorIdNS_9allocatorIdEEEEE_EEC1B8ne180100IJSB_ELi0EEEDpOT_
FNA:10,1,_ZNSt3__15tupleIJOZNK7pyfolio10TimeSeriesIdE8resampleENS1_9FrequencyEEUlRKNS_6vectorIdNS_9allocatorIdEEEEE_EEC2B8ne180100IJSB_ELi0EEEDpOT_
FNF:11
FNH:11
DA:343,27
DA:345,27
DA:348,27
DA:387,27
DA:469,34
DA:473,34
DA:581,10
DA:583,10
DA:587,15
DA:619,24
DA:620,24
DA:624,36
DA:1070,27
DA:1072,27
DA:1184,12
DA:1185,12
DA:1403,10
DA:1409,5
DA:1410,10
LF:19
LH:19
end_of_record
TN:
SF:/Library/Developer/CommandLineTools/SDKs/MacOSX.sdk/usr/include/c++/v1/typeinfo
FNL:0,229
FNA:0,0,_ZNSt27__type_info_implementations30__non_unique_arm_rtti_bit_impl21__type_name_to_stringB8ne180100Em
FNL:1,241
FNA:1,0,_ZNSt27__type_info_implementations30__non_unique_arm_rtti_bit_impl4__eqB8ne180100Emm
FNL:2,262
FNA:2,0,_ZNSt27__type_info_implementations30__non_unique_arm_rtti_bit_impl21__is_type_name_uniqueB8ne180100Em
FNL:3,314
FNA:3,0,_ZNKSt9type_infoeqB8ne180100ERKS_
FNF:4
FNH:0
DA:229,0
DA:230,0
DA:241,0
DA:242,0
DA:243,0
DA:244,0
DA:247,0
DA:248,0
DA:249,0
DA:262,0
DA:263,0
DA:314,0
DA:320,0
LF:13
LH:0
end_of_record
TN:
SF:/Library/Developer/CommandLineTools/SDKs/MacOSX.sdk/usr/include/c++/v1/variant
FNL:0,1006
FNA:0,2,_ZNSt3__116__variant_detail6__implIJN7pyfolio10Statistics15AlphaBetaResultENS2_5ErrorEEED1Ev
FNA:0,2,_ZNSt3__116__variant_detail6__implIJN7pyfolio10Statistics15AlphaBetaResultENS2_5ErrorEEED2Ev
FNA:0,2,_ZNSt3__116__variant_detail6__implIJN7pyfolio10Statistics18SimpleDrawdownInfoENS2_5ErrorEEED1Ev
FNA:0,2,_ZNSt3__116__variant_detail6__implIJN7pyfolio10Statistics18SimpleDrawdownInfoENS2_5ErrorEEED2Ev
FNA:0,14,_ZNSt3__116__variant_detail6__implIJN7pyfolio10TimeSeriesIdEENS2_5ErrorEEED1Ev
FNA:0,14,_ZNSt3__116__variant_detail6__implIJN7pyfolio10TimeSeriesIdEENS2_5ErrorEEED2Ev
FNA:0,1,_ZNSt3__116__variant_detail6__implIJN7pyfolio18PerformanceMetrics18CaptureRatioResultENS2_5ErrorEEED1Ev
FNA:0,1,_ZNSt3__116__variant_detail6__implIJN7pyfolio18PerformanceMetrics18CaptureRatioResultENS2_5ErrorEEED2Ev
FNA:0,391,_ZNSt3__116__variant_detail6__implIJN7pyfolio8DateTimeENS2_5ErrorEEED1Ev
FNA:0,391,_ZNSt3__116__variant_detail6__implIJN7pyfolio8DateTimeENS2_5ErrorEEED2Ev
FNA:0,3,_ZNSt3__116__variant_detail6__implIJN7pyfolio9analytics10statistics18StatisticalSummaryENS2_5ErrorEEED1Ev
FNA:0,3,_ZNSt3__116__variant_detail6__implIJN7pyfolio9analytics10statistics18StatisticalSummaryENS2_5ErrorEEED2Ev
FNA:0,1,_ZNSt3__116__variant_detail6__implIJN7pyfolio9analytics18PerformanceMetricsENS2_5ErrorEEED1Ev
FNA:0,1,_ZNSt3__116__variant_detail6__implIJN7pyfolio9analytics18PerformanceMetricsENS2_5ErrorEEED2Ev
FNA:0,1,_ZNSt3__116__variant_detail6__implIJNS_4pairIN7pyfolio10TimeSeriesIdEES5_EENS3_5ErrorEEED1Ev
FNA:0,1,_ZNSt3__116__variant_detail6__implIJNS_4pairIN7pyfolio10TimeSeriesIdEES5_EENS3_5ErrorEEED2Ev
FNA:0,0,_ZNSt3__116__variant_detail6__implIJNS_6vectorIN7pyfolio11performance12DrawdownInfoENS_9allocatorIS5_EEEENS3_5ErrorEEED1Ev
FNA:0,0,_ZNSt3__116__variant_detail6__implIJNS_6vectorIN7pyfolio11performance12DrawdownInfoENS_9allocatorIS5_EEEENS3_5ErrorEEED2Ev
FNA:0,0,_ZNSt3__116__variant_detail6__implIJNS_6vectorIdNS_9allocatorIdEEEEN7pyfolio5ErrorEEED1Ev
FNA:0,0,_ZNSt3__116__variant_detail6__implIJNS_6vectorIdNS_9allocatorIdEEEEN7pyfolio5ErrorEEED2Ev
FNA:0,100105,_ZNSt3__116__variant_detail6__implIJdN7pyfolio5ErrorEEED1Ev
FNA:0,100105,_ZNSt3__116__variant_detail6__implIJdN7pyfolio5ErrorEEED2Ev
FNA:0,13,_ZNSt3__116__variant_detail6__implIJiN7pyfolio5ErrorEEED1Ev
FNA:0,13,_ZNSt3__116__variant_detail6__implIJiN7pyfolio5ErrorEEED2Ev
FNL:1,1010
FNA:1,2,_ZNSt3__116__variant_detail6__implIJN7pyfolio10Statistics15AlphaBetaResultENS2_5ErrorEEECI1NS0_6__baseILNS0_6_TraitE1EJS4_S5_EEEILm0EJRKS4_EEENS_16in_place_index_tIXT_EEEDpOT0_
FNA:1,0,_ZNSt3__116__variant_detail6__implIJN7pyfolio10Statistics15AlphaBetaResultENS2_5ErrorEEECI1NS0_6__baseILNS0_6_TraitE1EJS4_S5_EEEILm1EJS5_EEENS_16in_place_index_tIXT_EEEDpOT0_
FNA:1,2,_ZNSt3__116__variant_detail6__implIJN7pyfolio10Statistics15AlphaBetaResultENS2_5ErrorEEECI2NS0_6__baseILNS0_6_TraitE1EJS4_S5_EEEILm0EJRKS4_EEENS_16in_place_index_tIXT_EEEDpOT0_
FNA:1,0,_ZNSt3__116__variant_detail6__implIJN7pyfolio10Statistics15AlphaBetaResultENS2_5ErrorEEECI2NS0_6__baseILNS0_6_TraitE1EJS4_S5_EEEILm1EJS5_EEENS_16in_place_index_tIXT_EEEDpOT0_
FNA:1,2,_ZNSt3__116__variant_detail6__implIJN7pyfolio10Statistics18SimpleDrawdownInfoENS2_5ErrorEEECI1NS0_6__baseILNS0_6_TraitE1EJS4_S5_EEEILm0EJRKS4_EEENS_16in_place_index_tIXT_EEEDpOT0_
FNA:1,0,_ZNSt3__116__variant_detail6__implIJN7pyfolio10Statistics18SimpleDrawdownInfoENS2_5ErrorEEECI1NS0_6__baseILNS0_6_TraitE1EJS4_S5_EEEILm1EJS5_EEENS_16in_place_index_tIXT_EEEDpOT0_
FNA:1,2,_ZNSt3__116__variant_detail6__implIJN7pyfolio10Statistics18SimpleDrawdownInfoENS2_5ErrorEEECI2NS0_6__baseILNS0_6_TraitE1EJS4_S5_EEEILm0EJRKS4_EEENS_16in_place_index_tIXT_EEEDpOT0_
FNA:1,0,_ZNSt3__116__variant_detail6__implIJN7pyfolio10Statistics18SimpleDrawdownInfoENS2_5ErrorEEECI2NS0_6__baseILNS0_6_TraitE1EJS4_S5_EEEILm1EJS5_EEENS_16in_place_index_tIXT_EEEDpOT0_
FNA:1,1,_ZNSt3__116__variant_detail6__implIJN7pyfolio10TimeSeriesIdEENS2_5ErrorEEECI1NS0_6__baseILNS0_6_TraitE1EJS4_S5_EEEILm0EJRKS4_EEENS_16in_place_index_tIXT_EEEDpOT0_
FNA:1,12,_ZNSt3__116__variant_detail6__implIJN7pyfolio10TimeSeriesIdEENS2_5ErrorEEECI1NS0_6__baseILNS0_6_TraitE1EJS4_S5_EEEILm0EJS4_EEENS_16in_place_index_tIXT_EEEDpOT0_
FNA:1,1,_ZNSt3__116__variant_detail6__implIJN7pyfolio10TimeSeriesIdEENS2_5ErrorEEECI1NS0_6__baseILNS0_6_TraitE1EJS4_S5_EEEILm1EJS5_EEENS_16in_place_index_tIXT_EEEDpOT0_
FNA:1,1,_ZNSt3__116__variant_detail6__implIJN7pyfolio10TimeSeriesIdEENS2_5ErrorEEECI2NS0_6__baseILNS0_6_TraitE1EJS4_S5_EEEILm0EJRKS4_EEENS_16in_place_index_tIXT_EEEDpOT0_
FNA:1,12,_ZNSt3__116__variant_detail6__implIJN7pyfolio10TimeSeriesIdEENS2_5ErrorEEECI2NS0_6__baseILNS0_6_TraitE1EJS4_S5_EEEILm0EJS4_EEENS_16in_place_index_tIXT_EEEDpOT0_
FNA:1,1,_ZNSt3__116__variant_detail6__implIJN7pyfolio10TimeSeriesIdEENS2_5ErrorEEECI2NS0_6__baseILNS0_6_TraitE1EJS4_S5_EEEILm1EJS5_EEENS_16in_place_index_tIXT_EEEDpOT0_
FNA:1,0,_ZNSt3__116__variant_detail6__implIJN7pyfolio11performance12DrawdownInfoENS2_5ErrorEEECI1NS0_6__baseILNS0_6_TraitE1EJS4_S5_EEEILm0EJRKS4_EEENS_16in_place_index_tIXT_EEEDpOT0_
FNA:1,0,_ZNSt3__116__variant_detail6__implIJN7pyfolio11performance12DrawdownInfoENS2_5ErrorEEECI1NS0_6__baseILNS0_6_TraitE1EJS4_S5_EEEILm1EJS5_EEENS_16in_place_index_tIXT_EEEDpOT0_
FNA:1,0,_ZNSt3__116__variant_detail6__implIJN7pyfolio11performance12DrawdownInfoENS2_5ErrorEEECI2NS0_6__baseILNS0_6_TraitE1EJS4_S5_EEEILm0EJRKS4_EEENS_16in_place_index_tIXT_EEEDpOT0_
FNA:1,0,_ZNSt3__116__variant_detail6__implIJN7pyfolio11performance12DrawdownInfoENS2_5ErrorEEECI2NS0_6__baseILNS0_6_TraitE1EJS4_S5_EEEILm1EJS5_EEENS_16in_place_index_tIXT_EEEDpOT0_
FNA:1,1,_ZNSt3__116__variant_detail6__implIJN7pyfolio18PerformanceMetrics18CaptureRatioResultENS2_5ErrorEEECI1NS0_6__baseILNS0_6_TraitE1EJS4_S5_EEEILm0EJRKS4_EEENS_16in_place_index_tIXT_EEEDpOT0_
FNA:1,1,_ZNSt3__116__variant_detail6__implIJN7pyfolio18PerformanceMetrics18CaptureRatioResultENS2_5ErrorEEECI2NS0_6__baseILNS0_6_TraitE1EJS4_S5_EEEILm0EJRKS4_EEENS_16in_place_index_tIXT_EEEDpOT0_
FNA:1,389,_ZNSt3__116__variant_detail6__implIJN7pyfolio8DateTimeENS2_5ErrorEEECI1NS0_6__baseILNS0_6_TraitE1EJS3_S4_EEEILm0EJS3_EEENS_16in_place_index_tIXT_EEEDpOT0_
FNA:1,2,_ZNSt3__116__variant_detail6__implIJN7pyfolio8DateTimeENS2_5ErrorEEECI1NS0_6__baseILNS0_6_TraitE1EJS3_S4_EEEILm1EJS4_EEENS_16in_place_index_tIXT_EEEDpOT0_
FNA:1,389,_ZNSt3__116__variant_detail6__implIJN7pyfolio8DateTimeENS2_5ErrorEEECI2NS0_6__baseILNS0_6_TraitE1EJS3_S4_EEEILm0EJS3_EEENS_16in_place_index_tIXT_EEEDpOT0_
FNA:1,2,_ZNSt3__116__variant_detail6__implIJN7pyfolio8DateTimeENS2_5ErrorEEECI2NS0_6__baseILNS0_6_TraitE1EJS3_S4_EEEILm1EJS4_EEENS_16in_place_index_tIXT_EEEDpOT0_
FNA:1,1,_ZNSt3__116__variant_detail6__implIJN7pyfolio9analytics10statistics18StatisticalSummaryENS2_5ErrorEEECI1NS0_6__baseILNS0_6_TraitE1EJS5_S6_EEEILm0EJS5_EEENS_16in_place_index_tIXT_EEEDpOT0_
FNA:1,2,_ZNSt3__116__variant_detail6__implIJN7pyfolio9analytics10statistics18StatisticalSummaryENS2_5ErrorEEECI1NS0_6__baseILNS0_6_TraitE1EJS5_S6_EEEILm1EJS6_EEENS_16in_place_index_tIXT_EEEDpOT0_
FNA:1,1,_ZNSt3__116__variant_detail6__implIJN7pyfolio9analytics10statistics18StatisticalSummaryENS2_5ErrorEEECI2NS0_6__baseILNS0_6_TraitE1EJS5_S6_EEEILm0EJS5_EEENS_16in_place_index_tIXT_EEEDpOT0_
FNA:1,2,_ZNSt3__116__variant_detail6__implIJN7pyfolio9analytics10statistics18StatisticalSummaryENS2_5ErrorEEECI2NS0_6__baseILNS0_6_TraitE1EJS5_S6_EEEILm1EJS6_EEENS_16in_place_index_tIXT_EEEDpOT0_
FNA:1,1,_ZNSt3__116__variant_detail6__implIJN7pyfolio9analytics18PerformanceMetricsENS2_5ErrorEEECI1NS0_6__baseILNS0_6_TraitE1EJS4_S5_EEEILm0EJRKS4_EEENS_16in_place_index_tIXT_EEEDpOT0_
FNA:1,1,_ZNSt3__116__variant_detail6__implIJN7pyfolio9analytics18PerformanceMetricsENS2_5ErrorEEECI2NS0_6__baseILNS0_6_TraitE1EJS4_S5_EEEILm0EJRKS4_EEENS_16in_place_index_tIXT_EEEDpOT0_
FNA:1,1,_ZNSt3__116__variant_detail6__implIJNS_4pairIN7pyfolio10TimeSeriesIdEES5_EENS3_5ErrorEEECI1NS0_6__baseILNS0_6_TraitE1EJS6_S7_EEEILm0EJS6_EEENS_16in_place_index_tIXT_EEEDpOT0_
FNA:1,1,_ZNSt3__116__variant_detail6__implIJNS_4pairIN7pyfolio10TimeSeriesIdEES5_EENS3_5ErrorEEECI2NS0_6__baseILNS0_6_TraitE1EJS6_S7_EEEILm0EJS6_EEENS_16in_place_index_tIXT_EEEDpOT0_
FNA:1,0,_ZNSt3__116__variant_detail6__implIJNS_6vectorIN7pyfolio11performance12DrawdownInfoENS_9allocatorIS5_EEEENS3_5ErrorEEECI1NS0_6__baseILNS0_6_TraitE1EJS8_S9_EEEILm0EJS8_EEENS_16in_place_index_tIXT_EEEDpOT0_
FNA:1,0,_ZNSt3__116__variant_detail6__implIJNS_6vectorIN7pyfolio11performance12DrawdownInfoENS_9allocatorIS5_EEEENS3_5ErrorEEECI1NS0_6__baseILNS0_6_TraitE1EJS8_S9_EEEILm1EJS9_EEENS_16in_place_index_tIXT_EEEDpOT0_
FNA:1,0,_ZNSt3__116__variant_detail6__implIJNS_6vectorIN7pyfolio11performance12DrawdownInfoENS_9allocatorIS5_EEEENS3_5ErrorEEECI2NS0_6__baseILNS0_6_TraitE1EJS8_S9_EEEILm0EJS8_EEENS_16in_place_index_tIXT_EEEDpOT0_
FNA:1,0,_ZNSt3__116__variant_detail6__implIJNS_6vectorIN7pyfolio11performance12DrawdownInfoENS_9allocatorIS5_EEEENS3_5ErrorEEECI2NS0_6__baseILNS0_6_TraitE1EJS8_S9_EEEILm1EJS9_EEENS_16in_place_index_tIXT_EEEDpOT0_
FNA:1,0,_ZNSt3__116__variant_detail6__implIJNS_6vectorIdNS_9allocatorIdEEEEN7pyfolio5ErrorEEECI1NS0_6__baseILNS0_6_TraitE1EJS5_S7_EEEILm0EJS5_EEENS_16in_place_index_tIXT_EEEDpOT0_
FNA:1,0,_ZNSt3__116__variant_detail6__implIJNS_6vectorIdNS_9allocatorIdEEEEN7pyfolio5ErrorEEECI1NS0_6__baseILNS0_6_TraitE1EJS5_S7_EEEILm1EJS7_EEENS_16in_place_index_tIXT_EEEDpOT0_
FNA:1,0,_ZNSt3__116__variant_detail6__implIJNS_6vectorIdNS_9allocatorIdEEEEN7pyfolio5ErrorEEECI2NS0_6__baseILNS0_6_TraitE1EJS5_S7_EEEILm0EJS5_EEENS_16in_place_index_tIXT_EEEDpOT0_
FNA:1,0,_ZNSt3__116__variant_detail6__implIJNS_6vectorIdNS_9allocatorIdEEEEN7pyfolio5ErrorEEECI2NS0_6__baseILNS0_6_TraitE1EJS5_S7_EEEILm1EJS7_EEENS_16in_place_index_tIXT_EEEDpOT0_
FNA:1,20,_ZNSt3__116__variant_detail6__implIJdN7pyfolio5ErrorEEECI1NS0_6__baseILNS0_6_TraitE1EJdS3_EEEILm0EJRKdEEENS_16in_place_index_tIXT_EEEDpOT0_
FNA:1,100074,_ZNSt3__116__variant_detail6__implIJdN7pyfolio5ErrorEEECI1NS0_6__baseILNS0_6_TraitE1EJdS3_EEEILm0EJdEEENS_16in_place_index_tIXT_EEEDpOT0_
FNA:1,0,_ZNSt3__116__variant_detail6__implIJdN7pyfolio5ErrorEEECI1NS0_6__baseILNS0_6_TraitE1EJdS3_EEEILm1EJRKS3_EEENS_16in_place_index_tIXT_EEEDpOT0_
FNA:1,10,_ZNSt3__116__variant_detail6__implIJdN7pyfolio5ErrorEEECI1NS0_6__baseILNS0_6_TraitE1EJdS3_EEEILm1EJS3_EEENS_16in_place_index_tIXT_EEEDpOT0_
FNA:1,20,_ZNSt3__116__variant_detail6__implIJdN7pyfolio5ErrorEEECI2NS0_6__baseILNS0_6_TraitE1EJdS3_EEEILm0EJRKdEEENS_16in_place_index_tIXT_EEEDpOT0_
FNA:1,100074,_ZNSt3__116__variant_detail6__implIJdN7pyfolio5ErrorEEECI2NS0_6__baseILNS0_6_TraitE1EJdS3_EEEILm0EJdEEENS_16in_place_index_tIXT_EEEDpOT0_
FNA:1,0,_ZNSt3__116__variant_detail6__implIJdN7pyfolio5ErrorEEECI2NS0_6__baseILNS0_6_TraitE1EJdS3_EEEILm1EJRKS3_EEENS_16in_place_index_tIXT_EEEDpOT0_
FNA:1,10,_ZNSt3__116__variant_detail6__implIJdN7pyfolio5ErrorEEECI2NS0_6__baseILNS0_6_TraitE1EJdS3_EEEILm1EJS3_EEENS_16in_place_index_tIXT_EEEDpOT0_
FNA:1,12,_ZNSt3__116__variant_detail6__implIJiN7pyfolio5ErrorEEECI1NS0_6__baseILNS0_6_TraitE1EJiS3_EEEILm0EJiEEENS_16in_place_index_tIXT_EEEDpOT0_
FNA:1,1,_ZNSt3__116__variant_detail6__implIJiN7pyfolio5ErrorEEECI1NS0_6__baseILNS0_6_TraitE1EJiS3_EEEILm1EJS3_EEENS_16in_place_index_tIXT_EEEDpOT0_
FNA:1,12,_ZNSt3__116__variant_detail6__implIJiN7pyfolio5ErrorEEECI2NS0_6__baseILNS0_6_TraitE1EJiS3_EEEILm0EJiEEENS_16in_place_index_tIXT_EEEDpOT0_
FNA:1,1,_ZNSt3__116__variant_detail6__implIJiN7pyfolio5ErrorEEECI2NS0_6__baseILNS0_6_TraitE1EJiS3_EEEILm1EJS3_EEENS_16in_place_index_tIXT_EEEDpOT0_
FNL:2,1012
FNA:2,0,_ZNSt3__116__variant_detail6__implIJN7pyfolio10TimeSeriesIdEENS2_5ErrorEEEC1B8ne180100EOS6_
FNA:2,0,_ZNSt3__116__variant_detail6__implIJN7pyfolio10TimeSeriesIdEENS2_5ErrorEEEC2B8ne180100EOS6_
FNA:2,1,_ZNSt3__116__variant_detail6__implIJdN7pyfolio5ErrorEEEC1B8ne180100EOS4_
FNA:2,1,_ZNSt3__116__variant_detail6__implIJdN7pyfolio5ErrorEEEC2B8ne180100EOS4_
FNL:3,1178
FNA:3,0,_ZNSt3__17variantIJN7pyfolio10TimeSeriesIdEENS1_5ErrorEEEC1B8ne180100EOS5_
FNA:3,0,_ZNSt3__17variantIJN7pyfolio10TimeSeriesIdEENS1_5ErrorEEEC2B8ne180100EOS5_
FNA:3,1,_ZNSt3__17variantIJdN7pyfolio5ErrorEEEC1B8ne180100EOS3_
FNA:3,1,_ZNSt3__17variantIJdN7pyfolio5ErrorEEEC2B8ne180100EOS3_
FNL:4,1187
FNA:4,2,_ZNSt3__17variantIJN7pyfolio10Statistics15AlphaBetaResultENS1_5ErrorEEEC1B8ne180100IRKS3_Li0ELi0ELi0ES3_Lm0ELi0EEEOT_
FNA:4,0,_ZNSt3__17variantIJN7pyfolio10Statistics15AlphaBetaResultENS1_5ErrorEEEC1B8ne180100IS4_Li0ELi0ELi0ES4_Lm1ELi0EEEOT_
FNA:4,2,_ZNSt3__17variantIJN7pyfolio10Statistics15AlphaBetaResultENS1_5ErrorEEEC2B8ne180100IRKS3_Li0ELi0ELi0ES3_Lm0ELi0EEEOT_
FNA:4,0,_ZNSt3__17variantIJN7pyfolio10Statistics15AlphaBetaResultENS1_5ErrorEEEC2B8ne180100IS4_Li0ELi0ELi0ES4_Lm1ELi0EEEOT_
FNA:4,2,_ZNSt3__17variantIJN7pyfolio10Statistics18SimpleDrawdownInfoENS1_5ErrorEEEC1B8ne180100IRKS3_Li0ELi0ELi0ES3_Lm0ELi0EEEOT_
FNA:4,0,_ZNSt3__17variantIJN7pyfolio10Statistics18SimpleDrawdownInfoENS1_5ErrorEEEC1B8ne180100IS4_Li0ELi0ELi0ES4_Lm1ELi0EEEOT_
FNA:4,2,_ZNSt3__17variantIJN7pyfolio10Statistics18SimpleDrawdownInfoENS1_5ErrorEEEC2B8ne180100IRKS3_Li0ELi0ELi0ES3_Lm0ELi0EEEOT_
FNA:4,0,_ZNSt3__17variantIJN7pyfolio10Statistics18SimpleDrawdownInfoENS1_5ErrorEEEC2B8ne180100IS4_Li0ELi0ELi0ES4_Lm1ELi0EEEOT_
FNA:4,1,_ZNSt3__17variantIJN7pyfolio10TimeSeriesIdEENS1_5ErrorEEEC1B8ne180100IRKS3_Li0ELi0ELi0ES3_Lm0ELi0EEEOT_
FNA:4,12,_ZNSt3__17variantIJN7pyfolio10TimeSeriesIdEENS1_5ErrorEEEC1B8ne180100IS3_Li0ELi0ELi0ES3_Lm0ELi0EEEOT_
FNA:4,1,_ZNSt3__17variantIJN7pyfolio10TimeSeriesIdEENS1_5ErrorEEEC1B8ne180100IS4_Li0ELi0ELi0ES4_Lm1ELi0EEEOT_
FNA:4,1,_ZNSt3__17variantIJN7pyfolio10TimeSeriesIdEENS1_5ErrorEEEC2B8ne180100IRKS3_Li0ELi0ELi0ES3_Lm0ELi0EEEOT_
FNA:4,12,_ZNSt3__17variantIJN7pyfolio10TimeSeriesIdEENS1_5ErrorEEEC2B8ne180100IS3_Li0ELi0ELi0ES3_Lm0ELi0EEEOT_
FNA:4,1,_ZNSt3__17variantIJN7pyfolio10TimeSeriesIdEENS1_5ErrorEEEC2B8ne180100IS4_Li0ELi0ELi0ES4_Lm1ELi0EEEOT_
FNA:4,0,_ZNSt3__17variantIJN7pyfolio11performance12DrawdownInfoENS1_5ErrorEEEC1B8ne180100IRKS3_Li0ELi0ELi0ES3_Lm0ELi0EEEOT_
FNA:4,0,_ZNSt3__17variantIJN7pyfolio11performance12DrawdownInfoENS1_5ErrorEEEC1B8ne180100IS4_Li0ELi0ELi0ES4_Lm1ELi0EEEOT_
FNA:4,0,_ZNSt3__17variantIJN7pyfolio11performance12DrawdownInfoENS1_5ErrorEEEC2B8ne180100IRKS3_Li0ELi0ELi0ES3_Lm0ELi0EEEOT_
FNA:4,0,_ZNSt3__17variantIJN7pyfolio11performance12DrawdownInfoENS1_5ErrorEEEC2B8ne180100IS4_Li0ELi0ELi0ES4_Lm1ELi0EEEOT_
FNA:4,1,_ZNSt3__17variantIJN7pyfolio18PerformanceMetrics18CaptureRatioResultENS1_5ErrorEEEC1B8ne180100IRKS3_Li0ELi0ELi0ES3_Lm0ELi0EEEOT_
FNA:4,1,_ZNSt3__17variantIJN7pyfolio18PerformanceMetrics18CaptureRatioResultENS1_5ErrorEEEC2B8ne180100IRKS3_Li0ELi0ELi0ES3_Lm0ELi0EEEOT_
FNA:4,389,_ZNSt3__17variantIJN7pyfolio8DateTimeENS1_5ErrorEEEC1B8ne180100IS2_Li0ELi0ELi0ES2_Lm0ELi0EEEOT_
FNA:4,2,_ZNSt3__17variantIJN7pyfolio8DateTimeENS1_5ErrorEEEC1B8ne180100IS3_Li0ELi0ELi0ES3_Lm1ELi0EEEOT_
FNA:4,389,_ZNSt3__17variantIJN7pyfolio8DateTimeENS1_5ErrorEEEC2B8ne180100IS2_Li0ELi0ELi0ES2_Lm0ELi0EEEOT_
FNA:4,2,_ZNSt3__17variantIJN7pyfolio8DateTimeENS1_5ErrorEEEC2B8ne180100IS3_Li0ELi0ELi0ES3_Lm1ELi0EEEOT_
FNA:4,1,_ZNSt3__17variantIJN7pyfolio9analytics10statistics18StatisticalSummaryENS1_5ErrorEEEC1B8ne180100IS4_Li0ELi0ELi0ES4_Lm0ELi0EEEOT_
FNA:4,2,_ZNSt3__17variantIJN7pyfolio9analytics10statistics18StatisticalSummaryENS1_5ErrorEEEC1B8ne180100IS5_Li0ELi0ELi0ES5_Lm1ELi0EEEOT_
FNA:4,1,_ZNSt3__17variantIJN7pyfolio9analytics10statistics18StatisticalSummaryENS1_5ErrorEEEC2B8ne180100IS4_Li0ELi0ELi0ES4_Lm0ELi0EEEOT_
FNA:4,2,_ZNSt3__17variantIJN7pyfolio9analytics10statistics18StatisticalSummaryENS1_5ErrorEEEC2B8ne180100IS5_Li0ELi0ELi0ES5_Lm1ELi0EEEOT_
FNA:4,1,_ZNSt3__17variantIJN7pyfolio9analytics18PerformanceMetricsENS1_5ErrorEEEC1B8ne180100IRKS3_Li0ELi0ELi0ES3_Lm0ELi0EEEOT_
FNA:4,1,_ZNSt3__17variantIJN7pyfolio9analytics18PerformanceMetricsENS1_5ErrorEEEC2B8ne180100IRKS3_Li0ELi0ELi0ES3_Lm0ELi0EEEOT_
FNA:4,1,_ZNSt3__17variantIJNS_4pairIN7pyfolio10TimeSeriesIdEES4_EENS2_5ErrorEEEC1B8ne180100IS5_Li0ELi0ELi0ES5_Lm0ELi0EEEOT_
FNA:4,1,_ZNSt3__17variantIJNS_4pairIN7pyfolio10TimeSeriesIdEES4_EENS2_5ErrorEEEC2B8ne180100IS5_Li0ELi0ELi0ES5_Lm0ELi0EEEOT_
FNA:4,0,_ZNSt3__17variantIJNS_6vectorIN7pyfolio11performance12DrawdownInfoENS_9allocatorIS4_EEEENS2_5ErrorEEEC1B8ne180100IS7_Li0ELi0ELi0ES7_Lm0ELi0EEEOT_
FNA:4,0,_ZNSt3__17variantIJNS_6vectorIN7pyfolio11performance12DrawdownInfoENS_9allocatorIS4_EEEENS2_5ErrorEEEC1B8ne180100IS8_Li0ELi0ELi0ES8_Lm1ELi0EEEOT_
FNA:4,0,_ZNSt3__17variantIJNS_6vectorIN7pyfolio11performance12DrawdownInfoENS_9allocatorIS4_EEEENS2_5ErrorEEEC2B8ne180100IS7_Li0ELi0ELi0ES7_Lm0ELi0EEEOT_
FNA:4,0,_ZNSt3__17variantIJNS_6vectorIN7pyfolio11performance12DrawdownInfoENS_9allocatorIS4_EEEENS2_5ErrorEEEC2B8ne180100IS8_Li0ELi0ELi0ES8_Lm1ELi0EEEOT_
FNA:4,0,_ZNSt3__17variantIJNS_6vectorIdNS_9allocatorIdEEEEN7pyfolio5ErrorEEEC1B8ne180100IS4_Li0ELi0ELi0ES4_Lm0ELi0EEEOT_
FNA:4,0,_ZNSt3__17variantIJNS_6vectorIdNS_9allocatorIdEEEEN7pyfolio5ErrorEEEC1B8ne180100IS6_Li0ELi0ELi0ES6_Lm1ELi0EEEOT_
FNA:4,0,_ZNSt3__17variantIJNS_6vectorIdNS_9allocatorIdEEEEN7pyfolio5ErrorEEEC2B8ne180100IS4_Li0ELi0ELi0ES4_Lm0ELi0EEEOT_
FNA:4,0,_ZNSt3__17variantIJNS_6vectorIdNS_9allocatorIdEEEEN7pyfolio5ErrorEEEC2B8ne180100IS6_Li0ELi0ELi0ES6_Lm1ELi0EEEOT_
FNA:4,0,_ZNSt3__17variantIJdN7pyfolio5ErrorEEEC1B8ne180100IRKS2_Li0ELi0ELi0ES2_Lm1ELi0EEEOT_
FNA:4,20,_ZNSt3__17variantIJdN7pyfolio5ErrorEEEC1B8ne180100IRKdLi0ELi0ELi0EdLm0ELi0EEEOT_
FNA:4,10,_ZNSt3__17variantIJdN7pyfolio5ErrorEEEC1B8ne180100IS2_Li0ELi0ELi0ES2_Lm1ELi0EEEOT_
FNA:4,100074,_ZNSt3__17variantIJdN7pyfolio5ErrorEEEC1B8ne180100IdLi0ELi0ELi0EdLm0ELi0EEEOT_
FNA:4,0,_ZNSt3__17variantIJdN7pyfolio5ErrorEEEC2B8ne180100IRKS2_Li0ELi0ELi0ES2_Lm1ELi0EEEOT_
FNA:4,20,_ZNSt3__17variantIJdN7pyfolio5ErrorEEEC2B8ne180100IRKdLi0ELi0ELi0EdLm0ELi0EEEOT_
FNA:4,10,_ZNSt3__17variantIJdN7pyfolio5ErrorEEEC2B8ne180100IS2_Li0ELi0ELi0ES2_Lm1ELi0EEEOT_
FNA:4,100074,_ZNSt3__17variantIJdN7pyfolio5ErrorEEEC2B8ne180100IdLi0ELi0ELi0EdLm0ELi0EEEOT_
FNA:4,1,_ZNSt3__17variantIJiN7pyfolio5ErrorEEEC1B8ne180100IS2_Li0ELi0ELi0ES2_Lm1ELi0EEEOT_
FNA:4,12,_ZNSt3__17variantIJiN7pyfolio5ErrorEEEC1B8ne180100IiLi0ELi0ELi0EiLm0ELi0EEEOT_
FNA:4,1,_ZNSt3__17variantIJiN7pyfolio5ErrorEEEC2B8ne180100IS2_Li0ELi0ELi0ES2_Lm1ELi0EEEOT_
FNA:4,12,_ZNSt3__17variantIJiN7pyfolio5ErrorEEEC2B8ne180100IiLi0ELi0ELi0EiLm0ELi0EEEOT_
FNL:5,1230
FNA:5,2,_ZNSt3__17variantIJN7pyfolio10Statistics15AlphaBetaResultENS1_5ErrorEEED1B8ne180100Ev
FNA:5,2,_ZNSt3__17variantIJN7pyfolio10Statistics15AlphaBetaResultENS1_5ErrorEEED2B8ne180100Ev
FNA:5,2,_ZNSt3__17variantIJN7pyfolio10Statistics18SimpleDrawdownInfoENS1_5ErrorEEED1B8ne180100Ev
FNA:5,2,_ZNSt3__17variantIJN7pyfolio10Statistics18SimpleDrawdownInfoENS1_5ErrorEEED2B8ne180100Ev
FNA:5,14,_ZNSt3__17variantIJN7pyfolio10TimeSeriesIdEENS1_5ErrorEEED1B8ne180100Ev
FNA:5,14,_ZNSt3__17variantIJN7pyfolio10TimeSeriesIdEENS1_5ErrorEEED2B8ne180100Ev
FNA:5,1,_ZNSt3__17variantIJN7pyfolio18PerformanceMetrics18CaptureRatioResultENS1_5ErrorEEED1B8ne180100Ev
FNA:5,1,_ZNSt3__17variantIJN7pyfolio18PerformanceMetrics18CaptureRatioResultENS1_5ErrorEEED2B8ne180100Ev
FNA:5,391,_ZNSt3__17variantIJN7pyfolio8DateTimeENS1_5ErrorEEED1B8ne180100Ev
FNA:5,391,_ZNSt3__17variantIJN7pyfolio8DateTimeENS1_5ErrorEEED2B8ne180100Ev
FNA:5,3,_ZNSt3__17variantIJN7pyfolio9analytics10statistics18StatisticalSummaryENS1_5ErrorEEED1B8ne180100Ev
FNA:5,3,_ZNSt3__17variantIJN7pyfolio9analytics10statistics18StatisticalSummaryENS1_5ErrorEEED2B8ne180100Ev
FNA:5,1,_ZNSt3__17variantIJN7pyfolio9analytics18PerformanceMetricsENS1_5ErrorEEED1B8ne180100Ev
FNA:5,1,_ZNSt3__17variantIJN7pyfolio9analytics18PerformanceMetricsENS1_5ErrorEEED2B8ne180100Ev
FNA:5,1,_ZNSt3__17variantIJNS_4pairIN7pyfolio10TimeSeriesIdEES4_EENS2_5ErrorEEED1B8ne180100Ev
FNA:5,1,_ZNSt3__17variantIJNS_4pairIN7pyfolio10TimeSeriesIdEES4_EENS2_5ErrorEEED2B8ne180100Ev
FNA:5,0,_ZNSt3__17variantIJNS_6vectorIN7pyfolio11performance12DrawdownInfoENS_9allocatorIS4_EEEENS2_5ErrorEEED1B8ne180100Ev
FNA:5,0,_ZNSt3__17variantIJNS_6vectorIN7pyfolio11performance12DrawdownInfoENS_9allocatorIS4_EEEENS2_5ErrorEEED2B8ne180100Ev
FNA:5,0,_ZNSt3__17variantIJNS_6vectorIdNS_9allocatorIdEEEEN7pyfolio5ErrorEEED1B8ne180100Ev
FNA:5,0,_ZNSt3__17variantIJNS_6vectorIdNS_9allocatorIdEEEEN7pyfolio5ErrorEEED2B8ne180100Ev
FNA:5,100105,_ZNSt3__17variantIJdN7pyfolio5ErrorEEED1B8ne180100Ev
FNA:5,100105,_ZNSt3__17variantIJdN7pyfolio5ErrorEEED2B8ne180100Ev
FNA:5,13,_ZNSt3__17variantIJiN7pyfolio5ErrorEEED1B8ne180100Ev
FNA:5,13,_ZNSt3__17variantIJiN7pyfolio5ErrorEEED2B8ne180100Ev
FNL:6,1286
FNA:6,6,_ZNKSt3__17variantIJN7pyfolio10Statistics15AlphaBetaResultENS1_5ErrorEEE5indexB8ne180100Ev
FNA:6,6,_ZNKSt3__17variantIJN7pyfolio10Statistics18SimpleDrawdownInfoENS1_5ErrorEEE5indexB8ne180100Ev
FNA:6,44,_ZNKSt3__17variantIJN7pyfolio10TimeSeriesIdEENS1_5ErrorEEE5indexB8ne180100Ev
FNA:6,3,_ZNKSt3__17variantIJN7pyfolio18PerformanceMetrics18CaptureRatioResultENS1_5ErrorEEE5indexB8ne180100Ev
FNA:6,782,_ZNKSt3__17variantIJN7pyfolio8DateTimeENS1_5ErrorEEE5indexB8ne180100Ev
FNA:6,5,_ZNKSt3__17variantIJN7pyfolio9analytics10statistics18StatisticalSummaryENS1_5ErrorEEE5indexB8ne180100Ev
FNA:6,3,_ZNKSt3__17variantIJN7pyfolio9analytics18PerformanceMetricsENS1_5ErrorEEE5indexB8ne180100Ev
FNA:6,3,_ZNKSt3__17variantIJNS_4pairIN7pyfolio10TimeSeriesIdEES4_EENS2_5ErrorEEE5indexB8ne180100Ev
FNA:6,0,_ZNKSt3__17variantIJNS_6vectorIN7pyfolio11performance12DrawdownInfoENS_9allocatorIS4_EEEENS2_5ErrorEEE5indexB8ne180100Ev
FNA:6,0,_ZNKSt3__17variantIJNS_6vectorIdNS_9allocatorIdEEEEN7pyfolio5ErrorEEE5indexB8ne180100Ev
FNA:6,300290,_ZNKSt3__17variantIJdN7pyfolio5ErrorEEE5indexB8ne180100Ev
FNA:6,23,_ZNKSt3__17variantIJiN7pyfolio5ErrorEEE5indexB8ne180100Ev
FNL:7,1326
FNA:7,4,_ZNSt3__119__holds_alternativeB8ne180100ILm0EJN7pyfolio10Statistics15AlphaBetaResultENS1_5ErrorEEEEbRKNS_7variantIJDpT0_EEE
FNA:7,4,_ZNSt3__119__holds_alternativeB8ne180100ILm0EJN7pyfolio10Statistics18SimpleDrawdownInfoENS1_5ErrorEEEEbRKNS_7variantIJDpT0_EEE
FNA:7,24,_ZNSt3__119__holds_alternativeB8ne180100ILm0EJN7pyfolio10TimeSeriesIdEENS1_5ErrorEEEEbRKNS_7variantIJDpT0_EEE
FNA:7,2,_ZNSt3__119__holds_alternativeB8ne180100ILm0EJN7pyfolio18PerformanceMetrics18CaptureRatioResultENS1_5ErrorEEEEbRKNS_7variantIJDpT0_EEE
FNA:7,391,_ZNSt3__119__holds_alternativeB8ne180100ILm0EJN7pyfolio8DateTimeENS1_5ErrorEEEEbRKNS_7variantIJDpT0_EEE
FNA:7,3,_ZNSt3__119__holds_alternativeB8ne180100ILm0EJN7pyfolio9analytics10statistics18StatisticalSummaryENS1_5ErrorEEEEbRKNS_7variantIJDpT0_EEE
FNA:7,2,_ZNSt3__119__holds_alternativeB8ne180100ILm0EJN7pyfolio9analytics18PerformanceMetricsENS1_5ErrorEEEEbRKNS_7variantIJDpT0_EEE
FNA:7,2,_ZNSt3__119__holds_alternativeB8ne180100ILm0EJNS_4pairIN7pyfolio10TimeSeriesIdEES4_EENS2_5ErrorEEEEbRKNS_7variantIJDpT0_EEE
FNA:7,0,_ZNSt3__119__holds_alternativeB8ne180100ILm0EJNS_6vectorIN7pyfolio11performance12DrawdownInfoENS_9allocatorIS4_EEEENS2_5ErrorEEEEbRKNS_7variantIJDpT0_EEE
FNA:7,0,_ZNSt3__119__holds_alternativeB8ne180100ILm0EJNS_6vectorIdNS_9allocatorIdEEEEN7pyfolio5ErrorEEEEbRKNS_7variantIJDpT0_EEE
FNA:7,200135,_ZNSt3__119__holds_alternativeB8ne180100ILm0EJdN7pyfolio5ErrorEEEEbRKNS_7variantIJDpT0_EEE
FNA:7,17,_ZNSt3__119__holds_alternativeB8ne180100ILm0EJiN7pyfolio5ErrorEEEEbRKNS_7variantIJDpT0_EEE
FNA:7,2,_ZNSt3__119__holds_alternativeB8ne180100ILm1EJN7pyfolio10Statistics15AlphaBetaResultENS1_5ErrorEEEEbRKNS_7variantIJDpT0_EEE
FNA:7,2,_ZNSt3__119__holds_alternativeB8ne180100ILm1EJN7pyfolio10Statistics18SimpleDrawdownInfoENS1_5ErrorEEEEbRKNS_7variantIJDpT0_EEE
FNA:7,20,_ZNSt3__119__holds_alternativeB8ne180100ILm1EJN7pyfolio10TimeSeriesIdEENS1_5ErrorEEEEbRKNS_7variantIJDpT0_EEE
FNA:7,1,_ZNSt3__119__holds_alternativeB8ne180100ILm1EJN7pyfolio18PerformanceMetrics18CaptureRatioResultENS1_5ErrorEEEEbRKNS_7variantIJDpT0_EEE
FNA:7,391,_ZNSt3__119__holds_alternativeB8ne180100ILm1EJN7pyfolio8DateTimeENS1_5ErrorEEEEbRKNS_7variantIJDpT0_EEE
FNA:7,2,_ZNSt3__119__holds_alternativeB8ne180100ILm1EJN7pyfolio9analytics10statistics18StatisticalSummaryENS1_5ErrorEEEEbRKNS_7variantIJDpT0_EEE
FNA:7,1,_ZNSt3__119__holds_alternativeB8ne180100ILm1EJN7pyfolio9analytics18PerformanceMetricsENS1_5ErrorEEEEbRKNS_7variantIJDpT0_EEE
FNA:7,1,_ZNSt3__119__holds_alternativeB8ne180100ILm1EJNS_4pairIN7pyfolio10TimeSeriesIdEES4_EENS2_5ErrorEEEEbRKNS_7variantIJDpT0_EEE
FNA:7,0,_ZNSt3__119__holds_alternativeB8ne180100ILm1EJNS_6vectorIN7pyfolio11performance12DrawdownInfoENS_9allocatorIS4_EEEENS2_5ErrorEEEEbRKNS_7variantIJDpT0_EEE
FNA:7,0,_ZNSt3__119__holds_alternativeB8ne180100ILm1EJNS_6vectorIdNS_9allocatorIdEEEEN7pyfolio5ErrorEEEEbRKNS_7variantIJDpT0_EEE
FNA:7,100155,_ZNSt3__119__holds_alternativeB8ne180100ILm1EJdN7pyfolio5ErrorEEEEbRKNS_7variantIJDpT0_EEE
FNA:7,6,_ZNSt3__119__holds_alternativeB8ne180100ILm1EJiN7pyfolio5ErrorEEEEbRKNS_7variantIJDpT0_EEE
FNL:8,1331
FNA:8,2,_ZNSt3__117holds_alternativeB8ne180100IN7pyfolio10Statistics15AlphaBetaResultEJS3_NS1_5ErrorEEEEbRKNS_7variantIJDpT0_EEE
FNA:8,2,_ZNSt3__117holds_alternativeB8ne180100IN7pyfolio10Statistics18SimpleDrawdownInfoEJS3_NS1_5ErrorEEEEbRKNS_7variantIJDpT0_EEE
FNA:8,9,_ZNSt3__117holds_alternativeB8ne180100IN7pyfolio10TimeSeriesIdEEJS3_NS1_5ErrorEEEEbRKNS_7variantIJDpT0_EEE
FNA:8,1,_ZNSt3__117holds_alternativeB8ne180100IN7pyfolio18PerformanceMetrics18CaptureRatioResultEJS3_NS1_5ErrorEEEEbRKNS_7variantIJDpT0_EEE
FNA:8,2,_ZNSt3__117holds_alternativeB8ne180100IN7pyfolio5ErrorEJNS1_10Statistics15AlphaBetaResultES2_EEEbRKNS_7variantIJDpT0_EEE
FNA:8,2,_ZNSt3__117holds_alternativeB8ne180100IN7pyfolio5ErrorEJNS1_10Statistics18SimpleDrawdownInfoES2_EEEbRKNS_7variantIJDpT0_EEE
FNA:8,20,_ZNSt3__117holds_alternativeB8ne180100IN7pyfolio5ErrorEJNS1_10TimeSeriesIdEES2_EEEbRKNS_7variantIJDpT0_EEE
FNA:8,1,_ZNSt3__117holds_alternativeB8ne180100IN7pyfolio5ErrorEJNS1_18PerformanceMetrics18CaptureRatioResultES2_EEEbRKNS_7variantIJDpT0_EEE
FNA:8,391,_ZNSt3__117holds_alternativeB8ne180100IN7pyfolio5ErrorEJNS1_8DateTimeES2_EEEbRKNS_7variantIJDpT0_EEE
FNA:8,2,_ZNSt3__117holds_alternativeB8ne180100IN7pyfolio5ErrorEJNS1_9analytics10statistics18StatisticalSummaryES2_EEEbRKNS_7variantIJDpT0_EEE
FNA:8,1,_ZNSt3__117holds_alternativeB8ne180100IN7pyfolio5ErrorEJNS1_9analytics18PerformanceMetricsES2_EEEbRKNS_7variantIJDpT0_EEE
FNA:8,1,_ZNSt3__117holds_alternativeB8ne180100IN7pyfolio5ErrorEJNS_4pairINS1_10TimeSeriesIdEES5_EES2_EEEbRKNS_7variantIJDpT0_EEE
FNA:8,0,_ZNSt3__117holds_alternativeB8ne180100IN7pyfolio5ErrorEJNS_6vectorINS1_11performance12DrawdownInfoENS_9allocatorIS5_EEEES2_EEEbRKNS_7variantIJDpT0_EEE
FNA:8,0,_ZNSt3__117holds_alternativeB8ne180100IN7pyfolio5ErrorEJNS_6vectorIdNS_9allocatorIdEEEES2_EEEbRKNS_7variantIJDpT0_EEE
FNA:8,100154,_ZNSt3__117holds_alternativeB8ne180100IN7pyfolio5ErrorEJdS2_EEEbRKNS_7variantIJDpT0_EEE
FNA:8,4,_ZNSt3__117holds_alternativeB8ne180100IN7pyfolio5ErrorEJiS2_EEEbRKNS_7variantIJDpT0_EEE
FNA:8,2,_ZNSt3__117holds_alternativeB8ne180100IN7pyfolio8DateTimeEJS2_NS1_5ErrorEEEEbRKNS_7variantIJDpT0_EEE
FNA:8,2,_ZNSt3__117holds_alternativeB8ne180100IN7pyfolio9analytics10statistics18StatisticalSummaryEJS4_NS1_5ErrorEEEEbRKNS_7variantIJDpT0_EEE
FNA:8,1,_ZNSt3__117holds_alternativeB8ne180100IN7pyfolio9analytics18PerformanceMetricsEJS3_NS1_5ErrorEEEEbRKNS_7variantIJDpT0_EEE
FNA:8,1,_ZNSt3__117holds_alternativeB8ne180100INS_4pairIN7pyfolio10TimeSeriesIdEES4_EEJS5_NS2_5ErrorEEEEbRKNS_7variantIJDpT0_EEE
FNA:8,0,_ZNSt3__117holds_alternativeB8ne180100INS_6vectorIN7pyfolio11performance12DrawdownInfoENS_9allocatorIS4_EEEEJS7_NS2_5ErrorEEEEbRKNS_7variantIJDpT0_EEE
FNA:8,0,_ZNSt3__117holds_alternativeB8ne180100INS_6vectorIdNS_9allocatorIdEEEEJS4_N7pyfolio5ErrorEEEEbRKNS_7variantIJDpT0_EEE
FNA:8,100042,_ZNSt3__117holds_alternativeB8ne180100IdJdN7pyfolio5ErrorEEEEbRKNS_7variantIJDpT0_EEE
FNA:8,15,_ZNSt3__117holds_alternativeB8ne180100IiJiN7pyfolio5ErrorEEEEbRKNS_7variantIJDpT0_EEE
FNL:9,1336
FNA:9,0,_ZNSt3__113__generic_getB8ne180100ILm0ERKNS_7variantIJN7pyfolio10TimeSeriesIdEENS2_5ErrorEEEEEEODaOT0_
FNA:9,1,_ZNSt3__113__generic_getB8ne180100ILm0ERKNS_7variantIJdN7pyfolio5ErrorEEEEEEODaOT0_
FNA:9,2,_ZNSt3__113__generic_getB8ne180100ILm0ERNS_7variantIJN7pyfolio10Statistics15AlphaBetaResultENS2_5ErrorEEEEEEODaOT0_
FNA:9,2,_ZNSt3__113__generic_getB8ne180100ILm0ERNS_7variantIJN7pyfolio10Statistics18SimpleDrawdownInfoENS2_5ErrorEEEEEEODaOT0_
FNA:9,15,_ZNSt3__113__generic_getB8ne180100ILm0ERNS_7variantIJN7pyfolio10TimeSeriesIdEENS2_5ErrorEEEEEEODaOT0_
FNA:9,1,_ZNSt3__113__generic_getB8ne180100ILm0ERNS_7variantIJN7pyfolio18PerformanceMetrics18CaptureRatioResultENS2_5ErrorEEEEEEODaOT0_
FNA:9,389,_ZNSt3__113__generic_getB8ne180100ILm0ERNS_7variantIJN7pyfolio8DateTimeENS2_5ErrorEEEEEEODaOT0_
FNA:9,1,_ZNSt3__113__generic_getB8ne180100ILm0ERNS_7variantIJN7pyfolio9analytics10statistics18StatisticalSummaryENS2_5ErrorEEEEEEODaOT0_
FNA:9,1,_ZNSt3__113__generic_getB8ne180100ILm0ERNS_7variantIJN7pyfolio9analytics18PerformanceMetricsENS2_5ErrorEEEEEEODaOT0_
FNA:9,1,_ZNSt3__113__generic_getB8ne180100ILm0ERNS_7variantIJNS_4pairIN7pyfolio10TimeSeriesIdEES5_EENS3_5ErrorEEEEEEODaOT0_
FNA:9,0,_ZNSt3__113__generic_getB8ne180100ILm0ERNS_7variantIJNS_6vectorIN7pyfolio11performance12DrawdownInfoENS_9allocatorIS5_EEEENS3_5ErrorEEEEEEODaOT0_
FNA:9,0,_ZNSt3__113__generic_getB8ne180100ILm0ERNS_7variantIJNS_6vectorIdNS_9allocatorIdEEEEN7pyfolio5ErrorEEEEEEODaOT0_
FNA:9,100092,_ZNSt3__113__generic_getB8ne180100ILm0ERNS_7variantIJdN7pyfolio5ErrorEEEEEEODaOT0_
FNA:9,2,_ZNSt3__113__generic_getB8ne180100ILm0ERNS_7variantIJiN7pyfolio5ErrorEEEEEEODaOT0_
FNA:9,0,_ZNSt3__113__generic_getB8ne180100ILm1ERKNS_7variantIJN7pyfolio10TimeSeriesIdEENS2_5ErrorEEEEEEODaOT0_
FNA:9,0,_ZNSt3__113__generic_getB8ne180100ILm1ERKNS_7variantIJNS_6vectorIN7pyfolio11performance12DrawdownInfoENS_9allocatorIS5_EEEENS3_5ErrorEEEEEEODaOT0_
FNA:9,0,_ZNSt3__113__generic_getB8ne180100ILm1ERKNS_7variantIJNS_6vectorIdNS_9allocatorIdEEEEN7pyfolio5ErrorEEEEEEODaOT0_
FNA:9,1,_ZNSt3__113__generic_getB8ne180100ILm1ERKNS_7variantIJdN7pyfolio5ErrorEEEEEEODaOT0_
FNA:9,2,_ZNSt3__113__generic_getB8ne180100ILm1ERKNS_7variantIJiN7pyfolio5ErrorEEEEEEODaOT0_
FNA:9,0,_ZNSt3__113__generic_getB8ne180100ILm1ERNS_7variantIJN7pyfolio10Statistics15AlphaBetaResultENS2_5ErrorEEEEEEODaOT0_
FNA:9,0,_ZNSt3__113__generic_getB8ne180100ILm1ERNS_7variantIJN7pyfolio10Statistics18SimpleDrawdownInfoENS2_5ErrorEEEEEEODaOT0_
FNA:9,0,_ZNSt3__113__generic_getB8ne180100ILm1ERNS_7variantIJN7pyfolio10TimeSeriesIdEENS2_5ErrorEEEEEEODaOT0_
FNA:9,0,_ZNSt3__113__generic_getB8ne180100ILm1ERNS_7variantIJN7pyfolio18PerformanceMetrics18CaptureRatioResultENS2_5ErrorEEEEEEODaOT0_
FNA:9,0,_ZNSt3__113__generic_getB8ne180100ILm1ERNS_7variantIJN7pyfolio8DateTimeENS2_5ErrorEEEEEEODaOT0_
FNA:9,0,_ZNSt3__113__generic_getB8ne180100ILm1ERNS_7variantIJN7pyfolio9analytics10statistics18StatisticalSummaryENS2_5ErrorEEEEEEODaOT0_
FNA:9,0,_ZNSt3__113__generic_getB8ne180100ILm1ERNS_7variantIJN7pyfolio9analytics18PerformanceMetricsENS2_5ErrorEEEEEEODaOT0_
FNA:9,0,_ZNSt3__113__generic_getB8ne180100ILm1ERNS_7variantIJNS_4pairIN7pyfolio10TimeSeriesIdEES5_EENS3_5ErrorEEEEEEODaOT0_
FNA:9,0,_ZNSt3__113__generic_getB8ne180100ILm1ERNS_7variantIJNS_6vectorIN7pyfolio11performance12DrawdownInfoENS_9allocatorIS5_EEEENS3_5ErrorEEEEEEODaOT0_
FNA:9,0,_ZNSt3__113__generic_getB8ne180100ILm1ERNS_7variantIJNS_6vectorIdNS_9allocatorIdEEEEN7pyfolio5ErrorEEEEEEODaOT0_
FNA:9,0,_ZNSt3__113__generic_getB8ne180100ILm1ERNS_7variantIJdN7pyfolio5ErrorEEEEEEODaOT0_
FNA:9,0,_ZNSt3__113__generic_getB8ne180100ILm1ERNS_7variantIJiN7pyfolio5ErrorEEEEEEODaOT0_
FNL:10,1347
FNA:10,2,_ZNSt3__13getB8ne180100ILm0EJN7pyfolio10Statistics15AlphaBetaResultENS1_5ErrorEEEERNS_19variant_alternativeIXT_ENS_7variantIJDpT0_EEEE4typeERS9_
FNA:10,2,_ZNSt3__13getB8ne180100ILm0EJN7pyfolio10Statistics18SimpleDrawdownInfoENS1_5ErrorEEEERNS_19variant_alternativeIXT_ENS_7variantIJDpT0_EEEE4typeERS9_
FNA:10,15,_ZNSt3__13getB8ne180100ILm0EJN7pyfolio10TimeSeriesIdEENS1_5ErrorEEEERNS_19variant_alternativeIXT_ENS_7variantIJDpT0_EEEE4typeERS9_
FNA:10,1,_ZNSt3__13getB8ne180100ILm0EJN7pyfolio18PerformanceMetrics18CaptureRatioResultENS1_5ErrorEEEERNS_19variant_alternativeIXT_ENS_7variantIJDpT0_EEEE4typeERS9_
FNA:10,389,_ZNSt3__13getB8ne180100ILm0EJN7pyfolio8DateTimeENS1_5ErrorEEEERNS_19variant_alternativeIXT_ENS_7variantIJDpT0_EEEE4typeERS8_
FNA:10,1,_ZNSt3__13getB8ne180100ILm0EJN7pyfolio9analytics10statistics18StatisticalSummaryENS1_5ErrorEEEERNS_19variant_alternativeIXT_ENS_7variantIJDpT0_EEEE4typeERSA_
FNA:10,1,_ZNSt3__13getB8ne180100ILm0EJN7pyfolio9analytics18PerformanceMetricsENS1_5ErrorEEEERNS_19variant_alternativeIXT_ENS_7variantIJDpT0_EEEE4typeERS9_
FNA:10,1,_ZNSt3__13getB8ne180100ILm0EJNS_4pairIN7pyfolio10TimeSeriesIdEES4_EENS2_5ErrorEEEERNS_19variant_alternativeIXT_ENS_7variantIJDpT0_EEEE4typeERSB_
FNA:10,0,_ZNSt3__13getB8ne180100ILm0EJNS_6vectorIN7pyfolio11performance12DrawdownInfoENS_9allocatorIS4_EEEENS2_5ErrorEEEERNS_19variant_alternativeIXT_ENS_7variantIJDpT0_EEEE4typeERSD_
FNA:10,0,_ZNSt3__13getB8ne180100ILm0EJNS_6vectorIdNS_9allocatorIdEEEEN7pyfolio5ErrorEEEERNS_19variant_alternativeIXT_ENS_7variantIJDpT0_EEEE4typeERSB_
FNA:10,100092,_ZNSt3__13getB8ne180100ILm0EJdN7pyfolio5ErrorEEEERNS_19variant_alternativeIXT_ENS_7variantIJDpT0_EEEE4typeERS7_
FNA:10,2,_ZNSt3__13getB8ne180100ILm0EJiN7pyfolio5ErrorEEEERNS_19variant_alternativeIXT_ENS_7variantIJDpT0_EEEE4typeERS7_
FNA:10,0,_ZNSt3__13getB8ne180100ILm1EJN7pyfolio10Statistics15AlphaBetaResultENS1_5ErrorEEEERNS_19variant_alternativeIXT_ENS_7variantIJDpT0_EEEE4typeERS9_
FNA:10,0,_ZNSt3__13getB8ne180100ILm1EJN7pyfolio10Statistics18SimpleDrawdownInfoENS1_5ErrorEEEERNS_19variant_alternativeIXT_ENS_7variantIJDpT0_EEEE4typeERS9_
FNA:10,0,_ZNSt3__13getB8ne180100ILm1EJN7pyfolio10TimeSeriesIdEENS1_5ErrorEEEERNS_19variant_alternativeIXT_ENS_7variantIJDpT0_EEEE4typeERS9_
FNA:10,0,_ZNSt3__13getB8ne180100ILm1EJN7pyfolio18PerformanceMetrics18CaptureRatioResultENS1_5ErrorEEEERNS_19variant_alternativeIXT_ENS_7variantIJDpT0_EEEE4typeERS9_
FNA:10,0,_ZNSt3__13getB8ne180100ILm1EJN7pyfolio8DateTimeENS1_5ErrorEEEERNS_19variant_alternativeIXT_ENS_7variantIJDpT0_EEEE4typeERS8_
FNA:10,0,_ZNSt3__13getB8ne180100ILm1EJN7pyfolio9analytics10statistics18StatisticalSummaryENS1_5ErrorEEEERNS_19variant_alternativeIXT_ENS_7variantIJDpT0_EEEE4typeERSA_
FNA:10,0,_ZNSt3__13getB8ne180100ILm1EJN7pyfolio9analytics18PerformanceMetricsENS1_5ErrorEEEERNS_19variant_alternativeIXT_ENS_7variantIJDpT0_EEEE4typeERS9_
FNA:10,0,_ZNSt3__13getB8ne180100ILm1EJNS_4pairIN7pyfolio10TimeSeriesIdEES4_EENS2_5ErrorEEEERNS_19variant_alternativeIXT_ENS_7variantIJDpT0_EEEE4typeERSB_
FNA:10,0,_ZNSt3__13getB8ne180100ILm1EJNS_6vectorIN7pyfolio11performance12DrawdownInfoENS_9allocatorIS4_EEEENS2_5ErrorEEEERNS_19variant_alternativeIXT_ENS_7variantIJDpT0_EEEE4typeERSD_
FNA:10,0,_ZNSt3__13getB8ne180100ILm1EJNS_6vectorIdNS_9allocatorIdEEEEN7pyfolio5ErrorEEEERNS_19variant_alternativeIXT_ENS_7variantIJDpT0_EEEE4typeERSB_
FNA:10,0,_ZNSt3__13getB8ne180100ILm1EJdN7pyfolio5ErrorEEEERNS_19variant_alternativeIXT_ENS_7variantIJDpT0_EEEE4typeERS7_
FNA:10,0,_ZNSt3__13getB8ne180100ILm1EJiN7pyfolio5ErrorEEEERNS_19variant_alternativeIXT_ENS_7variantIJDpT0_EEEE4typeERS7_
FNL:11,1365
FNA:11,0,_ZNSt3__13getB8ne180100ILm0EJN7pyfolio10TimeSeriesIdEENS1_5ErrorEEEERKNS_19variant_alternativeIXT_ENS_7variantIJDpT0_EEEE4typeERKS9_
FNA:11,1,_ZNSt3__13getB8ne180100ILm0EJdN7pyfolio5ErrorEEEERKNS_19variant_alternativeIXT_ENS_7variantIJDpT0_EEEE4typeERKS7_
FNA:11,0,_ZNSt3__13getB8ne180100ILm1EJN7pyfolio10TimeSeriesIdEENS1_5ErrorEEEERKNS_19variant_alternativeIXT_ENS_7variantIJDpT0_EEEE4typeERKS9_
FNA:11,0,_ZNSt3__13getB8ne180100ILm1EJNS_6vectorIN7pyfolio11performance12DrawdownInfoENS_9allocatorIS4_EEEENS2_5ErrorEEEERKNS_19variant_alternativeIXT_ENS_7variantIJDpT0_EEEE4typeERKSD_
FNA:11,0,_ZNSt3__13getB8ne180100ILm1EJNS_6vectorIdNS_9allocatorIdEEEEN7pyfolio5ErrorEEEERKNS_19variant_alternativeIXT_ENS_7variantIJDpT0_EEEE4typeERKSB_
FNA:11,1,_ZNSt3__13getB8ne180100ILm1EJdN7pyfolio5ErrorEEEERKNS_19variant_alternativeIXT_ENS_7variantIJDpT0_EEEE4typeERKS7_
FNA:11,2,_ZNSt3__13getB8ne180100ILm1EJiN7pyfolio5ErrorEEEERKNS_19variant_alternativeIXT_ENS_7variantIJDpT0_EEEE4typeERKS7_
FNL:12,1381
FNA:12,2,_ZNSt3__13getB8ne180100IN7pyfolio10Statistics15AlphaBetaResultEJS3_NS1_5ErrorEEEERT_RNS_7variantIJDpT0_EEE
FNA:12,2,_ZNSt3__13getB8ne180100IN7pyfolio10Statistics18SimpleDrawdownInfoEJS3_NS1_5ErrorEEEERT_RNS_7variantIJDpT0_EEE
FNA:12,15,_ZNSt3__13getB8ne180100IN7pyfolio10TimeSeriesIdEEJS3_NS1_5ErrorEEEERT_RNS_7variantIJDpT0_EEE
FNA:12,1,_ZNSt3__13getB8ne180100IN7pyfolio18PerformanceMetrics18CaptureRatioResultEJS3_NS1_5ErrorEEEERT_RNS_7variantIJDpT0_EEE
FNA:12,0,_ZNSt3__13getB8ne180100IN7pyfolio5ErrorEJNS1_10Statistics15AlphaBetaResultES2_EEERT_RNS_7variantIJDpT0_EEE
FNA:12,0,_ZNSt3__13getB8ne180100IN7pyfolio5ErrorEJNS1_10Statistics18SimpleDrawdownInfoES2_EEERT_RNS_7variantIJDpT0_EEE
FNA:12,0,_ZNSt3__13getB8ne180100IN7pyfolio5ErrorEJNS1_10TimeSeriesIdEES2_EEERT_RNS_7variantIJDpT0_EEE
FNA:12,0,_ZNSt3__13getB8ne180100IN7pyfolio5ErrorEJNS1_18PerformanceMetrics18CaptureRatioResultES2_EEERT_RNS_7variantIJDpT0_EEE
FNA:12,0,_ZNSt3__13getB8ne180100IN7pyfolio5ErrorEJNS1_8DateTimeES2_EEERT_RNS_7variantIJDpT0_EEE
FNA:12,0,_ZNSt3__13getB8ne180100IN7pyfolio5ErrorEJNS1_9analytics10statistics18StatisticalSummaryES2_EEERT_RNS_7variantIJDpT0_EEE
FNA:12,0,_ZNSt3__13getB8ne180100IN7pyfolio5ErrorEJNS1_9analytics18PerformanceMetricsES2_EEERT_RNS_7variantIJDpT0_EEE
FNA:12,0,_ZNSt3__13getB8ne180100IN7pyfolio5ErrorEJNS_4pairINS1_10TimeSeriesIdEES5_EES2_EEERT_RNS_7variantIJDpT0_EEE
FNA:12,0,_ZNSt3__13getB8ne180100IN7pyfolio5ErrorEJNS_6vectorINS1_11performance12DrawdownInfoENS_9allocatorIS5_EEEES2_EEERT_RNS_7variantIJDpT0_EEE
FNA:12,0,_ZNSt3__13getB8ne180100IN7pyfolio5ErrorEJNS_6vectorIdNS_9allocatorIdEEEES2_EEERT_RNS_7variantIJDpT0_EEE
FNA:12,0,_ZNSt3__13getB8ne180100IN7pyfolio5ErrorEJdS2_EEERT_RNS_7variantIJDpT0_EEE
FNA:12,0,_ZNSt3__13getB8ne180100IN7pyfolio5ErrorEJiS2_EEERT_RNS_7variantIJDpT0_EEE
FNA:12,389,_ZNSt3__13getB8ne180100IN7pyfolio8DateTimeEJS2_NS1_5ErrorEEEERT_RNS_7variantIJDpT0_EEE
FNA:12,1,_ZNSt3__13getB8ne180100IN7pyfolio9analytics10statistics18StatisticalSummaryEJS4_NS1_5ErrorEEEERT_RNS_7variantIJDpT0_EEE
FNA:12,1,_ZNSt3__13getB8ne180100IN7pyfolio9analytics18PerformanceMetricsEJS3_NS1_5ErrorEEEERT_RNS_7variantIJDpT0_EEE
FNA:12,1,_ZNSt3__13getB8ne180100INS_4pairIN7pyfolio10TimeSeriesIdEES4_EEJS5_NS2_5ErrorEEEERT_RNS_7variantIJDpT0_EEE
FNA:12,0,_ZNSt3__13getB8ne180100INS_6vectorIN7pyfolio11performance12DrawdownInfoENS_9allocatorIS4_EEEEJS7_NS2_5ErrorEEEERT_RNS_7variantIJDpT0_EEE
FNA:12,0,_ZNSt3__13getB8ne180100INS_6vectorIdNS_9allocatorIdEEEEJS4_N7pyfolio5ErrorEEEERT_RNS_7variantIJDpT0_EEE
FNA:12,100092,_ZNSt3__13getB8ne180100IdJdN7pyfolio5ErrorEEEERT_RNS_7variantIJDpT0_EEE
FNA:12,2,_ZNSt3__13getB8ne180100IiJiN7pyfolio5ErrorEEEERT_RNS_7variantIJDpT0_EEE
FNL:13,1394
FNA:13,0,_ZNSt3__13getB8ne180100IN7pyfolio10TimeSeriesIdEEJS3_NS1_5ErrorEEEERKT_RKNS_7variantIJDpT0_EEE
FNA:13,0,_ZNSt3__13getB8ne180100IN7pyfolio5ErrorEJNS1_10TimeSeriesIdEES2_EEERKT_RKNS_7variantIJDpT0_EEE
FNA:13,0,_ZNSt3__13getB8ne180100IN7pyfolio5ErrorEJNS_6vectorINS1_11performance12DrawdownInfoENS_9allocatorIS5_EEEES2_EEERKT_RKNS_7variantIJDpT0_EEE
FNA:13,0,_ZNSt3__13getB8ne180100IN7pyfolio5ErrorEJNS_6vectorIdNS_9allocatorIdEEEES2_EEERKT_RKNS_7variantIJDpT0_EEE
FNA:13,1,_ZNSt3__13getB8ne180100IN7pyfolio5ErrorEJdS2_EEERKT_RKNS_7variantIJDpT0_EEE
FNA:13,2,_ZNSt3__13getB8ne180100IN7pyfolio5ErrorEJiS2_EEERKT_RKNS_7variantIJDpT0_EEE
FNA:13,1,_ZNSt3__13getB8ne180100IdJdN7pyfolio5ErrorEEEERKT_RKNS_7variantIJDpT0_EEE
FNL:14,270
FNA:14,0,_ZNSt18bad_variant_accessC1Ev
FNA:14,0,_ZNSt18bad_variant_accessC2Ev
FNA:14,0,_ZNSt18bad_variant_accessD1Ev
FNA:14,0,_ZNSt18bad_variant_accessD2Ev
FNL:15,288
FNA:15,0,_ZNKSt3__18__farrayIPFvOZNS_16__variant_detail6__ctorINS1_8__traitsIJN7pyfolio10TimeSeriesIdEENS4_5ErrorEEEEE19__generic_constructB8ne180100INS1_18__move_constructorIS8_LNS1_6_TraitE1EEEEEvRS9_OT_EUlRSF_OT0_E_RNS1_6__baseILSC_1EJS6_S7_EEEOSN_ELm2EEixB8ne180100Em
FNA:15,1,_ZNKSt3__18__farrayIPFvOZNS_16__variant_detail6__ctorINS1_8__traitsIJdN7pyfolio5ErrorEEEEE19__generic_constructB8ne180100INS1_18__move_constructorIS6_LNS1_6_TraitE1EEEEEvRS7_OT_EUlRSD_OT0_E_RNS1_6__baseILSA_1EJdS5_EEEOSL_ELm2EEixB8ne180100Em
FNA:15,2,_ZNKSt3__18__farrayIPFvOZNS_16__variant_detail6__dtorINS1_8__traitsIJN7pyfolio10Statistics15AlphaBetaResultENS4_5ErrorEEEELNS1_6_TraitE1EE9__destroyB8ne180100EvEUlRT_E_RNS1_6__baseILS9_1EJS6_S7_EEEELm2EEixB8ne180100Em
FNA:15,2,_ZNKSt3__18__farrayIPFvOZNS_16__variant_detail6__dtorINS1_8__traitsIJN7pyfolio10Statistics18SimpleDrawdownInfoENS4_5ErrorEEEELNS1_6_TraitE1EE9__destroyB8ne180100EvEUlRT_E_RNS1_6__baseILS9_1EJS6_S7_EEEELm2EEixB8ne180100Em
FNA:15,14,_ZNKSt3__18__farrayIPFvOZNS_16__variant_detail6__dtorINS1_8__traitsIJN7pyfolio10TimeSeriesIdEENS4_5ErrorEEEELNS1_6_TraitE1EE9__destroyB8ne180100EvEUlRT_E_RNS1_6__baseILS9_1EJS6_S7_EEEELm2EEixB8ne180100Em
FNA:15,1,_ZNKSt3__18__farrayIPFvOZNS_16__variant_detail6__dtorINS1_8__traitsIJN7pyfolio18PerformanceMetrics18CaptureRatioResultENS4_5ErrorEEEELNS1_6_TraitE1EE9__destroyB8ne180100EvEUlRT_E_RNS1_6__baseILS9_1EJS6_S7_EEEELm2EEixB8ne180100Em
FNA:15,391,_ZNKSt3__18__farrayIPFvOZNS_16__variant_detail6__dtorINS1_8__traitsIJN7pyfolio8DateTimeENS4_5ErrorEEEELNS1_6_TraitE1EE9__destroyB8ne180100EvEUlRT_E_RNS1_6__baseILS8_1EJS5_S6_EEEELm2EEixB8ne180100Em
FNA:15,3,_ZNKSt3__18__farrayIPFvOZNS_16__variant_detail6__dtorINS1_8__traitsIJN7pyfolio9analytics10statistics18StatisticalSummaryENS4_5ErrorEEEELNS1_6_TraitE1EE9__destroyB8ne180100EvEUlRT_E_RNS1_6__baseILSA_1EJS7_S8_EEEELm2EEixB8ne180100Em
FNA:15,1,_ZNKSt3__18__farrayIPFvOZNS_16__variant_detail6__dtorINS1_8__traitsIJN7pyfolio9analytics18PerformanceMetricsENS4_5ErrorEEEELNS1_6_TraitE1EE9__destroyB8ne180100EvEUlRT_E_RNS1_6__baseILS9_1EJS6_S7_EEEELm2EEixB8ne180100Em
FNA:15,1,_ZNKSt3__18__farrayIPFvOZNS_16__variant_detail6__dtorINS1_8__traitsIJNS_4pairIN7pyfolio10TimeSeriesIdEES7_EENS5_5ErrorEEEELNS1_6_TraitE1EE9__destroyB8ne180100EvEUlRT_E_RNS1_6__baseILSB_1EJS8_S9_EEEELm2EEixB8ne180100Em
FNA:15,0,_ZNKSt3__18__farrayIPFvOZNS_16__variant_detail6__dtorINS1_8__traitsIJNS_6vectorIN7pyfolio11performance12DrawdownInfoENS_9allocatorIS7_EEEENS5_5ErrorEEEELNS1_6_TraitE1EE9__destroyB8ne180100EvEUlRT_E_RNS1_6__baseILSD_1EJSA_SB_EEEELm2EEixB8ne180100Em
FNA:15,0,_ZNKSt3__18__farrayIPFvOZNS_16__variant_detail6__dtorINS1_8__traitsIJNS_6vectorIdNS_9allocatorIdEEEEN7pyfolio5ErrorEEEELNS1_6_TraitE1EE9__destroyB8ne180100EvEUlRT_E_RNS1_6__baseILSB_1EJS7_S9_EEEELm2EEixB8ne180100Em
FNA:15,100105,_ZNKSt3__18__farrayIPFvOZNS_16__variant_detail6__dtorINS1_8__traitsIJdN7pyfolio5ErrorEEEELNS1_6_TraitE1EE9__destroyB8ne180100EvEUlRT_E_RNS1_6__baseILS7_1EJdS5_EEEELm2EEixB8ne180100Em
FNA:15,13,_ZNKSt3__18__farrayIPFvOZNS_16__variant_detail6__dtorINS1_8__traitsIJiN7pyfolio5ErrorEEEELNS1_6_TraitE1EE9__destroyB8ne180100EvEUlRT_E_RNS1_6__baseILS7_1EJiS5_EEEELm2EEixB8ne180100Em
FNL:16,292
FNA:16,0,_ZNSt3__126__throw_bad_variant_accessB8ne180100Ev
FNL:17,462
FNA:17,0,_ZNSt3__116__variant_detail8__access7__union9__get_altB8ne180100INS0_7__unionILNS0_6_TraitE1ELm0EJN7pyfolio10TimeSeriesIdEENS6_5ErrorEEEEEEODaOT_NS_16in_place_index_tILm0EEE
FNA:17,0,_ZNSt3__116__variant_detail8__access7__union9__get_altB8ne180100INS0_7__unionILNS0_6_TraitE1ELm0EJdN7pyfolio5ErrorEEEEEEODaOT_NS_16in_place_index_tILm0EEE
FNA:17,1,_ZNSt3__116__variant_detail8__access7__union9__get_altB8ne180100INS0_7__unionILNS0_6_TraitE1ELm1EJN7pyfolio5ErrorEEEEEEODaOT_NS_16in_place_index_tILm0EEE
FNA:17,0,_ZNSt3__116__variant_detail8__access7__union9__get_altB8ne180100IRKNS0_7__unionILNS0_6_TraitE1ELm0EJN7pyfolio10TimeSeriesIdEENS6_5ErrorEEEEEEODaOT_NS_16in_place_index_tILm0EEE
FNA:17,1,_ZNSt3__116__variant_detail8__access7__union9__get_altB8ne180100IRKNS0_7__unionILNS0_6_TraitE1ELm0EJdN7pyfolio5ErrorEEEEEEODaOT_NS_16in_place_index_tILm0EEE
FNA:17,3,_ZNSt3__116__variant_detail8__access7__union9__get_altB8ne180100IRKNS0_7__unionILNS0_6_TraitE1ELm1EJN7pyfolio5ErrorEEEEEEODaOT_NS_16in_place_index_tILm0EEE
FNA:17,4,_ZNSt3__116__variant_detail8__access7__union9__get_altB8ne180100IRNS0_7__unionILNS0_6_TraitE1ELm0EJN7pyfolio10Statistics15AlphaBetaResultENS6_5ErrorEEEEEEODaOT_NS_16in_place_index_tILm0EEE
FNA:17,4,_ZNSt3__116__variant_detail8__access7__union9__get_altB8ne180100IRNS0_7__unionILNS0_6_TraitE1ELm0EJN7pyfolio10Statistics18SimpleDrawdownInfoENS6_5ErrorEEEEEEODaOT_NS_16in_place_index_tILm0EEE
FNA:17,28,_ZNSt3__116__variant_detail8__access7__union9__get_altB8ne180100IRNS0_7__unionILNS0_6_TraitE1ELm0EJN7pyfolio10TimeSeriesIdEENS6_5ErrorEEEEEEODaOT_NS_16in_place_index_tILm0EEE
FNA:17,2,_ZNSt3__116__variant_detail8__access7__union9__get_altB8ne180100IRNS0_7__unionILNS0_6_TraitE1ELm0EJN7pyfolio18PerformanceMetrics18CaptureRatioResultENS6_5ErrorEEEEEEODaOT_NS_16in_place_index_tILm0EEE
FNA:17,778,_ZNSt3__116__variant_detail8__access7__union9__get_altB8ne180100IRNS0_7__unionILNS0_6_TraitE1ELm0EJN7pyfolio8DateTimeENS6_5ErrorEEEEEEODaOT_NS_16in_place_index_tILm0EEE
FNA:17,2,_ZNSt3__116__variant_detail8__access7__union9__get_altB8ne180100IRNS0_7__unionILNS0_6_TraitE1ELm0EJN7pyfolio9analytics10statistics18StatisticalSummaryENS6_5ErrorEEEEEEODaOT_NS_16in_place_index_tILm0EEE
FNA:17,2,_ZNSt3__116__variant_detail8__access7__union9__get_altB8ne180100IRNS0_7__unionILNS0_6_TraitE1ELm0EJN7pyfolio9analytics18PerformanceMetricsENS6_5ErrorEEEEEEODaOT_NS_16in_place_index_tILm0EEE
FNA:17,2,_ZNSt3__116__variant_detail8__access7__union9__get_altB8ne180100IRNS0_7__unionILNS0_6_TraitE1ELm0EJNS_4pairIN7pyfolio10TimeSeriesIdEES9_EENS7_5ErrorEEEEEEODaOT_NS_16in_place_index_tILm0EEE
FNA:17,0,_ZNSt3__116__variant_detail8__access7__union9__get_altB8ne180100IRNS0_7__unionILNS0_6_TraitE1ELm0EJNS_6vectorIN7pyfolio11performance12DrawdownInfoENS_9allocatorIS9_EEEENS7_5ErrorEEEEEEODaOT_NS_16in_place_index_tILm0EEE
FNA:17,0,_ZNSt3__116__variant_detail8__access7__union9__get_altB8ne180100IRNS0_7__unionILNS0_6_TraitE1ELm0EJNS_6vectorIdNS_9allocatorIdEEEEN7pyfolio5ErrorEEEEEEODaOT_NS_16in_place_index_tILm0EEE
FNA:17,200186,_ZNSt3__116__variant_detail8__access7__union9__get_altB8ne180100IRNS0_7__unionILNS0_6_TraitE1ELm0EJdN7pyfolio5ErrorEEEEEEODaOT_NS_16in_place_index_tILm0EEE
FNA:17,14,_ZNSt3__116__variant_detail8__access7__union9__get_altB8ne180100IRNS0_7__unionILNS0_6_TraitE1ELm0EJiN7pyfolio5ErrorEEEEEEODaOT_NS_16in_place_index_tILm0EEE
FNA:17,18,_ZNSt3__116__variant_detail8__access7__union9__get_altB8ne180100IRNS0_7__unionILNS0_6_TraitE1ELm1EJN7pyfolio5ErrorEEEEEEODaOT_NS_16in_place_index_tILm0EEE
FNL:18,467
FNA:18,0,_ZNSt3__116__variant_detail8__access7__union9__get_altB8ne180100INS0_7__unionILNS0_6_TraitE1ELm0EJN7pyfolio10TimeSeriesIdEENS6_5ErrorEEEELm1EEEODaOT_NS_16in_place_index_tIXT0_EEE
FNA:18,1,_ZNSt3__116__variant_detail8__access7__union9__get_altB8ne180100INS0_7__unionILNS0_6_TraitE1ELm0EJdN7pyfolio5ErrorEEEELm1EEEODaOT_NS_16in_place_index_tIXT0_EEE
FNA:18,0,_ZNSt3__116__variant_detail8__access7__union9__get_altB8ne180100IRKNS0_7__unionILNS0_6_TraitE1ELm0EJN7pyfolio10TimeSeriesIdEENS6_5ErrorEEEELm1EEEODaOT_NS_16in_place_index_tIXT0_EEE
FNA:18,0,_ZNSt3__116__variant_detail8__access7__union9__get_altB8ne180100IRKNS0_7__unionILNS0_6_TraitE1ELm0EJNS_6vectorIN7pyfolio11performance12DrawdownInfoENS_9allocatorIS9_EEEENS7_5ErrorEEEELm1EEEODaOT_NS_16in_place_index_tIXT0_EEE
FNA:18,0,_ZNSt3__116__variant_detail8__access7__union9__get_altB8ne180100IRKNS0_7__unionILNS0_6_TraitE1ELm0EJNS_6vectorIdNS_9allocatorIdEEEEN7pyfolio5ErrorEEEELm1EEEODaOT_NS_16in_place_index_tIXT0_EEE
FNA:18,1,_ZNSt3__116__variant_detail8__access7__union9__get_altB8ne180100IRKNS0_7__unionILNS0_6_TraitE1ELm0EJdN7pyfolio5ErrorEEEELm1EEEODaOT_NS_16in_place_index_tIXT0_EEE
FNA:18,2,_ZNSt3__116__variant_detail8__access7__union9__get_altB8ne180100IRKNS0_7__unionILNS0_6_TraitE1ELm0EJiN7pyfolio5ErrorEEEELm1EEEODaOT_NS_16in_place_index_tIXT0_EEE
FNA:18,0,_ZNSt3__116__variant_detail8__access7__union9__get_altB8ne180100IRNS0_7__unionILNS0_6_TraitE1ELm0EJN7pyfolio10Statistics15AlphaBetaResultENS6_5ErrorEEEELm1EEEODaOT_NS_16in_place_index_tIXT0_EEE
FNA:18,0,_ZNSt3__116__variant_detail8__access7__union9__get_altB8ne180100IRNS0_7__unionILNS0_6_TraitE1ELm0EJN7pyfolio10Statistics18SimpleDrawdownInfoENS6_5ErrorEEEELm1EEEODaOT_NS_16in_place_index_tIXT0_EEE
FNA:18,1,_ZNSt3__116__variant_detail8__access7__union9__get_altB8ne180100IRNS0_7__unionILNS0_6_TraitE1ELm0EJN7pyfolio10TimeSeriesIdEENS6_5ErrorEEEELm1EEEODaOT_NS_16in_place_index_tIXT0_EEE
FNA:18,0,_ZNSt3__116__variant_detail8__access7__union9__get_altB8ne180100IRNS0_7__unionILNS0_6_TraitE1ELm0EJN7pyfolio18PerformanceMetrics18CaptureRatioResultENS6_5ErrorEEEELm1EEEODaOT_NS_16in_place_index_tIXT0_EEE
FNA:18,2,_ZNSt3__116__variant_detail8__access7__union9__get_altB8ne180100IRNS0_7__unionILNS0_6_TraitE1ELm0EJN7pyfolio8DateTimeENS6_5ErrorEEEELm1EEEODaOT_NS_16in_place_index_tIXT0_EEE
FNA:18,2,_ZNSt3__116__variant_detail8__access7__union9__get_altB8ne180100IRNS0_7__unionILNS0_6_TraitE1ELm0EJN7pyfolio9analytics10statistics18StatisticalSummaryENS6_5ErrorEEEELm1EEEODaOT_NS_16in_place_index_tIXT0_EEE
FNA:18,0,_ZNSt3__116__variant_detail8__access7__union9__get_altB8ne180100IRNS0_7__unionILNS0_6_TraitE1ELm0EJN7pyfolio9analytics18PerformanceMetricsENS6_5ErrorEEEELm1EEEODaOT_NS_16in_place_index_tIXT0_EEE
FNA:18,0,_ZNSt3__116__variant_detail8__access7__union9__get_altB8ne180100IRNS0_7__unionILNS0_6_TraitE1ELm0EJNS_4pairIN7pyfolio10TimeSeriesIdEES9_EENS7_5ErrorEEEELm1EEEODaOT_NS_16in_place_index_tIXT0_EEE
FNA:18,0,_ZNSt3__116__variant_detail8__access7__union9__get_altB8ne180100IRNS0_7__unionILNS0_6_TraitE1ELm0EJNS_6vectorIN7pyfolio11performance12DrawdownInfoENS_9allocatorIS9_EEEENS7_5ErrorEEEELm1EEEODaOT_NS_16in_place_index_tIXT0_EEE
FNA:18,0,_ZNSt3__116__variant_detail8__access7__union9__get_altB8ne180100IRNS0_7__unionILNS0_6_TraitE1ELm0EJNS_6vectorIdNS_9allocatorIdEEEEN7pyfolio5ErrorEEEELm1EEEODaOT_NS_16in_place_index_tIXT0_EEE
FNA:18,12,_ZNSt3__116__variant_detail8__access7__union9__get_altB8ne180100IRNS0_7__unionILNS0_6_TraitE1ELm0EJdN7pyfolio5ErrorEEEELm1EEEODaOT_NS_16in_place_index_tIXT0_EEE
FNA:18,1,_ZNSt3__116__variant_detail8__access7__union9__get_altB8ne180100IRNS0_7__unionILNS0_6_TraitE1ELm0EJiN7pyfolio5ErrorEEEELm1EEEODaOT_NS_16in_place_index_tIXT0_EEE
FNL:19,474
FNA:19,0,_ZNSt3__116__variant_detail8__access6__base9__get_altB8ne180100ILm0ENS0_6__baseILNS0_6_TraitE1EJN7pyfolio10TimeSeriesIdEENS6_5ErrorEEEEEEODaOT0_
FNA:19,0,_ZNSt3__116__variant_detail8__access6__base9__get_altB8ne180100ILm0ENS0_6__baseILNS0_6_TraitE1EJdN7pyfolio5ErrorEEEEEEODaOT0_
FNA:19,0,_ZNSt3__116__variant_detail8__access6__base9__get_altB8ne180100ILm0ERKNS0_6__implIJN7pyfolio10TimeSeriesIdEENS5_5ErrorEEEEEEODaOT0_
FNA:19,1,_ZNSt3__116__variant_detail8__access6__base9__get_altB8ne180100ILm0ERKNS0_6__implIJdN7pyfolio5ErrorEEEEEEODaOT0_
FNA:19,2,_ZNSt3__116__variant_detail8__access6__base9__get_altB8ne180100ILm0ERNS0_6__baseILNS0_6_TraitE1EJN7pyfolio10Statistics15AlphaBetaResultENS6_5ErrorEEEEEEODaOT0_
FNA:19,2,_ZNSt3__116__variant_detail8__access6__base9__get_altB8ne180100ILm0ERNS0_6__baseILNS0_6_TraitE1EJN7pyfolio10Statistics18SimpleDrawdownInfoENS6_5ErrorEEEEEEODaOT0_
FNA:19,13,_ZNSt3__116__variant_detail8__access6__base9__get_altB8ne180100ILm0ERNS0_6__baseILNS0_6_TraitE1EJN7pyfolio10TimeSeriesIdEENS6_5ErrorEEEEEEODaOT0_
FNA:19,1,_ZNSt3__116__variant_detail8__access6__base9__get_altB8ne180100ILm0ERNS0_6__baseILNS0_6_TraitE1EJN7pyfolio18PerformanceMetrics18CaptureRatioResultENS6_5ErrorEEEEEEODaOT0_
FNA:19,389,_ZNSt3__116__variant_detail8__access6__base9__get_altB8ne180100ILm0ERNS0_6__baseILNS0_6_TraitE1EJN7pyfolio8DateTimeENS6_5ErrorEEEEEEODaOT0_
FNA:19,1,_ZNSt3__116__variant_detail8__access6__base9__get_altB8ne180100ILm0ERNS0_6__baseILNS0_6_TraitE1EJN7pyfolio9analytics10statistics18StatisticalSummaryENS6_5ErrorEEEEEEODaOT0_
FNA:19,1,_ZNSt3__116__variant_detail8__access6__base9__get_altB8ne180100ILm0ERNS0_6__baseILNS0_6_TraitE1EJN7pyfolio9analytics18PerformanceMetricsENS6_5ErrorEEEEEEODaOT0_
FNA:19,1,_ZNSt3__116__variant_detail8__access6__base9__get_altB8ne180100ILm0ERNS0_6__baseILNS0_6_TraitE1EJNS_4pairIN7pyfolio10TimeSeriesIdEES9_EENS7_5ErrorEEEEEEODaOT0_
FNA:19,0,_ZNSt3__116__variant_detail8__access6__base9__get_altB8ne180100ILm0ERNS0_6__baseILNS0_6_TraitE1EJNS_6vectorIN7pyfolio11performance12DrawdownInfoENS_9allocatorIS9_EEEENS7_5ErrorEEEEEEODaOT0_
FNA:19,0,_ZNSt3__116__variant_detail8__access6__base9__get_altB8ne180100ILm0ERNS0_6__baseILNS0_6_TraitE1EJNS_6vectorIdNS_9allocatorIdEEEEN7pyfolio5ErrorEEEEEEODaOT0_
FNA:19,100094,_ZNSt3__116__variant_detail8__access6__base9__get_altB8ne180100ILm0ERNS0_6__baseILNS0_6_TraitE1EJdN7pyfolio5ErrorEEEEEEODaOT0_
FNA:19,12,_ZNSt3__116__variant_detail8__access6__base9__get_altB8ne180100ILm0ERNS0_6__baseILNS0_6_TraitE1EJiN7pyfolio5ErrorEEEEEEODaOT0_
FNA:19,2,_ZNSt3__116__variant_detail8__access6__base9__get_altB8ne180100ILm0ERNS0_6__implIJN7pyfolio10Statistics15AlphaBetaResultENS5_5ErrorEEEEEEODaOT0_
FNA:19,2,_ZNSt3__116__variant_detail8__access6__base9__get_altB8ne180100ILm0ERNS0_6__implIJN7pyfolio10Statistics18SimpleDrawdownInfoENS5_5ErrorEEEEEEODaOT0_
FNA:19,15,_ZNSt3__116__variant_detail8__access6__base9__get_altB8ne180100ILm0ERNS0_6__implIJN7pyfolio10TimeSeriesIdEENS5_5ErrorEEEEEEODaOT0_
FNA:19,1,_ZNSt3__116__variant_detail8__access6__base9__get_altB8ne180100ILm0ERNS0_6__implIJN7pyfolio18PerformanceMetrics18CaptureRatioResultENS5_5ErrorEEEEEEODaOT0_
FNA:19,389,_ZNSt3__116__variant_detail8__access6__base9__get_altB8ne180100ILm0ERNS0_6__implIJN7pyfolio8DateTimeENS5_5ErrorEEEEEEODaOT0_
FNA:19,1,_ZNSt3__116__variant_detail8__access6__base9__get_altB8ne180100ILm0ERNS0_6__implIJN7pyfolio9analytics10statistics18StatisticalSummaryENS5_5ErrorEEEEEEODaOT0_
FNA:19,1,_ZNSt3__116__variant_detail8__access6__base9__get_altB8ne180100ILm0ERNS0_6__implIJN7pyfolio9analytics18PerformanceMetricsENS5_5ErrorEEEEEEODaOT0_
FNA:19,1,_ZNSt3__116__variant_detail8__access6__base9__get_altB8ne180100ILm0ERNS0_6__implIJNS_4pairIN7pyfolio10TimeSeriesIdEES8_EENS6_5ErrorEEEEEEODaOT0_
FNA:19,0,_ZNSt3__116__variant_detail8__access6__base9__get_altB8ne180100ILm0ERNS0_6__implIJNS_6vectorIN7pyfolio11performance12DrawdownInfoENS_9allocatorIS8_EEEENS6_5ErrorEEEEEEODaOT0_
FNA:19,0,_ZNSt3__116__variant_detail8__access6__base9__get_altB8ne180100ILm0ERNS0_6__implIJNS_6vectorIdNS_9allocatorIdEEEEN7pyfolio5ErrorEEEEEEODaOT0_
FNA:19,100092,_ZNSt3__116__variant_detail8__access6__base9__get_altB8ne180100ILm0ERNS0_6__implIJdN7pyfolio5ErrorEEEEEEODaOT0_
FNA:19,2,_ZNSt3__116__variant_detail8__access6__base9__get_altB8ne180100ILm0ERNS0_6__implIJiN7pyfolio5ErrorEEEEEEODaOT0_
FNA:19,0,_ZNSt3__116__variant_detail8__access6__base9__get_altB8ne180100ILm1ENS0_6__baseILNS0_6_TraitE1EJN7pyfolio10TimeSeriesIdEENS6_5ErrorEEEEEEODaOT0_
FNA:19,1,_ZNSt3__116__variant_detail8__access6__base9__get_altB8ne180100ILm1ENS0_6__baseILNS0_6_TraitE1EJdN7pyfolio5ErrorEEEEEEODaOT0_
FNA:19,0,_ZNSt3__116__variant_detail8__access6__base9__get_altB8ne180100ILm1ERKNS0_6__implIJN7pyfolio10TimeSeriesIdEENS5_5ErrorEEEEEEODaOT0_
FNA:19,0,_ZNSt3__116__variant_detail8__access6__base9__get_altB8ne180100ILm1ERKNS0_6__implIJNS_6vectorIN7pyfolio11performance12DrawdownInfoENS_9allocatorIS8_EEEENS6_5ErrorEEEEEEODaOT0_
FNA:19,0,_ZNSt3__116__variant_detail8__access6__base9__get_altB8ne180100ILm1ERKNS0_6__implIJNS_6vectorIdNS_9allocatorIdEEEEN7pyfolio5ErrorEEEEEEODaOT0_
FNA:19,1,_ZNSt3__116__variant_detail8__access6__base9__get_altB8ne180100ILm1ERKNS0_6__implIJdN7pyfolio5ErrorEEEEEEODaOT0_
FNA:19,2,_ZNSt3__116__variant_detail8__access6__base9__get_altB8ne180100ILm1ERKNS0_6__implIJiN7pyfolio5ErrorEEEEEEODaOT0_
FNA:19,0,_ZNSt3__116__variant_detail8__access6__base9__get_altB8ne180100ILm1ERNS0_6__baseILNS0_6_TraitE1EJN7pyfolio10Statistics15AlphaBetaResultENS6_5ErrorEEEEEEODaOT0_
FNA:19,0,_ZNSt3__116__variant_detail8__access6__base9__get_altB8ne180100ILm1ERNS0_6__baseILNS0_6_TraitE1EJN7pyfolio10Statistics18SimpleDrawdownInfoENS6_5ErrorEEEEEEODaOT0_
FNA:19,1,_ZNSt3__116__variant_detail8__access6__base9__get_altB8ne180100ILm1ERNS0_6__baseILNS0_6_TraitE1EJN7pyfolio10TimeSeriesIdEENS6_5ErrorEEEEEEODaOT0_
FNA:19,0,_ZNSt3__116__variant_detail8__access6__base9__get_altB8ne180100ILm1ERNS0_6__baseILNS0_6_TraitE1EJN7pyfolio18PerformanceMetrics18CaptureRatioResultENS6_5ErrorEEEEEEODaOT0_
FNA:19,2,_ZNSt3__116__variant_detail8__access6__base9__get_altB8ne180100ILm1ERNS0_6__baseILNS0_6_TraitE1EJN7pyfolio8DateTimeENS6_5ErrorEEEEEEODaOT0_
FNA:19,2,_ZNSt3__116__variant_detail8__access6__base9__get_altB8ne180100ILm1ERNS0_6__baseILNS0_6_TraitE1EJN7pyfolio9analytics10statistics18StatisticalSummaryENS6_5ErrorEEEEEEODaOT0_
FNA:19,0,_ZNSt3__116__variant_detail8__access6__base9__get_altB8ne180100ILm1ERNS0_6__baseILNS0_6_TraitE1EJN7pyfolio9analytics18PerformanceMetricsENS6_5ErrorEEEEEEODaOT0_
FNA:19,0,_ZNSt3__116__variant_detail8__access6__base9__get_altB8ne180100ILm1ERNS0_6__baseILNS0_6_TraitE1EJNS_4pairIN7pyfolio10TimeSeriesIdEES9_EENS7_5ErrorEEEEEEODaOT0_
FNA:19,0,_ZNSt3__116__variant_detail8__access6__base9__get_altB8ne180100ILm1ERNS0_6__baseILNS0_6_TraitE1EJNS_6vectorIN7pyfolio11performance12DrawdownInfoENS_9allocatorIS9_EEEENS7_5ErrorEEEEEEODaOT0_
FNA:19,0,_ZNSt3__116__variant_detail8__access6__base9__get_altB8ne180100ILm1ERNS0_6__baseILNS0_6_TraitE1EJNS_6vectorIdNS_9allocatorIdEEEEN7pyfolio5ErrorEEEEEEODaOT0_
FNA:19,12,_ZNSt3__116__variant_detail8__access6__base9__get_altB8ne180100ILm1ERNS0_6__baseILNS0_6_TraitE1EJdN7pyfolio5ErrorEEEEEEODaOT0_
FNA:19,1,_ZNSt3__116__variant_detail8__access6__base9__get_altB8ne180100ILm1ERNS0_6__baseILNS0_6_TraitE1EJiN7pyfolio5ErrorEEEEEEODaOT0_
FNA:19,0,_ZNSt3__116__variant_detail8__access6__base9__get_altB8ne180100ILm1ERNS0_6__implIJN7pyfolio10Statistics15AlphaBetaResultENS5_5ErrorEEEEEEODaOT0_
FNA:19,0,_ZNSt3__116__variant_detail8__access6__base9__get_altB8ne180100ILm1ERNS0_6__implIJN7pyfolio10Statistics18SimpleDrawdownInfoENS5_5ErrorEEEEEEODaOT0_
FNA:19,0,_ZNSt3__116__variant_detail8__access6__base9__get_altB8ne180100ILm1ERNS0_6__implIJN7pyfolio10TimeSeriesIdEENS5_5ErrorEEEEEEODaOT0_
FNA:19,0,_ZNSt3__116__variant_detail8__access6__base9__get_altB8ne180100ILm1ERNS0_6__implIJN7pyfolio18PerformanceMetrics18CaptureRatioResultENS5_5ErrorEEEEEEODaOT0_
FNA:19,0,_ZNSt3__116__variant_detail8__access6__base9__get_altB8ne180100ILm1ERNS0_6__implIJN7pyfolio8DateTimeENS5_5ErrorEEEEEEODaOT0_
FNA:19,0,_ZNSt3__116__variant_detail8__access6__base9__get_altB8ne180100ILm1ERNS0_6__implIJN7pyfolio9analytics10statistics18StatisticalSummaryENS5_5ErrorEEEEEEODaOT0_
FNA:19,0,_ZNSt3__116__variant_detail8__access6__base9__get_altB8ne180100ILm1ERNS0_6__implIJN7pyfolio9analytics18PerformanceMetricsENS5_5ErrorEEEEEEODaOT0_
FNA:19,0,_ZNSt3__116__variant_detail8__access6__base9__get_altB8ne180100ILm1ERNS0_6__implIJNS_4pairIN7pyfolio10TimeSeriesIdEES8_EENS6_5ErrorEEEEEEODaOT0_
FNA:19,0,_ZNSt3__116__variant_detail8__access6__base9__get_altB8ne180100ILm1ERNS0_6__implIJNS_6vectorIN7pyfolio11performance12DrawdownInfoENS_9allocatorIS8_EEEENS6_5ErrorEEEEEEODaOT0_
FNA:19,0,_ZNSt3__116__variant_detail8__access6__base9__get_altB8ne180100ILm1ERNS0_6__implIJNS_6vectorIdNS_9allocatorIdEEEEN7pyfolio5ErrorEEEEEEODaOT0_
FNA:19,0,_ZNSt3__116__variant_detail8__access6__base9__get_altB8ne180100ILm1ERNS0_6__implIJdN7pyfolio5ErrorEEEEEEODaOT0_
FNA:19,0,_ZNSt3__116__variant_detail8__access6__base9__get_altB8ne180100ILm1ERNS0_6__implIJiN7pyfolio5ErrorEEEEEEODaOT0_
FNL:20,481
FNA:20,0,_ZNSt3__116__variant_detail8__access9__variant9__get_altB8ne180100ILm0ERKNS_7variantIJN7pyfolio10TimeSeriesIdEENS5_5ErrorEEEEEEODaOT0_
FNA:20,1,_ZNSt3__116__variant_detail8__access9__variant9__get_altB8ne180100ILm0ERKNS_7variantIJdN7pyfolio5ErrorEEEEEEODaOT0_
FNA:20,2,_ZNSt3__116__variant_detail8__access9__variant9__get_altB8ne180100ILm0ERNS_7variantIJN7pyfolio10Statistics15AlphaBetaResultENS5_5ErrorEEEEEEODaOT0_
FNA:20,2,_ZNSt3__116__variant_detail8__access9__variant9__get_altB8ne180100ILm0ERNS_7variantIJN7pyfolio10Statistics18SimpleDrawdownInfoENS5_5ErrorEEEEEEODaOT0_
FNA:20,15,_ZNSt3__116__variant_detail8__access9__variant9__get_altB8ne180100ILm0ERNS_7variantIJN7pyfolio10TimeSeriesIdEENS5_5ErrorEEEEEEODaOT0_
FNA:20,1,_ZNSt3__116__variant_detail8__access9__variant9__get_altB8ne180100ILm0ERNS_7variantIJN7pyfolio18PerformanceMetrics18CaptureRatioResultENS5_5ErrorEEEEEEODaOT0_
FNA:20,389,_ZNSt3__116__variant_detail8__access9__variant9__get_altB8ne180100ILm0ERNS_7variantIJN7pyfolio8DateTimeENS5_5ErrorEEEEEEODaOT0_
FNA:20,1,_ZNSt3__116__variant_detail8__access9__variant9__get_altB8ne180100ILm0ERNS_7variantIJN7pyfolio9analytics10statistics18StatisticalSummaryENS5_5ErrorEEEEEEODaOT0_
FNA:20,1,_ZNSt3__116__variant_detail8__access9__variant9__get_altB8ne180100ILm0ERNS_7variantIJN7pyfolio9analytics18PerformanceMetricsENS5_5ErrorEEEEEEODaOT0_
FNA:20,1,_ZNSt3__116__variant_detail8__access9__variant9__get_altB8ne180100ILm0ERNS_7variantIJNS_4pairIN7pyfolio10TimeSeriesIdEES8_EENS6_5ErrorEEEEEEODaOT0_
FNA:20,0,_ZNSt3__116__variant_detail8__access9__variant9__get_altB8ne180100ILm0ERNS_7variantIJNS_6vectorIN7pyfolio11performance12DrawdownInfoENS_9allocatorIS8_EEEENS6_5ErrorEEEEEEODaOT0_
FNA:20,0,_ZNSt3__116__variant_detail8__access9__variant9__get_altB8ne180100ILm0ERNS_7variantIJNS_6vectorIdNS_9allocatorIdEEEEN7pyfolio5ErrorEEEEEEODaOT0_
FNA:20,100092,_ZNSt3__116__variant_detail8__access9__variant9__get_altB8ne180100ILm0ERNS_7variantIJdN7pyfolio5ErrorEEEEEEODaOT0_
FNA:20,2,_ZNSt3__116__variant_detail8__access9__variant9__get_altB8ne180100ILm0ERNS_7variantIJiN7pyfolio5ErrorEEEEEEODaOT0_
FNA:20,0,_ZNSt3__116__variant_detail8__access9__variant9__get_altB8ne180100ILm1ERKNS_7variantIJN7pyfolio10TimeSeriesIdEENS5_5ErrorEEEEEEODaOT0_
FNA:20,0,_ZNSt3__116__variant_detail8__access9__variant9__get_altB8ne180100ILm1ERKNS_7variantIJNS_6vectorIN7pyfolio11performance12DrawdownInfoENS_9allocatorIS8_EEEENS6_5ErrorEEEEEEODaOT0_
FNA:20,0,_ZNSt3__116__variant_detail8__access9__variant9__get_altB8ne180100ILm1ERKNS_7variantIJNS_6vectorIdNS_9allocatorIdEEEEN7pyfolio5ErrorEEEEEEODaOT0_
FNA:20,1,_ZNSt3__116__variant_detail8__access9__variant9__get_altB8ne180100ILm1ERKNS_7variantIJdN7pyfolio5ErrorEEEEEEODaOT0_
FNA:20,2,_ZNSt3__116__variant_detail8__access9__variant9__get_altB8ne180100ILm1ERKNS_7variantIJiN7pyfolio5ErrorEEEEEEODaOT0_
FNA:20,0,_ZNSt3__116__variant_detail8__access9__variant9__get_altB8ne180100ILm1ERNS_7variantIJN7pyfolio10Statistics15AlphaBetaResultENS5_5ErrorEEEEEEODaOT0_
FNA:20,0,_ZNSt3__116__variant_detail8__access9__variant9__get_altB8ne180100ILm1ERNS_7variantIJN7pyfolio10Statistics18SimpleDrawdownInfoENS5_5ErrorEEEEEEODaOT0_
FNA:20,0,_ZNSt3__116__variant_detail8__access9__variant9__get_altB8ne180100ILm1ERNS_7variantIJN7pyfolio10TimeSeriesIdEENS5_5ErrorEEEEEEODaOT0_
FNA:20,0,_ZNSt3__116__variant_detail8__access9__variant9__get_altB8ne180100ILm1ERNS_7variantIJN7pyfolio18PerformanceMetrics18CaptureRatioResultENS5_5ErrorEEEEEEODaOT0_
FNA:20,0,_ZNSt3__116__variant_detail8__access9__variant9__get_altB8ne180100ILm1ERNS_7variantIJN7pyfolio8DateTimeENS5_5ErrorEEEEEEODaOT0_
FNA:20,0,_ZNSt3__116__variant_detail8__access9__variant9__get_altB8ne180100ILm1ERNS_7variantIJN7pyfolio9analytics10statistics18StatisticalSummaryENS5_5ErrorEEEEEEODaOT0_
FNA:20,0,_ZNSt3__116__variant_detail8__access9__variant9__get_altB8ne180100ILm1ERNS_7variantIJN7pyfolio9analytics18PerformanceMetricsENS5_5ErrorEEEEEEODaOT0_
FNA:20,0,_ZNSt3__116__variant_detail8__access9__variant9__get_altB8ne180100ILm1ERNS_7variantIJNS_4pairIN7pyfolio10TimeSeriesIdEES8_EENS6_5ErrorEEEEEEODaOT0_
FNA:20,0,_ZNSt3__116__variant_detail8__access9__variant9__get_altB8ne180100ILm1ERNS_7variantIJNS_6vectorIN7pyfolio11performance12DrawdownInfoENS_9allocatorIS8_EEEENS6_5ErrorEEEEEEODaOT0_
FNA:20,0,_ZNSt3__116__variant_detail8__access9__variant9__get_altB8ne180100ILm1ERNS_7variantIJNS_6vectorIdNS_9allocatorIdEEEEN7pyfolio5ErrorEEEEEEODaOT0_
FNA:20,0,_ZNSt3__116__variant_detail8__access9__variant9__get_altB8ne180100ILm1ERNS_7variantIJdN7pyfolio5ErrorEEEEEEODaOT0_
FNA:20,0,_ZNSt3__116__variant_detail8__access9__variant9__get_altB8ne180100ILm1ERNS_7variantIJiN7pyfolio5ErrorEEEEEEODaOT0_
FNL:21,493
FNA:21,0,_ZNSt3__116__variant_detail12__visitation6__base14__visit_alt_atB8ne180100IZNS0_6__ctorINS0_8__traitsIJN7pyfolio10TimeSeriesIdEENS6_5ErrorEEEEE19__generic_constructB8ne180100INS0_18__move_constructorISA_LNS0_6_TraitE1EEEEEvRSB_OT_EUlRSH_OT0_E_JSG_SF_EEEDcmSI_DpOT0_
FNA:21,1,_ZNSt3__116__variant_detail12__visitation6__base14__visit_alt_atB8ne180100IZNS0_6__ctorINS0_8__traitsIJdN7pyfolio5ErrorEEEEE19__generic_constructB8ne180100INS0_18__move_constructorIS8_LNS0_6_TraitE1EEEEEvRS9_OT_EUlRSF_OT0_E_JSE_SD_EEEDcmSG_DpOT0_
FNL:22,499
FNA:22,2,_ZNSt3__116__variant_detail12__visitation6__base11__visit_altB8ne180100IZNS0_6__dtorINS0_8__traitsIJN7pyfolio10Statistics15AlphaBetaResultENS6_5ErrorEEEELNS0_6_TraitE1EE9__destroyB8ne180100EvEUlRT_E_JRSC_EEEDcOSD_DpOT0_
FNA:22,2,_ZNSt3__116__variant_detail12__visitation6__base11__visit_altB8ne180100IZNS0_6__dtorINS0_8__traitsIJN7pyfolio10Statistics18SimpleDrawdownInfoENS6_5ErrorEEEELNS0_6_TraitE1EE9__destroyB8ne180100EvEUlRT_E_JRSC_EEEDcOSD_DpOT0_
FNA:22,14,_ZNSt3__116__variant_detail12__visitation6__base11__visit_altB8ne180100IZNS0_6__dtorINS0_8__traitsIJN7pyfolio10TimeSeriesIdEENS6_5ErrorEEEELNS0_6_TraitE1EE9__destroyB8ne180100EvEUlRT_E_JRSC_EEEDcOSD_DpOT0_
FNA:22,1,_ZNSt3__116__variant_detail12__visitation6__base11__visit_altB8ne180100IZNS0_6__dtorINS0_8__traitsIJN7pyfolio18PerformanceMetrics18CaptureRatioResultENS6_5ErrorEEEELNS0_6_TraitE1EE9__destroyB8ne180100EvEUlRT_E_JRSC_EEEDcOSD_DpOT0_
FNA:22,391,_ZNSt3__116__variant_detail12__visitation6__base11__visit_altB8ne180100IZNS0_6__dtorINS0_8__traitsIJN7pyfolio8DateTimeENS6_5ErrorEEEELNS0_6_TraitE1EE9__destroyB8ne180100EvEUlRT_E_JRSB_EEEDcOSC_DpOT0_
FNA:22,3,_ZNSt3__116__variant_detail12__visitation6__base11__visit_altB8ne180100IZNS0_6__dtorINS0_8__traitsIJN7pyfolio9analytics10statistics18StatisticalSummaryENS6_5ErrorEEEELNS0_6_TraitE1EE9__destroyB8ne180100EvEUlRT_E_JRSD_EEEDcOSE_DpOT0_
FNA:22,1,_ZNSt3__116__variant_detail12__visitation6__base11__visit_altB8ne180100IZNS0_6__dtorINS0_8__traitsIJN7pyfolio9analytics18PerformanceMetricsENS6_5ErrorEEEELNS0_6_TraitE1EE9__destroyB8ne180100EvEUlRT_E_JRSC_EEEDcOSD_DpOT0_
FNA:22,1,_ZNSt3__116__variant_detail12__visitation6__base11__visit_altB8ne180100IZNS0_6__dtorINS0_8__traitsIJNS_4pairIN7pyfolio10TimeSeriesIdEES9_EENS7_5ErrorEEEELNS0_6_TraitE1EE9__destroyB8ne180100EvEUlRT_E_JRSE_EEEDcOSF_DpOT0_
FNA:22,0,_ZNSt3__116__variant_detail12__visitation6__base11__visit_altB8ne180100IZNS0_6__dtorINS0_8__traitsIJNS_6vectorIN7pyfolio11performance12DrawdownInfoENS_9allocatorIS9_EEEENS7_5ErrorEEEELNS0_6_TraitE1EE9__destroyB8ne180100EvEUlRT_E_JRSG_EEEDcOSH_DpOT0_
FNA:22,0,_ZNSt3__116__variant_detail12__visitation6__base11__visit_altB8ne180100IZNS0_6__dtorINS0_8__traitsIJNS_6vectorIdNS_9allocatorIdEEEEN7pyfolio5ErrorEEEELNS0_6_TraitE1EE9__destroyB8ne180100EvEUlRT_E_JRSE_EEEDcOSF_DpOT0_
FNA:22,100105,_ZNSt3__116__variant_detail12__visitation6__base11__visit_altB8ne180100IZNS0_6__dtorINS0_8__traitsIJdN7pyfolio5ErrorEEEELNS0_6_TraitE1EE9__destroyB8ne180100EvEUlRT_E_JRSA_EEEDcOSB_DpOT0_
FNA:22,13,_ZNSt3__116__variant_detail12__visitation6__base11__visit_altB8ne180100IZNS0_6__dtorINS0_8__traitsIJiN7pyfolio5ErrorEEEELNS0_6_TraitE1EE9__destroyB8ne180100EvEUlRT_E_JRSA_EEEDcOSB_DpOT0_
FNL:23,506
FNA:23,2,_ZNSt3__116__variant_detail12__visitation6__base4__atB8ne180100IPFvOZNS0_6__dtorINS0_8__traitsIJN7pyfolio10Statistics15AlphaBetaResultENS6_5ErrorEEEELNS0_6_TraitE1EE9__destroyB8ne180100EvEUlRT_E_RNS0_6__baseILSB_1EJS8_S9_EEEEEERKSD_SN_
FNA:23,2,_ZNSt3__116__variant_detail12__visitation6__base4__atB8ne180100IPFvOZNS0_6__dtorINS0_8__traitsIJN7pyfolio10Statistics18SimpleDrawdownInfoENS6_5ErrorEEEELNS0_6_TraitE1EE9__destroyB8ne180100EvEUlRT_E_RNS0_6__baseILSB_1EJS8_S9_EEEEEERKSD_SN_
FNA:23,14,_ZNSt3__116__variant_detail12__visitation6__base4__atB8ne180100IPFvOZNS0_6__dtorINS0_8__traitsIJN7pyfolio10TimeSeriesIdEENS6_5ErrorEEEELNS0_6_TraitE1EE9__destroyB8ne180100EvEUlRT_E_RNS0_6__baseILSB_1EJS8_S9_EEEEEERKSD_SN_
FNA:23,1,_ZNSt3__116__variant_detail12__visitation6__base4__atB8ne180100IPFvOZNS0_6__dtorINS0_8__traitsIJN7pyfolio18PerformanceMetrics18CaptureRatioResultENS6_5ErrorEEEELNS0_6_TraitE1EE9__destroyB8ne180100EvEUlRT_E_RNS0_6__baseILSB_1EJS8_S9_EEEEEERKSD_SN_
FNA:23,391,_ZNSt3__116__variant_detail12__visitation6__base4__atB8ne180100IPFvOZNS0_6__dtorINS0_8__traitsIJN7pyfolio8DateTimeENS6_5ErrorEEEELNS0_6_TraitE1EE9__destroyB8ne180100EvEUlRT_E_RNS0_6__baseILSA_1EJS7_S8_EEEEEERKSC_SM_
FNA:23,3,_ZNSt3__116__variant_detail12__visitation6__base4__atB8ne180100IPFvOZNS0_6__dtorINS0_8__traitsIJN7pyfolio9analytics10statistics18StatisticalSummaryENS6_5ErrorEEEELNS0_6_TraitE1EE9__destroyB8ne180100EvEUlRT_E_RNS0_6__baseILSC_1EJS9_SA_EEEEEERKSE_SO_
FNA:23,1,_ZNSt3__116__variant_detail12__visitation6__base4__atB8ne180100IPFvOZNS0_6__dtorINS0_8__traitsIJN7pyfolio9analytics18PerformanceMetricsENS6_5ErrorEEEELNS0_6_TraitE1EE9__destroyB8ne180100EvEUlRT_E_RNS0_6__baseILSB_1EJS8_S9_EEEEEERKSD_SN_
FNA:23,1,_ZNSt3__116__variant_detail12__visitation6__base4__atB8ne180100IPFvOZNS0_6__dtorINS0_8__traitsIJNS_4pairIN7pyfolio10TimeSeriesIdEES9_EENS7_5ErrorEEEELNS0_6_TraitE1EE9__destroyB8ne180100EvEUlRT_E_RNS0_6__baseILSD_1EJSA_SB_EEEEEERKSF_SP_
FNA:23,0,_ZNSt3__116__variant_detail12__visitation6__base4__atB8ne180100IPFvOZNS0_6__dtorINS0_8__traitsIJNS_6vectorIN7pyfolio11performance12DrawdownInfoENS_9allocatorIS9_EEEENS7_5ErrorEEEELNS0_6_TraitE1EE9__destroyB8ne180100EvEUlRT_E_RNS0_6__baseILSF_1EJSC_SD_EEEEEERKSH_SR_
FNA:23,0,_ZNSt3__116__variant_detail12__visitation6__base4__atB8ne180100IPFvOZNS0_6__dtorINS0_8__traitsIJNS_6vectorIdNS_9allocatorIdEEEEN7pyfolio5ErrorEEEELNS0_6_TraitE1EE9__destroyB8ne180100EvEUlRT_E_RNS0_6__baseILSD_1EJS9_SB_EEEEEERKSF_SP_
FNA:23,100105,_ZNSt3__116__variant_detail12__visitation6__base4__atB8ne180100IPFvOZNS0_6__dtorINS0_8__traitsIJdN7pyfolio5ErrorEEEELNS0_6_TraitE1EE9__destroyB8ne180100EvEUlRT_E_RNS0_6__baseILS9_1EJdS7_EEEEEERKSB_SL_
FNA:23,13,_ZNSt3__116__variant_detail12__visitation6__base4__atB8ne180100IPFvOZNS0_6__dtorINS0_8__traitsIJiN7pyfolio5ErrorEEEELNS0_6_TraitE1EE9__destroyB8ne180100EvEUlRT_E_RNS0_6__baseILS9_1EJiS7_EEEEEERKSB_SL_
FNL:24,512
FNA:24,2,_ZNSt3__116__variant_detail12__visitation6__base4__atB8ne180100IPFvOZNS0_6__dtorINS0_8__traitsIJN7pyfolio10Statistics15AlphaBetaResultENS6_5ErrorEEEELNS0_6_TraitE1EE9__destroyB8ne180100EvEUlRT_E_RNS0_6__baseILSB_1EJS8_S9_EEEELm2EJEEEODaRKNS_8__farrayISD_XT0_EEEmDpT1_
FNA:24,2,_ZNSt3__116__variant_detail12__visitation6__base4__atB8ne180100IPFvOZNS0_6__dtorINS0_8__traitsIJN7pyfolio10Statistics18SimpleDrawdownInfoENS6_5ErrorEEEELNS0_6_TraitE1EE9__destroyB8ne180100EvEUlRT_E_RNS0_6__baseILSB_1EJS8_S9_EEEELm2EJEEEODaRKNS_8__farrayISD_XT0_EEEmDpT1_
FNA:24,14,_ZNSt3__116__variant_detail12__visitation6__base4__atB8ne180100IPFvOZNS0_6__dtorINS0_8__traitsIJN7pyfolio10TimeSeriesIdEENS6_5ErrorEEEELNS0_6_TraitE1EE9__destroyB8ne180100EvEUlRT_E_RNS0_6__baseILSB_1EJS8_S9_EEEELm2EJEEEODaRKNS_8__farrayISD_XT0_EEEmDpT1_
FNA:24,1,_ZNSt3__116__variant_detail12__visitation6__base4__atB8ne180100IPFvOZNS0_6__dtorINS0_8__traitsIJN7pyfolio18PerformanceMetrics18CaptureRatioResultENS6_5ErrorEEEELNS0_6_TraitE1EE9__destroyB8ne180100EvEUlRT_E_RNS0_6__baseILSB_1EJS8_S9_EEEELm2EJEEEODaRKNS_8__farrayISD_XT0_EEEmDpT1_
FNA:24,391,_ZNSt3__116__variant_detail12__visitation6__base4__atB8ne180100IPFvOZNS0_6__dtorINS0_8__traitsIJN7pyfolio8DateTimeENS6_5ErrorEEEELNS0_6_TraitE1EE9__destroyB8ne180100EvEUlRT_E_RNS0_6__baseILSA_1EJS7_S8_EEEELm2EJEEEODaRKNS_8__farrayISC_XT0_EEEmDpT1_
FNA:24,3,_ZNSt3__116__variant_detail12__visitation6__base4__atB8ne180100IPFvOZNS0_6__dtorINS0_8__traitsIJN7pyfolio9analytics10statistics18StatisticalSummaryENS6_5ErrorEEEELNS0_6_TraitE1EE9__destroyB8ne180100EvEUlRT_E_RNS0_6__baseILSC_1EJS9_SA_EEEELm2EJEEEODaRKNS_8__farrayISE_XT0_EEEmDpT1_
FNA:24,1,_ZNSt3__116__variant_detail12__visitation6__base4__atB8ne180100IPFvOZNS0_6__dtorINS0_8__traitsIJN7pyfolio9analytics18PerformanceMetricsENS6_5ErrorEEEELNS0_6_TraitE1EE9__destroyB8ne180100EvEUlRT_E_RNS0_6__baseILSB_1EJS8_S9_EEEELm2EJEEEODaRKNS_8__farrayISD_XT0_EEEmDpT1_
FNA:24,1,_ZNSt3__116__variant_detail12__visitation6__base4__atB8ne180100IPFvOZNS0_6__dtorINS0_8__traitsIJNS_4pairIN7pyfolio10TimeSeriesIdEES9_EENS7_5ErrorEEEELNS0_6_TraitE1EE9__destroyB8ne180100EvEUlRT_E_RNS0_6__baseILSD_1EJSA_SB_EEEELm2EJEEEODaRKNS_8__farrayISF_XT0_EEEmDpT1_
FNA:24,0,_ZNSt3__116__variant_detail12__visitation6__base4__atB8ne180100IPFvOZNS0_6__dtorINS0_8__traitsIJNS_6vectorIN7pyfolio11performance12DrawdownInfoENS_9allocatorIS9_EEEENS7_5ErrorEEEELNS0_6_TraitE1EE9__destroyB8ne180100EvEUlRT_E_RNS0_6__baseILSF_1EJSC_SD_EEEELm2EJEEEODaRKNS_8__farrayISH_XT0_EEEmDpT1_
FNA:24,0,_ZNSt3__116__variant_detail12__visitation6__base4__atB8ne180100IPFvOZNS0_6__dtorINS0_8__traitsIJNS_6vectorIdNS_9allocatorIdEEEEN7pyfolio5ErrorEEEELNS0_6_TraitE1EE9__destroyB8ne180100EvEUlRT_E_RNS0_6__baseILSD_1EJS9_SB_EEEELm2EJEEEODaRKNS_8__farrayISF_XT0_EEEmDpT1_
FNA:24,100105,_ZNSt3__116__variant_detail12__visitation6__base4__atB8ne180100IPFvOZNS0_6__dtorINS0_8__traitsIJdN7pyfolio5ErrorEEEELNS0_6_TraitE1EE9__destroyB8ne180100EvEUlRT_E_RNS0_6__baseILS9_1EJdS7_EEEELm2EJEEEODaRKNS_8__farrayISB_XT0_EEEmDpT1_
FNA:24,13,_ZNSt3__116__variant_detail12__visitation6__base4__atB8ne180100IPFvOZNS0_6__dtorINS0_8__traitsIJiN7pyfolio5ErrorEEEELNS0_6_TraitE1EE9__destroyB8ne180100EvEUlRT_E_RNS0_6__baseILS9_1EJiS7_EEEELm2EJEEEODaRKNS_8__farrayISB_XT0_EEEmDpT1_
FNL:25,532
FNA:25,2,_ZNSt3__116__variant_detail12__visitation6__base12__dispatcherIJLm0EEE10__dispatchB8ne180100IOZNS0_6__dtorINS0_8__traitsIJN7pyfolio10Statistics15AlphaBetaResultENS8_5ErrorEEEELNS0_6_TraitE1EE9__destroyB8ne180100EvEUlRT_E_JRNS0_6__baseILSD_1EJSA_SB_EEEEEEDcSF_DpT0_
FNA:25,2,_ZNSt3__116__variant_detail12__visitation6__base12__dispatcherIJLm0EEE10__dispatchB8ne180100IOZNS0_6__dtorINS0_8__traitsIJN7pyfolio10Statistics18SimpleDrawdownInfoENS8_5ErrorEEEELNS0_6_TraitE1EE9__destroyB8ne180100EvEUlRT_E_JRNS0_6__baseILSD_1EJSA_SB_EEEEEEDcSF_DpT0_
FNA:25,13,_ZNSt3__116__variant_detail12__visitation6__base12__dispatcherIJLm0EEE10__dispatchB8ne180100IOZNS0_6__dtorINS0_8__traitsIJN7pyfolio10TimeSeriesIdEENS8_5ErrorEEEELNS0_6_TraitE1EE9__destroyB8ne180100EvEUlRT_E_JRNS0_6__baseILSD_1EJSA_SB_EEEEEEDcSF_DpT0_
FNA:25,1,_ZNSt3__116__variant_detail12__visitation6__base12__dispatcherIJLm0EEE10__dispatchB8ne180100IOZNS0_6__dtorINS0_8__traitsIJN7pyfolio18PerformanceMetrics18CaptureRatioResultENS8_5ErrorEEEELNS0_6_TraitE1EE9__destroyB8ne180100EvEUlRT_E_JRNS0_6__baseILSD_1EJSA_SB_EEEEEEDcSF_DpT0_
FNA:25,389,_ZNSt3__116__variant_detail12__visitation6__base12__dispatcherIJLm0EEE10__dispatchB8ne180100IOZNS0_6__dtorINS0_8__traitsIJN7pyfolio8DateTimeENS8_5ErrorEEEELNS0_6_TraitE1EE9__destroyB8ne180100EvEUlRT_E_JRNS0_6__baseILSC_1EJS9_SA_EEEEEEDcSE_DpT0_
FNA:25,1,_ZNSt3__116__variant_detail12__visitation6__base12__dispatcherIJLm0EEE10__dispatchB8ne180100IOZNS0_6__dtorINS0_8__traitsIJN7pyfolio9analytics10statistics18StatisticalSummaryENS8_5ErrorEEEELNS0_6_TraitE1EE9__destroyB8ne180100EvEUlRT_E_JRNS0_6__baseILSE_1EJSB_SC_EEEEEEDcSG_DpT0_
FNA:25,1,_ZNSt3__116__variant_detail12__visitation6__base12__dispatcherIJLm0EEE10__dispatchB8ne180100IOZNS0_6__dtorINS0_8__traitsIJN7pyfolio9analytics18PerformanceMetricsENS8_5ErrorEEEELNS0_6_TraitE1EE9__destroyB8ne180100EvEUlRT_E_JRNS0_6__baseILSD_1EJSA_SB_EEEEEEDcSF_DpT0_
FNA:25,1,_ZNSt3__116__variant_detail12__visitation6__base12__dispatcherIJLm0EEE10__dispatchB8ne180100IOZNS0_6__dtorINS0_8__traitsIJNS_4pairIN7pyfolio10TimeSeriesIdEESB_EENS9_5ErrorEEEELNS0_6_TraitE1EE9__destroyB8ne180100EvEUlRT_E_JRNS0_6__baseILSF_1EJSC_SD_EEEEEEDcSH_DpT0_
FNA:25,0,_ZNSt3__116__variant_detail12__visitation6__base12__dispatcherIJLm0EEE10__dispatchB8ne180100IOZNS0_6__dtorINS0_8__traitsIJNS_6vectorIN7pyfolio11performance12DrawdownInfoENS_9allocatorISB_EEEENS9_5ErrorEEEELNS0_6_TraitE1EE9__destroyB8ne180100EvEUlRT_E_JRNS0_6__baseILSH_1EJSE_SF_EEEEEEDcSJ_DpT0_
FNA:25,0,_ZNSt3__116__variant_detail12__visitation6__base12__dispatcherIJLm0EEE10__dispatchB8ne180100IOZNS0_6__dtorINS0_8__traitsIJNS_6vectorIdNS_9allocatorIdEEEEN7pyfolio5ErrorEEEELNS0_6_TraitE1EE9__destroyB8ne180100EvEUlRT_E_JRNS0_6__baseILSF_1EJSB_SD_EEEEEEDcSH_DpT0_
FNA:25,100094,_ZNSt3__116__variant_detail12__visitation6__base12__dispatcherIJLm0EEE10__dispatchB8ne180100IOZNS0_6__dtorINS0_8__traitsIJdN7pyfolio5ErrorEEEELNS0_6_TraitE1EE9__destroyB8ne180100EvEUlRT_E_JRNS0_6__baseILSB_1EJdS9_EEEEEEDcSD_DpT0_
FNA:25,12,_ZNSt3__116__variant_detail12__visitation6__base12__dispatcherIJLm0EEE10__dispatchB8ne180100IOZNS0_6__dtorINS0_8__traitsIJiN7pyfolio5ErrorEEEELNS0_6_TraitE1EE9__destroyB8ne180100EvEUlRT_E_JRNS0_6__baseILSB_1EJiS9_EEEEEEDcSD_DpT0_
FNA:25,0,_ZNSt3__116__variant_detail12__visitation6__base12__dispatcherIJLm0ELm0EEE10__dispatchB8ne180100IOZNS0_6__ctorINS0_8__traitsIJN7pyfolio10TimeSeriesIdEENS8_5ErrorEEEEE19__generic_constructB8ne180100INS0_18__move_constructorISC_LNS0_6_TraitE1EEEEEvRSD_OT_EUlRSJ_OT0_E_JRNS0_6__baseILSG_1EJSA_SB_EEEOSR_EEEDcSJ_DpT0_
FNA:25,0,_ZNSt3__116__variant_detail12__visitation6__base12__dispatcherIJLm0ELm0EEE10__dispatchB8ne180100IOZNS0_6__ctorINS0_8__traitsIJdN7pyfolio5ErrorEEEEE19__generic_constructB8ne180100INS0_18__move_constructorISA_LNS0_6_TraitE1EEEEEvRSB_OT_EUlRSH_OT0_E_JRNS0_6__baseILSE_1EJdS9_EEEOSP_EEEDcSH_DpT0_
FNA:25,0,_ZNSt3__116__variant_detail12__visitation6__base12__dispatcherIJLm1EEE10__dispatchB8ne180100IOZNS0_6__dtorINS0_8__traitsIJN7pyfolio10Statistics15AlphaBetaResultENS8_5ErrorEEEELNS0_6_TraitE1EE9__destroyB8ne180100EvEUlRT_E_JRNS0_6__baseILSD_1EJSA_SB_EEEEEEDcSF_DpT0_
FNA:25,0,_ZNSt3__116__variant_detail12__visitation6__base12__dispatcherIJLm1EEE10__dispatchB8ne180100IOZNS0_6__dtorINS0_8__traitsIJN7pyfolio10Statistics18SimpleDrawdownInfoENS8_5ErrorEEEELNS0_6_TraitE1EE9__destroyB8ne180100EvEUlRT_E_JRNS0_6__baseILSD_1EJSA_SB_EEEEEEDcSF_DpT0_
FNA:25,1,_ZNSt3__116__variant_detail12__visitation6__base12__dispatcherIJLm1EEE10__dispatchB8ne180100IOZNS0_6__dtorINS0_8__traitsIJN7pyfolio10TimeSeriesIdEENS8_5ErrorEEEELNS0_6_TraitE1EE9__destroyB8ne180100EvEUlRT_E_JRNS0_6__baseILSD_1EJSA_SB_EEEEEEDcSF_DpT0_
FNA:25,0,_ZNSt3__116__variant_detail12__visitation6__base12__dispatcherIJLm1EEE10__dispatchB8ne180100IOZNS0_6__dtorINS0_8__traitsIJN7pyfolio18PerformanceMetrics18CaptureRatioResultENS8_5ErrorEEEELNS0_6_TraitE1EE9__destroyB8ne180100EvEUlRT_E_JRNS0_6__baseILSD_1EJSA_SB_EEEEEEDcSF_DpT0_
FNA:25,2,_ZNSt3__116__variant_detail12__visitation6__base12__dispatcherIJLm1EEE10__dispatchB8ne180100IOZNS0_6__dtorINS0_8__traitsIJN7pyfolio8DateTimeENS8_5ErrorEEEELNS0_6_TraitE1EE9__destroyB8ne180100EvEUlRT_E_JRNS0_6__baseILSC_1EJS9_SA_EEEEEEDcSE_DpT0_
FNA:25,2,_ZNSt3__116__variant_detail12__visitation6__base12__dispatcherIJLm1EEE10__dispatchB8ne180100IOZNS0_6__dtorINS0_8__traitsIJN7pyfolio9analytics10statistics18StatisticalSummaryENS8_5ErrorEEEELNS0_6_TraitE1EE9__destroyB8ne180100EvEUlRT_E_JRNS0_6__baseILSE_1EJSB_SC_EEEEEEDcSG_DpT0_
FNA:25,0,_ZNSt3__116__variant_detail12__visitation6__base12__dispatcherIJLm1EEE10__dispatchB8ne180100IOZNS0_6__dtorINS0_8__traitsIJN7pyfolio9analytics18PerformanceMetricsENS8_5ErrorEEEELNS0_6_TraitE1EE9__destroyB8ne180100EvEUlRT_E_JRNS0_6__baseILSD_1EJSA_SB_EEEEEEDcSF_DpT0_
FNA:25,0,_ZNSt3__116__variant_detail12__visitation6__base12__dispatcherIJLm1EEE10__dispatchB8ne180100IOZNS0_6__dtorINS0_8__traitsIJNS_4pairIN7pyfolio10TimeSeriesIdEESB_EENS9_5ErrorEEEELNS0_6_TraitE1EE9__destroyB8ne180100EvEUlRT_E_JRNS0_6__baseILSF_1EJSC_SD_EEEEEEDcSH_DpT0_
FNA:25,0,_ZNSt3__116__variant_detail12__visitation6__base12__dispatcherIJLm1EEE10__dispatchB8ne180100IOZNS0_6__dtorINS0_8__traitsIJNS_6vectorIN7pyfolio11performance12DrawdownInfoENS_9allocatorISB_EEEENS9_5ErrorEEEELNS0_6_TraitE1EE9__destroyB8ne180100EvEUlRT_E_JRNS0_6__baseILSH_1EJSE_SF_EEEEEEDcSJ_DpT0_
FNA:25,0,_ZNSt3__116__variant_detail12__visitation6__base12__dispatcherIJLm1EEE10__dispatchB8ne180100IOZNS0_6__dtorINS0_8__traitsIJNS_6vectorIdNS_9allocatorIdEEEEN7pyfolio5ErrorEEEELNS0_6_TraitE1EE9__destroyB8ne180100EvEUlRT_E_JRNS0_6__baseILSF_1EJSB_SD_EEEEEEDcSH_DpT0_
FNA:25,11,_ZNSt3__116__variant_detail12__visitation6__base12__dispatcherIJLm1EEE10__dispatchB8ne180100IOZNS0_6__dtorINS0_8__traitsIJdN7pyfolio5ErrorEEEELNS0_6_TraitE1EE9__destroyB8ne180100EvEUlRT_E_JRNS0_6__baseILSB_1EJdS9_EEEEEEDcSD_DpT0_
FNA:25,1,_ZNSt3__116__variant_detail12__visitation6__base12__dispatcherIJLm1EEE10__dispatchB8ne180100IOZNS0_6__dtorINS0_8__traitsIJiN7pyfolio5ErrorEEEELNS0_6_TraitE1EE9__destroyB8ne180100EvEUlRT_E_JRNS0_6__baseILSB_1EJiS9_EEEEEEDcSD_DpT0_
FNA:25,0,_ZNSt3__116__variant_detail12__visitation6__base12__dispatcherIJLm1ELm1EEE10__dispatchB8ne180100IOZNS0_6__ctorINS0_8__traitsIJN7pyfolio10TimeSeriesIdEENS8_5ErrorEEEEE19__generic_constructB8ne180100INS0_18__move_constructorISC_LNS0_6_TraitE1EEEEEvRSD_OT_EUlRSJ_OT0_E_JRNS0_6__baseILSG_1EJSA_SB_EEEOSR_EEEDcSJ_DpT0_
FNA:25,1,_ZNSt3__116__variant_detail12__visitation6__base12__dispatcherIJLm1ELm1EEE10__dispatchB8ne180100IOZNS0_6__ctorINS0_8__traitsIJdN7pyfolio5ErrorEEEEE19__generic_constructB8ne180100INS0_18__move_constructorISA_LNS0_6_TraitE1EEEEEvRSB_OT_EUlRSH_OT0_E_JRNS0_6__baseILSE_1EJdS9_EEEOSP_EEEDcSH_DpT0_
FNL:26,657
FNA:26,13,_ZNSt3__116__variant_detail5__altILm0EN7pyfolio10TimeSeriesIdEEED1Ev
FNA:26,13,_ZNSt3__116__variant_detail5__altILm0EN7pyfolio10TimeSeriesIdEEED2Ev
FNA:26,1,_ZNSt3__116__variant_detail5__altILm0ENS_4pairIN7pyfolio10TimeSeriesIdEES5_EEED1Ev
FNA:26,1,_ZNSt3__116__variant_detail5__altILm0ENS_4pairIN7pyfolio10TimeSeriesIdEES5_EEED2Ev
FNA:26,0,_ZNSt3__116__variant_detail5__altILm0ENS_6vectorIN7pyfolio11performance12DrawdownInfoENS_9allocatorIS5_EEEEED1Ev
FNA:26,0,_ZNSt3__116__variant_detail5__altILm0ENS_6vectorIN7pyfolio11performance12DrawdownInfoENS_9allocatorIS5_EEEEED2Ev
FNA:26,0,_ZNSt3__116__variant_detail5__altILm0ENS_6vectorIdNS_9allocatorIdEEEEED1Ev
FNA:26,0,_ZNSt3__116__variant_detail5__altILm0ENS_6vectorIdNS_9allocatorIdEEEEED2Ev
FNA:26,17,_ZNSt3__116__variant_detail5__altILm1EN7pyfolio5ErrorEED1Ev
FNA:26,17,_ZNSt3__116__variant_detail5__altILm1EN7pyfolio5ErrorEED2Ev
FNL:27,661
FNA:27,2,_ZNSt3__116__variant_detail5__altILm0EN7pyfolio10Statistics15AlphaBetaResultEEC1B8ne180100IJRKS4_EEENS_10in_place_tEDpOT_
FNA:27,2,_ZNSt3__116__variant_detail5__altILm0EN7pyfolio10Statistics15AlphaBetaResultEEC2B8ne180100IJRKS4_EEENS_10in_place_tEDpOT_
FNA:27,2,_ZNSt3__116__variant_detail5__altILm0EN7pyfolio10Statistics18SimpleDrawdownInfoEEC1B8ne180100IJRKS4_EEENS_10in_place_tEDpOT_
FNA:27,2,_ZNSt3__116__variant_detail5__altILm0EN7pyfolio10Statistics18SimpleDrawdownInfoEEC2B8ne180100IJRKS4_EEENS_10in_place_tEDpOT_
FNA:27,1,_ZNSt3__116__variant_detail5__altILm0EN7pyfolio10TimeSeriesIdEEEC1B8ne180100IJRKS4_EEENS_10in_place_tEDpOT_
FNA:27,12,_ZNSt3__116__variant_detail5__altILm0EN7pyfolio10TimeSeriesIdEEEC1B8ne180100IJS4_EEENS_10in_place_tEDpOT_
FNA:27,1,_ZNSt3__116__variant_detail5__altILm0EN7pyfolio10TimeSeriesIdEEEC2B8ne180100IJRKS4_EEENS_10in_place_tEDpOT_
FNA:27,12,_ZNSt3__116__variant_detail5__altILm0EN7pyfolio10TimeSeriesIdEEEC2B8ne180100IJS4_EEENS_10in_place_tEDpOT_
FNA:27,0,_ZNSt3__116__variant_detail5__altILm0EN7pyfolio11performance12DrawdownInfoEEC1B8ne180100IJRKS4_EEENS_10in_place_tEDpOT_
FNA:27,0,_ZNSt3__116__variant_detail5__altILm0EN7pyfolio11performance12DrawdownInfoEEC2B8ne180100IJRKS4_EEENS_10in_place_tEDpOT_
FNA:27,1,_ZNSt3__116__variant_detail5__altILm0EN7pyfolio18PerformanceMetrics18CaptureRatioResultEEC1B8ne180100IJRKS4_EEENS_10in_place_tEDpOT_
FNA:27,1,_ZNSt3__116__variant_detail5__altILm0EN7pyfolio18PerformanceMetrics18CaptureRatioResultEEC2B8ne180100IJRKS4_EEENS_10in_place_tEDpOT_
FNA:27,389,_ZNSt3__116__variant_detail5__altILm0EN7pyfolio8DateTimeEEC1B8ne180100IJS3_EEENS_10in_place_tEDpOT_
FNA:27,389,_ZNSt3__116__variant_detail5__altILm0EN7pyfolio8DateTimeEEC2B8ne180100IJS3_EEENS_10in_place_tEDpOT_
FNA:27,1,_ZNSt3__116__variant_detail5__altILm0EN7pyfolio9analytics10statistics18StatisticalSummaryEEC1B8ne180100IJS5_EEENS_10in_place_tEDpOT_
FNA:27,1,_ZNSt3__116__variant_detail5__altILm0EN7pyfolio9analytics10statistics18StatisticalSummaryEEC2B8ne180100IJS5_EEENS_10in_place_tEDpOT_
FNA:27,1,_ZNSt3__116__variant_detail5__altILm0EN7pyfolio9analytics18PerformanceMetricsEEC1B8ne180100IJRKS4_EEENS_10in_place_tEDpOT_
FNA:27,1,_ZNSt3__116__variant_detail5__altILm0EN7pyfolio9analytics18PerformanceMetricsEEC2B8ne180100IJRKS4_EEENS_10in_place_tEDpOT_
FNA:27,1,_ZNSt3__116__variant_detail5__altILm0ENS_4pairIN7pyfolio10TimeSeriesIdEES5_EEEC1B8ne180100IJS6_EEENS_10in_place_tEDpOT_
FNA:27,1,_ZNSt3__116__variant_detail5__altILm0ENS_4pairIN7pyfolio10TimeSeriesIdEES5_EEEC2B8ne180100IJS6_EEENS_10in_place_tEDpOT_
FNA:27,0,_ZNSt3__116__variant_detail5__altILm0ENS_6vectorIN7pyfolio11performance12DrawdownInfoENS_9allocatorIS5_EEEEEC1B8ne180100IJS8_EEENS_10in_place_tEDpOT_
FNA:27,0,_ZNSt3__116__variant_detail5__altILm0ENS_6vectorIN7pyfolio11performance12DrawdownInfoENS_9allocatorIS5_EEEEEC2B8ne180100IJS8_EEENS_10in_place_tEDpOT_
FNA:27,0,_ZNSt3__116__variant_detail5__altILm0ENS_6vectorIdNS_9allocatorIdEEEEEC1B8ne180100IJS5_EEENS_10in_place_tEDpOT_
FNA:27,0,_ZNSt3__116__variant_detail5__altILm0ENS_6vectorIdNS_9allocatorIdEEEEEC2B8ne180100IJS5_EEENS_10in_place_tEDpOT_
FNA:27,20,_ZNSt3__116__variant_detail5__altILm0EdEC1B8ne180100IJRKdEEENS_10in_place_tEDpOT_
FNA:27,100074,_ZNSt3__116__variant_detail5__altILm0EdEC1B8ne180100IJdEEENS_10in_place_tEDpOT_
FNA:27,20,_ZNSt3__116__variant_detail5__altILm0EdEC2B8ne180100IJRKdEEENS_10in_place_tEDpOT_
FNA:27,100074,_ZNSt3__116__variant_detail5__altILm0EdEC2B8ne180100IJdEEENS_10in_place_tEDpOT_
FNA:27,12,_ZNSt3__116__variant_detail5__altILm0EiEC1B8ne180100IJiEEENS_10in_place_tEDpOT_
FNA:27,12,_ZNSt3__116__variant_detail5__altILm0EiEC2B8ne180100IJiEEENS_10in_place_tEDpOT_
FNA:27,0,_ZNSt3__116__variant_detail5__altILm1EN7pyfolio5ErrorEEC1B8ne180100IJRKS3_EEENS_10in_place_tEDpOT_
FNA:27,17,_ZNSt3__116__variant_detail5__altILm1EN7pyfolio5ErrorEEC1B8ne180100IJS3_EEENS_10in_place_tEDpOT_
FNA:27,0,_ZNSt3__116__variant_detail5__altILm1EN7pyfolio5ErrorEEC2B8ne180100IJRKS3_EEENS_10in_place_tEDpOT_
FNA:27,17,_ZNSt3__116__variant_detail5__altILm1EN7pyfolio5ErrorEEC2B8ne180100IJS3_EEENS_10in_place_tEDpOT_
FNL:28,705
FNA:28,2,_ZNSt3__116__variant_detail7__unionILNS0_6_TraitE1ELm0EJN7pyfolio10Statistics15AlphaBetaResultENS3_5ErrorEEEC1B8ne180100IJRKS5_EEENS_16in_place_index_tILm0EEEDpOT_
FNA:28,0,_ZNSt3__116__variant_detail7__unionILNS0_6_TraitE1ELm0EJN7pyfolio10Statistics15AlphaBetaResultENS3_5ErrorEEEC1B8ne180100ILm1EJS6_EEENS_16in_place_index_tIXT_EEEDpOT0_
FNA:28,2,_ZNSt3__116__variant_detail7__unionILNS0_6_TraitE1ELm0EJN7pyfolio10Statistics15AlphaBetaResultENS3_5ErrorEEEC2B8ne180100IJRKS5_EEENS_16in_place_index_tILm0EEEDpOT_
FNA:28,0,_ZNSt3__116__variant_detail7__unionILNS0_6_TraitE1ELm0EJN7pyfolio10Statistics15AlphaBetaResultENS3_5ErrorEEEC2B8ne180100ILm1EJS6_EEENS_16in_place_index_tIXT_EEEDpOT0_
FNA:28,2,_ZNSt3__116__variant_detail7__unionILNS0_6_TraitE1ELm0EJN7pyfolio10Statistics15AlphaBetaResultENS3_5ErrorEEED1Ev
FNA:28,2,_ZNSt3__116__variant_detail7__unionILNS0_6_TraitE1ELm0EJN7pyfolio10Statistics15AlphaBetaResultENS3_5ErrorEEED2Ev
FNA:28,2,_ZNSt3__116__variant_detail7__unionILNS0_6_TraitE1ELm0EJN7pyfolio10Statistics18SimpleDrawdownInfoENS3_5ErrorEEEC1B8ne180100IJRKS5_EEENS_16in_place_index_tILm0EEEDpOT_
FNA:28,0,_ZNSt3__116__variant_detail7__unionILNS0_6_TraitE1ELm0EJN7pyfolio10Statistics18SimpleDrawdownInfoENS3_5ErrorEEEC1B8ne180100ILm1EJS6_EEENS_16in_place_index_tIXT_EEEDpOT0_
FNA:28,2,_ZNSt3__116__variant_detail7__unionILNS0_6_TraitE1ELm0EJN7pyfolio10Statistics18SimpleDrawdownInfoENS3_5ErrorEEEC2B8ne180100IJRKS5_EEENS_16in_place_index_tILm0EEEDpOT_
FNA:28,0,_ZNSt3__116__variant_detail7__unionILNS0_6_TraitE1ELm0EJN7pyfolio10Statistics18SimpleDrawdownInfoENS3_5ErrorEEEC2B8ne180100ILm1EJS6_EEENS_16in_place_index_tIXT_EEEDpOT0_
FNA:28,2,_ZNSt3__116__variant_detail7__unionILNS0_6_TraitE1ELm0EJN7pyfolio10Statistics18SimpleDrawdownInfoENS3_5ErrorEEED1Ev
FNA:28,2,_ZNSt3__116__variant_detail7__unionILNS0_6_TraitE1ELm0EJN7pyfolio10Statistics18SimpleDrawdownInfoENS3_5ErrorEEED2Ev
FNA:28,0,_ZNSt3__116__variant_detail7__unionILNS0_6_TraitE1ELm0EJN7pyfolio10TimeSeriesIdEENS3_5ErrorEEEC1B8ne180100ENS0_13__valueless_tE
FNA:28,1,_ZNSt3__116__variant_detail7__unionILNS0_6_TraitE1ELm0EJN7pyfolio10TimeSeriesIdEENS3_5ErrorEEEC1B8ne180100IJRKS5_EEENS_16in_place_index_tILm0EEEDpOT_
FNA:28,12,_ZNSt3__116__variant_detail7__unionILNS0_6_TraitE1ELm0EJN7pyfolio10TimeSeriesIdEENS3_5ErrorEEEC1B8ne180100IJS5_EEENS_16in_place_index_tILm0EEEDpOT_
FNA:28,1,_ZNSt3__116__variant_detail7__unionILNS0_6_TraitE1ELm0EJN7pyfolio10TimeSeriesIdEENS3_5ErrorEEEC1B8ne180100ILm1EJS6_EEENS_16in_place_index_tIXT_EEEDpOT0_
FNA:28,0,_ZNSt3__116__variant_detail7__unionILNS0_6_TraitE1ELm0EJN7pyfolio10TimeSeriesIdEENS3_5ErrorEEEC2B8ne180100ENS0_13__valueless_tE
FNA:28,1,_ZNSt3__116__variant_detail7__unionILNS0_6_TraitE1ELm0EJN7pyfolio10TimeSeriesIdEENS3_5ErrorEEEC2B8ne180100IJRKS5_EEENS_16in_place_index_tILm0EEEDpOT_
FNA:28,12,_ZNSt3__116__variant_detail7__unionILNS0_6_TraitE1ELm0EJN7pyfolio10TimeSeriesIdEENS3_5ErrorEEEC2B8ne180100IJS5_EEENS_16in_place_index_tILm0EEEDpOT_
FNA:28,1,_ZNSt3__116__variant_detail7__unionILNS0_6_TraitE1ELm0EJN7pyfolio10TimeSeriesIdEENS3_5ErrorEEEC2B8ne180100ILm1EJS6_EEENS_16in_place_index_tIXT_EEEDpOT0_
FNA:28,14,_ZNSt3__116__variant_detail7__unionILNS0_6_TraitE1ELm0EJN7pyfolio10TimeSeriesIdEENS3_5ErrorEEED1Ev
FNA:28,14,_ZNSt3__116__variant_detail7__unionILNS0_6_TraitE1ELm0EJN7pyfolio10TimeSeriesIdEENS3_5ErrorEEED2Ev
FNA:28,0,_ZNSt3__116__variant_detail7__unionILNS0_6_TraitE1ELm0EJN7pyfolio11performance12DrawdownInfoENS3_5ErrorEEEC1B8ne180100IJRKS5_EEENS_16in_place_index_tILm0EEEDpOT_
FNA:28,0,_ZNSt3__116__variant_detail7__unionILNS0_6_TraitE1ELm0EJN7pyfolio11performance12DrawdownInfoENS3_5ErrorEEEC1B8ne180100ILm1EJS6_EEENS_16in_place_index_tIXT_EEEDpOT0_
FNA:28,0,_ZNSt3__116__variant_detail7__unionILNS0_6_TraitE1ELm0EJN7pyfolio11performance12DrawdownInfoENS3_5ErrorEEEC2B8ne180100IJRKS5_EEENS_16in_place_index_tILm0EEEDpOT_
FNA:28,0,_ZNSt3__116__variant_detail7__unionILNS0_6_TraitE1ELm0EJN7pyfolio11performance12DrawdownInfoENS3_5ErrorEEEC2B8ne180100ILm1EJS6_EEENS_16in_place_index_tIXT_EEEDpOT0_
FNA:28,1,_ZNSt3__116__variant_detail7__unionILNS0_6_TraitE1ELm0EJN7pyfolio18PerformanceMetrics18CaptureRatioResultENS3_5ErrorEEEC1B8ne180100IJRKS5_EEENS_16in_place_index_tILm0EEEDpOT_
FNA:28,1,_ZNSt3__116__variant_detail7__unionILNS0_6_TraitE1ELm0EJN7pyfolio18PerformanceMetrics18CaptureRatioResultENS3_5ErrorEEEC2B8ne180100IJRKS5_EEENS_16in_place_index_tILm0EEEDpOT_
FNA:28,1,_ZNSt3__116__variant_detail7__unionILNS0_6_TraitE1ELm0EJN7pyfolio18PerformanceMetrics18CaptureRatioResultENS3_5ErrorEEED1Ev
FNA:28,1,_ZNSt3__116__variant_detail7__unionILNS0_6_TraitE1ELm0EJN7pyfolio18PerformanceMetrics18CaptureRatioResultENS3_5ErrorEEED2Ev
FNA:28,389,_ZNSt3__116__variant_detail7__unionILNS0_6_TraitE1ELm0EJN7pyfolio8DateTimeENS3_5ErrorEEEC1B8ne180100IJS4_EEENS_16in_place_index_tILm0EEEDpOT_
FNA:28,2,_ZNSt3__116__variant_detail7__unionILNS0_6_TraitE1ELm0EJN7pyfolio8DateTimeENS3_5ErrorEEEC1B8ne180100ILm1EJS5_EEENS_16in_place_index_tIXT_EEEDpOT0_
FNA:28,389,_ZNSt3__116__variant_detail7__unionILNS0_6_TraitE1ELm0EJN7pyfolio8DateTimeENS3_5ErrorEEEC2B8ne180100IJS4_EEENS_16in_place_index_tILm0EEEDpOT_
FNA:28,2,_ZNSt3__116__variant_detail7__unionILNS0_6_TraitE1ELm0EJN7pyfolio8DateTimeENS3_5ErrorEEEC2B8ne180100ILm1EJS5_EEENS_16in_place_index_tIXT_EEEDpOT0_
FNA:28,391,_ZNSt3__116__variant_detail7__unionILNS0_6_TraitE1ELm0EJN7pyfolio8DateTimeENS3_5ErrorEEED1Ev
FNA:28,391,_ZNSt3__116__variant_detail7__unionILNS0_6_TraitE1ELm0EJN7pyfolio8DateTimeENS3_5ErrorEEED2Ev
FNA:28,1,_ZNSt3__116__variant_detail7__unionILNS0_6_TraitE1ELm0EJN7pyfolio9analytics10statistics18StatisticalSummaryENS3_5ErrorEEEC1B8ne180100IJS6_EEENS_16in_place_index_tILm0EEEDpOT_
FNA:28,2,_ZNSt3__116__variant_detail7__unionILNS0_6_TraitE1ELm0EJN7pyfolio9analytics10statistics18StatisticalSummaryENS3_5ErrorEEEC1B8ne180100ILm1EJS7_EEENS_16in_place_index_tIXT_EEEDpOT0_
FNA:28,1,_ZNSt3__116__variant_detail7__unionILNS0_6_TraitE1ELm0EJN7pyfolio9analytics10statistics18StatisticalSummaryENS3_5ErrorEEEC2B8ne180100IJS6_EEENS_16in_place_index_tILm0EEEDpOT_
FNA:28,2,_ZNSt3__116__variant_detail7__unionILNS0_6_TraitE1ELm0EJN7pyfolio9analytics10statistics18StatisticalSummaryENS3_5ErrorEEEC2B8ne180100ILm1EJS7_EEENS_16in_place_index_tIXT_EEEDpOT0_
FNA:28,3,_ZNSt3__116__variant_detail7__unionILNS0_6_TraitE1ELm0EJN7pyfolio9analytics10statistics18StatisticalSummaryENS3_5ErrorEEED1Ev
FNA:28,3,_ZNSt3__116__variant_detail7__unionILNS0_6_TraitE1ELm0EJN7pyfolio9analytics10statistics18StatisticalSummaryENS3_5ErrorEEED2Ev
FNA:28,1,_ZNSt3__116__variant_detail7__unionILNS0_6_TraitE1ELm0EJN7pyfolio9analytics18PerformanceMetricsENS3_5ErrorEEEC1B8ne180100IJRKS5_EEENS_16in_place_index_tILm0EEEDpOT_
FNA:28,1,_ZNSt3__116__variant_detail7__unionILNS0_6_TraitE1ELm0EJN7pyfolio9analytics18PerformanceMetricsENS3_5ErrorEEEC2B8ne180100IJRKS5_EEENS_16in_place_index_tILm0EEEDpOT_
FNA:28,1,_ZNSt3__116__variant_detail7__unionILNS0_6_TraitE1ELm0EJN7pyfolio9analytics18PerformanceMetricsENS3_5ErrorEEED1Ev
FNA:28,1,_ZNSt3__116__variant_detail7__unionILNS0_6_TraitE1ELm0EJN7pyfolio9analytics18PerformanceMetricsENS3_5ErrorEEED2Ev
FNA:28,1,_ZNSt3__116__variant_detail7__unionILNS0_6_TraitE1ELm0EJNS_4pairIN7pyfolio10TimeSeriesIdEES6_EENS4_5ErrorEEEC1B8ne180100IJS7_EEENS_16in_place_index_tILm0EEEDpOT_
FNA:28,1,_ZNSt3__116__variant_detail7__unionILNS0_6_TraitE1ELm0EJNS_4pairIN7pyfolio10TimeSeriesIdEES6_EENS4_5ErrorEEEC2B8ne180100IJS7_EEENS_16in_place_index_tILm0EEEDpOT_
FNA:28,1,_ZNSt3__116__variant_detail7__unionILNS0_6_TraitE1ELm0EJNS_4pairIN7pyfolio10TimeSeriesIdEES6_EENS4_5ErrorEEED1Ev
FNA:28,1,_ZNSt3__116__variant_detail7__unionILNS0_6_TraitE1ELm0EJNS_4pairIN7pyfolio10TimeSeriesIdEES6_EENS4_5ErrorEEED2Ev
FNA:28,0,_ZNSt3__116__variant_detail7__unionILNS0_6_TraitE1ELm0EJNS_6vectorIN7pyfolio11performance12DrawdownInfoENS_9allocatorIS6_EEEENS4_5ErrorEEEC1B8ne180100IJS9_EEENS_16in_place_index_tILm0EEEDpOT_
FNA:28,0,_ZNSt3__116__variant_detail7__unionILNS0_6_TraitE1ELm0EJNS_6vectorIN7pyfolio11performance12DrawdownInfoENS_9allocatorIS6_EEEENS4_5ErrorEEEC1B8ne180100ILm1EJSA_EEENS_16in_place_index_tIXT_EEEDpOT0_
FNA:28,0,_ZNSt3__116__variant_detail7__unionILNS0_6_TraitE1ELm0EJNS_6vectorIN7pyfolio11performance12DrawdownInfoENS_9allocatorIS6_EEEENS4_5ErrorEEEC2B8ne180100IJS9_EEENS_16in_place_index_tILm0EEEDpOT_
FNA:28,0,_ZNSt3__116__variant_detail7__unionILNS0_6_TraitE1ELm0EJNS_6vectorIN7pyfolio11performance12DrawdownInfoENS_9allocatorIS6_EEEENS4_5ErrorEEEC2B8ne180100ILm1EJSA_EEENS_16in_place_index_tIXT_EEEDpOT0_
FNA:28,0,_ZNSt3__116__variant_detail7__unionILNS0_6_TraitE1ELm0EJNS_6vectorIN7pyfolio11performance12DrawdownInfoENS_9allocatorIS6_EEEENS4_5ErrorEEED1Ev
FNA:28,0,_ZNSt3__116__variant_detail7__unionILNS0_6_TraitE1ELm0EJNS_6vectorIN7pyfolio11performance12DrawdownInfoENS_9allocatorIS6_EEEENS4_5ErrorEEED2Ev
FNA:28,0,_ZNSt3__116__variant_detail7__unionILNS0_6_TraitE1ELm0EJNS_6vectorIdNS_9allocatorIdEEEEN7pyfolio5ErrorEEEC1B8ne180100IJS6_EEENS_16in_place_index_tILm0EEEDpOT_
FNA:28,0,_ZNSt3__116__variant_detail7__unionILNS0_6_TraitE1ELm0EJNS_6vectorIdNS_9allocatorIdEEEEN7pyfolio5ErrorEEEC1B8ne180100ILm1EJS8_EEENS_16in_place_index_tIXT_EEEDpOT0_
FNA:28,0,_ZNSt3__116__variant_detail7__unionILNS0_6_TraitE1ELm0EJNS_6vectorIdNS_9allocatorIdEEEEN7pyfolio5ErrorEEEC2B8ne180100IJS6_EEENS_16in_place_index_tILm0EEEDpOT_
FNA:28,0,_ZNSt3__116__variant_detail7__unionILNS0_6_TraitE1ELm0EJNS_6vectorIdNS_9allocatorIdEEEEN7pyfolio5ErrorEEEC2B8ne180100ILm1EJS8_EEENS_16in_place_index_tIXT_EEEDpOT0_
FNA:28,0,_ZNSt3__116__variant_detail7__unionILNS0_6_TraitE1ELm0EJNS_6vectorIdNS_9allocatorIdEEEEN7pyfolio5ErrorEEED1Ev
FNA:28,0,_ZNSt3__116__variant_detail7__unionILNS0_6_TraitE1ELm0EJNS_6vectorIdNS_9allocatorIdEEEEN7pyfolio5ErrorEEED2Ev
FNA:28,1,_ZNSt3__116__variant_detail7__unionILNS0_6_TraitE1ELm0EJdN7pyfolio5ErrorEEEC1B8ne180100ENS0_13__valueless_tE
FNA:28,20,_ZNSt3__116__variant_detail7__unionILNS0_6_TraitE1ELm0EJdN7pyfolio5ErrorEEEC1B8ne180100IJRKdEEENS_16in_place_index_tILm0EEEDpOT_
FNA:28,100074,_ZNSt3__116__variant_detail7__unionILNS0_6_TraitE1ELm0EJdN7pyfolio5ErrorEEEC1B8ne180100IJdEEENS_16in_place_index_tILm0EEEDpOT_
FNA:28,0,_ZNSt3__116__variant_detail7__unionILNS0_6_TraitE1ELm0EJdN7pyfolio5ErrorEEEC1B8ne180100ILm1EJRKS4_EEENS_16in_place_index_tIXT_EEEDpOT0_
FNA:28,10,_ZNSt3__116__variant_detail7__unionILNS0_6_TraitE1ELm0EJdN7pyfolio5ErrorEEEC1B8ne180100ILm1EJS4_EEENS_16in_place_index_tIXT_EEEDpOT0_
FNA:28,1,_ZNSt3__116__variant_detail7__unionILNS0_6_TraitE1ELm0EJdN7pyfolio5ErrorEEEC2B8ne180100ENS0_13__valueless_tE
FNA:28,20,_ZNSt3__116__variant_detail7__unionILNS0_6_TraitE1ELm0EJdN7pyfolio5ErrorEEEC2B8ne180100IJRKdEEENS_16in_place_index_tILm0EEEDpOT_
FNA:28,100074,_ZNSt3__116__variant_detail7__unionILNS0_6_TraitE1ELm0EJdN7pyfolio5ErrorEEEC2B8ne180100IJdEEENS_16in_place_index_tILm0EEEDpOT_
FNA:28,0,_ZNSt3__116__variant_detail7__unionILNS0_6_TraitE1ELm0EJdN7pyfolio5ErrorEEEC2B8ne180100ILm1EJRKS4_EEENS_16in_place_index_tIXT_EEEDpOT0_
FNA:28,10,_ZNSt3__116__variant_detail7__unionILNS0_6_TraitE1ELm0EJdN7pyfolio5ErrorEEEC2B8ne180100ILm1EJS4_EEENS_16in_place_index_tIXT_EEEDpOT0_
FNA:28,100105,_ZNSt3__116__variant_detail7__unionILNS0_6_TraitE1ELm0EJdN7pyfolio5ErrorEEED1Ev
FNA:28,100105,_ZNSt3__116__variant_detail7__unionILNS0_6_TraitE1ELm0EJdN7pyfolio5ErrorEEED2Ev
FNA:28,12,_ZNSt3__116__variant_detail7__unionILNS0_6_TraitE1ELm0EJiN7pyfolio5ErrorEEEC1B8ne180100IJiEEENS_16in_place_index_tILm0EEEDpOT_
FNA:28,1,_ZNSt3__116__variant_detail7__unionILNS0_6_TraitE1ELm0EJiN7pyfolio5ErrorEEEC1B8ne180100ILm1EJS4_EEENS_16in_place_index_tIXT_EEEDpOT0_
FNA:28,12,_ZNSt3__116__variant_detail7__unionILNS0_6_TraitE1ELm0EJiN7pyfolio5ErrorEEEC2B8ne180100IJiEEENS_16in_place_index_tILm0EEEDpOT_
FNA:28,1,_ZNSt3__116__variant_detail7__unionILNS0_6_TraitE1ELm0EJiN7pyfolio5ErrorEEEC2B8ne180100ILm1EJS4_EEENS_16in_place_index_tIXT_EEEDpOT0_
FNA:28,13,_ZNSt3__116__variant_detail7__unionILNS0_6_TraitE1ELm0EJiN7pyfolio5ErrorEEED1Ev
FNA:28,13,_ZNSt3__116__variant_detail7__unionILNS0_6_TraitE1ELm0EJiN7pyfolio5ErrorEEED2Ev
FNA:28,0,_ZNSt3__116__variant_detail7__unionILNS0_6_TraitE1ELm1EJN7pyfolio5ErrorEEEC1B8ne180100IJRKS4_EEENS_16in_place_index_tILm0EEEDpOT_
FNA:28,16,_ZNSt3__116__variant_detail7__unionILNS0_6_TraitE1ELm1EJN7pyfolio5ErrorEEEC1B8ne180100IJS4_EEENS_16in_place_index_tILm0EEEDpOT_
FNA:28,0,_ZNSt3__116__variant_detail7__unionILNS0_6_TraitE1ELm1EJN7pyfolio5ErrorEEEC2B8ne180100IJRKS4_EEENS_16in_place_index_tILm0EEEDpOT_
FNA:28,16,_ZNSt3__116__variant_detail7__unionILNS0_6_TraitE1ELm1EJN7pyfolio5ErrorEEEC2B8ne180100IJS4_EEENS_16in_place_index_tILm0EEEDpOT_
FNL:29,711
FNA:29,2,_ZNSt3__116__variant_detail6__baseILNS0_6_TraitE1EJN7pyfolio10Statistics15AlphaBetaResultENS3_5ErrorEEED2Ev
FNA:29,2,_ZNSt3__116__variant_detail6__baseILNS0_6_TraitE1EJN7pyfolio10Statistics18SimpleDrawdownInfoENS3_5ErrorEEED2Ev
FNA:29,14,_ZNSt3__116__variant_detail6__baseILNS0_6_TraitE1EJN7pyfolio10TimeSeriesIdEENS3_5ErrorEEED2Ev
FNA:29,1,_ZNSt3__116__variant_detail6__baseILNS0_6_TraitE1EJN7pyfolio18PerformanceMetrics18CaptureRatioResultENS3_5ErrorEEED2Ev
FNA:29,391,_ZNSt3__116__variant_detail6__baseILNS0_6_TraitE1EJN7pyfolio8DateTimeENS3_5ErrorEEED2Ev
FNA:29,3,_ZNSt3__116__variant_detail6__baseILNS0_6_TraitE1EJN7pyfolio9analytics10statistics18StatisticalSummaryENS3_5ErrorEEED2Ev
FNA:29,1,_ZNSt3__116__variant_detail6__baseILNS0_6_TraitE1EJN7pyfolio9analytics18PerformanceMetricsENS3_5ErrorEEED2Ev
FNA:29,1,_ZNSt3__116__variant_detail6__baseILNS0_6_TraitE1EJNS_4pairIN7pyfolio10TimeSeriesIdEES6_EENS4_5ErrorEEED2Ev
FNA:29,0,_ZNSt3__116__variant_detail6__baseILNS0_6_TraitE1EJNS_6vectorIN7pyfolio11performance12DrawdownInfoENS_9allocatorIS6_EEEENS4_5ErrorEEED2Ev
FNA:29,0,_ZNSt3__116__variant_detail6__baseILNS0_6_TraitE1EJNS_6vectorIdNS_9allocatorIdEEEEN7pyfolio5ErrorEEED2Ev
FNA:29,100105,_ZNSt3__116__variant_detail6__baseILNS0_6_TraitE1EJdN7pyfolio5ErrorEEED2Ev
FNA:29,13,_ZNSt3__116__variant_detail6__baseILNS0_6_TraitE1EJiN7pyfolio5ErrorEEED2Ev
FNL:30,715
FNA:30,0,_ZNSt3__116__variant_detail6__baseILNS0_6_TraitE1EJN7pyfolio10TimeSeriesIdEENS3_5ErrorEEEC2B8ne180100ENS0_13__valueless_tE
FNA:30,1,_ZNSt3__116__variant_detail6__baseILNS0_6_TraitE1EJdN7pyfolio5ErrorEEEC2B8ne180100ENS0_13__valueless_tE
FNL:31,719
FNA:31,2,_ZNSt3__116__variant_detail6__baseILNS0_6_TraitE1EJN7pyfolio10Statistics15AlphaBetaResultENS3_5ErrorEEEC2B8ne180100ILm0EJRKS5_EEENS_16in_place_index_tIXT_EEEDpOT0_
FNA:31,0,_ZNSt3__116__variant_detail6__baseILNS0_6_TraitE1EJN7pyfolio10Statistics15AlphaBetaResultENS3_5ErrorEEEC2B8ne180100ILm1EJS6_EEENS_16in_place_index_tIXT_EEEDpOT0_
FNA:31,2,_ZNSt3__116__variant_detail6__baseILNS0_6_TraitE1EJN7pyfolio10Statistics18SimpleDrawdownInfoENS3_5ErrorEEEC2B8ne180100ILm0EJRKS5_EEENS_16in_place_index_tIXT_EEEDpOT0_
FNA:31,0,_ZNSt3__116__variant_detail6__baseILNS0_6_TraitE1EJN7pyfolio10Statistics18SimpleDrawdownInfoENS3_5ErrorEEEC2B8ne180100ILm1EJS6_EEENS_16in_place_index_tIXT_EEEDpOT0_
FNA:31,1,_ZNSt3__116__variant_detail6__baseILNS0_6_TraitE1EJN7pyfolio10TimeSeriesIdEENS3_5ErrorEEEC2B8ne180100ILm0EJRKS5_EEENS_16in_place_index_tIXT_EEEDpOT0_
FNA:31,12,_ZNSt3__116__variant_detail6__baseILNS0_6_TraitE1EJN7pyfolio10TimeSeriesIdEENS3_5ErrorEEEC2B8ne180100ILm0EJS5_EEENS_16in_place_index_tIXT_EEEDpOT0_
FNA:31,1,_ZNSt3__116__variant_detail6__baseILNS0_6_TraitE1EJN7pyfolio10TimeSeriesIdEENS3_5ErrorEEEC2B8ne180100ILm1EJS6_EEENS_16in_place_index_tIXT_EEEDpOT0_
FNA:31,0,_ZNSt3__116__variant_detail6__baseILNS0_6_TraitE1EJN7pyfolio11performance12DrawdownInfoENS3_5ErrorEEEC2B8ne180100ILm0EJRKS5_EEENS_16in_place_index_tIXT_EEEDpOT0_
FNA:31,0,_ZNSt3__116__variant_detail6__baseILNS0_6_TraitE1EJN7pyfolio11performance12DrawdownInfoENS3_5ErrorEEEC2B8ne180100ILm1EJS6_EEENS_16in_place_index_tIXT_EEEDpOT0_
FNA:31,1,_ZNSt3__116__variant_detail6__baseILNS0_6_TraitE1EJN7pyfolio18PerformanceMetrics18CaptureRatioResultENS3_5ErrorEEEC2B8ne180100ILm0EJRKS5_EEENS_16in_place_index_tIXT_EEEDpOT0_
FNA:31,389,_ZNSt3__116__variant_detail6__baseILNS0_6_TraitE1EJN7pyfolio8DateTimeENS3_5ErrorEEEC2B8ne180100ILm0EJS4_EEENS_16in_place_index_tIXT_EEEDpOT0_
FNA:31,2,_ZNSt3__116__variant_detail6__baseILNS0_6_TraitE1EJN7pyfolio8DateTimeENS3_5ErrorEEEC2B8ne180100ILm1EJS5_EEENS_16in_place_index_tIXT_EEEDpOT0_
FNA:31,1,_ZNSt3__116__variant_detail6__baseILNS0_6_TraitE1EJN7pyfolio9analytics10statistics18StatisticalSummaryENS3_5ErrorEEEC2B8ne180100ILm0EJS6_EEENS_16in_place_index_tIXT_EEEDpOT0_
FNA:31,2,_ZNSt3__116__variant_detail6__baseILNS0_6_TraitE1EJN7pyfolio9analytics10statistics18StatisticalSummaryENS3_5ErrorEEEC2B8ne180100ILm1EJS7_EEENS_16in_place_index_tIXT_EEEDpOT0_
FNA:31,1,_ZNSt3__116__variant_detail6__baseILNS0_6_TraitE1EJN7pyfolio9analytics18PerformanceMetricsENS3_5ErrorEEEC2B8ne180100ILm0EJRKS5_EEENS_16in_place_index_tIXT_EEEDpOT0_
FNA:31,1,_ZNSt3__116__variant_detail6__baseILNS0_6_TraitE1EJNS_4pairIN7pyfolio10TimeSeriesIdEES6_EENS4_5ErrorEEEC2B8ne180100ILm0EJS7_EEENS_16in_place_index_tIXT_EEEDpOT0_
FNA:31,0,_ZNSt3__116__variant_detail6__baseILNS0_6_TraitE1EJNS_6vectorIN7pyfolio11performance12DrawdownInfoENS_9allocatorIS6_EEEENS4_5ErrorEEEC2B8ne180100ILm0EJS9_EEENS_16in_place_index_tIXT_EEEDpOT0_
FNA:31,0,_ZNSt3__116__variant_detail6__baseILNS0_6_TraitE1EJNS_6vectorIN7pyfolio11performance12DrawdownInfoENS_9allocatorIS6_EEEENS4_5ErrorEEEC2B8ne180100ILm1EJSA_EEENS_16in_place_index_tIXT_EEEDpOT0_
FNA:31,0,_ZNSt3__116__variant_detail6__baseILNS0_6_TraitE1EJNS_6vectorIdNS_9allocatorIdEEEEN7pyfolio5ErrorEEEC2B8ne180100ILm0EJS6_EEENS_16in_place_index_tIXT_EEEDpOT0_
FNA:31,0,_ZNSt3__116__variant_detail6__baseILNS0_6_TraitE1EJNS_6vectorIdNS_9allocatorIdEEEEN7pyfolio5ErrorEEEC2B8ne180100ILm1EJS8_EEENS_16in_place_index_tIXT_EEEDpOT0_
FNA:31,20,_ZNSt3__116__variant_detail6__baseILNS0_6_TraitE1EJdN7pyfolio5ErrorEEEC2B8ne180100ILm0EJRKdEEENS_16in_place_index_tIXT_EEEDpOT0_
FNA:31,100074,_ZNSt3__116__variant_detail6__baseILNS0_6_TraitE1EJdN7pyfolio5ErrorEEEC2B8ne180100ILm0EJdEEENS_16in_place_index_tIXT_EEEDpOT0_
FNA:31,0,_ZNSt3__116__variant_detail6__baseILNS0_6_TraitE1EJdN7pyfolio5ErrorEEEC2B8ne180100ILm1EJRKS4_EEENS_16in_place_index_tIXT_EEEDpOT0_
FNA:31,10,_ZNSt3__116__variant_detail6__baseILNS0_6_TraitE1EJdN7pyfolio5ErrorEEEC2B8ne180100ILm1EJS4_EEENS_16in_place_index_tIXT_EEEDpOT0_
FNA:31,12,_ZNSt3__116__variant_detail6__baseILNS0_6_TraitE1EJiN7pyfolio5ErrorEEEC2B8ne180100ILm0EJiEEENS_16in_place_index_tIXT_EEEDpOT0_
FNA:31,1,_ZNSt3__116__variant_detail6__baseILNS0_6_TraitE1EJiN7pyfolio5ErrorEEEC2B8ne180100ILm1EJS4_EEENS_16in_place_index_tIXT_EEEDpOT0_
FNL:32,722
FNA:32,2,_ZNKSt3__116__variant_detail6__baseILNS0_6_TraitE1EJN7pyfolio10Statistics15AlphaBetaResultENS3_5ErrorEEE22valueless_by_exceptionB8ne180100Ev
FNA:32,2,_ZNKSt3__116__variant_detail6__baseILNS0_6_TraitE1EJN7pyfolio10Statistics18SimpleDrawdownInfoENS3_5ErrorEEE22valueless_by_exceptionB8ne180100Ev
FNA:32,14,_ZNKSt3__116__variant_detail6__baseILNS0_6_TraitE1EJN7pyfolio10TimeSeriesIdEENS3_5ErrorEEE22valueless_by_exceptionB8ne180100Ev
FNA:32,1,_ZNKSt3__116__variant_detail6__baseILNS0_6_TraitE1EJN7pyfolio18PerformanceMetrics18CaptureRatioResultENS3_5ErrorEEE22valueless_by_exceptionB8ne180100Ev
FNA:32,391,_ZNKSt3__116__variant_detail6__baseILNS0_6_TraitE1EJN7pyfolio8DateTimeENS3_5ErrorEEE22valueless_by_exceptionB8ne180100Ev
FNA:32,3,_ZNKSt3__116__variant_detail6__baseILNS0_6_TraitE1EJN7pyfolio9analytics10statistics18StatisticalSummaryENS3_5ErrorEEE22valueless_by_exceptionB8ne180100Ev
FNA:32,1,_ZNKSt3__116__variant_detail6__baseILNS0_6_TraitE1EJN7pyfolio9analytics18PerformanceMetricsENS3_5ErrorEEE22valueless_by_exceptionB8ne180100Ev
FNA:32,1,_ZNKSt3__116__variant_detail6__baseILNS0_6_TraitE1EJNS_4pairIN7pyfolio10TimeSeriesIdEES6_EENS4_5ErrorEEE22valueless_by_exceptionB8ne180100Ev
FNA:32,0,_ZNKSt3__116__variant_detail6__baseILNS0_6_TraitE1EJNS_6vectorIN7pyfolio11performance12DrawdownInfoENS_9allocatorIS6_EEEENS4_5ErrorEEE22valueless_by_exceptionB8ne180100Ev
FNA:32,0,_ZNKSt3__116__variant_detail6__baseILNS0_6_TraitE1EJNS_6vectorIdNS_9allocatorIdEEEEN7pyfolio5ErrorEEE22valueless_by_exceptionB8ne180100Ev
FNA:32,100107,_ZNKSt3__116__variant_detail6__baseILNS0_6_TraitE1EJdN7pyfolio5ErrorEEE22valueless_by_exceptionB8ne180100Ev
FNA:32,13,_ZNKSt3__116__variant_detail6__baseILNS0_6_TraitE1EJiN7pyfolio5ErrorEEE22valueless_by_exceptionB8ne180100Ev
FNL:33,724
FNA:33,10,_ZNKSt3__116__variant_detail6__baseILNS0_6_TraitE1EJN7pyfolio10Statistics15AlphaBetaResultENS3_5ErrorEEE5indexB8ne180100Ev
FNA:33,10,_ZNKSt3__116__variant_detail6__baseILNS0_6_TraitE1EJN7pyfolio10Statistics18SimpleDrawdownInfoENS3_5ErrorEEE5indexB8ne180100Ev
FNA:33,72,_ZNKSt3__116__variant_detail6__baseILNS0_6_TraitE1EJN7pyfolio10TimeSeriesIdEENS3_5ErrorEEE5indexB8ne180100Ev
FNA:33,5,_ZNKSt3__116__variant_detail6__baseILNS0_6_TraitE1EJN7pyfolio18PerformanceMetrics18CaptureRatioResultENS3_5ErrorEEE5indexB8ne180100Ev
FNA:33,1564,_ZNKSt3__116__variant_detail6__baseILNS0_6_TraitE1EJN7pyfolio8DateTimeENS3_5ErrorEEE5indexB8ne180100Ev
FNA:33,11,_ZNKSt3__116__variant_detail6__baseILNS0_6_TraitE1EJN7pyfolio9analytics10statistics18StatisticalSummaryENS3_5ErrorEEE5indexB8ne180100Ev
FNA:33,5,_ZNKSt3__116__variant_detail6__baseILNS0_6_TraitE1EJN7pyfolio9analytics18PerformanceMetricsENS3_5ErrorEEE5indexB8ne180100Ev
FNA:33,5,_ZNKSt3__116__variant_detail6__baseILNS0_6_TraitE1EJNS_4pairIN7pyfolio10TimeSeriesIdEES6_EENS4_5ErrorEEE5indexB8ne180100Ev
FNA:33,0,_ZNKSt3__116__variant_detail6__baseILNS0_6_TraitE1EJNS_6vectorIN7pyfolio11performance12DrawdownInfoENS_9allocatorIS6_EEEENS4_5ErrorEEE5indexB8ne180100Ev
FNA:33,0,_ZNKSt3__116__variant_detail6__baseILNS0_6_TraitE1EJNS_6vectorIdNS_9allocatorIdEEEEN7pyfolio5ErrorEEE5indexB8ne180100Ev
FNA:33,500503,_ZNKSt3__116__variant_detail6__baseILNS0_6_TraitE1EJdN7pyfolio5ErrorEEE5indexB8ne180100Ev
FNA:33,49,_ZNKSt3__116__variant_detail6__baseILNS0_6_TraitE1EJiN7pyfolio5ErrorEEE5indexB8ne180100Ev
FNL:34,729
FNA:34,2,_ZNRSt3__116__variant_detail6__baseILNS0_6_TraitE1EJN7pyfolio10Statistics15AlphaBetaResultENS3_5ErrorEEE9__as_baseB8ne180100Ev
FNA:34,2,_ZNRSt3__116__variant_detail6__baseILNS0_6_TraitE1EJN7pyfolio10Statistics18SimpleDrawdownInfoENS3_5ErrorEEE9__as_baseB8ne180100Ev
FNA:34,14,_ZNRSt3__116__variant_detail6__baseILNS0_6_TraitE1EJN7pyfolio10TimeSeriesIdEENS3_5ErrorEEE9__as_baseB8ne180100Ev
FNA:34,1,_ZNRSt3__116__variant_detail6__baseILNS0_6_TraitE1EJN7pyfolio18PerformanceMetrics18CaptureRatioResultENS3_5ErrorEEE9__as_baseB8ne180100Ev
FNA:34,391,_ZNRSt3__116__variant_detail6__baseILNS0_6_TraitE1EJN7pyfolio8DateTimeENS3_5ErrorEEE9__as_baseB8ne180100Ev
FNA:34,3,_ZNRSt3__116__variant_detail6__baseILNS0_6_TraitE1EJN7pyfolio9analytics10statistics18StatisticalSummaryENS3_5ErrorEEE9__as_baseB8ne180100Ev
FNA:34,1,_ZNRSt3__116__variant_detail6__baseILNS0_6_TraitE1EJN7pyfolio9analytics18PerformanceMetricsENS3_5ErrorEEE9__as_baseB8ne180100Ev
FNA:34,1,_ZNRSt3__116__variant_detail6__baseILNS0_6_TraitE1EJNS_4pairIN7pyfolio10TimeSeriesIdEES6_EENS4_5ErrorEEE9__as_baseB8ne180100Ev
FNA:34,0,_ZNRSt3__116__variant_detail6__baseILNS0_6_TraitE1EJNS_6vectorIN7pyfolio11performance12DrawdownInfoENS_9allocatorIS6_EEEENS4_5ErrorEEE9__as_baseB8ne180100Ev
FNA:34,0,_ZNRSt3__116__variant_detail6__baseILNS0_6_TraitE1EJNS_6vectorIdNS_9allocatorIdEEEEN7pyfolio5ErrorEEE9__as_baseB8ne180100Ev
FNA:34,100106,_ZNRSt3__116__variant_detail6__baseILNS0_6_TraitE1EJdN7pyfolio5ErrorEEE9__as_baseB8ne180100Ev
FNA:34,13,_ZNRSt3__116__variant_detail6__baseILNS0_6_TraitE1EJiN7pyfolio5ErrorEEE9__as_baseB8ne180100Ev
FNL:35,731
FNA:35,0,_ZNOSt3__116__variant_detail6__baseILNS0_6_TraitE1EJN7pyfolio10TimeSeriesIdEENS3_5ErrorEEE9__as_baseB8ne180100Ev
FNA:35,1,_ZNOSt3__116__variant_detail6__baseILNS0_6_TraitE1EJdN7pyfolio5ErrorEEE9__as_baseB8ne180100Ev
FNL:36,773
FNA:36,2,_ZNSt3__116__variant_detail6__dtorINS0_8__traitsIJN7pyfolio10Statistics15AlphaBetaResultENS3_5ErrorEEEELNS0_6_TraitE1EE9__destroyB8ne180100Ev
FNA:36,2,_ZNSt3__116__variant_detail6__dtorINS0_8__traitsIJN7pyfolio10Statistics15AlphaBetaResultENS3_5ErrorEEEELNS0_6_TraitE1EECI2NS0_6__baseILS8_1EJS5_S6_EEEILm0EJRKS5_EEENS_16in_place_index_tIXT_EEEDpOT0_
FNA:36,0,_ZNSt3__116__variant_detail6__dtorINS0_8__traitsIJN7pyfolio10Statistics15AlphaBetaResultENS3_5ErrorEEEELNS0_6_TraitE1EECI2NS0_6__baseILS8_1EJS5_S6_EEEILm1EJS6_EEENS_16in_place_index_tIXT_EEEDpOT0_
FNA:36,2,_ZNSt3__116__variant_detail6__dtorINS0_8__traitsIJN7pyfolio10Statistics15AlphaBetaResultENS3_5ErrorEEEELNS0_6_TraitE1EED2Ev
FNA:36,2,_ZNSt3__116__variant_detail6__dtorINS0_8__traitsIJN7pyfolio10Statistics18SimpleDrawdownInfoENS3_5ErrorEEEELNS0_6_TraitE1EE9__destroyB8ne180100Ev
FNA:36,2,_ZNSt3__116__variant_detail6__dtorINS0_8__traitsIJN7pyfolio10Statistics18SimpleDrawdownInfoENS3_5ErrorEEEELNS0_6_TraitE1EECI2NS0_6__baseILS8_1EJS5_S6_EEEILm0EJRKS5_EEENS_16in_place_index_tIXT_EEEDpOT0_
FNA:36,0,_ZNSt3__116__variant_detail6__dtorINS0_8__traitsIJN7pyfolio10Statistics18SimpleDrawdownInfoENS3_5ErrorEEEELNS0_6_TraitE1EECI2NS0_6__baseILS8_1EJS5_S6_EEEILm1EJS6_EEENS_16in_place_index_tIXT_EEEDpOT0_
FNA:36,2,_ZNSt3__116__variant_detail6__dtorINS0_8__traitsIJN7pyfolio10Statistics18SimpleDrawdownInfoENS3_5ErrorEEEELNS0_6_TraitE1EED2Ev
FNA:36,14,_ZNSt3__116__variant_detail6__dtorINS0_8__traitsIJN7pyfolio10TimeSeriesIdEENS3_5ErrorEEEELNS0_6_TraitE1EE9__destroyB8ne180100Ev
FNA:36,0,_ZNSt3__116__variant_detail6__dtorINS0_8__traitsIJN7pyfolio10TimeSeriesIdEENS3_5ErrorEEEELNS0_6_TraitE1EECI2NS0_6__baseILS8_1EJS5_S6_EEEENS0_13__valueless_tE
FNA:36,1,_ZNSt3__116__variant_detail6__dtorINS0_8__traitsIJN7pyfolio10TimeSeriesIdEENS3_5ErrorEEEELNS0_6_TraitE1EECI2NS0_6__baseILS8_1EJS5_S6_EEEILm0EJRKS5_EEENS_16in_place_index_tIXT_EEEDpOT0_
FNA:36,12,_ZNSt3__116__variant_detail6__dtorINS0_8__traitsIJN7pyfolio10TimeSeriesIdEENS3_5ErrorEEEELNS0_6_TraitE1EECI2NS0_6__baseILS8_1EJS5_S6_EEEILm0EJS5_EEENS_16in_place_index_tIXT_EEEDpOT0_
FNA:36,1,_ZNSt3__116__variant_detail6__dtorINS0_8__traitsIJN7pyfolio10TimeSeriesIdEENS3_5ErrorEEEELNS0_6_TraitE1EECI2NS0_6__baseILS8_1EJS5_S6_EEEILm1EJS6_EEENS_16in_place_index_tIXT_EEEDpOT0_
FNA:36,14,_ZNSt3__116__variant_detail6__dtorINS0_8__traitsIJN7pyfolio10TimeSeriesIdEENS3_5ErrorEEEELNS0_6_TraitE1EED2Ev
FNA:36,0,_ZNSt3__116__variant_detail6__dtorINS0_8__traitsIJN7pyfolio11performance12DrawdownInfoENS3_5ErrorEEEELNS0_6_TraitE1EECI2NS0_6__baseILS8_1EJS5_S6_EEEILm0EJRKS5_EEENS_16in_place_index_tIXT_EEEDpOT0_
FNA:36,0,_ZNSt3__116__variant_detail6__dtorINS0_8__traitsIJN7pyfolio11performance12DrawdownInfoENS3_5ErrorEEEELNS0_6_TraitE1EECI2NS0_6__baseILS8_1EJS5_S6_EEEILm1EJS6_EEENS_16in_place_index_tIXT_EEEDpOT0_
FNA:36,1,_ZNSt3__116__variant_detail6__dtorINS0_8__traitsIJN7pyfolio18PerformanceMetrics18CaptureRatioResultENS3_5ErrorEEEELNS0_6_TraitE1EE9__destroyB8ne180100Ev
FNA:36,1,_ZNSt3__116__variant_detail6__dtorINS0_8__traitsIJN7pyfolio18PerformanceMetrics18CaptureRatioResultENS3_5ErrorEEEELNS0_6_TraitE1EECI2NS0_6__baseILS8_1EJS5_S6_EEEILm0EJRKS5_EEENS_16in_place_index_tIXT_EEEDpOT0_
FNA:36,1,_ZNSt3__116__variant_detail6__dtorINS0_8__traitsIJN7pyfolio18PerformanceMetrics18CaptureRatioResultENS3_5ErrorEEEELNS0_6_TraitE1EED2Ev
FNA:36,391,_ZNSt3__116__variant_detail6__dtorINS0_8__traitsIJN7pyfolio8DateTimeENS3_5ErrorEEEELNS0_6_TraitE1EE9__destroyB8ne180100Ev
FNA:36,389,_ZNSt3__116__variant_detail6__dtorINS0_8__traitsIJN7pyfolio8DateTimeENS3_5ErrorEEEELNS0_6_TraitE1EECI2NS0_6__baseILS7_1EJS4_S5_EEEILm0EJS4_EEENS_16in_place_index_tIXT_EEEDpOT0_
FNA:36,2,_ZNSt3__116__variant_detail6__dtorINS0_8__traitsIJN7pyfolio8DateTimeENS3_5ErrorEEEELNS0_6_TraitE1EECI2NS0_6__baseILS7_1EJS4_S5_EEEILm1EJS5_EEENS_16in_place_index_tIXT_EEEDpOT0_
FNA:36,391,_ZNSt3__116__variant_detail6__dtorINS0_8__traitsIJN7pyfolio8DateTimeENS3_5ErrorEEEELNS0_6_TraitE1EED2Ev
FNA:36,3,_ZNSt3__116__variant_detail6__dtorINS0_8__traitsIJN7pyfolio9analytics10statistics18StatisticalSummaryENS3_5ErrorEEEELNS0_6_TraitE1EE9__destroyB8ne180100Ev
FNA:36,1,_ZNSt3__116__variant_detail6__dtorINS0_8__traitsIJN7pyfolio9analytics10statistics18StatisticalSummaryENS3_5ErrorEEEELNS0_6_TraitE1EECI2NS0_6__baseILS9_1EJS6_S7_EEEILm0EJS6_EEENS_16in_place_index_tIXT_EEEDpOT0_
FNA:36,2,_ZNSt3__116__variant_detail6__dtorINS0_8__traitsIJN7pyfolio9analytics10statistics18StatisticalSummaryENS3_5ErrorEEEELNS0_6_TraitE1EECI2NS0_6__baseILS9_1EJS6_S7_EEEILm1EJS7_EEENS_16in_place_index_tIXT_EEEDpOT0_
FNA:36,3,_ZNSt3__116__variant_detail6__dtorINS0_8__traitsIJN7pyfolio9analytics10statistics18StatisticalSummaryENS3_5ErrorEEEELNS0_6_TraitE1EED2Ev
FNA:36,1,_ZNSt3__116__variant_detail6__dtorINS0_8__traitsIJN7pyfolio9analytics18PerformanceMetricsENS3_5ErrorEEEELNS0_6_TraitE1EE9__destroyB8ne180100Ev
FNA:36,1,_ZNSt3__116__variant_detail6__dtorINS0_8__traitsIJN7pyfolio9analytics18PerformanceMetricsENS3_5ErrorEEEELNS0_6_TraitE1EECI2NS0_6__baseILS8_1EJS5_S6_EEEILm0EJRKS5_EEENS_16in_place_index_tIXT_EEEDpOT0_
FNA:36,1,_ZNSt3__116__variant_detail6__dtorINS0_8__traitsIJN7pyfolio9analytics18PerformanceMetricsENS3_5ErrorEEEELNS0_6_TraitE1EED2Ev
FNA:36,1,_ZNSt3__116__variant_detail6__dtorINS0_8__traitsIJNS_4pairIN7pyfolio10TimeSeriesIdEES6_EENS4_5ErrorEEEELNS0_6_TraitE1EE9__destroyB8ne180100Ev
FNA:36,1,_ZNSt3__116__variant_detail6__dtorINS0_8__traitsIJNS_4pairIN7pyfolio10TimeSeriesIdEES6_EENS4_5ErrorEEEELNS0_6_TraitE1EECI2NS0_6__baseILSA_1EJS7_S8_EEEILm0EJS7_EEENS_16in_place_index_tIXT_EEEDpOT0_
FNA:36,1,_ZNSt3__116__variant_detail6__dtorINS0_8__traitsIJNS_4pairIN7pyfolio10TimeSeriesIdEES6_EENS4_5ErrorEEEELNS0_6_TraitE1EED2Ev
FNA:36,0,_ZNSt3__116__variant_detail6__dtorINS0_8__traitsIJNS_6vectorIN7pyfolio11performance12DrawdownInfoENS_9allocatorIS6_EEEENS4_5ErrorEEEELNS0_6_TraitE1EE9__destroyB8ne180100Ev
FNA:36,0,_ZNSt3__116__variant_detail6__dtorINS0_8__traitsIJNS_6vectorIN7pyfolio11performance12DrawdownInfoENS_9allocatorIS6_EEEENS4_5ErrorEEEELNS0_6_TraitE1EECI2NS0_6__baseILSC_1EJS9_SA_EEEILm0EJS9_EEENS_16in_place_index_tIXT_EEEDpOT0_
FNA:36,0,_ZNSt3__116__variant_detail6__dtorINS0_8__traitsIJNS_6vectorIN7pyfolio11performance12DrawdownInfoENS_9allocatorIS6_EEEENS4_5ErrorEEEELNS0_6_TraitE1EECI2NS0_6__baseILSC_1EJS9_SA_EEEILm1EJSA_EEENS_16in_place_index_tIXT_EEEDpOT0_
FNA:36,0,_ZNSt3__116__variant_detail6__dtorINS0_8__traitsIJNS_6vectorIN7pyfolio11performance12DrawdownInfoENS_9allocatorIS6_EEEENS4_5ErrorEEEELNS0_6_TraitE1EED2Ev
FNA:36,0,_ZNSt3__116__variant_detail6__dtorINS0_8__traitsIJNS_6vectorIdNS_9allocatorIdEEEEN7pyfolio5ErrorEEEELNS0_6_TraitE1EE9__destroyB8ne180100Ev
FNA:36,0,_ZNSt3__116__variant_detail6__dtorINS0_8__traitsIJNS_6vectorIdNS_9allocatorIdEEEEN7pyfolio5ErrorEEEELNS0_6_TraitE1EECI2NS0_6__baseILSA_1EJS6_S8_EEEILm0EJS6_EEENS_16in_place_index_tIXT_EEEDpOT0_
FNA:36,0,_ZNSt3__116__variant_detail6__dtorINS0_8__traitsIJNS_6vectorIdNS_9allocatorIdEEEEN7pyfolio5ErrorEEEELNS0_6_TraitE1EECI2NS0_6__baseILSA_1EJS6_S8_EEEILm1EJS8_EEENS_16in_place_index_tIXT_EEEDpOT0_
FNA:36,0,_ZNSt3__116__variant_detail6__dtorINS0_8__traitsIJNS_6vectorIdNS_9allocatorIdEEEEN7pyfolio5ErrorEEEELNS0_6_TraitE1EED2Ev
FNA:36,100106,_ZNSt3__116__variant_detail6__dtorINS0_8__traitsIJdN7pyfolio5ErrorEEEELNS0_6_TraitE1EE9__destroyB8ne180100Ev
FNA:36,1,_ZNSt3__116__variant_detail6__dtorINS0_8__traitsIJdN7pyfolio5ErrorEEEELNS0_6_TraitE1EECI2NS0_6__baseILS6_1EJdS4_EEEENS0_13__valueless_tE
FNA:36,20,_ZNSt3__116__variant_detail6__dtorINS0_8__traitsIJdN7pyfolio5ErrorEEEELNS0_6_TraitE1EECI2NS0_6__baseILS6_1EJdS4_EEEILm0EJRKdEEENS_16in_place_index_tIXT_EEEDpOT0_
FNA:36,100074,_ZNSt3__116__variant_detail6__dtorINS0_8__traitsIJdN7pyfolio5ErrorEEEELNS0_6_TraitE1EECI2NS0_6__baseILS6_1EJdS4_EEEILm0EJdEEENS_16in_place_index_tIXT_EEEDpOT0_
FNA:36,0,_ZNSt3__116__variant_detail6__dtorINS0_8__traitsIJdN7pyfolio5ErrorEEEELNS0_6_TraitE1EECI2NS0_6__baseILS6_1EJdS4_EEEILm1EJRKS4_EEENS_16in_place_index_tIXT_EEEDpOT0_
FNA:36,10,_ZNSt3__116__variant_detail6__dtorINS0_8__traitsIJdN7pyfolio5ErrorEEEELNS0_6_TraitE1EECI2NS0_6__baseILS6_1EJdS4_EEEILm1EJS4_EEENS_16in_place_index_tIXT_EEEDpOT0_
FNA:36,100105,_ZNSt3__116__variant_detail6__dtorINS0_8__traitsIJdN7pyfolio5ErrorEEEELNS0_6_TraitE1EED2Ev
FNA:36,13,_ZNSt3__116__variant_detail6__dtorINS0_8__traitsIJiN7pyfolio5ErrorEEEELNS0_6_TraitE1EE9__destroyB8ne180100Ev
FNA:36,12,_ZNSt3__116__variant_detail6__dtorINS0_8__traitsIJiN7pyfolio5ErrorEEEELNS0_6_TraitE1EECI2NS0_6__baseILS6_1EJiS4_EEEILm0EJiEEENS_16in_place_index_tIXT_EEEDpOT0_
FNA:36,1,_ZNSt3__116__variant_detail6__dtorINS0_8__traitsIJiN7pyfolio5ErrorEEEELNS0_6_TraitE1EECI2NS0_6__baseILS6_1EJiS4_EEEILm1EJS4_EEENS_16in_place_index_tIXT_EEEDpOT0_
FNA:36,13,_ZNSt3__116__variant_detail6__dtorINS0_8__traitsIJiN7pyfolio5ErrorEEEELNS0_6_TraitE1EED2Ev
FNA:36,2,_ZZNSt3__116__variant_detail6__dtorINS0_8__traitsIJN7pyfolio10Statistics15AlphaBetaResultENS3_5ErrorEEEELNS0_6_TraitE1EE9__destroyB8ne180100EvENKUlRT_E_clINS0_5__altILm0ES5_EEEEDaSB_
FNA:36,0,_ZZNSt3__116__variant_detail6__dtorINS0_8__traitsIJN7pyfolio10Statistics15AlphaBetaResultENS3_5ErrorEEEELNS0_6_TraitE1EE9__destroyB8ne180100EvENKUlRT_E_clINS0_5__altILm1ES6_EEEEDaSB_
FNA:36,2,_ZZNSt3__116__variant_detail6__dtorINS0_8__traitsIJN7pyfolio10Statistics18SimpleDrawdownInfoENS3_5ErrorEEEELNS0_6_TraitE1EE9__destroyB8ne180100EvENKUlRT_E_clINS0_5__altILm0ES5_EEEEDaSB_
FNA:36,0,_ZZNSt3__116__variant_detail6__dtorINS0_8__traitsIJN7pyfolio10Statistics18SimpleDrawdownInfoENS3_5ErrorEEEELNS0_6_TraitE1EE9__destroyB8ne180100EvENKUlRT_E_clINS0_5__altILm1ES6_EEEEDaSB_
FNA:36,13,_ZZNSt3__116__variant_detail6__dtorINS0_8__traitsIJN7pyfolio10TimeSeriesIdEENS3_5ErrorEEEELNS0_6_TraitE1EE9__destroyB8ne180100EvENKUlRT_E_clINS0_5__altILm0ES5_EEEEDaSB_
FNA:36,1,_ZZNSt3__116__variant_detail6__dtorINS0_8__traitsIJN7pyfolio10TimeSeriesIdEENS3_5ErrorEEEELNS0_6_TraitE1EE9__destroyB8ne180100EvENKUlRT_E_clINS0_5__altILm1ES6_EEEEDaSB_
FNA:36,1,_ZZNSt3__116__variant_detail6__dtorINS0_8__traitsIJN7pyfolio18PerformanceMetrics18CaptureRatioResultENS3_5ErrorEEEELNS0_6_TraitE1EE9__destroyB8ne180100EvENKUlRT_E_clINS0_5__altILm0ES5_EEEEDaSB_
FNA:36,0,_ZZNSt3__116__variant_detail6__dtorINS0_8__traitsIJN7pyfolio18PerformanceMetrics18CaptureRatioResultENS3_5ErrorEEEELNS0_6_TraitE1EE9__destroyB8ne180100EvENKUlRT_E_clINS0_5__altILm1ES6_EEEEDaSB_
FNA:36,389,_ZZNSt3__116__variant_detail6__dtorINS0_8__traitsIJN7pyfolio8DateTimeENS3_5ErrorEEEELNS0_6_TraitE1EE9__destroyB8ne180100EvENKUlRT_E_clINS0_5__altILm0ES4_EEEEDaSA_
FNA:36,2,_ZZNSt3__116__variant_detail6__dtorINS0_8__traitsIJN7pyfolio8DateTimeENS3_5ErrorEEEELNS0_6_TraitE1EE9__destroyB8ne180100EvENKUlRT_E_clINS0_5__altILm1ES5_EEEEDaSA_
FNA:36,1,_ZZNSt3__116__variant_detail6__dtorINS0_8__traitsIJN7pyfolio9analytics10statistics18StatisticalSummaryENS3_5ErrorEEEELNS0_6_TraitE1EE9__destroyB8ne180100EvENKUlRT_E_clINS0_5__altILm0ES6_EEEEDaSC_
FNA:36,2,_ZZNSt3__116__variant_detail6__dtorINS0_8__traitsIJN7pyfolio9analytics10statistics18StatisticalSummaryENS3_5ErrorEEEELNS0_6_TraitE1EE9__destroyB8ne180100EvENKUlRT_E_clINS0_5__altILm1ES7_EEEEDaSC_
FNA:36,1,_ZZNSt3__116__variant_detail6__dtorINS0_8__traitsIJN7pyfolio9analytics18PerformanceMetricsENS3_5ErrorEEEELNS0_6_TraitE1EE9__destroyB8ne180100EvENKUlRT_E_clINS0_5__altILm0ES5_EEEEDaSB_
FNA:36,0,_ZZNSt3__116__variant_detail6__dtorINS0_8__traitsIJN7pyfolio9analytics18PerformanceMetricsENS3_5ErrorEEEELNS0_6_TraitE1EE9__destroyB8ne180100EvENKUlRT_E_clINS0_5__altILm1ES6_EEEEDaSB_
FNA:36,1,_ZZNSt3__116__variant_detail6__dtorINS0_8__traitsIJNS_4pairIN7pyfolio10TimeSeriesIdEES6_EENS4_5ErrorEEEELNS0_6_TraitE1EE9__destroyB8ne180100EvENKUlRT_E_clINS0_5__altILm0ES7_EEEEDaSD_
FNA:36,0,_ZZNSt3__116__variant_detail6__dtorINS0_8__traitsIJNS_4pairIN7pyfolio10TimeSeriesIdEES6_EENS4_5ErrorEEEELNS0_6_TraitE1EE9__destroyB8ne180100EvENKUlRT_E_clINS0_5__altILm1ES8_EEEEDaSD_
FNA:36,0,_ZZNSt3__116__variant_detail6__dtorINS0_8__traitsIJNS_6vectorIN7pyfolio11performance12DrawdownInfoENS_9allocatorIS6_EEEENS4_5ErrorEEEELNS0_6_TraitE1EE9__destroyB8ne180100EvENKUlRT_E_clINS0_5__altILm0ES9_EEEEDaSF_
FNA:36,0,_ZZNSt3__116__variant_detail6__dtorINS0_8__traitsIJNS_6vectorIN7pyfolio11performance12DrawdownInfoENS_9allocatorIS6_EEEENS4_5ErrorEEEELNS0_6_TraitE1EE9__destroyB8ne180100EvENKUlRT_E_clINS0_5__altILm1ESA_EEEEDaSF_
FNA:36,0,_ZZNSt3__116__variant_detail6__dtorINS0_8__traitsIJNS_6vectorIdNS_9allocatorIdEEEEN7pyfolio5ErrorEEEELNS0_6_TraitE1EE9__destroyB8ne180100EvENKUlRT_E_clINS0_5__altILm0ES6_EEEEDaSD_
FNA:36,0,_ZZNSt3__116__variant_detail6__dtorINS0_8__traitsIJNS_6vectorIdNS_9allocatorIdEEEEN7pyfolio5ErrorEEEELNS0_6_TraitE1EE9__destroyB8ne180100EvENKUlRT_E_clINS0_5__altILm1ES8_EEEEDaSD_
FNA:36,100094,_ZZNSt3__116__variant_detail6__dtorINS0_8__traitsIJdN7pyfolio5ErrorEEEELNS0_6_TraitE1EE9__destroyB8ne180100EvENKUlRT_E_clINS0_5__altILm0EdEEEEDaS9_
FNA:36,11,_ZZNSt3__116__variant_detail6__dtorINS0_8__traitsIJdN7pyfolio5ErrorEEEELNS0_6_TraitE1EE9__destroyB8ne180100EvENKUlRT_E_clINS0_5__altILm1ES4_EEEEDaS9_
FNA:36,12,_ZZNSt3__116__variant_detail6__dtorINS0_8__traitsIJiN7pyfolio5ErrorEEEELNS0_6_TraitE1EE9__destroyB8ne180100EvENKUlRT_E_clINS0_5__altILm0EiEEEEDaS9_
FNA:36,1,_ZZNSt3__116__variant_detail6__dtorINS0_8__traitsIJiN7pyfolio5ErrorEEEELNS0_6_TraitE1EE9__destroyB8ne180100EvENKUlRT_E_clINS0_5__altILm1ES4_EEEEDaS9_
FNL:37,793
FNA:37,2,_ZNSt3__116__variant_detail6__ctorINS0_8__traitsIJN7pyfolio10Statistics15AlphaBetaResultENS3_5ErrorEEEEED2Ev
FNA:37,2,_ZNSt3__116__variant_detail6__ctorINS0_8__traitsIJN7pyfolio10Statistics18SimpleDrawdownInfoENS3_5ErrorEEEEED2Ev
FNA:37,14,_ZNSt3__116__variant_detail6__ctorINS0_8__traitsIJN7pyfolio10TimeSeriesIdEENS3_5ErrorEEEEED2Ev
FNA:37,1,_ZNSt3__116__variant_detail6__ctorINS0_8__traitsIJN7pyfolio18PerformanceMetrics18CaptureRatioResultENS3_5ErrorEEEEED2Ev
FNA:37,391,_ZNSt3__116__variant_detail6__ctorINS0_8__traitsIJN7pyfolio8DateTimeENS3_5ErrorEEEEED2Ev
FNA:37,3,_ZNSt3__116__variant_detail6__ctorINS0_8__traitsIJN7pyfolio9analytics10statistics18StatisticalSummaryENS3_5ErrorEEEEED2Ev
FNA:37,1,_ZNSt3__116__variant_detail6__ctorINS0_8__traitsIJN7pyfolio9analytics18PerformanceMetricsENS3_5ErrorEEEEED2Ev
FNA:37,1,_ZNSt3__116__variant_detail6__ctorINS0_8__traitsIJNS_4pairIN7pyfolio10TimeSeriesIdEES6_EENS4_5ErrorEEEEED2Ev
FNA:37,0,_ZNSt3__116__variant_detail6__ctorINS0_8__traitsIJNS_6vectorIN7pyfolio11performance12DrawdownInfoENS_9allocatorIS6_EEEENS4_5ErrorEEEEED2Ev
FNA:37,0,_ZNSt3__116__variant_detail6__ctorINS0_8__traitsIJNS_6vectorIdNS_9allocatorIdEEEEN7pyfolio5ErrorEEEEED2Ev
FNA:37,100105,_ZNSt3__116__variant_detail6__ctorINS0_8__traitsIJdN7pyfolio5ErrorEEEEED2Ev
FNA:37,13,_ZNSt3__116__variant_detail6__ctorINS0_8__traitsIJiN7pyfolio5ErrorEEEEED2Ev
FNL:38,797
FNA:38,2,_ZNSt3__116__variant_detail6__ctorINS0_8__traitsIJN7pyfolio10Statistics15AlphaBetaResultENS3_5ErrorEEEEECI2NS0_6__baseILNS0_6_TraitE1EJS5_S6_EEEILm0EJRKS5_EEENS_16in_place_index_tIXT_EEEDpOT0_
FNA:38,0,_ZNSt3__116__variant_detail6__ctorINS0_8__traitsIJN7pyfolio10Statistics15AlphaBetaResultENS3_5ErrorEEEEECI2NS0_6__baseILNS0_6_TraitE1EJS5_S6_EEEILm1EJS6_EEENS_16in_place_index_tIXT_EEEDpOT0_
FNA:38,2,_ZNSt3__116__variant_detail6__ctorINS0_8__traitsIJN7pyfolio10Statistics18SimpleDrawdownInfoENS3_5ErrorEEEEECI2NS0_6__baseILNS0_6_TraitE1EJS5_S6_EEEILm0EJRKS5_EEENS_16in_place_index_tIXT_EEEDpOT0_
FNA:38,0,_ZNSt3__116__variant_detail6__ctorINS0_8__traitsIJN7pyfolio10Statistics18SimpleDrawdownInfoENS3_5ErrorEEEEECI2NS0_6__baseILNS0_6_TraitE1EJS5_S6_EEEILm1EJS6_EEENS_16in_place_index_tIXT_EEEDpOT0_
FNA:38,0,_ZNSt3__116__variant_detail6__ctorINS0_8__traitsIJN7pyfolio10TimeSeriesIdEENS3_5ErrorEEEEECI2NS0_6__baseILNS0_6_TraitE1EJS5_S6_EEEENS0_13__valueless_tE
FNA:38,1,_ZNSt3__116__variant_detail6__ctorINS0_8__traitsIJN7pyfolio10TimeSeriesIdEENS3_5ErrorEEEEECI2NS0_6__baseILNS0_6_TraitE1EJS5_S6_EEEILm0EJRKS5_EEENS_16in_place_index_tIXT_EEEDpOT0_
FNA:38,12,_ZNSt3__116__variant_detail6__ctorINS0_8__traitsIJN7pyfolio10TimeSeriesIdEENS3_5ErrorEEEEECI2NS0_6__baseILNS0_6_TraitE1EJS5_S6_EEEILm0EJS5_EEENS_16in_place_index_tIXT_EEEDpOT0_
FNA:38,1,_ZNSt3__116__variant_detail6__ctorINS0_8__traitsIJN7pyfolio10TimeSeriesIdEENS3_5ErrorEEEEECI2NS0_6__baseILNS0_6_TraitE1EJS5_S6_EEEILm1EJS6_EEENS_16in_place_index_tIXT_EEEDpOT0_
FNA:38,0,_ZNSt3__116__variant_detail6__ctorINS0_8__traitsIJN7pyfolio11performance12DrawdownInfoENS3_5ErrorEEEEECI2NS0_6__baseILNS0_6_TraitE1EJS5_S6_EEEILm0EJRKS5_EEENS_16in_place_index_tIXT_EEEDpOT0_
FNA:38,0,_ZNSt3__116__variant_detail6__ctorINS0_8__traitsIJN7pyfolio11performance12DrawdownInfoENS3_5ErrorEEEEECI2NS0_6__baseILNS0_6_TraitE1EJS5_S6_EEEILm1EJS6_EEENS_16in_place_index_tIXT_EEEDpOT0_
FNA:38,1,_ZNSt3__116__variant_detail6__ctorINS0_8__traitsIJN7pyfolio18PerformanceMetrics18CaptureRatioResultENS3_5ErrorEEEEECI2NS0_6__baseILNS0_6_TraitE1EJS5_S6_EEEILm0EJRKS5_EEENS_16in_place_index_tIXT_EEEDpOT0_
FNA:38,389,_ZNSt3__116__variant_detail6__ctorINS0_8__traitsIJN7pyfolio8DateTimeENS3_5ErrorEEEEECI2NS0_6__baseILNS0_6_TraitE1EJS4_S5_EEEILm0EJS4_EEENS_16in_place_index_tIXT_EEEDpOT0_
FNA:38,2,_ZNSt3__116__variant_detail6__ctorINS0_8__traitsIJN7pyfolio8DateTimeENS3_5ErrorEEEEECI2NS0_6__baseILNS0_6_TraitE1EJS4_S5_EEEILm1EJS5_EEENS_16in_place_index_tIXT_EEEDpOT0_
FNA:38,1,_ZNSt3__116__variant_detail6__ctorINS0_8__traitsIJN7pyfolio9analytics10statistics18StatisticalSummaryENS3_5ErrorEEEEECI2NS0_6__baseILNS0_6_TraitE1EJS6_S7_EEEILm0EJS6_EEENS_16in_place_index_tIXT_EEEDpOT0_
FNA:38,2,_ZNSt3__116__variant_detail6__ctorINS0_8__traitsIJN7pyfolio9analytics10statistics18StatisticalSummaryENS3_5ErrorEEEEECI2NS0_6__baseILNS0_6_TraitE1EJS6_S7_EEEILm1EJS7_EEENS_16in_place_index_tIXT_EEEDpOT0_
FNA:38,1,_ZNSt3__116__variant_detail6__ctorINS0_8__traitsIJN7pyfolio9analytics18PerformanceMetricsENS3_5ErrorEEEEECI2NS0_6__baseILNS0_6_TraitE1EJS5_S6_EEEILm0EJRKS5_EEENS_16in_place_index_tIXT_EEEDpOT0_
FNA:38,1,_ZNSt3__116__variant_detail6__ctorINS0_8__traitsIJNS_4pairIN7pyfolio10TimeSeriesIdEES6_EENS4_5ErrorEEEEECI2NS0_6__baseILNS0_6_TraitE1EJS7_S8_EEEILm0EJS7_EEENS_16in_place_index_tIXT_EEEDpOT0_
FNA:38,0,_ZNSt3__116__variant_detail6__ctorINS0_8__traitsIJNS_6vectorIN7pyfolio11performance12DrawdownInfoENS_9allocatorIS6_EEEENS4_5ErrorEEEEECI2NS0_6__baseILNS0_6_TraitE1EJS9_SA_EEEILm0EJS9_EEENS_16in_place_index_tIXT_EEEDpOT0_
FNA:38,0,_ZNSt3__116__variant_detail6__ctorINS0_8__traitsIJNS_6vectorIN7pyfolio11performance12DrawdownInfoENS_9allocatorIS6_EEEENS4_5ErrorEEEEECI2NS0_6__baseILNS0_6_TraitE1EJS9_SA_EEEILm1EJSA_EEENS_16in_place_index_tIXT_EEEDpOT0_
FNA:38,0,_ZNSt3__116__variant_detail6__ctorINS0_8__traitsIJNS_6vectorIdNS_9allocatorIdEEEEN7pyfolio5ErrorEEEEECI2NS0_6__baseILNS0_6_TraitE1EJS6_S8_EEEILm0EJS6_EEENS_16in_place_index_tIXT_EEEDpOT0_
FNA:38,0,_ZNSt3__116__variant_detail6__ctorINS0_8__traitsIJNS_6vectorIdNS_9allocatorIdEEEEN7pyfolio5ErrorEEEEECI2NS0_6__baseILNS0_6_TraitE1EJS6_S8_EEEILm1EJS8_EEENS_16in_place_index_tIXT_EEEDpOT0_
FNA:38,1,_ZNSt3__116__variant_detail6__ctorINS0_8__traitsIJdN7pyfolio5ErrorEEEEECI2NS0_6__baseILNS0_6_TraitE1EJdS4_EEEENS0_13__valueless_tE
FNA:38,20,_ZNSt3__116__variant_detail6__ctorINS0_8__traitsIJdN7pyfolio5ErrorEEEEECI2NS0_6__baseILNS0_6_TraitE1EJdS4_EEEILm0EJRKdEEENS_16in_place_index_tIXT_EEEDpOT0_
FNA:38,100074,_ZNSt3__116__variant_detail6__ctorINS0_8__traitsIJdN7pyfolio5ErrorEEEEECI2NS0_6__baseILNS0_6_TraitE1EJdS4_EEEILm0EJdEEENS_16in_place_index_tIXT_EEEDpOT0_
FNA:38,0,_ZNSt3__116__variant_detail6__ctorINS0_8__traitsIJdN7pyfolio5ErrorEEEEECI2NS0_6__baseILNS0_6_TraitE1EJdS4_EEEILm1EJRKS4_EEENS_16in_place_index_tIXT_EEEDpOT0_
FNA:38,10,_ZNSt3__116__variant_detail6__ctorINS0_8__traitsIJdN7pyfolio5ErrorEEEEECI2NS0_6__baseILNS0_6_TraitE1EJdS4_EEEILm1EJS4_EEENS_16in_place_index_tIXT_EEEDpOT0_
FNA:38,12,_ZNSt3__116__variant_detail6__ctorINS0_8__traitsIJiN7pyfolio5ErrorEEEEECI2NS0_6__baseILNS0_6_TraitE1EJiS4_EEEILm0EJiEEENS_16in_place_index_tIXT_EEEDpOT0_
FNA:38,1,_ZNSt3__116__variant_detail6__ctorINS0_8__traitsIJiN7pyfolio5ErrorEEEEECI2NS0_6__baseILNS0_6_TraitE1EJiS4_EEEILm1EJS4_EEENS_16in_place_index_tIXT_EEEDpOT0_
FNL:39,802
FNA:39,0,_ZNSt3__116__variant_detail6__ctorINS0_8__traitsIJN7pyfolio10TimeSeriesIdEENS3_5ErrorEEEEE15__construct_altB8ne180100ILm0ES5_JS5_EEERT0_RNS0_5__altIXT_ESA_EEDpOT1_
FNA:39,0,_ZNSt3__116__variant_detail6__ctorINS0_8__traitsIJN7pyfolio10TimeSeriesIdEENS3_5ErrorEEEEE15__construct_altB8ne180100ILm1ES6_JS6_EEERT0_RNS0_5__altIXT_ESA_EEDpOT1_
FNA:39,0,_ZNSt3__116__variant_detail6__ctorINS0_8__traitsIJdN7pyfolio5ErrorEEEEE15__construct_altB8ne180100ILm0EdJdEEERT0_RNS0_5__altIXT_ES8_EEDpOT1_
FNA:39,1,_ZNSt3__116__variant_detail6__ctorINS0_8__traitsIJdN7pyfolio5ErrorEEEEE15__construct_altB8ne180100ILm1ES4_JS4_EEERT0_RNS0_5__altIXT_ES8_EEDpOT1_
FNL:40,808
FNA:40,0,_ZNSt3__116__variant_detail6__ctorINS0_8__traitsIJN7pyfolio10TimeSeriesIdEENS3_5ErrorEEEEE19__generic_constructB8ne180100INS0_18__move_constructorIS7_LNS0_6_TraitE1EEEEEvRS8_OT_
FNA:40,1,_ZNSt3__116__variant_detail6__ctorINS0_8__traitsIJdN7pyfolio5ErrorEEEEE19__generic_constructB8ne180100INS0_18__move_constructorIS5_LNS0_6_TraitE1EEEEEvRS6_OT_
FNL:41,814
FNA:41,0,_ZZNSt3__116__variant_detail6__ctorINS0_8__traitsIJN7pyfolio10TimeSeriesIdEENS3_5ErrorEEEEE19__generic_constructB8ne180100INS0_18__move_constructorIS7_LNS0_6_TraitE1EEEEEvRS8_OT_ENKUlRSE_OT0_E_clINS0_5__altILm0ES5_EESM_EEDaSG_SI_
FNA:41,0,_ZZNSt3__116__variant_detail6__ctorINS0_8__traitsIJN7pyfolio10TimeSeriesIdEENS3_5ErrorEEEEE19__generic_constructB8ne180100INS0_18__move_constructorIS7_LNS0_6_TraitE1EEEEEvRS8_OT_ENKUlRSE_OT0_E_clINS0_5__altILm1ES6_EESM_EEDaSG_SI_
FNA:41,0,_ZZNSt3__116__variant_detail6__ctorINS0_8__traitsIJdN7pyfolio5ErrorEEEEE19__generic_constructB8ne180100INS0_18__move_constructorIS5_LNS0_6_TraitE1EEEEEvRS6_OT_ENKUlRSC_OT0_E_clINS0_5__altILm0EdEESK_EEDaSE_SG_
FNA:41,1,_ZZNSt3__116__variant_detail6__ctorINS0_8__traitsIJdN7pyfolio5ErrorEEEEE19__generic_constructB8ne180100INS0_18__move_constructorIS5_LNS0_6_TraitE1EEEEEvRS6_OT_ENKUlRSC_OT0_E_clINS0_5__altILm1ES4_EESK_EEDaSE_SG_
FNL:42,846
FNA:42,2,_ZNSt3__116__variant_detail18__move_constructorINS0_8__traitsIJN7pyfolio10Statistics15AlphaBetaResultENS3_5ErrorEEEELNS0_6_TraitE1EECI2NS0_6__baseILS8_1EJS5_S6_EEEILm0EJRKS5_EEENS_16in_place_index_tIXT_EEEDpOT0_
FNA:42,0,_ZNSt3__116__variant_detail18__move_constructorINS0_8__traitsIJN7pyfolio10Statistics15AlphaBetaResultENS3_5ErrorEEEELNS0_6_TraitE1EECI2NS0_6__baseILS8_1EJS5_S6_EEEILm1EJS6_EEENS_16in_place_index_tIXT_EEEDpOT0_
FNA:42,2,_ZNSt3__116__variant_detail18__move_constructorINS0_8__traitsIJN7pyfolio10Statistics15AlphaBetaResultENS3_5ErrorEEEELNS0_6_TraitE1EED2Ev
FNA:42,2,_ZNSt3__116__variant_detail18__move_constructorINS0_8__traitsIJN7pyfolio10Statistics18SimpleDrawdownInfoENS3_5ErrorEEEELNS0_6_TraitE1EECI2NS0_6__baseILS8_1EJS5_S6_EEEILm0EJRKS5_EEENS_16in_place_index_tIXT_EEEDpOT0_
FNA:42,0,_ZNSt3__116__variant_detail18__move_constructorINS0_8__traitsIJN7pyfolio10Statistics18SimpleDrawdownInfoENS3_5ErrorEEEELNS0_6_TraitE1EECI2NS0_6__baseILS8_1EJS5_S6_EEEILm1EJS6_EEENS_16in_place_index_tIXT_EEEDpOT0_
FNA:42,2,_ZNSt3__116__variant_detail18__move_constructorINS0_8__traitsIJN7pyfolio10Statistics18SimpleDrawdownInfoENS3_5ErrorEEEELNS0_6_TraitE1EED2Ev
FNA:42,0,_ZNSt3__116__variant_detail18__move_constructorINS0_8__traitsIJN7pyfolio10TimeSeriesIdEENS3_5ErrorEEEELNS0_6_TraitE1EEC2EOS9_
FNA:42,0,_ZNSt3__116__variant_detail18__move_constructorINS0_8__traitsIJN7pyfolio10TimeSeriesIdEENS3_5ErrorEEEELNS0_6_TraitE1EECI2NS0_6__baseILS8_1EJS5_S6_EEEENS0_13__valueless_tE
FNA:42,1,_ZNSt3__116__variant_detail18__move_constructorINS0_8__traitsIJN7pyfolio10TimeSeriesIdEENS3_5ErrorEEEELNS0_6_TraitE1EECI2NS0_6__baseILS8_1EJS5_S6_EEEILm0EJRKS5_EEENS_16in_place_index_tIXT_EEEDpOT0_
FNA:42,12,_ZNSt3__116__variant_detail18__move_constructorINS0_8__traitsIJN7pyfolio10TimeSeriesIdEENS3_5ErrorEEEELNS0_6_TraitE1EECI2NS0_6__baseILS8_1EJS5_S6_EEEILm0EJS5_EEENS_16in_place_index_tIXT_EEEDpOT0_
FNA:42,1,_ZNSt3__116__variant_detail18__move_constructorINS0_8__traitsIJN7pyfolio10TimeSeriesIdEENS3_5ErrorEEEELNS0_6_TraitE1EECI2NS0_6__baseILS8_1EJS5_S6_EEEILm1EJS6_EEENS_16in_place_index_tIXT_EEEDpOT0_
FNA:42,14,_ZNSt3__116__variant_detail18__move_constructorINS0_8__traitsIJN7pyfolio10TimeSeriesIdEENS3_5ErrorEEEELNS0_6_TraitE1EED2Ev
FNA:42,0,_ZNSt3__116__variant_detail18__move_constructorINS0_8__traitsIJN7pyfolio11performance12DrawdownInfoENS3_5ErrorEEEELNS0_6_TraitE1EECI2NS0_6__baseILS8_1EJS5_S6_EEEILm0EJRKS5_EEENS_16in_place_index_tIXT_EEEDpOT0_
FNA:42,0,_ZNSt3__116__variant_detail18__move_constructorINS0_8__traitsIJN7pyfolio11performance12DrawdownInfoENS3_5ErrorEEEELNS0_6_TraitE1EECI2NS0_6__baseILS8_1EJS5_S6_EEEILm1EJS6_EEENS_16in_place_index_tIXT_EEEDpOT0_
FNA:42,1,_ZNSt3__116__variant_detail18__move_constructorINS0_8__traitsIJN7pyfolio18PerformanceMetrics18CaptureRatioResultENS3_5ErrorEEEELNS0_6_TraitE1EECI2NS0_6__baseILS8_1EJS5_S6_EEEILm0EJRKS5_EEENS_16in_place_index_tIXT_EEEDpOT0_
FNA:42,1,_ZNSt3__116__variant_detail18__move_constructorINS0_8__traitsIJN7pyfolio18PerformanceMetrics18CaptureRatioResultENS3_5ErrorEEEELNS0_6_TraitE1EED2Ev
FNA:42,389,_ZNSt3__116__variant_detail18__move_constructorINS0_8__traitsIJN7pyfolio8DateTimeENS3_5ErrorEEEELNS0_6_TraitE1EECI2NS0_6__baseILS7_1EJS4_S5_EEEILm0EJS4_EEENS_16in_place_index_tIXT_EEEDpOT0_
FNA:42,2,_ZNSt3__116__variant_detail18__move_constructorINS0_8__traitsIJN7pyfolio8DateTimeENS3_5ErrorEEEELNS0_6_TraitE1EECI2NS0_6__baseILS7_1EJS4_S5_EEEILm1EJS5_EEENS_16in_place_index_tIXT_EEEDpOT0_
FNA:42,391,_ZNSt3__116__variant_detail18__move_constructorINS0_8__traitsIJN7pyfolio8DateTimeENS3_5ErrorEEEELNS0_6_TraitE1EED2Ev
FNA:42,1,_ZNSt3__116__variant_detail18__move_constructorINS0_8__traitsIJN7pyfolio9analytics10statistics18StatisticalSummaryENS3_5ErrorEEEELNS0_6_TraitE1EECI2NS0_6__baseILS9_1EJS6_S7_EEEILm0EJS6_EEENS_16in_place_index_tIXT_EEEDpOT0_
FNA:42,2,_ZNSt3__116__variant_detail18__move_constructorINS0_8__traitsIJN7pyfolio9analytics10statistics18StatisticalSummaryENS3_5ErrorEEEELNS0_6_TraitE1EECI2NS0_6__baseILS9_1EJS6_S7_EEEILm1EJS7_EEENS_16in_place_index_tIXT_EEEDpOT0_
FNA:42,3,_ZNSt3__116__variant_detail18__move_constructorINS0_8__traitsIJN7pyfolio9analytics10statistics18StatisticalSummaryENS3_5ErrorEEEELNS0_6_TraitE1EED2Ev
FNA:42,1,_ZNSt3__116__variant_detail18__move_constructorINS0_8__traitsIJN7pyfolio9analytics18PerformanceMetricsENS3_5ErrorEEEELNS0_6_TraitE1EECI2NS0_6__baseILS8_1EJS5_S6_EEEILm0EJRKS5_EEENS_16in_place_index_tIXT_EEEDpOT0_
FNA:42,1,_ZNSt3__116__variant_detail18__move_constructorINS0_8__traitsIJN7pyfolio9analytics18PerformanceMetricsENS3_5ErrorEEEELNS0_6_TraitE1EED2Ev
FNA:42,1,_ZNSt3__116__variant_detail18__move_constructorINS0_8__traitsIJNS_4pairIN7pyfolio10TimeSeriesIdEES6_EENS4_5ErrorEEEELNS0_6_TraitE1EECI2NS0_6__baseILSA_1EJS7_S8_EEEILm0EJS7_EEENS_16in_place_index_tIXT_EEEDpOT0_
FNA:42,1,_ZNSt3__116__variant_detail18__move_constructorINS0_8__traitsIJNS_4pairIN7pyfolio10TimeSeriesIdEES6_EENS4_5ErrorEEEELNS0_6_TraitE1EED2Ev
FNA:42,0,_ZNSt3__116__variant_detail18__move_constructorINS0_8__traitsIJNS_6vectorIN7pyfolio11performance12DrawdownInfoENS_9allocatorIS6_EEEENS4_5ErrorEEEELNS0_6_TraitE1EECI2NS0_6__baseILSC_1EJS9_SA_EEEILm0EJS9_EEENS_16in_place_index_tIXT_EEEDpOT0_
FNA:42,0,_ZNSt3__116__variant_detail18__move_constructorINS0_8__traitsIJNS_6vectorIN7pyfolio11performance12DrawdownInfoENS_9allocatorIS6_EEEENS4_5ErrorEEEELNS0_6_TraitE1EECI2NS0_6__baseILSC_1EJS9_SA_EEEILm1EJSA_EEENS_16in_place_index_tIXT_EEEDpOT0_
FNA:42,0,_ZNSt3__116__variant_detail18__move_constructorINS0_8__traitsIJNS_6vectorIN7pyfolio11performance12DrawdownInfoENS_9allocatorIS6_EEEENS4_5ErrorEEEELNS0_6_TraitE1EED2Ev
FNA:42,0,_ZNSt3__116__variant_detail18__move_constructorINS0_8__traitsIJNS_6vectorIdNS_9allocatorIdEEEEN7pyfolio5ErrorEEEELNS0_6_TraitE1EECI2NS0_6__baseILSA_1EJS6_S8_EEEILm0EJS6_EEENS_16in_place_index_tIXT_EEEDpOT0_
FNA:42,0,_ZNSt3__116__variant_detail18__move_constructorINS0_8__traitsIJNS_6vectorIdNS_9allocatorIdEEEEN7pyfolio5ErrorEEEELNS0_6_TraitE1EECI2NS0_6__baseILSA_1EJS6_S8_EEEILm1EJS8_EEENS_16in_place_index_tIXT_EEEDpOT0_
FNA:42,0,_ZNSt3__116__variant_detail18__move_constructorINS0_8__traitsIJNS_6vectorIdNS_9allocatorIdEEEEN7pyfolio5ErrorEEEELNS0_6_TraitE1EED2Ev
FNA:42,1,_ZNSt3__116__variant_detail18__move_constructorINS0_8__traitsIJdN7pyfolio5ErrorEEEELNS0_6_TraitE1EEC2EOS7_
FNA:42,1,_ZNSt3__116__variant_detail18__move_constructorINS0_8__traitsIJdN7pyfolio5ErrorEEEELNS0_6_TraitE1EECI2NS0_6__baseILS6_1EJdS4_EEEENS0_13__valueless_tE
FNA:42,20,_ZNSt3__116__variant_detail18__move_constructorINS0_8__traitsIJdN7pyfolio5ErrorEEEELNS0_6_TraitE1EECI2NS0_6__baseILS6_1EJdS4_EEEILm0EJRKdEEENS_16in_place_index_tIXT_EEEDpOT0_
FNA:42,100074,_ZNSt3__116__variant_detail18__move_constructorINS0_8__traitsIJdN7pyfolio5ErrorEEEELNS0_6_TraitE1EECI2NS0_6__baseILS6_1EJdS4_EEEILm0EJdEEENS_16in_place_index_tIXT_EEEDpOT0_
FNA:42,0,_ZNSt3__116__variant_detail18__move_constructorINS0_8__traitsIJdN7pyfolio5ErrorEEEELNS0_6_TraitE1EECI2NS0_6__baseILS6_1EJdS4_EEEILm1EJRKS4_EEENS_16in_place_index_tIXT_EEEDpOT0_
FNA:42,10,_ZNSt3__116__variant_detail18__move_constructorINS0_8__traitsIJdN7pyfolio5ErrorEEEELNS0_6_TraitE1EECI2NS0_6__baseILS6_1EJdS4_EEEILm1EJS4_EEENS_16in_place_index_tIXT_EEEDpOT0_
FNA:42,100105,_ZNSt3__116__variant_detail18__move_constructorINS0_8__traitsIJdN7pyfolio5ErrorEEEELNS0_6_TraitE1EED2Ev
FNA:42,12,_ZNSt3__116__variant_detail18__move_constructorINS0_8__traitsIJiN7pyfolio5ErrorEEEELNS0_6_TraitE1EECI2NS0_6__baseILS6_1EJiS4_EEEILm0EJiEEENS_16in_place_index_tIXT_EEEDpOT0_
FNA:42,1,_ZNSt3__116__variant_detail18__move_constructorINS0_8__traitsIJiN7pyfolio5ErrorEEEELNS0_6_TraitE1EECI2NS0_6__baseILS6_1EJiS4_EEEILm1EJS4_EEENS_16in_place_index_tIXT_EEEDpOT0_
FNA:42,13,_ZNSt3__116__variant_detail18__move_constructorINS0_8__traitsIJiN7pyfolio5ErrorEEEELNS0_6_TraitE1EED2Ev
FNL:43,877
FNA:43,2,_ZNSt3__116__variant_detail18__copy_constructorINS0_8__traitsIJN7pyfolio10Statistics15AlphaBetaResultENS3_5ErrorEEEELNS0_6_TraitE1EECI2NS0_6__baseILS8_1EJS5_S6_EEEILm0EJRKS5_EEENS_16in_place_index_tIXT_EEEDpOT0_
FNA:43,0,_ZNSt3__116__variant_detail18__copy_constructorINS0_8__traitsIJN7pyfolio10Statistics15AlphaBetaResultENS3_5ErrorEEEELNS0_6_TraitE1EECI2NS0_6__baseILS8_1EJS5_S6_EEEILm1EJS6_EEENS_16in_place_index_tIXT_EEEDpOT0_
FNA:43,2,_ZNSt3__116__variant_detail18__copy_constructorINS0_8__traitsIJN7pyfolio10Statistics15AlphaBetaResultENS3_5ErrorEEEELNS0_6_TraitE1EED2Ev
FNA:43,2,_ZNSt3__116__variant_detail18__copy_constructorINS0_8__traitsIJN7pyfolio10Statistics18SimpleDrawdownInfoENS3_5ErrorEEEELNS0_6_TraitE1EECI2NS0_6__baseILS8_1EJS5_S6_EEEILm0EJRKS5_EEENS_16in_place_index_tIXT_EEEDpOT0_
FNA:43,0,_ZNSt3__116__variant_detail18__copy_constructorINS0_8__traitsIJN7pyfolio10Statistics18SimpleDrawdownInfoENS3_5ErrorEEEELNS0_6_TraitE1EECI2NS0_6__baseILS8_1EJS5_S6_EEEILm1EJS6_EEENS_16in_place_index_tIXT_EEEDpOT0_
FNA:43,2,_ZNSt3__116__variant_detail18__copy_constructorINS0_8__traitsIJN7pyfolio10Statistics18SimpleDrawdownInfoENS3_5ErrorEEEELNS0_6_TraitE1EED2Ev
FNA:43,0,_ZNSt3__116__variant_detail18__copy_constructorINS0_8__traitsIJN7pyfolio10TimeSeriesIdEENS3_5ErrorEEEELNS0_6_TraitE1EEC2EOS9_
FNA:43,1,_ZNSt3__116__variant_detail18__copy_constructorINS0_8__traitsIJN7pyfolio10TimeSeriesIdEENS3_5ErrorEEEELNS0_6_TraitE1EECI2NS0_6__baseILS8_1EJS5_S6_EEEILm0EJRKS5_EEENS_16in_place_index_tIXT_EEEDpOT0_
FNA:43,12,_ZNSt3__116__variant_detail18__copy_constructorINS0_8__traitsIJN7pyfolio10TimeSeriesIdEENS3_5ErrorEEEELNS0_6_TraitE1EECI2NS0_6__baseILS8_1EJS5_S6_EEEILm0EJS5_EEENS_16in_place_index_tIXT_EEEDpOT0_
FNA:43,1,_ZNSt3__116__variant_detail18__copy_constructorINS0_8__traitsIJN7pyfolio10TimeSeriesIdEENS3_5ErrorEEEELNS0_6_TraitE1EECI2NS0_6__baseILS8_1EJS5_S6_EEEILm1EJS6_EEENS_16in_place_index_tIXT_EEEDpOT0_
FNA:43,14,_ZNSt3__116__variant_detail18__copy_constructorINS0_8__traitsIJN7pyfolio10TimeSeriesIdEENS3_5ErrorEEEELNS0_6_TraitE1EED2Ev
FNA:43,0,_ZNSt3__116__variant_detail18__copy_constructorINS0_8__traitsIJN7pyfolio11performance12DrawdownInfoENS3_5ErrorEEEELNS0_6_TraitE1EECI2NS0_6__baseILS8_1EJS5_S6_EEEILm0EJRKS5_EEENS_16in_place_index_tIXT_EEEDpOT0_
FNA:43,0,_ZNSt3__116__variant_detail18__copy_constructorINS0_8__traitsIJN7pyfolio11performance12DrawdownInfoENS3_5ErrorEEEELNS0_6_TraitE1EECI2NS0_6__baseILS8_1EJS5_S6_EEEILm1EJS6_EEENS_16in_place_index_tIXT_EEEDpOT0_
FNA:43,1,_ZNSt3__116__variant_detail18__copy_constructorINS0_8__traitsIJN7pyfolio18PerformanceMetrics18CaptureRatioResultENS3_5ErrorEEEELNS0_6_TraitE1EECI2NS0_6__baseILS8_1EJS5_S6_EEEILm0EJRKS5_EEENS_16in_place_index_tIXT_EEEDpOT0_
FNA:43,1,_ZNSt3__116__variant_detail18__copy_constructorINS0_8__traitsIJN7pyfolio18PerformanceMetrics18CaptureRatioResultENS3_5ErrorEEEELNS0_6_TraitE1EED2Ev
FNA:43,389,_ZNSt3__116__variant_detail18__copy_constructorINS0_8__traitsIJN7pyfolio8DateTimeENS3_5ErrorEEEELNS0_6_TraitE1EECI2NS0_6__baseILS7_1EJS4_S5_EEEILm0EJS4_EEENS_16in_place_index_tIXT_EEEDpOT0_
FNA:43,2,_ZNSt3__116__variant_detail18__copy_constructorINS0_8__traitsIJN7pyfolio8DateTimeENS3_5ErrorEEEELNS0_6_TraitE1EECI2NS0_6__baseILS7_1EJS4_S5_EEEILm1EJS5_EEENS_16in_place_index_tIXT_EEEDpOT0_
FNA:43,391,_ZNSt3__116__variant_detail18__copy_constructorINS0_8__traitsIJN7pyfolio8DateTimeENS3_5ErrorEEEELNS0_6_TraitE1EED2Ev
FNA:43,1,_ZNSt3__116__variant_detail18__copy_constructorINS0_8__traitsIJN7pyfolio9analytics10statistics18StatisticalSummaryENS3_5ErrorEEEELNS0_6_TraitE1EECI2NS0_6__baseILS9_1EJS6_S7_EEEILm0EJS6_EEENS_16in_place_index_tIXT_EEEDpOT0_
FNA:43,2,_ZNSt3__116__variant_detail18__copy_constructorINS0_8__traitsIJN7pyfolio9analytics10statistics18StatisticalSummaryENS3_5ErrorEEEELNS0_6_TraitE1EECI2NS0_6__baseILS9_1EJS6_S7_EEEILm1EJS7_EEENS_16in_place_index_tIXT_EEEDpOT0_
FNA:43,3,_ZNSt3__116__variant_detail18__copy_constructorINS0_8__traitsIJN7pyfolio9analytics10statistics18StatisticalSummaryENS3_5ErrorEEEELNS0_6_TraitE1EED2Ev
FNA:43,1,_ZNSt3__116__variant_detail18__copy_constructorINS0_8__traitsIJN7pyfolio9analytics18PerformanceMetricsENS3_5ErrorEEEELNS0_6_TraitE1EECI2NS0_6__baseILS8_1EJS5_S6_EEEILm0EJRKS5_EEENS_16in_place_index_tIXT_EEEDpOT0_
FNA:43,1,_ZNSt3__116__variant_detail18__copy_constructorINS0_8__traitsIJN7pyfolio9analytics18PerformanceMetricsENS3_5ErrorEEEELNS0_6_TraitE1EED2Ev
FNA:43,1,_ZNSt3__116__variant_detail18__copy_constructorINS0_8__traitsIJNS_4pairIN7pyfolio10TimeSeriesIdEES6_EENS4_5ErrorEEEELNS0_6_TraitE1EECI2NS0_6__baseILSA_1EJS7_S8_EEEILm0EJS7_EEENS_16in_place_index_tIXT_EEEDpOT0_
FNA:43,1,_ZNSt3__116__variant_detail18__copy_constructorINS0_8__traitsIJNS_4pairIN7pyfolio10TimeSeriesIdEES6_EENS4_5ErrorEEEELNS0_6_TraitE1EED2Ev
FNA:43,0,_ZNSt3__116__variant_detail18__copy_constructorINS0_8__traitsIJNS_6vectorIN7pyfolio11performance12DrawdownInfoENS_9allocatorIS6_EEEENS4_5ErrorEEEELNS0_6_TraitE1EECI2NS0_6__baseILSC_1EJS9_SA_EEEILm0EJS9_EEENS_16in_place_index_tIXT_EEEDpOT0_
FNA:43,0,_ZNSt3__116__variant_detail18__copy_constructorINS0_8__traitsIJNS_6vectorIN7pyfolio11performance12DrawdownInfoENS_9allocatorIS6_EEEENS4_5ErrorEEEELNS0_6_TraitE1EECI2NS0_6__baseILSC_1EJS9_SA_EEEILm1EJSA_EEENS_16in_place_index_tIXT_EEEDpOT0_
FNA:43,0,_ZNSt3__116__variant_detail18__copy_constructorINS0_8__traitsIJNS_6vectorIN7pyfolio11performance12DrawdownInfoENS_9allocatorIS6_EEEENS4_5ErrorEEEELNS0_6_TraitE1EED2Ev
FNA:43,0,_ZNSt3__116__variant_detail18__copy_constructorINS0_8__traitsIJNS_6vectorIdNS_9allocatorIdEEEEN7pyfolio5ErrorEEEELNS0_6_TraitE1EECI2NS0_6__baseILSA_1EJS6_S8_EEEILm0EJS6_EEENS_16in_place_index_tIXT_EEEDpOT0_
FNA:43,0,_ZNSt3__116__variant_detail18__copy_constructorINS0_8__traitsIJNS_6vectorIdNS_9allocatorIdEEEEN7pyfolio5ErrorEEEELNS0_6_TraitE1EECI2NS0_6__baseILSA_1EJS6_S8_EEEILm1EJS8_EEENS_16in_place_index_tIXT_EEEDpOT0_
FNA:43,0,_ZNSt3__116__variant_detail18__copy_constructorINS0_8__traitsIJNS_6vectorIdNS_9allocatorIdEEEEN7pyfolio5ErrorEEEELNS0_6_TraitE1EED2Ev
FNA:43,1,_ZNSt3__116__variant_detail18__copy_constructorINS0_8__traitsIJdN7pyfolio5ErrorEEEELNS0_6_TraitE1EEC2EOS7_
FNA:43,20,_ZNSt3__116__variant_detail18__copy_constructorINS0_8__traitsIJdN7pyfolio5ErrorEEEELNS0_6_TraitE1EECI2NS0_6__baseILS6_1EJdS4_EEEILm0EJRKdEEENS_16in_place_index_tIXT_EEEDpOT0_
FNA:43,100074,_ZNSt3__116__variant_detail18__copy_constructorINS0_8__traitsIJdN7pyfolio5ErrorEEEELNS0_6_TraitE1EECI2NS0_6__baseILS6_1EJdS4_EEEILm0EJdEEENS_16in_place_index_tIXT_EEEDpOT0_
FNA:43,0,_ZNSt3__116__variant_detail18__copy_constructorINS0_8__traitsIJdN7pyfolio5ErrorEEEELNS0_6_TraitE1EECI2NS0_6__baseILS6_1EJdS4_EEEILm1EJRKS4_EEENS_16in_place_index_tIXT_EEEDpOT0_
FNA:43,10,_ZNSt3__116__variant_detail18__copy_constructorINS0_8__traitsIJdN7pyfolio5ErrorEEEELNS0_6_TraitE1EECI2NS0_6__baseILS6_1EJdS4_EEEILm1EJS4_EEENS_16in_place_index_tIXT_EEEDpOT0_
FNA:43,100105,_ZNSt3__116__variant_detail18__copy_constructorINS0_8__traitsIJdN7pyfolio5ErrorEEEELNS0_6_TraitE1EED2Ev
FNA:43,12,_ZNSt3__116__variant_detail18__copy_constructorINS0_8__traitsIJiN7pyfolio5ErrorEEEELNS0_6_TraitE1EECI2NS0_6__baseILS6_1EJiS4_EEEILm0EJiEEENS_16in_place_index_tIXT_EEEDpOT0_
FNA:43,1,_ZNSt3__116__variant_detail18__copy_constructorINS0_8__traitsIJiN7pyfolio5ErrorEEEELNS0_6_TraitE1EECI2NS0_6__baseILS6_1EJiS4_EEEILm1EJS4_EEENS_16in_place_index_tIXT_EEEDpOT0_
FNA:43,13,_ZNSt3__116__variant_detail18__copy_constructorINS0_8__traitsIJiN7pyfolio5ErrorEEEELNS0_6_TraitE1EED2Ev
FNL:44,886
FNA:44,2,_ZNSt3__116__variant_detail12__assignmentINS0_8__traitsIJN7pyfolio10Statistics15AlphaBetaResultENS3_5ErrorEEEEED2Ev
FNA:44,2,_ZNSt3__116__variant_detail12__assignmentINS0_8__traitsIJN7pyfolio10Statistics18SimpleDrawdownInfoENS3_5ErrorEEEEED2Ev
FNA:44,0,_ZNSt3__116__variant_detail12__assignmentINS0_8__traitsIJN7pyfolio10TimeSeriesIdEENS3_5ErrorEEEEEC2EOS8_
FNA:44,14,_ZNSt3__116__variant_detail12__assignmentINS0_8__traitsIJN7pyfolio10TimeSeriesIdEENS3_5ErrorEEEEED2Ev
FNA:44,1,_ZNSt3__116__variant_detail12__assignmentINS0_8__traitsIJN7pyfolio18PerformanceMetrics18CaptureRatioResultENS3_5ErrorEEEEED2Ev
FNA:44,391,_ZNSt3__116__variant_detail12__assignmentINS0_8__traitsIJN7pyfolio8DateTimeENS3_5ErrorEEEEED2Ev
FNA:44,3,_ZNSt3__116__variant_detail12__assignmentINS0_8__traitsIJN7pyfolio9analytics10statistics18StatisticalSummaryENS3_5ErrorEEEEED2Ev
FNA:44,1,_ZNSt3__116__variant_detail12__assignmentINS0_8__traitsIJN7pyfolio9analytics18PerformanceMetricsENS3_5ErrorEEEEED2Ev
FNA:44,1,_ZNSt3__116__variant_detail12__assignmentINS0_8__traitsIJNS_4pairIN7pyfolio10TimeSeriesIdEES6_EENS4_5ErrorEEEEED2Ev
FNA:44,0,_ZNSt3__116__variant_detail12__assignmentINS0_8__traitsIJNS_6vectorIN7pyfolio11performance12DrawdownInfoENS_9allocatorIS6_EEEENS4_5ErrorEEEEED2Ev
FNA:44,0,_ZNSt3__116__variant_detail12__assignmentINS0_8__traitsIJNS_6vectorIdNS_9allocatorIdEEEEN7pyfolio5ErrorEEEEED2Ev
FNA:44,1,_ZNSt3__116__variant_detail12__assignmentINS0_8__traitsIJdN7pyfolio5ErrorEEEEEC2EOS6_
FNA:44,100105,_ZNSt3__116__variant_detail12__assignmentINS0_8__traitsIJdN7pyfolio5ErrorEEEEED2Ev
FNA:44,13,_ZNSt3__116__variant_detail12__assignmentINS0_8__traitsIJiN7pyfolio5ErrorEEEEED2Ev
FNL:45,890
FNA:45,2,_ZNSt3__116__variant_detail12__assignmentINS0_8__traitsIJN7pyfolio10Statistics15AlphaBetaResultENS3_5ErrorEEEEECI2NS0_6__baseILNS0_6_TraitE1EJS5_S6_EEEILm0EJRKS5_EEENS_16in_place_index_tIXT_EEEDpOT0_
FNA:45,0,_ZNSt3__116__variant_detail12__assignmentINS0_8__traitsIJN7pyfolio10Statistics15AlphaBetaResultENS3_5ErrorEEEEECI2NS0_6__baseILNS0_6_TraitE1EJS5_S6_EEEILm1EJS6_EEENS_16in_place_index_tIXT_EEEDpOT0_
FNA:45,2,_ZNSt3__116__variant_detail12__assignmentINS0_8__traitsIJN7pyfolio10Statistics18SimpleDrawdownInfoENS3_5ErrorEEEEECI2NS0_6__baseILNS0_6_TraitE1EJS5_S6_EEEILm0EJRKS5_EEENS_16in_place_index_tIXT_EEEDpOT0_
FNA:45,0,_ZNSt3__116__variant_detail12__assignmentINS0_8__traitsIJN7pyfolio10Statistics18SimpleDrawdownInfoENS3_5ErrorEEEEECI2NS0_6__baseILNS0_6_TraitE1EJS5_S6_EEEILm1EJS6_EEENS_16in_place_index_tIXT_EEEDpOT0_
FNA:45,1,_ZNSt3__116__variant_detail12__assignmentINS0_8__traitsIJN7pyfolio10TimeSeriesIdEENS3_5ErrorEEEEECI2NS0_6__baseILNS0_6_TraitE1EJS5_S6_EEEILm0EJRKS5_EEENS_16in_place_index_tIXT_EEEDpOT0_
FNA:45,12,_ZNSt3__116__variant_detail12__assignmentINS0_8__traitsIJN7pyfolio10TimeSeriesIdEENS3_5ErrorEEEEECI2NS0_6__baseILNS0_6_TraitE1EJS5_S6_EEEILm0EJS5_EEENS_16in_place_index_tIXT_EEEDpOT0_
FNA:45,1,_ZNSt3__116__variant_detail12__assignmentINS0_8__traitsIJN7pyfolio10TimeSeriesIdEENS3_5ErrorEEEEECI2NS0_6__baseILNS0_6_TraitE1EJS5_S6_EEEILm1EJS6_EEENS_16in_place_index_tIXT_EEEDpOT0_
FNA:45,0,_ZNSt3__116__variant_detail12__assignmentINS0_8__traitsIJN7pyfolio11performance12DrawdownInfoENS3_5ErrorEEEEECI2NS0_6__baseILNS0_6_TraitE1EJS5_S6_EEEILm0EJRKS5_EEENS_16in_place_index_tIXT_EEEDpOT0_
FNA:45,0,_ZNSt3__116__variant_detail12__assignmentINS0_8__traitsIJN7pyfolio11performance12DrawdownInfoENS3_5ErrorEEEEECI2NS0_6__baseILNS0_6_TraitE1EJS5_S6_EEEILm1EJS6_EEENS_16in_place_index_tIXT_EEEDpOT0_
FNA:45,1,_ZNSt3__116__variant_detail12__assignmentINS0_8__traitsIJN7pyfolio18PerformanceMetrics18CaptureRatioResultENS3_5ErrorEEEEECI2NS0_6__baseILNS0_6_TraitE1EJS5_S6_EEEILm0EJRKS5_EEENS_16in_place_index_tIXT_EEEDpOT0_
FNA:45,389,_ZNSt3__116__variant_detail12__assignmentINS0_8__traitsIJN7pyfolio8DateTimeENS3_5ErrorEEEEECI2NS0_6__baseILNS0_6_TraitE1EJS4_S5_EEEILm0EJS4_EEENS_16in_place_index_tIXT_EEEDpOT0_
FNA:45,2,_ZNSt3__116__variant_detail12__assignmentINS0_8__traitsIJN7pyfolio8DateTimeENS3_5ErrorEEEEECI2NS0_6__baseILNS0_6_TraitE1EJS4_S5_EEEILm1EJS5_EEENS_16in_place_index_tIXT_EEEDpOT0_
FNA:45,1,_ZNSt3__116__variant_detail12__assignmentINS0_8__traitsIJN7pyfolio9analytics10statistics18StatisticalSummaryENS3_5ErrorEEEEECI2NS0_6__baseILNS0_6_TraitE1EJS6_S7_EEEILm0EJS6_EEENS_16in_place_index_tIXT_EEEDpOT0_
FNA:45,2,_ZNSt3__116__variant_detail12__assignmentINS0_8__traitsIJN7pyfolio9analytics10statistics18StatisticalSummaryENS3_5ErrorEEEEECI2NS0_6__baseILNS0_6_TraitE1EJS6_S7_EEEILm1EJS7_EEENS_16in_place_index_tIXT_EEEDpOT0_
FNA:45,1,_ZNSt3__116__variant_detail12__assignmentINS0_8__traitsIJN7pyfolio9analytics18PerformanceMetricsENS3_5ErrorEEEEECI2NS0_6__baseILNS0_6_TraitE1EJS5_S6_EEEILm0EJRKS5_EEENS_16in_place_index_tIXT_EEEDpOT0_
FNA:45,1,_ZNSt3__116__variant_detail12__assignmentINS0_8__traitsIJNS_4pairIN7pyfolio10TimeSeriesIdEES6_EENS4_5ErrorEEEEECI2NS0_6__baseILNS0_6_TraitE1EJS7_S8_EEEILm0EJS7_EEENS_16in_place_index_tIXT_EEEDpOT0_
FNA:45,0,_ZNSt3__116__variant_detail12__assignmentINS0_8__traitsIJNS_6vectorIN7pyfolio11performance12DrawdownInfoENS_9allocatorIS6_EEEENS4_5ErrorEEEEECI2NS0_6__baseILNS0_6_TraitE1EJS9_SA_EEEILm0EJS9_EEENS_16in_place_index_tIXT_EEEDpOT0_
FNA:45,0,_ZNSt3__116__variant_detail12__assignmentINS0_8__traitsIJNS_6vectorIN7pyfolio11performance12DrawdownInfoENS_9allocatorIS6_EEEENS4_5ErrorEEEEECI2NS0_6__baseILNS0_6_TraitE1EJS9_SA_EEEILm1EJSA_EEENS_16in_place_index_tIXT_EEEDpOT0_
FNA:45,0,_ZNSt3__116__variant_detail12__assignmentINS0_8__traitsIJNS_6vectorIdNS_9allocatorIdEEEEN7pyfolio5ErrorEEEEECI2NS0_6__baseILNS0_6_TraitE1EJS6_S8_EEEILm0EJS6_EEENS_16in_place_index_tIXT_EEEDpOT0_
FNA:45,0,_ZNSt3__116__variant_detail12__assignmentINS0_8__traitsIJNS_6vectorIdNS_9allocatorIdEEEEN7pyfolio5ErrorEEEEECI2NS0_6__baseILNS0_6_TraitE1EJS6_S8_EEEILm1EJS8_EEENS_16in_place_index_tIXT_EEEDpOT0_
FNA:45,20,_ZNSt3__116__variant_detail12__assignmentINS0_8__traitsIJdN7pyfolio5ErrorEEEEECI2NS0_6__baseILNS0_6_TraitE1EJdS4_EEEILm0EJRKdEEENS_16in_place_index_tIXT_EEEDpOT0_
FNA:45,100074,_ZNSt3__116__variant_detail12__assignmentINS0_8__traitsIJdN7pyfolio5ErrorEEEEECI2NS0_6__baseILNS0_6_TraitE1EJdS4_EEEILm0EJdEEENS_16in_place_index_tIXT_EEEDpOT0_
FNA:45,0,_ZNSt3__116__variant_detail12__assignmentINS0_8__traitsIJdN7pyfolio5ErrorEEEEECI2NS0_6__baseILNS0_6_TraitE1EJdS4_EEEILm1EJRKS4_EEENS_16in_place_index_tIXT_EEEDpOT0_
FNA:45,10,_ZNSt3__116__variant_detail12__assignmentINS0_8__traitsIJdN7pyfolio5ErrorEEEEECI2NS0_6__baseILNS0_6_TraitE1EJdS4_EEEILm1EJS4_EEENS_16in_place_index_tIXT_EEEDpOT0_
FNA:45,12,_ZNSt3__116__variant_detail12__assignmentINS0_8__traitsIJiN7pyfolio5ErrorEEEEECI2NS0_6__baseILNS0_6_TraitE1EJiS4_EEEILm0EJiEEENS_16in_place_index_tIXT_EEEDpOT0_
FNA:45,1,_ZNSt3__116__variant_detail12__assignmentINS0_8__traitsIJiN7pyfolio5ErrorEEEEECI2NS0_6__baseILNS0_6_TraitE1EJiS4_EEEILm1EJS4_EEENS_16in_place_index_tIXT_EEEDpOT0_
FNL:46,960
FNA:46,2,_ZNSt3__116__variant_detail17__move_assignmentINS0_8__traitsIJN7pyfolio10Statistics15AlphaBetaResultENS3_5ErrorEEEELNS0_6_TraitE1EECI2NS0_6__baseILS8_1EJS5_S6_EEEILm0EJRKS5_EEENS_16in_place_index_tIXT_EEEDpOT0_
FNA:46,0,_ZNSt3__116__variant_detail17__move_assignmentINS0_8__traitsIJN7pyfolio10Statistics15AlphaBetaResultENS3_5ErrorEEEELNS0_6_TraitE1EECI2NS0_6__baseILS8_1EJS5_S6_EEEILm1EJS6_EEENS_16in_place_index_tIXT_EEEDpOT0_
FNA:46,2,_ZNSt3__116__variant_detail17__move_assignmentINS0_8__traitsIJN7pyfolio10Statistics15AlphaBetaResultENS3_5ErrorEEEELNS0_6_TraitE1EED2Ev
FNA:46,2,_ZNSt3__116__variant_detail17__move_assignmentINS0_8__traitsIJN7pyfolio10Statistics18SimpleDrawdownInfoENS3_5ErrorEEEELNS0_6_TraitE1EECI2NS0_6__baseILS8_1EJS5_S6_EEEILm0EJRKS5_EEENS_16in_place_index_tIXT_EEEDpOT0_
FNA:46,0,_ZNSt3__116__variant_detail17__move_assignmentINS0_8__traitsIJN7pyfolio10Statistics18SimpleDrawdownInfoENS3_5ErrorEEEELNS0_6_TraitE1EECI2NS0_6__baseILS8_1EJS5_S6_EEEILm1EJS6_EEENS_16in_place_index_tIXT_EEEDpOT0_
FNA:46,2,_ZNSt3__116__variant_detail17__move_assignmentINS0_8__traitsIJN7pyfolio10Statistics18SimpleDrawdownInfoENS3_5ErrorEEEELNS0_6_TraitE1EED2Ev
FNA:46,0,_ZNSt3__116__variant_detail17__move_assignmentINS0_8__traitsIJN7pyfolio10TimeSeriesIdEENS3_5ErrorEEEELNS0_6_TraitE1EEC2EOS9_
FNA:46,1,_ZNSt3__116__variant_detail17__move_assignmentINS0_8__traitsIJN7pyfolio10TimeSeriesIdEENS3_5ErrorEEEELNS0_6_TraitE1EECI2NS0_6__baseILS8_1EJS5_S6_EEEILm0EJRKS5_EEENS_16in_place_index_tIXT_EEEDpOT0_
FNA:46,12,_ZNSt3__116__variant_detail17__move_assignmentINS0_8__traitsIJN7pyfolio10TimeSeriesIdEENS3_5ErrorEEEELNS0_6_TraitE1EECI2NS0_6__baseILS8_1EJS5_S6_EEEILm0EJS5_EEENS_16in_place_index_tIXT_EEEDpOT0_
FNA:46,1,_ZNSt3__116__variant_detail17__move_assignmentINS0_8__traitsIJN7pyfolio10TimeSeriesIdEENS3_5ErrorEEEELNS0_6_TraitE1EECI2NS0_6__baseILS8_1EJS5_S6_EEEILm1EJS6_EEENS_16in_place_index_tIXT_EEEDpOT0_
FNA:46,14,_ZNSt3__116__variant_detail17__move_assignmentINS0_8__traitsIJN7pyfolio10TimeSeriesIdEENS3_5ErrorEEEELNS0_6_TraitE1EED2Ev
FNA:46,0,_ZNSt3__116__variant_detail17__move_assignmentINS0_8__traitsIJN7pyfolio11performance12DrawdownInfoENS3_5ErrorEEEELNS0_6_TraitE1EECI2NS0_6__baseILS8_1EJS5_S6_EEEILm0EJRKS5_EEENS_16in_place_index_tIXT_EEEDpOT0_
FNA:46,0,_ZNSt3__116__variant_detail17__move_assignmentINS0_8__traitsIJN7pyfolio11performance12DrawdownInfoENS3_5ErrorEEEELNS0_6_TraitE1EECI2NS0_6__baseILS8_1EJS5_S6_EEEILm1EJS6_EEENS_16in_place_index_tIXT_EEEDpOT0_
FNA:46,1,_ZNSt3__116__variant_detail17__move_assignmentINS0_8__traitsIJN7pyfolio18PerformanceMetrics18CaptureRatioResultENS3_5ErrorEEEELNS0_6_TraitE1EECI2NS0_6__baseILS8_1EJS5_S6_EEEILm0EJRKS5_EEENS_16in_place_index_tIXT_EEEDpOT0_
FNA:46,1,_ZNSt3__116__variant_detail17__move_assignmentINS0_8__traitsIJN7pyfolio18PerformanceMetrics18CaptureRatioResultENS3_5ErrorEEEELNS0_6_TraitE1EED2Ev
FNA:46,389,_ZNSt3__116__variant_detail17__move_assignmentINS0_8__traitsIJN7pyfolio8DateTimeENS3_5ErrorEEEELNS0_6_TraitE1EECI2NS0_6__baseILS7_1EJS4_S5_EEEILm0EJS4_EEENS_16in_place_index_tIXT_EEEDpOT0_
FNA:46,2,_ZNSt3__116__variant_detail17__move_assignmentINS0_8__traitsIJN7pyfolio8DateTimeENS3_5ErrorEEEELNS0_6_TraitE1EECI2NS0_6__baseILS7_1EJS4_S5_EEEILm1EJS5_EEENS_16in_place_index_tIXT_EEEDpOT0_
FNA:46,391,_ZNSt3__116__variant_detail17__move_assignmentINS0_8__traitsIJN7pyfolio8DateTimeENS3_5ErrorEEEELNS0_6_TraitE1EED2Ev
FNA:46,1,_ZNSt3__116__variant_detail17__move_assignmentINS0_8__traitsIJN7pyfolio9analytics10statistics18StatisticalSummaryENS3_5ErrorEEEELNS0_6_TraitE1EECI2NS0_6__baseILS9_1EJS6_S7_EEEILm0EJS6_EEENS_16in_place_index_tIXT_EEEDpOT0_
FNA:46,2,_ZNSt3__116__variant_detail17__move_assignmentINS0_8__traitsIJN7pyfolio9analytics10statistics18StatisticalSummaryENS3_5ErrorEEEELNS0_6_TraitE1EECI2NS0_6__baseILS9_1EJS6_S7_EEEILm1EJS7_EEENS_16in_place_index_tIXT_EEEDpOT0_
FNA:46,3,_ZNSt3__116__variant_detail17__move_assignmentINS0_8__traitsIJN7pyfolio9analytics10statistics18StatisticalSummaryENS3_5ErrorEEEELNS0_6_TraitE1EED2Ev
FNA:46,1,_ZNSt3__116__variant_detail17__move_assignmentINS0_8__traitsIJN7pyfolio9analytics18PerformanceMetricsENS3_5ErrorEEEELNS0_6_TraitE1EECI2NS0_6__baseILS8_1EJS5_S6_EEEILm0EJRKS5_EEENS_16in_place_index_tIXT_EEEDpOT0_
FNA:46,1,_ZNSt3__116__variant_detail17__move_assignmentINS0_8__traitsIJN7pyfolio9analytics18PerformanceMetricsENS3_5ErrorEEEELNS0_6_TraitE1EED2Ev
FNA:46,1,_ZNSt3__116__variant_detail17__move_assignmentINS0_8__traitsIJNS_4pairIN7pyfolio10TimeSeriesIdEES6_EENS4_5ErrorEEEELNS0_6_TraitE1EECI2NS0_6__baseILSA_1EJS7_S8_EEEILm0EJS7_EEENS_16in_place_index_tIXT_EEEDpOT0_
FNA:46,1,_ZNSt3__116__variant_detail17__move_assignmentINS0_8__traitsIJNS_4pairIN7pyfolio10TimeSeriesIdEES6_EENS4_5ErrorEEEELNS0_6_TraitE1EED2Ev
FNA:46,0,_ZNSt3__116__variant_detail17__move_assignmentINS0_8__traitsIJNS_6vectorIN7pyfolio11performance12DrawdownInfoENS_9allocatorIS6_EEEENS4_5ErrorEEEELNS0_6_TraitE1EECI2NS0_6__baseILSC_1EJS9_SA_EEEILm0EJS9_EEENS_16in_place_index_tIXT_EEEDpOT0_
FNA:46,0,_ZNSt3__116__variant_detail17__move_assignmentINS0_8__traitsIJNS_6vectorIN7pyfolio11performance12DrawdownInfoENS_9allocatorIS6_EEEENS4_5ErrorEEEELNS0_6_TraitE1EECI2NS0_6__baseILSC_1EJS9_SA_EEEILm1EJSA_EEENS_16in_place_index_tIXT_EEEDpOT0_
FNA:46,0,_ZNSt3__116__variant_detail17__move_assignmentINS0_8__traitsIJNS_6vectorIN7pyfolio11performance12DrawdownInfoENS_9allocatorIS6_EEEENS4_5ErrorEEEELNS0_6_TraitE1EED2Ev
FNA:46,0,_ZNSt3__116__variant_detail17__move_assignmentINS0_8__traitsIJNS_6vectorIdNS_9allocatorIdEEEEN7pyfolio5ErrorEEEELNS0_6_TraitE1EECI2NS0_6__baseILSA_1EJS6_S8_EEEILm0EJS6_EEENS_16in_place_index_tIXT_EEEDpOT0_
FNA:46,0,_ZNSt3__116__variant_detail17__move_assignmentINS0_8__traitsIJNS_6vectorIdNS_9allocatorIdEEEEN7pyfolio5ErrorEEEELNS0_6_TraitE1EECI2NS0_6__baseILSA_1EJS6_S8_EEEILm1EJS8_EEENS_16in_place_index_tIXT_EEEDpOT0_
FNA:46,0,_ZNSt3__116__variant_detail17__move_assignmentINS0_8__traitsIJNS_6vectorIdNS_9allocatorIdEEEEN7pyfolio5ErrorEEEELNS0_6_TraitE1EED2Ev
FNA:46,1,_ZNSt3__116__variant_detail17__move_assignmentINS0_8__traitsIJdN7pyfolio5ErrorEEEELNS0_6_TraitE1EEC2EOS7_
FNA:46,20,_ZNSt3__116__variant_detail17__move_assignmentINS0_8__traitsIJdN7pyfolio5ErrorEEEELNS0_6_TraitE1EECI2NS0_6__baseILS6_1EJdS4_EEEILm0EJRKdEEENS_16in_place_index_tIXT_EEEDpOT0_
FNA:46,100074,_ZNSt3__116__variant_detail17__move_assignmentINS0_8__traitsIJdN7pyfolio5ErrorEEEELNS0_6_TraitE1EECI2NS0_6__baseILS6_1EJdS4_EEEILm0EJdEEENS_16in_place_index_tIXT_EEEDpOT0_
FNA:46,0,_ZNSt3__116__variant_detail17__move_assignmentINS0_8__traitsIJdN7pyfolio5ErrorEEEELNS0_6_TraitE1EECI2NS0_6__baseILS6_1EJdS4_EEEILm1EJRKS4_EEENS_16in_place_index_tIXT_EEEDpOT0_
FNA:46,10,_ZNSt3__116__variant_detail17__move_assignmentINS0_8__traitsIJdN7pyfolio5ErrorEEEELNS0_6_TraitE1EECI2NS0_6__baseILS6_1EJdS4_EEEILm1EJS4_EEENS_16in_place_index_tIXT_EEEDpOT0_
FNA:46,100105,_ZNSt3__116__variant_detail17__move_assignmentINS0_8__traitsIJdN7pyfolio5ErrorEEEELNS0_6_TraitE1EED2Ev
FNA:46,12,_ZNSt3__116__variant_detail17__move_assignmentINS0_8__traitsIJiN7pyfolio5ErrorEEEELNS0_6_TraitE1EECI2NS0_6__baseILS6_1EJiS4_EEEILm0EJiEEENS_16in_place_index_tIXT_EEEDpOT0_
FNA:46,1,_ZNSt3__116__variant_detail17__move_assignmentINS0_8__traitsIJiN7pyfolio5ErrorEEEELNS0_6_TraitE1EECI2NS0_6__baseILS6_1EJiS4_EEEILm1EJS4_EEENS_16in_place_index_tIXT_EEEDpOT0_
FNA:46,13,_ZNSt3__116__variant_detail17__move_assignmentINS0_8__traitsIJiN7pyfolio5ErrorEEEELNS0_6_TraitE1EED2Ev
FNL:47,995
FNA:47,2,_ZNSt3__116__variant_detail17__copy_assignmentINS0_8__traitsIJN7pyfolio10Statistics15AlphaBetaResultENS3_5ErrorEEEELNS0_6_TraitE1EECI2NS0_6__baseILS8_1EJS5_S6_EEEILm0EJRKS5_EEENS_16in_place_index_tIXT_EEEDpOT0_
FNA:47,0,_ZNSt3__116__variant_detail17__copy_assignmentINS0_8__traitsIJN7pyfolio10Statistics15AlphaBetaResultENS3_5ErrorEEEELNS0_6_TraitE1EECI2NS0_6__baseILS8_1EJS5_S6_EEEILm1EJS6_EEENS_16in_place_index_tIXT_EEEDpOT0_
FNA:47,2,_ZNSt3__116__variant_detail17__copy_assignmentINS0_8__traitsIJN7pyfolio10Statistics15AlphaBetaResultENS3_5ErrorEEEELNS0_6_TraitE1EED2Ev
FNA:47,2,_ZNSt3__116__variant_detail17__copy_assignmentINS0_8__traitsIJN7pyfolio10Statistics18SimpleDrawdownInfoENS3_5ErrorEEEELNS0_6_TraitE1EECI2NS0_6__baseILS8_1EJS5_S6_EEEILm0EJRKS5_EEENS_16in_place_index_tIXT_EEEDpOT0_
FNA:47,0,_ZNSt3__116__variant_detail17__copy_assignmentINS0_8__traitsIJN7pyfolio10Statistics18SimpleDrawdownInfoENS3_5ErrorEEEELNS0_6_TraitE1EECI2NS0_6__baseILS8_1EJS5_S6_EEEILm1EJS6_EEENS_16in_place_index_tIXT_EEEDpOT0_
FNA:47,2,_ZNSt3__116__variant_detail17__copy_assignmentINS0_8__traitsIJN7pyfolio10Statistics18SimpleDrawdownInfoENS3_5ErrorEEEELNS0_6_TraitE1EED2Ev
FNA:47,0,_ZNSt3__116__variant_detail17__copy_assignmentINS0_8__traitsIJN7pyfolio10TimeSeriesIdEENS3_5ErrorEEEELNS0_6_TraitE1EEC2EOS9_
FNA:47,1,_ZNSt3__116__variant_detail17__copy_assignmentINS0_8__traitsIJN7pyfolio10TimeSeriesIdEENS3_5ErrorEEEELNS0_6_TraitE1EECI2NS0_6__baseILS8_1EJS5_S6_EEEILm0EJRKS5_EEENS_16in_place_index_tIXT_EEEDpOT0_
FNA:47,12,_ZNSt3__116__variant_detail17__copy_assignmentINS0_8__traitsIJN7pyfolio10TimeSeriesIdEENS3_5ErrorEEEELNS0_6_TraitE1EECI2NS0_6__baseILS8_1EJS5_S6_EEEILm0EJS5_EEENS_16in_place_index_tIXT_EEEDpOT0_
FNA:47,1,_ZNSt3__116__variant_detail17__copy_assignmentINS0_8__traitsIJN7pyfolio10TimeSeriesIdEENS3_5ErrorEEEELNS0_6_TraitE1EECI2NS0_6__baseILS8_1EJS5_S6_EEEILm1EJS6_EEENS_16in_place_index_tIXT_EEEDpOT0_
FNA:47,14,_ZNSt3__116__variant_detail17__copy_assignmentINS0_8__traitsIJN7pyfolio10TimeSeriesIdEENS3_5ErrorEEEELNS0_6_TraitE1EED2Ev
FNA:47,0,_ZNSt3__116__variant_detail17__copy_assignmentINS0_8__traitsIJN7pyfolio11performance12DrawdownInfoENS3_5ErrorEEEELNS0_6_TraitE1EECI2NS0_6__baseILS8_1EJS5_S6_EEEILm0EJRKS5_EEENS_16in_place_index_tIXT_EEEDpOT0_
FNA:47,0,_ZNSt3__116__variant_detail17__copy_assignmentINS0_8__traitsIJN7pyfolio11performance12DrawdownInfoENS3_5ErrorEEEELNS0_6_TraitE1EECI2NS0_6__baseILS8_1EJS5_S6_EEEILm1EJS6_EEENS_16in_place_index_tIXT_EEEDpOT0_
FNA:47,1,_ZNSt3__116__variant_detail17__copy_assignmentINS0_8__traitsIJN7pyfolio18PerformanceMetrics18CaptureRatioResultENS3_5ErrorEEEELNS0_6_TraitE1EECI2NS0_6__baseILS8_1EJS5_S6_EEEILm0EJRKS5_EEENS_16in_place_index_tIXT_EEEDpOT0_
FNA:47,1,_ZNSt3__116__variant_detail17__copy_assignmentINS0_8__traitsIJN7pyfolio18PerformanceMetrics18CaptureRatioResultENS3_5ErrorEEEELNS0_6_TraitE1EED2Ev
FNA:47,389,_ZNSt3__116__variant_detail17__copy_assignmentINS0_8__traitsIJN7pyfolio8DateTimeENS3_5ErrorEEEELNS0_6_TraitE1EECI2NS0_6__baseILS7_1EJS4_S5_EEEILm0EJS4_EEENS_16in_place_index_tIXT_EEEDpOT0_
FNA:47,2,_ZNSt3__116__variant_detail17__copy_assignmentINS0_8__traitsIJN7pyfolio8DateTimeENS3_5ErrorEEEELNS0_6_TraitE1EECI2NS0_6__baseILS7_1EJS4_S5_EEEILm1EJS5_EEENS_16in_place_index_tIXT_EEEDpOT0_
FNA:47,391,_ZNSt3__116__variant_detail17__copy_assignmentINS0_8__traitsIJN7pyfolio8DateTimeENS3_5ErrorEEEELNS0_6_TraitE1EED2Ev
FNA:47,1,_ZNSt3__116__variant_detail17__copy_assignmentINS0_8__traitsIJN7pyfolio9analytics10statistics18StatisticalSummaryENS3_5ErrorEEEELNS0_6_TraitE1EECI2NS0_6__baseILS9_1EJS6_S7_EEEILm0EJS6_EEENS_16in_place_index_tIXT_EEEDpOT0_
FNA:47,2,_ZNSt3__116__variant_detail17__copy_assignmentINS0_8__traitsIJN7pyfolio9analytics10statistics18StatisticalSummaryENS3_5ErrorEEEELNS0_6_TraitE1EECI2NS0_6__baseILS9_1EJS6_S7_EEEILm1EJS7_EEENS_16in_place_index_tIXT_EEEDpOT0_
FNA:47,3,_ZNSt3__116__variant_detail17__copy_assignmentINS0_8__traitsIJN7pyfolio9analytics10statistics18StatisticalSummaryENS3_5ErrorEEEELNS0_6_TraitE1EED2Ev
FNA:47,1,_ZNSt3__116__variant_detail17__copy_assignmentINS0_8__traitsIJN7pyfolio9analytics18PerformanceMetricsENS3_5ErrorEEEELNS0_6_TraitE1EECI2NS0_6__baseILS8_1EJS5_S6_EEEILm0EJRKS5_EEENS_16in_place_index_tIXT_EEEDpOT0_
FNA:47,1,_ZNSt3__116__variant_detail17__copy_assignmentINS0_8__traitsIJN7pyfolio9analytics18PerformanceMetricsENS3_5ErrorEEEELNS0_6_TraitE1EED2Ev
FNA:47,1,_ZNSt3__116__variant_detail17__copy_assignmentINS0_8__traitsIJNS_4pairIN7pyfolio10TimeSeriesIdEES6_EENS4_5ErrorEEEELNS0_6_TraitE1EECI2NS0_6__baseILSA_1EJS7_S8_EEEILm0EJS7_EEENS_16in_place_index_tIXT_EEEDpOT0_
FNA:47,1,_ZNSt3__116__variant_detail17__copy_assignmentINS0_8__traitsIJNS_4pairIN7pyfolio10TimeSeriesIdEES6_EENS4_5ErrorEEEELNS0_6_TraitE1EED2Ev
FNA:47,0,_ZNSt3__116__variant_detail17__copy_assignmentINS0_8__traitsIJNS_6vectorIN7pyfolio11performance12DrawdownInfoENS_9allocatorIS6_EEEENS4_5ErrorEEEELNS0_6_TraitE1EECI2NS0_6__baseILSC_1EJS9_SA_EEEILm0EJS9_EEENS_16in_place_index_tIXT_EEEDpOT0_
FNA:47,0,_ZNSt3__116__variant_detail17__copy_assignmentINS0_8__traitsIJNS_6vectorIN7pyfolio11performance12DrawdownInfoENS_9allocatorIS6_EEEENS4_5ErrorEEEELNS0_6_TraitE1EECI2NS0_6__baseILSC_1EJS9_SA_EEEILm1EJSA_EEENS_16in_place_index_tIXT_EEEDpOT0_
FNA:47,0,_ZNSt3__116__variant_detail17__copy_assignmentINS0_8__traitsIJNS_6vectorIN7pyfolio11performance12DrawdownInfoENS_9allocatorIS6_EEEENS4_5ErrorEEEELNS0_6_TraitE1EED2Ev
FNA:47,0,_ZNSt3__116__variant_detail17__copy_assignmentINS0_8__traitsIJNS_6vectorIdNS_9allocatorIdEEEEN7pyfolio5ErrorEEEELNS0_6_TraitE1EECI2NS0_6__baseILSA_1EJS6_S8_EEEILm0EJS6_EEENS_16in_place_index_tIXT_EEEDpOT0_
FNA:47,0,_ZNSt3__116__variant_detail17__copy_assignmentINS0_8__traitsIJNS_6vectorIdNS_9allocatorIdEEEEN7pyfolio5ErrorEEEELNS0_6_TraitE1EECI2NS0_6__baseILSA_1EJS6_S8_EEEILm1EJS8_EEENS_16in_place_index_tIXT_EEEDpOT0_
FNA:47,0,_ZNSt3__116__variant_detail17__copy_assignmentINS0_8__traitsIJNS_6vectorIdNS_9allocatorIdEEEEN7pyfolio5ErrorEEEELNS0_6_TraitE1EED2Ev
FNA:47,1,_ZNSt3__116__variant_detail17__copy_assignmentINS0_8__traitsIJdN7pyfolio5ErrorEEEELNS0_6_TraitE1EEC2EOS7_
FNA:47,20,_ZNSt3__116__variant_detail17__copy_assignmentINS0_8__traitsIJdN7pyfolio5ErrorEEEELNS0_6_TraitE1EECI2NS0_6__baseILS6_1EJdS4_EEEILm0EJRKdEEENS_16in_place_index_tIXT_EEEDpOT0_
FNA:47,100074,_ZNSt3__116__variant_detail17__copy_assignmentINS0_8__traitsIJdN7pyfolio5ErrorEEEELNS0_6_TraitE1EECI2NS0_6__baseILS6_1EJdS4_EEEILm0EJdEEENS_16in_place_index_tIXT_EEEDpOT0_
FNA:47,0,_ZNSt3__116__variant_detail17__copy_assignmentINS0_8__traitsIJdN7pyfolio5ErrorEEEELNS0_6_TraitE1EECI2NS0_6__baseILS6_1EJdS4_EEEILm1EJRKS4_EEENS_16in_place_index_tIXT_EEEDpOT0_
FNA:47,10,_ZNSt3__116__variant_detail17__copy_assignmentINS0_8__traitsIJdN7pyfolio5ErrorEEEELNS0_6_TraitE1EECI2NS0_6__baseILS6_1EJdS4_EEEILm1EJS4_EEENS_16in_place_index_tIXT_EEEDpOT0_
FNA:47,100105,_ZNSt3__116__variant_detail17__copy_assignmentINS0_8__traitsIJdN7pyfolio5ErrorEEEELNS0_6_TraitE1EED2Ev
FNA:47,12,_ZNSt3__116__variant_detail17__copy_assignmentINS0_8__traitsIJiN7pyfolio5ErrorEEEELNS0_6_TraitE1EECI2NS0_6__baseILS6_1EJiS4_EEEILm0EJiEEENS_16in_place_index_tIXT_EEEDpOT0_
FNA:47,1,_ZNSt3__116__variant_detail17__copy_assignmentINS0_8__traitsIJiN7pyfolio5ErrorEEEELNS0_6_TraitE1EECI2NS0_6__baseILS6_1EJiS4_EEEILm1EJS4_EEENS_16in_place_index_tIXT_EEEDpOT0_
FNA:47,13,_ZNSt3__116__variant_detail17__copy_assignmentINS0_8__traitsIJiN7pyfolio5ErrorEEEELNS0_6_TraitE1EED2Ev
FNF:48
FNH:46
DA:288,100534
DA:292,0
DA:294,0
DA:462,201045
DA:463,201045
DA:467,22
DA:468,22
DA:474,201045
DA:475,201045
DA:481,100510
DA:482,100510
DA:493,1
DA:494,1
DA:495,1
DA:499,100533
DA:500,100533
DA:501,100533
DA:506,100533
DA:507,100533
DA:512,100533
DA:513,100533
DA:532,100534
DA:533,100534
DA:661,201066
DA:662,201066
DA:705,402164
DA:715,1
DA:716,1
DA:719,100532
DA:720,100532
DA:722,100535
DA:724,502234
DA:725,502234
DA:729,100534
DA:731,1
DA:773,301600
DA:802,1
DA:803,1
DA:804,1
DA:808,1
DA:809,1
DA:810,1
DA:811,1
DA:812,1
DA:813,1
DA:814,1
DA:815,1
DA:816,1
DA:817,1
DA:818,1
DA:819,1
DA:820,1
DA:821,1
DA:846,100534
DA:877,100534
DA:960,100534
DA:995,100534
DA:1012,2
DA:1178,2
DA:1187,201064
DA:1188,201064
DA:1230,201066
DA:1286,301165
DA:1326,301165
DA:1327,301165
DA:1331,200655
DA:1332,200655
DA:1336,100510
DA:1338,100510
DA:1339,0
DA:1341,100510
DA:1347,100506
DA:1350,100506
DA:1365,4
DA:1368,4
DA:1381,100506
DA:1383,100506
DA:1394,4
DA:1396,4
LF:79
LH:76
end_of_record
TN:
SF:/Library/Developer/CommandLineTools/SDKs/MacOSX.sdk/usr/include/c++/v1/vector
FNL:0,1019
FNA:0,230,_ZNSt3__16vectorIN7pyfolio8DateTimeENS_9allocatorIS2_EEE13__vdeallocateEv
FNA:0,18,_ZNSt3__16vectorINS_3mapINS_12basic_stringIcNS_11char_traitsIcEENS_9allocatorIcEEEEdNS_4lessIS7_EENS5_INS_4pairIKS7_dEEEEEENS5_ISE_EEE13__vdeallocateEv
FNA:0,247,_ZNSt3__16vectorIdNS_9allocatorIdEEE13__vdeallocateEv
FNL:1,1030
FNA:1,0,_ZNKSt3__16vectorIN7pyfolio11performance12DrawdownInfoENS_9allocatorIS3_EEE8max_sizeEv
FNA:1,349,_ZNKSt3__16vectorIN7pyfolio8DateTimeENS_9allocatorIS2_EEE8max_sizeEv
FNA:1,36,_ZNKSt3__16vectorINS_3mapINS_12basic_stringIcNS_11char_traitsIcEENS_9allocatorIcEEEEdNS_4lessIS7_EENS5_INS_4pairIKS7_dEEEEEENS5_ISE_EEE8max_sizeEv
FNA:1,5,_ZNKSt3__16vectorINS_6threadENS_9allocatorIS1_EEE8max_sizeEv
FNA:1,445,_ZNKSt3__16vectorIdNS_9allocatorIdEEE8max_sizeEv
FNA:1,0,_ZNKSt3__16vectorIiNS_9allocatorIiEEE8max_sizeEv
FNA:1,95,_ZNKSt3__16vectorImNS_9allocatorImEEE8max_sizeEv
FNL:2,1037
FNA:2,0,_ZNKSt3__16vectorIN7pyfolio11performance12DrawdownInfoENS_9allocatorIS3_EEE11__recommendB8ne180100Em
FNA:2,79,_ZNKSt3__16vectorIN7pyfolio8DateTimeENS_9allocatorIS2_EEE11__recommendB8ne180100Em
FNA:2,18,_ZNKSt3__16vectorINS_3mapINS_12basic_stringIcNS_11char_traitsIcEENS_9allocatorIcEEEEdNS_4lessIS7_EENS5_INS_4pairIKS7_dEEEEEENS5_ISE_EEE11__recommendB8ne180100Em
FNA:2,5,_ZNKSt3__16vectorINS_6threadENS_9allocatorIS1_EEE11__recommendB8ne180100Em
FNA:2,123,_ZNKSt3__16vectorIdNS_9allocatorIdEEE11__recommendB8ne180100Em
FNA:2,0,_ZNKSt3__16vectorIiNS_9allocatorIiEEE11__recommendB8ne180100Em
FNL:3,1053
FNA:3,95,_ZNSt3__16vectorImNS_9allocatorImEEE18__construct_at_endEm
FNL:4,1069
FNA:4,1,_ZNSt3__16vectorIdNS_9allocatorIdEEE18__construct_at_endEmRKd
FNL:5,1080
FNA:5,1,_ZNSt3__16vectorIN7pyfolio8DateTimeENS_9allocatorIS2_EEE18__construct_at_endINS_11__wrap_iterIPKS2_EESA_EEvT_T0_m
FNA:5,53,_ZNSt3__16vectorIN7pyfolio8DateTimeENS_9allocatorIS2_EEE18__construct_at_endIPKS2_S8_EEvT_T0_m
FNA:5,121,_ZNSt3__16vectorIN7pyfolio8DateTimeENS_9allocatorIS2_EEE18__construct_at_endIPS2_S7_EEvT_T0_m
FNA:5,18,_ZNSt3__16vectorINS_3mapINS_12basic_stringIcNS_11char_traitsIcEENS_9allocatorIcEEEEdNS_4lessIS7_EENS5_INS_4pairIKS7_dEEEEEENS5_ISE_EEE18__construct_at_endIPKSE_SJ_EEvT_T0_m
FNA:5,4,_ZNSt3__16vectorIdNS_9allocatorIdEEE18__construct_at_endINS_11__wrap_iterIPKdEES8_EEvT_T0_m
FNA:5,87,_ZNSt3__16vectorIdNS_9allocatorIdEEE18__construct_at_endIPKdS6_EEvT_T0_m
FNA:5,129,_ZNSt3__16vectorIdNS_9allocatorIdEEE18__construct_at_endIPdS5_EEvT_T0_m
FNL:6,1118
FNA:6,95,_ZNSt3__16vectorImNS_9allocatorImEEEC1Em
FNA:6,95,_ZNSt3__16vectorImNS_9allocatorImEEEC2Em
FNL:7,1141
FNA:7,1,_ZNSt3__16vectorIdNS_9allocatorIdEEEC1EmRKd
FNA:7,1,_ZNSt3__16vectorIdNS_9allocatorIdEEEC2EmRKd
FNL:8,1175
FNA:8,1,_ZNSt3__16vectorIN7pyfolio8DateTimeENS_9allocatorIS2_EEEC1INS_11__wrap_iterIPKS2_EELi0EEET_SB_
FNA:8,1,_ZNSt3__16vectorIN7pyfolio8DateTimeENS_9allocatorIS2_EEEC2INS_11__wrap_iterIPKS2_EELi0EEET_SB_
FNA:8,4,_ZNSt3__16vectorIdNS_9allocatorIdEEEC1INS_11__wrap_iterIPKdEELi0EEET_S9_
FNA:8,4,_ZNSt3__16vectorIdNS_9allocatorIdEEEC2INS_11__wrap_iterIPKdEELi0EEET_S9_
FNL:9,1193
FNA:9,103,_ZNSt3__16vectorIN7pyfolio8DateTimeENS_9allocatorIS2_EEEC1ERKS5_
FNA:9,103,_ZNSt3__16vectorIN7pyfolio8DateTimeENS_9allocatorIS2_EEEC2ERKS5_
FNA:9,129,_ZNSt3__16vectorIdNS_9allocatorIdEEEC1ERKS3_
FNA:9,129,_ZNSt3__16vectorIdNS_9allocatorIdEEEC2ERKS3_
FNL:10,1206
FNA:10,0,_ZNSt3__16vectorIN7pyfolio11performance12DrawdownInfoENS_9allocatorIS3_EEEC1B8ne180100EOS6_
FNA:10,0,_ZNSt3__16vectorIN7pyfolio11performance12DrawdownInfoENS_9allocatorIS3_EEEC2B8ne180100EOS6_
FNA:10,19,_ZNSt3__16vectorIN7pyfolio8DateTimeENS_9allocatorIS2_EEEC1B8ne180100EOS5_
FNA:10,19,_ZNSt3__16vectorIN7pyfolio8DateTimeENS_9allocatorIS2_EEEC2B8ne180100EOS5_
FNA:10,19,_ZNSt3__16vectorIdNS_9allocatorIdEEEC1B8ne180100EOS3_
FNA:10,19,_ZNSt3__16vectorIdNS_9allocatorIdEEEC2B8ne180100EOS3_
FNL:11,1240
FNA:11,6,_ZNSt3__16vectorIN7pyfolio8DateTimeENS_9allocatorIS2_EEEC1B8ne180100ESt16initializer_listIS2_E
FNA:11,6,_ZNSt3__16vectorIN7pyfolio8DateTimeENS_9allocatorIS2_EEEC2B8ne180100ESt16initializer_listIS2_E
FNA:11,5,_ZNSt3__16vectorIdNS_9allocatorIdEEEC1B8ne180100ESt16initializer_listIdE
FNA:11,5,_ZNSt3__16vectorIdNS_9allocatorIdEEEC2B8ne180100ESt16initializer_listIdE
FNL:12,1265
FNA:12,165,_ZNSt3__16vectorIN7pyfolio8DateTimeENS_9allocatorIS2_EEEaSB8ne180100EOS5_
FNA:12,165,_ZNSt3__16vectorIdNS_9allocatorIdEEEaSB8ne180100EOS3_
FNL:13,1282
FNA:13,165,_ZNSt3__16vectorIN7pyfolio8DateTimeENS_9allocatorIS2_EEE13__move_assignERS5_NS_17integral_constantIbLb1EEE
FNA:13,165,_ZNSt3__16vectorIdNS_9allocatorIdEEE13__move_assignERS3_NS_17integral_constantIbLb1EEE
FNL:14,1294
FNA:14,18,_ZNSt3__16vectorIN7pyfolio8DateTimeENS_9allocatorIS2_EEEaSB8ne180100ERKS5_
FNL:15,1325
FNA:15,47,_ZNSt3__16vectorIN7pyfolio8DateTimeENS_9allocatorIS2_EEE6assignIPKS2_Li0EEEvT_S9_
FNA:15,18,_ZNSt3__16vectorIN7pyfolio8DateTimeENS_9allocatorIS2_EEE6assignIPS2_Li0EEEvT_S8_
FNA:15,18,_ZNSt3__16vectorINS_3mapINS_12basic_stringIcNS_11char_traitsIcEENS_9allocatorIcEEEEdNS_4lessIS7_EENS5_INS_4pairIKS7_dEEEEEENS5_ISE_EEE6assignIPKSE_Li0EEEvT_SK_
FNA:15,82,_ZNSt3__16vectorIdNS_9allocatorIdEEE6assignIPKdLi0EEEvT_S7_
FNL:16,1332
FNA:16,47,_ZNSt3__16vectorIN7pyfolio8DateTimeENS_9allocatorIS2_EEE18__assign_with_sizeB8ne180100IPKS2_S8_EEvT_T0_l
FNA:16,18,_ZNSt3__16vectorIN7pyfolio8DateTimeENS_9allocatorIS2_EEE18__assign_with_sizeB8ne180100IPS2_S7_EEvT_T0_l
FNA:16,18,_ZNSt3__16vectorINS_3mapINS_12basic_stringIcNS_11char_traitsIcEENS_9allocatorIcEEEEdNS_4lessIS7_EENS5_INS_4pairIKS7_dEEEEEENS5_ISE_EEE18__assign_with_sizeB8ne180100IPKSE_SJ_EEvT_T0_l
FNA:16,82,_ZNSt3__16vectorIdNS_9allocatorIdEEE18__assign_with_sizeB8ne180100IPKdS6_EEvT_T0_l
FNL:17,1368
FNA:17,1,_ZNSt3__16vectorINS_6threadENS_9allocatorIS1_EEE5beginB8ne180100Ev
FNA:17,23,_ZNSt3__16vectorIdNS_9allocatorIdEEE5beginB8ne180100Ev
FNA:17,0,_ZNSt3__16vectorIiNS_9allocatorIiEEE5beginB8ne180100Ev
FNA:17,285,_ZNSt3__16vectorImNS_9allocatorImEEE5beginB8ne180100Ev
FNL:18,1374
FNA:18,0,_ZNKSt3__16vectorIN7pyfolio11performance12DrawdownInfoENS_9allocatorIS3_EEE5beginB8ne180100Ev
FNA:18,6,_ZNKSt3__16vectorIN7pyfolio8DateTimeENS_9allocatorIS2_EEE5beginB8ne180100Ev
FNA:18,52,_ZNKSt3__16vectorIdNS_9allocatorIdEEE5beginB8ne180100Ev
FNL:19,1380
FNA:19,1,_ZNSt3__16vectorINS_6threadENS_9allocatorIS1_EEE3endB8ne180100Ev
FNA:19,23,_ZNSt3__16vectorIdNS_9allocatorIdEEE3endB8ne180100Ev
FNA:19,0,_ZNSt3__16vectorIiNS_9allocatorIiEEE3endB8ne180100Ev
FNA:19,285,_ZNSt3__16vectorImNS_9allocatorImEEE3endB8ne180100Ev
FNL:20,1386
FNA:20,0,_ZNKSt3__16vectorIN7pyfolio11performance12DrawdownInfoENS_9allocatorIS3_EEE3endB8ne180100Ev
FNA:20,3,_ZNKSt3__16vectorIN7pyfolio8DateTimeENS_9allocatorIS2_EEE3endB8ne180100Ev
FNA:20,50,_ZNKSt3__16vectorIdNS_9allocatorIdEEE3endB8ne180100Ev
FNL:21,1392
FNA:21,2122,_ZNSt3__16vectorIN7pyfolio8DateTimeENS_9allocatorIS2_EEEixB8ne180100Em
FNA:21,934,_ZNSt3__16vectorIdNS_9allocatorIdEEEixB8ne180100Em
FNL:22,1399
FNA:22,21,_ZNKSt3__16vectorIN7pyfolio8DateTimeENS_9allocatorIS2_EEEixB8ne180100Em
FNA:22,22,_ZNKSt3__16vectorIdNS_9allocatorIdEEEixB8ne180100Em
FNL:23,1413
FNA:23,0,_ZNKSt3__16vectorIN7pyfolio8DateTimeENS_9allocatorIS2_EEE2atEm
FNL:24,1420
FNA:24,95,_ZNSt3__16vectorIN7pyfolio8DateTimeENS_9allocatorIS2_EEE7reserveEm
FNA:24,101,_ZNSt3__16vectorIdNS_9allocatorIdEEE7reserveEm
FNL:25,1449
FNA:25,0,_ZNSt3__16vectorIN7pyfolio11performance12DrawdownInfoENS_9allocatorIS3_EEE21__push_back_slow_pathIRKS3_EEPS3_OT_
FNA:25,14,_ZNSt3__16vectorIN7pyfolio8DateTimeENS_9allocatorIS2_EEE21__push_back_slow_pathIRKS2_EEPS2_OT_
FNA:25,8,_ZNSt3__16vectorIdNS_9allocatorIdEEE21__push_back_slow_pathIRKdEEPdOT_
FNA:25,33,_ZNSt3__16vectorIdNS_9allocatorIdEEE21__push_back_slow_pathIdEEPdOT_
FNA:25,0,_ZNSt3__16vectorIiNS_9allocatorIiEEE21__push_back_slow_pathIRKiEEPiOT_
FNL:26,1461
FNA:26,0,_ZNSt3__16vectorIN7pyfolio11performance12DrawdownInfoENS_9allocatorIS3_EEE9push_backB8ne180100ERKS3_
FNA:26,783,_ZNSt3__16vectorIN7pyfolio8DateTimeENS_9allocatorIS2_EEE9push_backB8ne180100ERKS2_
FNA:26,774,_ZNSt3__16vectorIdNS_9allocatorIdEEE9push_backB8ne180100ERKd
FNA:26,0,_ZNSt3__16vectorIiNS_9allocatorIiEEE9push_backB8ne180100ERKi
FNL:27,1473
FNA:27,107,_ZNSt3__16vectorIdNS_9allocatorIdEEE9push_backB8ne180100EOd
FNL:28,1487
FNA:28,5,_ZNSt3__16vectorINS_6threadENS_9allocatorIS1_EEE24__emplace_back_slow_pathIJZN36CoreTypesTest_BasicThreadSafety_Test8TestBodyEvE3$_0EEEPS1_DpOT_
FNL:29,1505
FNA:29,10,_ZNSt3__16vectorINS_6threadENS_9allocatorIS1_EEE12emplace_backIJZN36CoreTypesTest_BasicThreadSafety_Test8TestBodyEvE3$_0EEERS1_DpOT_
FNL:30,415
FNA:30,0,_ZNSt3__16vectorIN7pyfolio11performance12DrawdownInfoENS_9allocatorIS3_EEEC1B8ne180100Ev
FNA:30,0,_ZNSt3__16vectorIN7pyfolio11performance12DrawdownInfoENS_9allocatorIS3_EEEC2B8ne180100Ev
FNA:30,238,_ZNSt3__16vectorIN7pyfolio8DateTimeENS_9allocatorIS2_EEEC1B8ne180100Ev
FNA:30,238,_ZNSt3__16vectorIN7pyfolio8DateTimeENS_9allocatorIS2_EEEC2B8ne180100Ev
FNA:30,18,_ZNSt3__16vectorINS_3mapINS_12basic_stringIcNS_11char_traitsIcEENS_9allocatorIcEEEEdNS_4lessIS7_EENS5_INS_4pairIKS7_dEEEEEENS5_ISE_EEEC1B8ne180100Ev
FNA:30,18,_ZNSt3__16vectorINS_3mapINS_12basic_stringIcNS_11char_traitsIcEENS_9allocatorIcEEEEdNS_4lessIS7_EENS5_INS_4pairIKS7_dEEEEEENS5_ISE_EEEC2B8ne180100Ev
FNA:30,1,_ZNSt3__16vectorINS_6threadENS_9allocatorIS1_EEEC1B8ne180100Ev
FNA:30,1,_ZNSt3__16vectorINS_6threadENS_9allocatorIS1_EEEC2B8ne180100Ev
FNA:30,271,_ZNSt3__16vectorIdNS_9allocatorIdEEEC1B8ne180100Ev
FNA:30,271,_ZNSt3__16vectorIdNS_9allocatorIdEEEC2B8ne180100Ev
FNA:30,0,_ZNSt3__16vectorIiNS_9allocatorIiEEEC1B8ne180100Ev
FNA:30,0,_ZNSt3__16vectorIiNS_9allocatorIiEEEC2B8ne180100Ev
FNL:31,486
FNA:31,0,_ZNSt3__16vectorIN7pyfolio11performance12DrawdownInfoENS_9allocatorIS3_EEE16__destroy_vectorC1B8ne180100ERS6_
FNA:31,0,_ZNSt3__16vectorIN7pyfolio11performance12DrawdownInfoENS_9allocatorIS3_EEE16__destroy_vectorC2B8ne180100ERS6_
FNA:31,477,_ZNSt3__16vectorIN7pyfolio8DateTimeENS_9allocatorIS2_EEE16__destroy_vectorC1B8ne180100ERS5_
FNA:31,477,_ZNSt3__16vectorIN7pyfolio8DateTimeENS_9allocatorIS2_EEE16__destroy_vectorC2B8ne180100ERS5_
FNA:31,18,_ZNSt3__16vectorINS_3mapINS_12basic_stringIcNS_11char_traitsIcEENS_9allocatorIcEEEEdNS_4lessIS7_EENS5_INS_4pairIKS7_dEEEEEENS5_ISE_EEE16__destroy_vectorC1B8ne180100ERSG_
FNA:31,18,_ZNSt3__16vectorINS_3mapINS_12basic_stringIcNS_11char_traitsIcEENS_9allocatorIcEEEEdNS_4lessIS7_EENS5_INS_4pairIKS7_dEEEEEENS5_ISE_EEE16__destroy_vectorC2B8ne180100ERSG_
FNA:31,1,_ZNSt3__16vectorINS_6threadENS_9allocatorIS1_EEE16__destroy_vectorC1B8ne180100ERS4_
FNA:31,1,_ZNSt3__16vectorINS_6threadENS_9allocatorIS1_EEE16__destroy_vectorC2B8ne180100ERS4_
FNA:31,568,_ZNSt3__16vectorIdNS_9allocatorIdEEE16__destroy_vectorC1B8ne180100ERS3_
FNA:31,568,_ZNSt3__16vectorIdNS_9allocatorIdEEE16__destroy_vectorC2B8ne180100ERS3_
FNA:31,0,_ZNSt3__16vectorIiNS_9allocatorIiEEE16__destroy_vectorC1B8ne180100ERS3_
FNA:31,0,_ZNSt3__16vectorIiNS_9allocatorIiEEE16__destroy_vectorC2B8ne180100ERS3_
FNA:31,190,_ZNSt3__16vectorImNS_9allocatorImEEE16__destroy_vectorC1B8ne180100ERS3_
FNA:31,190,_ZNSt3__16vectorImNS_9allocatorImEEE16__destroy_vectorC2B8ne180100ERS3_
FNL:32,488
FNA:32,0,_ZNSt3__16vectorIN7pyfolio11performance12DrawdownInfoENS_9allocatorIS3_EEE16__destroy_vectorclB8ne180100Ev
FNA:32,367,_ZNSt3__16vectorIN7pyfolio8DateTimeENS_9allocatorIS2_EEE16__destroy_vectorclB8ne180100Ev
FNA:32,18,_ZNSt3__16vectorINS_3mapINS_12basic_stringIcNS_11char_traitsIcEENS_9allocatorIcEEEEdNS_4lessIS7_EENS5_INS_4pairIKS7_dEEEEEENS5_ISE_EEE16__destroy_vectorclB8ne180100Ev
FNA:32,1,_ZNSt3__16vectorINS_6threadENS_9allocatorIS1_EEE16__destroy_vectorclB8ne180100Ev
FNA:32,429,_ZNSt3__16vectorIdNS_9allocatorIdEEE16__destroy_vectorclB8ne180100Ev
FNA:32,0,_ZNSt3__16vectorIiNS_9allocatorIiEEE16__destroy_vectorclB8ne180100Ev
FNA:32,95,_ZNSt3__16vectorImNS_9allocatorImEEE16__destroy_vectorclB8ne180100Ev
FNL:33,501
FNA:33,0,_ZNSt3__16vectorIN7pyfolio11performance12DrawdownInfoENS_9allocatorIS3_EEED1B8ne180100Ev
FNA:33,0,_ZNSt3__16vectorIN7pyfolio11performance12DrawdownInfoENS_9allocatorIS3_EEED2B8ne180100Ev
FNA:33,367,_ZNSt3__16vectorIN7pyfolio8DateTimeENS_9allocatorIS2_EEED1B8ne180100Ev
FNA:33,367,_ZNSt3__16vectorIN7pyfolio8DateTimeENS_9allocatorIS2_EEED2B8ne180100Ev
FNA:33,18,_ZNSt3__16vectorINS_3mapINS_12basic_stringIcNS_11char_traitsIcEENS_9allocatorIcEEEEdNS_4lessIS7_EENS5_INS_4pairIKS7_dEEEEEENS5_ISE_EEED1B8ne180100Ev
FNA:33,18,_ZNSt3__16vectorINS_3mapINS_12basic_stringIcNS_11char_traitsIcEENS_9allocatorIcEEEEdNS_4lessIS7_EENS5_INS_4pairIKS7_dEEEEEENS5_ISE_EEED2B8ne180100Ev
FNA:33,1,_ZNSt3__16vectorINS_6threadENS_9allocatorIS1_EEED1B8ne180100Ev
FNA:33,1,_ZNSt3__16vectorINS_6threadENS_9allocatorIS1_EEED2B8ne180100Ev
FNA:33,429,_ZNSt3__16vectorIdNS_9allocatorIdEEED1B8ne180100Ev
FNA:33,429,_ZNSt3__16vectorIdNS_9allocatorIdEEED2B8ne180100Ev
FNA:33,0,_ZNSt3__16vectorIiNS_9allocatorIiEEED1B8ne180100Ev
FNA:33,0,_ZNSt3__16vectorIiNS_9allocatorIiEEED2B8ne180100Ev
FNA:33,95,_ZNSt3__16vectorImNS_9allocatorImEEED1B8ne180100Ev
FNA:33,95,_ZNSt3__16vectorImNS_9allocatorImEEED2B8ne180100Ev
FNL:34,514
FNA:34,47,_ZNSt3__16vectorIN7pyfolio8DateTimeENS_9allocatorIS2_EEEaSB8ne180100ESt16initializer_listIS2_E
FNA:34,18,_ZNSt3__16vectorINS_3mapINS_12basic_stringIcNS_11char_traitsIcEENS_9allocatorIcEEEEdNS_4lessIS7_EENS5_INS_4pairIKS7_dEEEEEENS5_ISE_EEEaSB8ne180100ESt16initializer_listISE_E
FNA:34,82,_ZNSt3__16vectorIdNS_9allocatorIdEEEaSB8ne180100ESt16initializer_listIdE
FNL:35,594
FNA:35,0,_ZNKSt3__16vectorIN7pyfolio11performance12DrawdownInfoENS_9allocatorIS3_EEE4sizeB8ne180100Ev
FNA:35,527,_ZNKSt3__16vectorIN7pyfolio8DateTimeENS_9allocatorIS2_EEE4sizeB8ne180100Ev
FNA:35,0,_ZNKSt3__16vectorINS_3mapINS_12basic_stringIcNS_11char_traitsIcEENS_9allocatorIcEEEEdNS_4lessIS7_EENS5_INS_4pairIKS7_dEEEEEENS5_ISE_EEE4sizeB8ne180100Ev
FNA:35,15,_ZNKSt3__16vectorINS_6threadENS_9allocatorIS1_EEE4sizeB8ne180100Ev
FNA:35,1147,_ZNKSt3__16vectorIdNS_9allocatorIdEEE4sizeB8ne180100Ev
FNA:35,0,_ZNKSt3__16vectorIiNS_9allocatorIiEEE4sizeB8ne180100Ev
FNL:36,597
FNA:36,0,_ZNKSt3__16vectorIN7pyfolio11performance12DrawdownInfoENS_9allocatorIS3_EEE8capacityB8ne180100Ev
FNA:36,513,_ZNKSt3__16vectorIN7pyfolio8DateTimeENS_9allocatorIS2_EEE8capacityB8ne180100Ev
FNA:36,54,_ZNKSt3__16vectorINS_3mapINS_12basic_stringIcNS_11char_traitsIcEENS_9allocatorIcEEEEdNS_4lessIS7_EENS5_INS_4pairIKS7_dEEEEEENS5_ISE_EEE8capacityB8ne180100Ev
FNA:36,6,_ZNKSt3__16vectorINS_6threadENS_9allocatorIS1_EEE8capacityB8ne180100Ev
FNA:36,642,_ZNKSt3__16vectorIdNS_9allocatorIdEEE8capacityB8ne180100Ev
FNA:36,0,_ZNKSt3__16vectorIiNS_9allocatorIiEEE8capacityB8ne180100Ev
FNA:36,95,_ZNKSt3__16vectorImNS_9allocatorImEEE8capacityB8ne180100Ev
FNL:37,600
FNA:37,0,_ZNKSt3__16vectorIN7pyfolio11performance12DrawdownInfoENS_9allocatorIS3_EEE5emptyB8ne180100Ev
FNA:37,160,_ZNKSt3__16vectorIdNS_9allocatorIdEEE5emptyB8ne180100Ev
FNA:37,0,_ZNKSt3__16vectorIiNS_9allocatorIiEEE5emptyB8ne180100Ev
FNL:38,612
FNA:38,1,_ZNSt3__16vectorIN7pyfolio8DateTimeENS_9allocatorIS2_EEE5frontB8ne180100Ev
FNA:38,0,_ZNSt3__16vectorIdNS_9allocatorIdEEE5frontB8ne180100Ev
FNL:39,620
FNA:39,1,_ZNSt3__16vectorIN7pyfolio8DateTimeENS_9allocatorIS2_EEE4backB8ne180100Ev
FNA:39,1,_ZNSt3__16vectorIdNS_9allocatorIdEEE4backB8ne180100Ev
FNL:40,629
FNA:40,8,_ZNSt3__16vectorIdNS_9allocatorIdEEE4dataB8ne180100Ev
FNL:41,633
FNA:41,9,_ZNKSt3__16vectorIdNS_9allocatorIdEEE4dataB8ne180100Ev
FNL:42,707
FNA:42,95,_ZNSt3__16vectorIN7pyfolio8DateTimeENS_9allocatorIS2_EEE5clearB8ne180100Ev
FNA:42,0,_ZNSt3__16vectorINS_3mapINS_12basic_stringIcNS_11char_traitsIcEENS_9allocatorIcEEEEdNS_4lessIS7_EENS5_INS_4pairIKS7_dEEEEEENS5_ISE_EEE5clearB8ne180100Ev
FNA:42,95,_ZNSt3__16vectorIdNS_9allocatorIdEEE5clearB8ne180100Ev
FNL:43,738
FNA:43,175,_ZNSt3__16vectorIN7pyfolio8DateTimeENS_9allocatorIS2_EEE11__vallocateB8ne180100Em
FNA:43,18,_ZNSt3__16vectorINS_3mapINS_12basic_stringIcNS_11char_traitsIcEENS_9allocatorIcEEEEdNS_4lessIS7_EENS5_INS_4pairIKS7_dEEEEEENS5_ISE_EEE11__vallocateB8ne180100Em
FNA:43,221,_ZNSt3__16vectorIdNS_9allocatorIdEEE11__vallocateB8ne180100Em
FNA:43,95,_ZNSt3__16vectorImNS_9allocatorImEEE11__vallocateB8ne180100Em
FNL:44,755
FNA:44,1,_ZNSt3__16vectorIN7pyfolio8DateTimeENS_9allocatorIS2_EEE16__init_with_sizeB8ne180100INS_11__wrap_iterIPKS2_EESA_EEvT_T0_m
FNA:44,103,_ZNSt3__16vectorIN7pyfolio8DateTimeENS_9allocatorIS2_EEE16__init_with_sizeB8ne180100IPS2_S7_EEvT_T0_m
FNA:44,4,_ZNSt3__16vectorIdNS_9allocatorIdEEE16__init_with_sizeB8ne180100INS_11__wrap_iterIPKdEES8_EEvT_T0_m
FNA:44,129,_ZNSt3__16vectorIdNS_9allocatorIdEEE16__init_with_sizeB8ne180100IPdS5_EEvT_T0_m
FNL:45,798
FNA:45,2,_ZNSt3__16vectorINS_6threadENS_9allocatorIS1_EEE11__make_iterB8ne180100EPS1_
FNA:45,46,_ZNSt3__16vectorIdNS_9allocatorIdEEE11__make_iterB8ne180100EPd
FNA:45,0,_ZNSt3__16vectorIiNS_9allocatorIiEEE11__make_iterB8ne180100EPi
FNA:45,570,_ZNSt3__16vectorImNS_9allocatorImEEE11__make_iterB8ne180100EPm
FNL:46,801
FNA:46,0,_ZNKSt3__16vectorIN7pyfolio11performance12DrawdownInfoENS_9allocatorIS3_EEE11__make_iterB8ne180100EPKS3_
FNA:46,9,_ZNKSt3__16vectorIN7pyfolio8DateTimeENS_9allocatorIS2_EEE11__make_iterB8ne180100EPKS2_
FNA:46,102,_ZNKSt3__16vectorIdNS_9allocatorIdEEE11__make_iterB8ne180100EPKd
FNL:47,814
FNA:47,0,_ZNSt3__16vectorIN7pyfolio8DateTimeENS_9allocatorIS2_EEE17__destruct_at_endB8ne180100EPS2_
FNA:47,0,_ZNSt3__16vectorINS_3mapINS_12basic_stringIcNS_11char_traitsIcEENS_9allocatorIcEEEEdNS_4lessIS7_EENS5_INS_4pairIKS7_dEEEEEENS5_ISE_EEE17__destruct_at_endB8ne180100EPSE_
FNA:47,0,_ZNSt3__16vectorIdNS_9allocatorIdEEE17__destruct_at_endB8ne180100EPd
FNL:48,847
FNA:48,0,_ZNKSt3__16vectorIN7pyfolio11performance12DrawdownInfoENS_9allocatorIS3_EEE14__annotate_newB8ne180100Em
FNA:48,284,_ZNKSt3__16vectorIN7pyfolio8DateTimeENS_9allocatorIS2_EEE14__annotate_newB8ne180100Em
FNA:48,18,_ZNKSt3__16vectorINS_3mapINS_12basic_stringIcNS_11char_traitsIcEENS_9allocatorIcEEEEdNS_4lessIS7_EENS5_INS_4pairIKS7_dEEEEEENS5_ISE_EEE14__annotate_newB8ne180100Em
FNA:48,5,_ZNKSt3__16vectorINS_6threadENS_9allocatorIS1_EEE14__annotate_newB8ne180100Em
FNA:48,363,_ZNKSt3__16vectorIdNS_9allocatorIdEEE14__annotate_newB8ne180100Em
FNA:48,0,_ZNKSt3__16vectorIiNS_9allocatorIiEEE14__annotate_newB8ne180100Em
FNA:48,95,_ZNKSt3__16vectorImNS_9allocatorImEEE14__annotate_newB8ne180100Em
FNL:49,854
FNA:49,0,_ZNKSt3__16vectorIN7pyfolio11performance12DrawdownInfoENS_9allocatorIS3_EEE17__annotate_deleteB8ne180100Ev
FNA:49,383,_ZNKSt3__16vectorIN7pyfolio8DateTimeENS_9allocatorIS2_EEE17__annotate_deleteB8ne180100Ev
FNA:49,18,_ZNKSt3__16vectorINS_3mapINS_12basic_stringIcNS_11char_traitsIcEENS_9allocatorIcEEEEdNS_4lessIS7_EENS5_INS_4pairIKS7_dEEEEEENS5_ISE_EEE17__annotate_deleteB8ne180100Ev
FNA:49,6,_ZNKSt3__16vectorINS_6threadENS_9allocatorIS1_EEE17__annotate_deleteB8ne180100Ev
FNA:49,478,_ZNKSt3__16vectorIdNS_9allocatorIdEEE17__annotate_deleteB8ne180100Ev
FNA:49,0,_ZNKSt3__16vectorIiNS_9allocatorIiEEE17__annotate_deleteB8ne180100Ev
FNA:49,95,_ZNKSt3__16vectorImNS_9allocatorImEEE17__annotate_deleteB8ne180100Ev
FNL:50,867
FNA:50,95,_ZNKSt3__16vectorIN7pyfolio8DateTimeENS_9allocatorIS2_EEE17__annotate_shrinkB8ne180100Em
FNA:50,0,_ZNKSt3__16vectorINS_3mapINS_12basic_stringIcNS_11char_traitsIcEENS_9allocatorIcEEEEdNS_4lessIS7_EENS5_INS_4pairIKS7_dEEEEEENS5_ISE_EEE17__annotate_shrinkB8ne180100Em
FNA:50,95,_ZNKSt3__16vectorIdNS_9allocatorIdEEE17__annotate_shrinkB8ne180100Em
FNL:51,875
FNA:51,0,_ZNSt3__16vectorIN7pyfolio11performance12DrawdownInfoENS_9allocatorIS3_EEE21_ConstructTransactionC1B8ne180100ERS6_m
FNA:51,0,_ZNSt3__16vectorIN7pyfolio11performance12DrawdownInfoENS_9allocatorIS3_EEE21_ConstructTransactionC2B8ne180100ERS6_m
FNA:51,944,_ZNSt3__16vectorIN7pyfolio8DateTimeENS_9allocatorIS2_EEE21_ConstructTransactionC1B8ne180100ERS5_m
FNA:51,944,_ZNSt3__16vectorIN7pyfolio8DateTimeENS_9allocatorIS2_EEE21_ConstructTransactionC2B8ne180100ERS5_m
FNA:51,18,_ZNSt3__16vectorINS_3mapINS_12basic_stringIcNS_11char_traitsIcEENS_9allocatorIcEEEEdNS_4lessIS7_EENS5_INS_4pairIKS7_dEEEEEENS5_ISE_EEE21_ConstructTransactionC1B8ne180100ERSG_m
FNA:51,18,_ZNSt3__16vectorINS_3mapINS_12basic_stringIcNS_11char_traitsIcEENS_9allocatorIcEEEEdNS_4lessIS7_EENS5_INS_4pairIKS7_dEEEEEENS5_ISE_EEE21_ConstructTransactionC2B8ne180100ERSG_m
FNA:51,5,_ZNSt3__16vectorINS_6threadENS_9allocatorIS1_EEE21_ConstructTransactionC1B8ne180100ERS4_m
FNA:51,5,_ZNSt3__16vectorINS_6threadENS_9allocatorIS1_EEE21_ConstructTransactionC2B8ne180100ERS4_m
FNA:51,1061,_ZNSt3__16vectorIdNS_9allocatorIdEEE21_ConstructTransactionC1B8ne180100ERS3_m
FNA:51,1061,_ZNSt3__16vectorIdNS_9allocatorIdEEE21_ConstructTransactionC2B8ne180100ERS3_m
FNA:51,0,_ZNSt3__16vectorIiNS_9allocatorIiEEE21_ConstructTransactionC1B8ne180100ERS3_m
FNA:51,0,_ZNSt3__16vectorIiNS_9allocatorIiEEE21_ConstructTransactionC2B8ne180100ERS3_m
FNA:51,95,_ZNSt3__16vectorImNS_9allocatorImEEE21_ConstructTransactionC1B8ne180100ERS3_m
FNA:51,95,_ZNSt3__16vectorImNS_9allocatorImEEE21_ConstructTransactionC2B8ne180100ERS3_m
FNL:52,881
FNA:52,0,_ZNSt3__16vectorIN7pyfolio11performance12DrawdownInfoENS_9allocatorIS3_EEE21_ConstructTransactionD1B8ne180100Ev
FNA:52,0,_ZNSt3__16vectorIN7pyfolio11performance12DrawdownInfoENS_9allocatorIS3_EEE21_ConstructTransactionD2B8ne180100Ev
FNA:52,944,_ZNSt3__16vectorIN7pyfolio8DateTimeENS_9allocatorIS2_EEE21_ConstructTransactionD1B8ne180100Ev
FNA:52,944,_ZNSt3__16vectorIN7pyfolio8DateTimeENS_9allocatorIS2_EEE21_ConstructTransactionD2B8ne180100Ev
FNA:52,18,_ZNSt3__16vectorINS_3mapINS_12basic_stringIcNS_11char_traitsIcEENS_9allocatorIcEEEEdNS_4lessIS7_EENS5_INS_4pairIKS7_dEEEEEENS5_ISE_EEE21_ConstructTransactionD1B8ne180100Ev
FNA:52,18,_ZNSt3__16vectorINS_3mapINS_12basic_stringIcNS_11char_traitsIcEENS_9allocatorIcEEEEdNS_4lessIS7_EENS5_INS_4pairIKS7_dEEEEEENS5_ISE_EEE21_ConstructTransactionD2B8ne180100Ev
FNA:52,5,_ZNSt3__16vectorINS_6threadENS_9allocatorIS1_EEE21_ConstructTransactionD1B8ne180100Ev
FNA:52,5,_ZNSt3__16vectorINS_6threadENS_9allocatorIS1_EEE21_ConstructTransactionD2B8ne180100Ev
FNA:52,1061,_ZNSt3__16vectorIdNS_9allocatorIdEEE21_ConstructTransactionD1B8ne180100Ev
FNA:52,1061,_ZNSt3__16vectorIdNS_9allocatorIdEEE21_ConstructTransactionD2B8ne180100Ev
FNA:52,0,_ZNSt3__16vectorIiNS_9allocatorIiEEE21_ConstructTransactionD1B8ne180100Ev
FNA:52,0,_ZNSt3__16vectorIiNS_9allocatorIiEEE21_ConstructTransactionD2B8ne180100Ev
FNA:52,95,_ZNSt3__16vectorImNS_9allocatorImEEE21_ConstructTransactionD1B8ne180100Ev
FNA:52,95,_ZNSt3__16vectorImNS_9allocatorImEEE21_ConstructTransactionD2B8ne180100Ev
FNL:53,900
FNA:53,0,_ZNSt3__16vectorIN7pyfolio11performance12DrawdownInfoENS_9allocatorIS3_EEE22__construct_one_at_endB8ne180100IJRKS3_EEEvDpOT_
FNA:53,769,_ZNSt3__16vectorIN7pyfolio8DateTimeENS_9allocatorIS2_EEE22__construct_one_at_endB8ne180100IJRKS2_EEEvDpOT_
FNA:53,5,_ZNSt3__16vectorINS_6threadENS_9allocatorIS1_EEE22__construct_one_at_endB8ne180100IJZN36CoreTypesTest_BasicThreadSafety_Test8TestBodyEvE3$_0EEEvDpOT_
FNA:53,766,_ZNSt3__16vectorIdNS_9allocatorIdEEE22__construct_one_at_endB8ne180100IJRKdEEEvDpOT_
FNA:53,74,_ZNSt3__16vectorIdNS_9allocatorIdEEE22__construct_one_at_endB8ne180100IJdEEEvDpOT_
FNA:53,0,_ZNSt3__16vectorIiNS_9allocatorIiEEE22__construct_one_at_endB8ne180100IJRKiEEEvDpOT_
FNL:54,906
FNA:54,0,_ZNSt3__16vectorIN7pyfolio11performance12DrawdownInfoENS_9allocatorIS3_EEE7__allocB8ne180100Ev
FNA:54,4129,_ZNSt3__16vectorIN7pyfolio8DateTimeENS_9allocatorIS2_EEE7__allocB8ne180100Ev
FNA:54,234,_ZNSt3__16vectorINS_3mapINS_12basic_stringIcNS_11char_traitsIcEENS_9allocatorIcEEEEdNS_4lessIS7_EENS5_INS_4pairIKS7_dEEEEEENS5_ISE_EEE7__allocB8ne180100Ev
FNA:54,26,_ZNSt3__16vectorINS_6threadENS_9allocatorIS1_EEE7__allocB8ne180100Ev
FNA:54,4912,_ZNSt3__16vectorIdNS_9allocatorIdEEE7__allocB8ne180100Ev
FNA:54,0,_ZNSt3__16vectorIiNS_9allocatorIiEEE7__allocB8ne180100Ev
FNA:54,1720,_ZNSt3__16vectorImNS_9allocatorImEEE7__allocB8ne180100Ev
FNL:55,909
FNA:55,0,_ZNKSt3__16vectorIN7pyfolio11performance12DrawdownInfoENS_9allocatorIS3_EEE7__allocB8ne180100Ev
FNA:55,452,_ZNKSt3__16vectorIN7pyfolio8DateTimeENS_9allocatorIS2_EEE7__allocB8ne180100Ev
FNA:55,36,_ZNKSt3__16vectorINS_3mapINS_12basic_stringIcNS_11char_traitsIcEENS_9allocatorIcEEEEdNS_4lessIS7_EENS5_INS_4pairIKS7_dEEEEEENS5_ISE_EEE7__allocB8ne180100Ev
FNA:55,5,_ZNKSt3__16vectorINS_6threadENS_9allocatorIS1_EEE7__allocB8ne180100Ev
FNA:55,574,_ZNKSt3__16vectorIdNS_9allocatorIdEEE7__allocB8ne180100Ev
FNA:55,0,_ZNKSt3__16vectorIiNS_9allocatorIiEEE7__allocB8ne180100Ev
FNA:55,95,_ZNKSt3__16vectorImNS_9allocatorImEEE7__allocB8ne180100Ev
FNL:56,912
FNA:56,0,_ZNSt3__16vectorIN7pyfolio11performance12DrawdownInfoENS_9allocatorIS3_EEE9__end_capB8ne180100Ev
FNA:56,1714,_ZNSt3__16vectorIN7pyfolio8DateTimeENS_9allocatorIS2_EEE9__end_capB8ne180100Ev
FNA:56,18,_ZNSt3__16vectorINS_3mapINS_12basic_stringIcNS_11char_traitsIcEENS_9allocatorIcEEEEdNS_4lessIS7_EENS5_INS_4pairIKS7_dEEEEEENS5_ISE_EEE9__end_capB8ne180100Ev
FNA:56,15,_ZNSt3__16vectorINS_6threadENS_9allocatorIS1_EEE9__end_capB8ne180100Ev
FNA:56,1891,_ZNSt3__16vectorIdNS_9allocatorIdEEE9__end_capB8ne180100Ev
FNA:56,0,_ZNSt3__16vectorIiNS_9allocatorIiEEE9__end_capB8ne180100Ev
FNA:56,95,_ZNSt3__16vectorImNS_9allocatorImEEE9__end_capB8ne180100Ev
FNL:57,915
FNA:57,0,_ZNKSt3__16vectorIN7pyfolio11performance12DrawdownInfoENS_9allocatorIS3_EEE9__end_capB8ne180100Ev
FNA:57,513,_ZNKSt3__16vectorIN7pyfolio8DateTimeENS_9allocatorIS2_EEE9__end_capB8ne180100Ev
FNA:57,54,_ZNKSt3__16vectorINS_3mapINS_12basic_stringIcNS_11char_traitsIcEENS_9allocatorIcEEEEdNS_4lessIS7_EENS5_INS_4pairIKS7_dEEEEEENS5_ISE_EEE9__end_capB8ne180100Ev
FNA:57,6,_ZNKSt3__16vectorINS_6threadENS_9allocatorIS1_EEE9__end_capB8ne180100Ev
FNA:57,642,_ZNKSt3__16vectorIdNS_9allocatorIdEEE9__end_capB8ne180100Ev
FNA:57,0,_ZNKSt3__16vectorIiNS_9allocatorIiEEE9__end_capB8ne180100Ev
FNA:57,95,_ZNKSt3__16vectorImNS_9allocatorImEEE9__end_capB8ne180100Ev
FNL:58,919
FNA:58,0,_ZNSt3__16vectorIN7pyfolio11performance12DrawdownInfoENS_9allocatorIS3_EEE7__clearB8ne180100Ev
FNA:58,274,_ZNSt3__16vectorIN7pyfolio8DateTimeENS_9allocatorIS2_EEE7__clearB8ne180100Ev
FNA:58,18,_ZNSt3__16vectorINS_3mapINS_12basic_stringIcNS_11char_traitsIcEENS_9allocatorIcEEEEdNS_4lessIS7_EENS5_INS_4pairIKS7_dEEEEEENS5_ISE_EEE7__clearB8ne180100Ev
FNA:58,1,_ZNSt3__16vectorINS_6threadENS_9allocatorIS1_EEE7__clearB8ne180100Ev
FNA:58,336,_ZNSt3__16vectorIdNS_9allocatorIdEEE7__clearB8ne180100Ev
FNA:58,0,_ZNSt3__16vectorIiNS_9allocatorIiEEE7__clearB8ne180100Ev
FNA:58,95,_ZNSt3__16vectorImNS_9allocatorImEEE7__clearB8ne180100Ev
FNL:59,923
FNA:59,0,_ZNSt3__16vectorIN7pyfolio11performance12DrawdownInfoENS_9allocatorIS3_EEE22__base_destruct_at_endB8ne180100EPS3_
FNA:59,274,_ZNSt3__16vectorIN7pyfolio8DateTimeENS_9allocatorIS2_EEE22__base_destruct_at_endB8ne180100EPS2_
FNA:59,18,_ZNSt3__16vectorINS_3mapINS_12basic_stringIcNS_11char_traitsIcEENS_9allocatorIcEEEEdNS_4lessIS7_EENS5_INS_4pairIKS7_dEEEEEENS5_ISE_EEE22__base_destruct_at_endB8ne180100EPSE_
FNA:59,1,_ZNSt3__16vectorINS_6threadENS_9allocatorIS1_EEE22__base_destruct_at_endB8ne180100EPS1_
FNA:59,336,_ZNSt3__16vectorIdNS_9allocatorIdEEE22__base_destruct_at_endB8ne180100EPd
FNA:59,0,_ZNSt3__16vectorIiNS_9allocatorIiEEE22__base_destruct_at_endB8ne180100EPi
FNA:59,95,_ZNSt3__16vectorImNS_9allocatorImEEE22__base_destruct_at_endB8ne180100EPm
FNL:60,930
FNA:60,18,_ZNSt3__16vectorIN7pyfolio8DateTimeENS_9allocatorIS2_EEE19__copy_assign_allocB8ne180100ERKS5_
FNL:61,934
FNA:61,165,_ZNSt3__16vectorIN7pyfolio8DateTimeENS_9allocatorIS2_EEE19__move_assign_allocB8ne180100ERS5_
FNA:61,165,_ZNSt3__16vectorIdNS_9allocatorIdEEE19__move_assign_allocB8ne180100ERS3_
FNL:62,940
FNA:62,0,_ZNKSt3__16vectorIN7pyfolio11performance12DrawdownInfoENS_9allocatorIS3_EEE20__throw_length_errorB8ne180100Ev
FNA:62,0,_ZNKSt3__16vectorIN7pyfolio8DateTimeENS_9allocatorIS2_EEE20__throw_length_errorB8ne180100Ev
FNA:62,0,_ZNKSt3__16vectorINS_3mapINS_12basic_stringIcNS_11char_traitsIcEENS_9allocatorIcEEEEdNS_4lessIS7_EENS5_INS_4pairIKS7_dEEEEEENS5_ISE_EEE20__throw_length_errorB8ne180100Ev
FNA:62,0,_ZNKSt3__16vectorINS_6threadENS_9allocatorIS1_EEE20__throw_length_errorB8ne180100Ev
FNA:62,0,_ZNKSt3__16vectorIdNS_9allocatorIdEEE20__throw_length_errorB8ne180100Ev
FNA:62,0,_ZNKSt3__16vectorIiNS_9allocatorIiEEE20__throw_length_errorB8ne180100Ev
FNA:62,0,_ZNKSt3__16vectorImNS_9allocatorImEEE20__throw_length_errorB8ne180100Ev
FNL:63,942
FNA:63,0,_ZNKSt3__16vectorIN7pyfolio8DateTimeENS_9allocatorIS2_EEE20__throw_out_of_rangeB8ne180100Ev
FNL:64,954
FNA:64,18,_ZNSt3__16vectorIN7pyfolio8DateTimeENS_9allocatorIS2_EEE19__copy_assign_allocB8ne180100ERKS5_NS_17integral_constantIbLb0EEE
FNL:65,956
FNA:65,165,_ZNSt3__16vectorIN7pyfolio8DateTimeENS_9allocatorIS2_EEE19__move_assign_allocB8ne180100ERS5_NS_17integral_constantIbLb1EEE
FNA:65,165,_ZNSt3__16vectorIdNS_9allocatorIdEEE19__move_assign_allocB8ne180100ERS3_NS_17integral_constantIbLb1EEE
FNL:66,987
FNA:66,0,_ZNSt3__16vectorIN7pyfolio11performance12DrawdownInfoENS_9allocatorIS3_EEE26__swap_out_circular_bufferERNS_14__split_bufferIS3_RS5_EE
FNA:66,109,_ZNSt3__16vectorIN7pyfolio8DateTimeENS_9allocatorIS2_EEE26__swap_out_circular_bufferERNS_14__split_bufferIS2_RS4_EE
FNA:66,5,_ZNSt3__16vectorINS_6threadENS_9allocatorIS1_EEE26__swap_out_circular_bufferERNS_14__split_bufferIS1_RS3_EE
FNA:66,142,_ZNSt3__16vectorIdNS_9allocatorIdEEE26__swap_out_circular_bufferERNS_14__split_bufferIdRS2_EE
FNA:66,0,_ZNSt3__16vectorIiNS_9allocatorIiEEE26__swap_out_circular_bufferERNS_14__split_bufferIiRS2_EE
FNF:67
FNH:63
DA:415,1056
DA:416,1056
DA:486,2508
DA:488,910
DA:489,910
DA:490,534
DA:491,534
DA:492,534
DA:493,534
DA:494,910
DA:501,1820
DA:514,147
DA:515,147
DA:516,147
DA:594,1689
DA:595,1689
DA:597,1310
DA:598,1310
DA:600,160
DA:601,160
DA:612,1
DA:614,1
DA:620,2
DA:622,2
DA:629,8
DA:630,8
DA:633,9
DA:634,9
DA:707,190
DA:708,190
DA:709,190
DA:710,190
DA:711,190
DA:726,910
DA:727,910
DA:728,640
DA:729,640
DA:738,509
DA:739,509
DA:740,0
DA:741,509
DA:742,509
DA:743,509
DA:744,509
DA:745,509
DA:746,509
DA:755,237
DA:756,237
DA:758,237
DA:759,237
DA:760,237
DA:761,237
DA:763,237
DA:764,237
DA:798,618
DA:799,618
DA:801,111
DA:802,111
DA:814,0
DA:815,0
DA:816,0
DA:817,0
DA:818,0
DA:847,765
DA:852,765
DA:854,980
DA:858,980
DA:867,190
DA:872,190
DA:875,4246
DA:876,4246
DA:880,4246
DA:881,4246
DA:882,2123
DA:888,4246
DA:900,1614
DA:901,1614
DA:902,1614
DA:903,1614
DA:904,1614
DA:906,11021
DA:907,11021
DA:909,1162
DA:910,1162
DA:912,3733
DA:913,3733
DA:915,1310
DA:916,1310
DA:919,724
DA:920,724
DA:921,724
DA:923,724
DA:924,724
DA:925,6500
DA:926,5776
DA:927,724
DA:928,724
DA:930,18
DA:931,18
DA:932,18
DA:934,330
DA:937,330
DA:938,330
DA:940,0
DA:942,0
DA:954,18
DA:956,330
DA:958,330
DA:959,330
DA:987,256
DA:988,256
DA:990,512
DA:991,256
DA:992,256
DA:993,256
DA:994,256
DA:995,256
DA:996,256
DA:997,256
DA:998,256
DA:1019,495
DA:1020,495
DA:1021,190
DA:1022,190
DA:1023,190
DA:1024,190
DA:1025,190
DA:1026,495
DA:1030,930
DA:1031,930
DA:1037,225
DA:1038,225
DA:1039,225
DA:1040,0
DA:1041,225
DA:1042,225
DA:1043,0
DA:1044,225
DA:1045,225
DA:1053,95
DA:1054,95
DA:1055,95
DA:1056,860
DA:1057,765
DA:1058,765
DA:1059,95
DA:1069,1
DA:1070,1
DA:1071,1
DA:1072,11
DA:1073,10
DA:1074,10
DA:1075,1
DA:1080,413
DA:1081,413
DA:1082,413
DA:1083,413
DA:1118,190
DA:1119,95
DA:1120,95
DA:1121,95
DA:1122,95
DA:1123,95
DA:1124,95
DA:1125,190
DA:1141,2
DA:1142,1
DA:1143,1
DA:1144,1
DA:1145,1
DA:1146,1
DA:1147,1
DA:1148,2
DA:1175,10
DA:1176,5
DA:1177,5
DA:1178,10
DA:1193,464
DA:1194,464
DA:1195,232
DA:1196,464
DA:1206,76
DA:1212,76
DA:1213,38
DA:1214,38
DA:1215,38
DA:1216,38
DA:1217,76
DA:1240,22
DA:1241,11
DA:1242,11
DA:1243,11
DA:1244,11
DA:1245,11
DA:1246,11
DA:1247,22
DA:1265,330
DA:1267,330
DA:1268,330
DA:1282,330
DA:1284,330
DA:1285,330
DA:1286,330
DA:1287,330
DA:1288,330
DA:1289,330
DA:1290,330
DA:1294,18
DA:1295,18
DA:1296,18
DA:1297,18
DA:1298,18
DA:1299,18
DA:1325,165
DA:1326,165
DA:1327,165
DA:1332,165
DA:1333,165
DA:1334,165
DA:1335,0
DA:1336,0
DA:1337,0
DA:1338,0
DA:1339,0
DA:1340,0
DA:1341,0
DA:1343,0
DA:1344,165
DA:1345,165
DA:1346,165
DA:1348,165
DA:1368,309
DA:1369,309
DA:1374,58
DA:1375,58
DA:1380,309
DA:1381,309
DA:1386,53
DA:1387,53
DA:1392,3056
DA:1394,3056
DA:1399,43
DA:1401,43
DA:1413,0
DA:1414,0
DA:1415,0
DA:1416,0
DA:1420,196
DA:1421,196
DA:1422,196
DA:1423,0
DA:1424,196
DA:1425,196
DA:1426,196
DA:1427,196
DA:1428,196
DA:1449,55
DA:1450,55
DA:1451,55
DA:1453,55
DA:1454,55
DA:1455,55
DA:1456,55
DA:1457,55
DA:1461,1557
DA:1462,1557
DA:1463,1557
DA:1464,1535
DA:1465,1535
DA:1466,1535
DA:1467,22
DA:1469,1557
DA:1470,1557
DA:1473,107
DA:1474,107
DA:1475,107
DA:1476,74
DA:1477,74
DA:1478,74
DA:1479,33
DA:1481,107
DA:1482,107
DA:1487,5
DA:1488,5
DA:1489,5
DA:1491,5
DA:1492,5
DA:1493,5
DA:1494,5
DA:1495,5
DA:1505,10
DA:1506,10
DA:1507,10
DA:1508,5
DA:1509,5
DA:1510,5
DA:1511,5
DA:1513,10
DA:1515,10
LF:299
LH:276
end_of_record
TN:
SF:/Users/yunjinqi/Documents/source_code/pyfolio_cpp/include/pyfolio/analytics/performance_metrics.h
FNL:0,102,110
FNA:0,2,_ZN7pyfolio18PerformanceMetrics13annual_returnIdEENS_6ResultIdEERKNS_10TimeSeriesIT_EE
FNL:1,113,121
