TN:
SF:/Users/yunjinqi/Documents/source_code/pyfolio_cpp/include/pyfolio/analytics/performance_metrics.h
FNL:0,102,110
FNA:0,2,_ZN7pyfolio18PerformanceMetrics13annual_returnIdEENS_6ResultIdEERKNS_10TimeSeriesIT_EE
FNL:1,113,121
FNA:1,2,_ZN7pyfolio18PerformanceMetrics17annual_volatilityIdEENS_6ResultIdEERKNS_10TimeSeriesIT_EE
FNL:2,124,125
FNA:2,3,_ZN7pyfolio18PerformanceMetrics12sharpe_ratioIdEENS_6ResultIdEERKNS_10TimeSeriesIT_EEd
FNL:3,129,130
FNA:3,1,_ZN7pyfolio18PerformanceMetrics13sortino_ratioIdEENS_6ResultIdEERKNS_10TimeSeriesIT_EEd
FNL:4,134,135
FNA:4,1,_ZN7pyfolio18PerformanceMetrics12calmar_ratioIdEENS_6ResultIdEERKNS_10TimeSeriesIT_EE
FNL:5,139,140
FNA:5,1,_ZN7pyfolio18PerformanceMetrics12max_drawdownIdEENS_6ResultINS_10Statistics18SimpleDrawdownInfoEEERKNS_10TimeSeriesIT_EE
FNL:6,144,147
FNA:6,1,_ZN7pyfolio18PerformanceMetrics10alpha_betaIdEENS_6ResultINS_10Statistics15AlphaBetaResultEEERKNS_10TimeSeriesIT_EESA_d
FNL:7,151,152
FNA:7,1,_ZN7pyfolio18PerformanceMetrics17information_ratioIdEENS_6ResultIdEERKNS_10TimeSeriesIT_EES8_
FNL:8,156,157
FNA:8,1,_ZN7pyfolio18PerformanceMetrics14tracking_errorIdEENS_6ResultIdEERKNS_10TimeSeriesIT_EES8_
FNL:9,168,173
FNA:9,1,_ZN7pyfolio18PerformanceMetrics21up_down_capture_ratioIdEENS_6ResultINS0_18CaptureRatioResultEEERKNS_10TimeSeriesIT_EES9_
FNL:10,177,179
FNA:10,1,_ZN7pyfolio18PerformanceMetrics10tail_ratioIdEENS_6ResultIdEERKNS_10TimeSeriesIT_EEd
FNL:11,183,185
FNA:11,1,_ZN7pyfolio18PerformanceMetrics18common_sense_ratioIdEENS_6ResultIdEERKNS_10TimeSeriesIT_EE
FNL:12,189,191
FNA:12,1,_ZN7pyfolio18PerformanceMetrics23stability_of_timeseriesIdEENS_6ResultIdEERKNS_10TimeSeriesIT_EE
FNL:13,195,202
FNA:13,1,_ZN7pyfolio18PerformanceMetrics31calculate_comprehensive_metricsIdEENS_6ResultINS_9analytics18PerformanceMetricsEEERKNS_10TimeSeriesIT_EESA_d
FNL:14,206,207
FNA:14,1,_ZN7pyfolio18PerformanceMetrics18cumulative_returnsIdEENS_6ResultINS_10TimeSeriesIT_EEEERKS5_
FNL:15,211,216
FNA:15,1,_ZN7pyfolio18PerformanceMetrics15drawdown_seriesIdEENS_6ResultINS_10TimeSeriesIT_EEEERKS5_
FNL:16,219,223
FNA:16,1,_ZN7pyfolio18PerformanceMetrics14rolling_sharpeIdEENS_6ResultINS_10TimeSeriesIT_EEEERKS5_id
FNF:17
FNH:17
DA:102,2
DA:103,2
DA:104,2
DA:105,1
DA:108,1
DA:109,1
DA:110,2
DA:113,2
DA:114,2
DA:115,2
DA:116,0
DA:119,2
DA:120,2
DA:121,2
DA:124,3
DA:125,3
DA:129,1
DA:130,1
DA:134,1
DA:135,1
DA:139,1
DA:140,1
DA:144,1
DA:147,1
DA:151,1
DA:152,1
DA:156,1
DA:157,1
DA:168,1
DA:171,1
DA:172,1
DA:173,1
DA:177,1
DA:179,1
DA:183,1
DA:185,1
DA:189,1
DA:191,1
DA:195,1
DA:197,1
DA:198,1
DA:199,1
DA:200,1
DA:201,1
DA:202,1
DA:206,1
DA:207,1
DA:211,1
DA:213,1
DA:214,1
DA:215,1
DA:216,1
DA:219,1
DA:221,1
DA:222,1
DA:223,1
LF:56
LH:55
end_of_record
TN:
SF:/Users/yunjinqi/Documents/source_code/pyfolio_cpp/include/pyfolio/analytics/statistics.h
FNL:0,275,276
FNA:0,3,_ZN7pyfolio10Statistics21calculate_basic_statsIdEENS_6ResultINS_9analytics10statistics18StatisticalSummaryEEERKNS_10TimeSeriesIT_EE
FNL:1,281,293
FNA:1,8,_ZN7pyfolio10Statistics12sharpe_ratioIdEENS_6ResultIdEERKNS_10TimeSeriesIT_EEd
FNL:2,297,330
FNA:2,2,_ZN7pyfolio10Statistics13sortino_ratioIdEENS_6ResultIdEERKNS_10TimeSeriesIT_EEd
FNL:3,334,342
FNA:3,2,_ZN7pyfolio10Statistics12calmar_ratioIdEENS_6ResultIdEERKNS_10TimeSeriesIT_EE
FNL:4,343,366
FNA:4,2,_ZZN7pyfolio10Statistics12calmar_ratioIdEENS_6ResultIdEERKNS_10TimeSeriesIT_EEENKUlRKS5_E_clINS4_IdEEEEDaSA_
FNL:5,369,373
FNA:5,2,_ZN7pyfolio10Statistics18SimpleDrawdownInfoC1Ev
FNA:5,2,_ZN7pyfolio10Statistics18SimpleDrawdownInfoC2Ev
FNL:6,377,380
FNA:6,2,_ZN7pyfolio10Statistics15AlphaBetaResultC1Ev
FNA:6,2,_ZN7pyfolio10Statistics15AlphaBetaResultC2Ev
FNL:7,385,431
FNA:7,2,_ZN7pyfolio10Statistics12max_drawdownIdEENS_6ResultINS0_18SimpleDrawdownInfoEEERKNS_10TimeSeriesIT_EE
FNL:8,42,96
FNA:8,3,_ZN7pyfolio9analytics10statistics17calculate_summaryIdEENS_6ResultINS1_18StatisticalSummaryEEERKNS_10TimeSeriesIT_EE
FNL:9,435,436
FNA:9,2,_ZN7pyfolio10Statistics10volatilityIdEENS_6ResultIdEERKNS_10TimeSeriesIT_EE
FNL:10,441,460
FNA:10,1,_ZN7pyfolio10Statistics18downside_deviationIdEENS_6ResultIdEERKNS_10TimeSeriesIT_EEd
FNL:11,464,505
FNA:11,2,_ZN7pyfolio10Statistics10alpha_betaIdEENS_6ResultINS0_15AlphaBetaResultEEERKNS_10TimeSeriesIT_EES9_d
FNL:12,509,548
FNA:12,2,_ZN7pyfolio10Statistics17information_ratioIdEENS_6ResultIdEERKNS_10TimeSeriesIT_EES8_
FNL:13,551,585
FNA:13,2,_ZN7pyfolio10Statistics14tracking_errorIdEENS_6ResultIdEERKNS_10TimeSeriesIT_EES8_
FNL:14,588,591
FNA:14,1,_ZN7pyfolio10Statistics8skewnessIdEENS_6ResultIdEERKNS_10TimeSeriesIT_EE
FNL:15,594,597
FNA:15,1,_ZN7pyfolio10Statistics8kurtosisIdEENS_6ResultIdEERKNS_10TimeSeriesIT_EE
FNL:16,600,603
FNA:16,2,_ZN7pyfolio10Statistics24value_at_risk_historicalIdEENS_6ResultIdEERKNS_10TimeSeriesIT_EEd
FNL:17,606,609
FNA:17,1,_ZN7pyfolio10Statistics25conditional_value_at_riskIdEENS_6ResultIdEERKNS_10TimeSeriesIT_EEd
FNF:18
FNH:18
DA:42,3
DA:43,3
DA:44,1
DA:47,2
DA:48,2
DA:53,2
DA:54,2
DA:55,0
DA:57,2
DA:59,2
DA:60,2
DA:61,1
DA:63,1
DA:64,1
DA:66,1
DA:67,1
DA:68,0
DA:70,1
DA:72,1
DA:73,1
DA:74,0
DA:76,1
DA:79,1
DA:80,1
DA:81,1
DA:84,1
DA:85,1
DA:87,1
DA:88,1
DA:89,1
DA:90,1
DA:92,1
DA:93,1
DA:95,1
DA:96,3
DA:275,3
DA:276,3
DA:281,8
DA:282,8
DA:283,8
DA:284,8
DA:285,2
DA:288,6
DA:289,6
DA:290,6
DA:291,6
DA:292,6
DA:293,8
DA:297,2
DA:298,2
DA:299,2
DA:300,0
DA:304,2
DA:307,2
DA:308,2
DA:309,2
DA:310,20
DA:311,18
DA:312,8
DA:313,8
DA:314,8
DA:315,8
DA:318,2
DA:319,0
DA:322,2
DA:324,2
DA:326,2
DA:327,2
DA:328,2
DA:329,2
DA:330,2
DA:334,2
DA:335,2
DA:336,2
DA:337,0
DA:341,2
DA:342,2
DA:343,0
DA:346,2
DA:347,2
DA:348,2
DA:350,20
DA:351,18
DA:352,7
DA:353,7
DA:354,18
DA:355,18
DA:356,2
DA:357,2
DA:360,2
DA:361,0
DA:364,2
DA:365,2
DA:366,2
DA:369,2
DA:372,2
DA:373,2
DA:377,2
DA:380,2
DA:385,2
DA:386,2
DA:387,2
DA:388,0
DA:391,2
DA:392,2
DA:393,0
DA:397,2
DA:398,2
DA:399,2
DA:400,2
DA:402,20
DA:403,18
DA:404,5
DA:405,5
DA:406,5
DA:407,13
DA:408,13
DA:409,8
DA:410,8
DA:414,18
DA:415,18
DA:416,18
DA:417,18
DA:419,0
DA:422,18
DA:423,2
DA:424,2
DA:427,2
DA:428,2
DA:429,2
DA:430,2
DA:431,2
DA:435,2
DA:436,2
DA:441,1
DA:442,1
DA:443,1
DA:444,1
DA:446,9
DA:447,8
DA:448,4
DA:449,4
DA:450,4
DA:451,4
DA:454,1
DA:455,0
DA:458,1
DA:459,1
DA:460,1
DA:464,2
DA:467,2
DA:468,0
DA:471,2
DA:472,2
DA:475,2
DA:476,2
DA:477,20
DA:478,18
DA:479,18
DA:480,18
DA:481,2
DA:482,2
DA:485,2
DA:486,2
DA:488,20
DA:489,18
DA:490,18
DA:491,18
DA:492,18
DA:493,18
DA:495,2
DA:496,2
DA:498,2
DA:499,2
DA:501,2
DA:502,2
DA:503,2
DA:504,2
DA:505,2
DA:509,2
DA:511,2
DA:512,0
DA:516,2
DA:517,2
DA:518,2
DA:520,20
DA:521,18
DA:522,18
DA:525,2
DA:526,20
DA:527,18
DA:529,2
DA:531,2
DA:532,20
DA:533,18
DA:534,18
DA:536,2
DA:537,2
DA:539,2
DA:540,0
DA:544,2
DA:545,2
DA:547,2
DA:548,2
DA:551,2
DA:553,2
DA:554,0
DA:558,2
DA:559,2
DA:560,2
DA:562,20
DA:563,18
DA:564,18
DA:567,2
DA:568,20
DA:569,18
DA:571,2
DA:573,2
DA:574,20
DA:575,18
DA:576,18
DA:578,2
DA:579,2
DA:582,2
DA:584,2
DA:585,2
DA:588,1
DA:589,1
DA:590,1
DA:591,1
DA:594,1
DA:595,1
DA:596,1
DA:597,1
DA:600,2
DA:601,2
DA:602,2
DA:603,2
DA:606,1
DA:607,1
DA:608,1
DA:609,1
LF:242
LH:226
end_of_record
TN:
SF:/Users/yunjinqi/Documents/source_code/pyfolio_cpp/include/pyfolio/core/datetime.h
FNL:0,107,108
FNA:0,1,_ZNK7pyfolio16BusinessCalendar10is_holidayERKNSt3__16chrono14year_month_dayE
FNL:1,117,132
FNA:1,6,_ZN7pyfolio16BusinessCalendar27initialize_default_holidaysEv
FNL:2,145,145
FNA:2,0,_ZN7pyfolio8DateTimeC1Ev
FNA:2,0,_ZN7pyfolio8DateTimeC2Ev
FNL:3,147,147
FNA:3,6,_ZN7pyfolio8DateTimeC1ERKNSt3__16chrono10time_pointINS2_12system_clockENS2_8durationIxNS1_5ratioILl1ELl1000000EEEEEEE
FNA:3,6,_ZN7pyfolio8DateTimeC2ERKNSt3__16chrono10time_pointINS2_12system_clockENS2_8durationIxNS1_5ratioILl1ELl1000000EEEEEEE
FNL:4,149,150
FNA:4,389,_ZN7pyfolio8DateTimeC1ERKNSt3__16chrono14year_month_dayE
FNA:4,389,_ZN7pyfolio8DateTimeC2ERKNSt3__16chrono14year_month_dayE
FNL:5,160,186
FNA:5,391,_ZN7pyfolio8DateTime5parseERKNSt3__112basic_stringIcNS1_11char_traitsIcEENS1_9allocatorIcEEEES9_
FNL:6,19,25
FNA:6,2,_ZN7pyfolio16BusinessCalendarD1Ev
FNA:6,2,_ZN7pyfolio16BusinessCalendarD2Ev
FNL:7,191,192
FNA:7,4,_ZN7pyfolio8DateTime3nowEv
FNL:8,205,206
FNA:8,15,_ZNK7pyfolio8DateTime7to_dateEv
FNL:9,212,227
FNA:9,2,_ZNK7pyfolio8DateTime9to_stringERKNSt3__112basic_stringIcNS1_11char_traitsIcEENS1_9allocatorIcEEEE
FNL:10,25,27
FNA:10,6,_ZN7pyfolio16BusinessCalendarC1ERKNSt3__112basic_stringIcNS1_11char_traitsIcEENS1_9allocatorIcEEEE
FNA:10,6,_ZN7pyfolio16BusinessCalendarC2ERKNSt3__112basic_stringIcNS1_11char_traitsIcEENS1_9allocatorIcEEEE
FNL:11,255,257
FNA:11,1,_ZNK7pyfolio8DateTime19business_days_untilERKS0_RKNS_16BusinessCalendarE
FNL:12,263,264
FNA:12,2,_ZNK7pyfolio8DateTime8add_daysEi
FNL:13,270,272
FNA:13,1,_ZNK7pyfolio8DateTime10add_monthsEi
FNL:14,306,309
FNA:14,1,_ZNK7pyfolio8DateTime10days_sinceERKS0_
FNL:15,32,43
FNA:15,11,_ZNK7pyfolio16BusinessCalendar15is_business_dayERKNSt3__16chrono14year_month_dayE
FNL:16,331,331
FNA:16,4,_ZNK7pyfolio8DateTimeeqERKS0_
FNL:17,332,332
FNA:17,699,_ZNK7pyfolio8DateTimessERKS0_
FNL:18,363,364
FNA:18,1,_ZNK7pyfolio16BusinessCalendar10is_holidayERKNS_8DateTimeE
FNL:19,367,368
FNA:19,4,_ZNK7pyfolio16BusinessCalendar15is_business_dayERKNS_8DateTimeE
FNL:20,371,373
FNA:20,1,_ZN7pyfolio16BusinessCalendar11add_holidayERKNS_8DateTimeE
FNL:21,441,450
FNA:21,0,_ZN7pyfolio9frequency16to_annual_factorENS_9FrequencyE
FNL:22,73,88
FNA:22,1,_ZNK7pyfolio16BusinessCalendar21business_days_betweenERKNSt3__16chrono14year_month_dayES5_
FNL:23,93,95
FNA:23,1,_ZN7pyfolio16BusinessCalendar11add_holidayERKNSt3__16chrono14year_month_dayE
FNF:24
FNH:22
DA:25,12
DA:26,6
DA:27,12
DA:32,11
DA:34,11
DA:35,11
DA:37,11
DA:38,4
DA:42,7
DA:43,11
DA:73,1
DA:75,1
DA:77,1
DA:78,1
DA:80,8
DA:81,7
DA:82,4
DA:83,4
DA:84,7
DA:87,1
DA:88,1
DA:93,1
DA:94,1
DA:95,1
DA:107,1
DA:108,1
DA:117,6
DA:122,6
DA:123,6
DA:126,6
DA:127,6
DA:130,6
DA:131,6
DA:132,6
DA:145,0
DA:147,12
DA:149,778
DA:150,778
DA:160,391
DA:164,391
DA:165,390
DA:166,390
DA:167,390
DA:169,390
DA:171,390
DA:172,1
DA:173,1
DA:176,389
DA:179,1
DA:180,1
DA:182,0
DA:183,0
DA:184,0
DA:185,0
DA:186,391
DA:191,4
DA:192,4
DA:205,15
DA:206,15
DA:212,2
DA:213,2
DA:215,2
DA:216,2
DA:217,2
DA:218,4
DA:219,2
DA:220,2
DA:224,0
DA:225,0
DA:226,0
DA:227,2
DA:255,1
DA:257,1
DA:263,2
DA:264,2
DA:270,1
DA:272,1
DA:306,1
DA:307,2
DA:308,1
DA:309,1
DA:331,4
DA:332,699
DA:363,1
DA:364,1
DA:367,4
DA:368,4
DA:371,1
DA:372,1
DA:373,1
DA:441,0
DA:442,0
DA:443,0
DA:444,0
DA:445,0
DA:446,0
DA:447,0
DA:448,0
DA:450,0
LF:99
LH:82
end_of_record
TN:
SF:/Users/yunjinqi/Documents/source_code/pyfolio_cpp/include/pyfolio/core/error_handling.h
FNL:0,104,105
FNA:0,6,_ZNK7pyfolio6ResultIdE9has_valueEv
FNL:1,117,123
FNA:1,2,_ZN7pyfolio6ResultINS_10Statistics15AlphaBetaResultEE5valueEv
FNA:1,2,_ZN7pyfolio6ResultINS_10Statistics18SimpleDrawdownInfoEE5valueEv
FNA:1,15,_ZN7pyfolio6ResultINS_10TimeSeriesIdEEE5valueEv
FNA:1,1,_ZN7pyfolio6ResultINS_18PerformanceMetrics18CaptureRatioResultEE5valueEv
FNA:1,389,_ZN7pyfolio6ResultINS_8DateTimeEE5valueEv
FNA:1,1,_ZN7pyfolio6ResultINS_9analytics10statistics18StatisticalSummaryEE5valueEv
FNA:1,1,_ZN7pyfolio6ResultINS_9analytics18PerformanceMetricsEE5valueEv
FNA:1,1,_ZN7pyfolio6ResultINSt3__14pairINS_10TimeSeriesIdEES4_EEE5valueEv
FNA:1,0,_ZN7pyfolio6ResultINSt3__16vectorINS_11performance12DrawdownInfoENS1_9allocatorIS4_EEEEE5valueEv
FNA:1,0,_ZN7pyfolio6ResultINSt3__16vectorIdNS1_9allocatorIdEEEEE5valueEv
FNA:1,100092,_ZN7pyfolio6ResultIdE5valueEv
FNA:1,2,_ZN7pyfolio6ResultIiE5valueEv
FNL:2,125,130
FNA:2,0,_ZNK7pyfolio6ResultINS_10TimeSeriesIdEEE5errorEv
FNA:2,0,_ZNK7pyfolio6ResultINSt3__16vectorINS_11performance12DrawdownInfoENS1_9allocatorIS4_EEEEE5errorEv
FNA:2,0,_ZNK7pyfolio6ResultINSt3__16vectorIdNS1_9allocatorIdEEEEE5errorEv
FNA:2,1,_ZNK7pyfolio6ResultIdE5errorEv
FNA:2,2,_ZNK7pyfolio6ResultIiE5errorEv
FNL:3,133,134
FNA:3,2,_ZNK7pyfolio6ResultIdE8value_orERKd
FNL:4,139,151
FNA:4,0,_ZNK7pyfolio6ResultINS_10TimeSeriesIdEEE3mapIZNS_10Statistics12calmar_ratioIdEENS0_IdEERKNS1_IT_EEEUlRKS8_E_EENS0_IDTclfp_clL_ZNSt3__17declvalB8ne180100IS2_EEDTclsr3stdE9__declvalIS8_ELi0EEEvEEEEEEOS8_
FNL:5,38,38
FNA:5,17,_ZN7pyfolio5ErrorC1EOS0_
FNA:5,0,_ZN7pyfolio5ErrorC1ERKS0_
FNA:5,17,_ZN7pyfolio5ErrorC2EOS0_
FNA:5,0,_ZN7pyfolio5ErrorC2ERKS0_
FNA:5,34,_ZN7pyfolio5ErrorD1Ev
FNA:5,34,_ZN7pyfolio5ErrorD2Ev
FNL:6,44,48
FNA:6,15,_ZN7pyfolio5ErrorC1ENS_9ErrorCodeERKNSt3__112basic_stringIcNS2_11char_traitsIcEENS2_9allocatorIcEEEESA_NS2_15source_locationE
FNA:6,15,_ZN7pyfolio5ErrorC2ENS_9ErrorCodeERKNSt3__112basic_stringIcNS2_11char_traitsIcEENS2_9allocatorIcEEEESA_NS2_15source_locationE
FNL:7,51,53
FNA:7,2,_ZN7pyfolio5ErrorC1ERKNSt3__112basic_stringIcNS1_11char_traitsIcEENS1_9allocatorIcEEEENS1_15source_locationE
FNA:7,2,_ZN7pyfolio5ErrorC2ERKNSt3__112basic_stringIcNS1_11char_traitsIcEENS1_9allocatorIcEEEENS1_15source_locationE
FNL:8,55,59
FNA:8,1,_ZNK7pyfolio5Error9to_stringEv
FNL:9,66
FNA:9,2,_ZN7pyfolio6ResultINS_10Statistics15AlphaBetaResultEED1Ev
FNA:9,2,_ZN7pyfolio6ResultINS_10Statistics15AlphaBetaResultEED2Ev
FNA:9,2,_ZN7pyfolio6ResultINS_10Statistics18SimpleDrawdownInfoEED1Ev
FNA:9,2,_ZN7pyfolio6ResultINS_10Statistics18SimpleDrawdownInfoEED2Ev
FNA:9,0,_ZN7pyfolio6ResultINS_10TimeSeriesIdEEEC1EOS3_
FNA:9,0,_ZN7pyfolio6ResultINS_10TimeSeriesIdEEEC2EOS3_
FNA:9,14,_ZN7pyfolio6ResultINS_10TimeSeriesIdEEED1Ev
FNA:9,14,_ZN7pyfolio6ResultINS_10TimeSeriesIdEEED2Ev
FNA:9,1,_ZN7pyfolio6ResultINS_18PerformanceMetrics18CaptureRatioResultEED1Ev
FNA:9,1,_ZN7pyfolio6ResultINS_18PerformanceMetrics18CaptureRatioResultEED2Ev
FNA:9,391,_ZN7pyfolio6ResultINS_8DateTimeEED1Ev
FNA:9,391,_ZN7pyfolio6ResultINS_8DateTimeEED2Ev
FNA:9,3,_ZN7pyfolio6ResultINS_9analytics10statistics18StatisticalSummaryEED1Ev
FNA:9,3,_ZN7pyfolio6ResultINS_9analytics10statistics18StatisticalSummaryEED2Ev
FNA:9,1,_ZN7pyfolio6ResultINS_9analytics18PerformanceMetricsEED1Ev
FNA:9,1,_ZN7pyfolio6ResultINS_9analytics18PerformanceMetricsEED2Ev
FNA:9,1,_ZN7pyfolio6ResultINSt3__14pairINS_10TimeSeriesIdEES4_EEED1Ev
FNA:9,1,_ZN7pyfolio6ResultINSt3__14pairINS_10TimeSeriesIdEES4_EEED2Ev
FNA:9,0,_ZN7pyfolio6ResultINSt3__16vectorINS_11performance12DrawdownInfoENS1_9allocatorIS4_EEEEED1Ev
FNA:9,0,_ZN7pyfolio6ResultINSt3__16vectorINS_11performance12DrawdownInfoENS1_9allocatorIS4_EEEEED2Ev
FNA:9,0,_ZN7pyfolio6ResultINSt3__16vectorIdNS1_9allocatorIdEEEEED1Ev
FNA:9,0,_ZN7pyfolio6ResultINSt3__16vectorIdNS1_9allocatorIdEEEEED2Ev
FNA:9,1,_ZN7pyfolio6ResultIdEC1EOS1_
FNA:9,1,_ZN7pyfolio6ResultIdEC2EOS1_
FNA:9,100105,_ZN7pyfolio6ResultIdED1Ev
FNA:9,100105,_ZN7pyfolio6ResultIdED2Ev
FNA:9,13,_ZN7pyfolio6ResultIiED1Ev
FNA:9,13,_ZN7pyfolio6ResultIiED2Ev
FNL:10,72,72
FNA:10,2,_ZN7pyfolio6ResultINS_10Statistics15AlphaBetaResultEEC1ERKS2_
FNA:10,2,_ZN7pyfolio6ResultINS_10Statistics15AlphaBetaResultEEC2ERKS2_
FNA:10,2,_ZN7pyfolio6ResultINS_10Statistics18SimpleDrawdownInfoEEC1ERKS2_
FNA:10,2,_ZN7pyfolio6ResultINS_10Statistics18SimpleDrawdownInfoEEC2ERKS2_
FNA:10,1,_ZN7pyfolio6ResultINS_10TimeSeriesIdEEEC1ERKS2_
FNA:10,1,_ZN7pyfolio6ResultINS_10TimeSeriesIdEEEC2ERKS2_
FNA:10,0,_ZN7pyfolio6ResultINS_11performance12DrawdownInfoEEC1ERKS2_
FNA:10,0,_ZN7pyfolio6ResultINS_11performance12DrawdownInfoEEC2ERKS2_
FNA:10,1,_ZN7pyfolio6ResultINS_18PerformanceMetrics18CaptureRatioResultEEC1ERKS2_
FNA:10,1,_ZN7pyfolio6ResultINS_18PerformanceMetrics18CaptureRatioResultEEC2ERKS2_
FNA:10,1,_ZN7pyfolio6ResultINS_9analytics18PerformanceMetricsEEC1ERKS2_
FNA:10,1,_ZN7pyfolio6ResultINS_9analytics18PerformanceMetricsEEC2ERKS2_
FNA:10,20,_ZN7pyfolio6ResultIdEC1ERKd
FNA:10,20,_ZN7pyfolio6ResultIdEC2ERKd
FNL:11,73,73
FNA:11,12,_ZN7pyfolio6ResultINS_10TimeSeriesIdEEEC1EOS2_
FNA:11,12,_ZN7pyfolio6ResultINS_10TimeSeriesIdEEEC2EOS2_
FNA:11,389,_ZN7pyfolio6ResultINS_8DateTimeEEC1EOS1_
FNA:11,389,_ZN7pyfolio6ResultINS_8DateTimeEEC2EOS1_
FNA:11,1,_ZN7pyfolio6ResultINS_9analytics10statistics18StatisticalSummaryEEC1EOS3_
FNA:11,1,_ZN7pyfolio6ResultINS_9analytics10statistics18StatisticalSummaryEEC2EOS3_
FNA:11,1,_ZN7pyfolio6ResultINSt3__14pairINS_10TimeSeriesIdEES4_EEEC1EOS5_
FNA:11,1,_ZN7pyfolio6ResultINSt3__14pairINS_10TimeSeriesIdEES4_EEEC2EOS5_
FNA:11,0,_ZN7pyfolio6ResultINSt3__16vectorINS_11performance12DrawdownInfoENS1_9allocatorIS4_EEEEEC1EOS7_
FNA:11,0,_ZN7pyfolio6ResultINSt3__16vectorINS_11performance12DrawdownInfoENS1_9allocatorIS4_EEEEEC2EOS7_
FNA:11,0,_ZN7pyfolio6ResultINSt3__16vectorIdNS1_9allocatorIdEEEEEC1EOS5_
FNA:11,0,_ZN7pyfolio6ResultINSt3__16vectorIdNS1_9allocatorIdEEEEEC2EOS5_
FNA:11,100074,_ZN7pyfolio6ResultIdEC1EOd
FNA:11,100074,_ZN7pyfolio6ResultIdEC2EOd
FNA:11,12,_ZN7pyfolio6ResultIiEC1EOi
FNA:11,12,_ZN7pyfolio6ResultIiEC2EOi
FNL:12,74,74
FNA:12,0,_ZN7pyfolio6ResultIdEC1ERKNS_5ErrorE
FNA:12,0,_ZN7pyfolio6ResultIdEC2ERKNS_5ErrorE
FNL:13,75,75
FNA:13,0,_ZN7pyfolio6ResultINS_10Statistics15AlphaBetaResultEEC1EONS_5ErrorE
FNA:13,0,_ZN7pyfolio6ResultINS_10Statistics15AlphaBetaResultEEC2EONS_5ErrorE
FNA:13,0,_ZN7pyfolio6ResultINS_10Statistics18SimpleDrawdownInfoEEC1EONS_5ErrorE
FNA:13,0,_ZN7pyfolio6ResultINS_10Statistics18SimpleDrawdownInfoEEC2EONS_5ErrorE
FNA:13,1,_ZN7pyfolio6ResultINS_10TimeSeriesIdEEEC1EONS_5ErrorE
FNA:13,1,_ZN7pyfolio6ResultINS_10TimeSeriesIdEEEC2EONS_5ErrorE
FNA:13,0,_ZN7pyfolio6ResultINS_11performance12DrawdownInfoEEC1EONS_5ErrorE
FNA:13,0,_ZN7pyfolio6ResultINS_11performance12DrawdownInfoEEC2EONS_5ErrorE
FNA:13,2,_ZN7pyfolio6ResultINS_8DateTimeEEC1EONS_5ErrorE
FNA:13,2,_ZN7pyfolio6ResultINS_8DateTimeEEC2EONS_5ErrorE
FNA:13,2,_ZN7pyfolio6ResultINS_9analytics10statistics18StatisticalSummaryEEC1EONS_5ErrorE
FNA:13,2,_ZN7pyfolio6ResultINS_9analytics10statistics18StatisticalSummaryEEC2EONS_5ErrorE
FNA:13,0,_ZN7pyfolio6ResultINSt3__16vectorINS_11performance12DrawdownInfoENS1_9allocatorIS4_EEEEEC1EONS_5ErrorE
FNA:13,0,_ZN7pyfolio6ResultINSt3__16vectorINS_11performance12DrawdownInfoENS1_9allocatorIS4_EEEEEC2EONS_5ErrorE
FNA:13,0,_ZN7pyfolio6ResultINSt3__16vectorIdNS1_9allocatorIdEEEEEC1EONS_5ErrorE
FNA:13,0,_ZN7pyfolio6ResultINSt3__16vectorIdNS1_9allocatorIdEEEEEC2EONS_5ErrorE
FNA:13,10,_ZN7pyfolio6ResultIdEC1EONS_5ErrorE
FNA:13,10,_ZN7pyfolio6ResultIdEC2EONS_5ErrorE
FNA:13,1,_ZN7pyfolio6ResultIiEC1EONS_5ErrorE
FNA:13,1,_ZN7pyfolio6ResultIiEC2EONS_5ErrorE
FNL:14,78,79
FNA:14,2,_ZN7pyfolio6ResultINS_10Statistics15AlphaBetaResultEE7successERKS2_
FNA:14,2,_ZN7pyfolio6ResultINS_10Statistics18SimpleDrawdownInfoEE7successERKS2_
FNA:14,1,_ZN7pyfolio6ResultINS_10TimeSeriesIdEEE7successERKS2_
FNA:14,0,_ZN7pyfolio6ResultINS_11performance12DrawdownInfoEE7successERKS2_
FNA:14,1,_ZN7pyfolio6ResultINS_18PerformanceMetrics18CaptureRatioResultEE7successERKS2_
FNA:14,1,_ZN7pyfolio6ResultINS_9analytics18PerformanceMetricsEE7successERKS2_
FNA:14,20,_ZN7pyfolio6ResultIdE7successERKd
FNL:15,82,83
FNA:15,12,_ZN7pyfolio6ResultINS_10TimeSeriesIdEEE7successEOS2_
FNA:15,389,_ZN7pyfolio6ResultINS_8DateTimeEE7successEOS1_
FNA:15,1,_ZN7pyfolio6ResultINSt3__14pairINS_10TimeSeriesIdEES4_EEE7successEOS5_
FNA:15,0,_ZN7pyfolio6ResultINSt3__16vectorINS_11performance12DrawdownInfoENS1_9allocatorIS4_EEEEE7successEOS7_
FNA:15,0,_ZN7pyfolio6ResultINSt3__16vectorIdNS1_9allocatorIdEEEEE7successEOS5_
FNA:15,100074,_ZN7pyfolio6ResultIdE7successEOd
FNA:15,12,_ZN7pyfolio6ResultIiE7successEOi
FNL:16,87,92
FNA:16,0,_ZN7pyfolio6ResultINS_10Statistics15AlphaBetaResultEE5errorENS_9ErrorCodeERKNSt3__112basic_stringIcNS5_11char_traitsIcEENS5_9allocatorIcEEEESD_NS5_15source_locationE
FNA:16,0,_ZN7pyfolio6ResultINS_10Statistics18SimpleDrawdownInfoEE5errorENS_9ErrorCodeERKNSt3__112basic_stringIcNS5_11char_traitsIcEENS5_9allocatorIcEEEESD_NS5_15source_locationE
FNA:16,1,_ZN7pyfolio6ResultINS_10TimeSeriesIdEEE5errorENS_9ErrorCodeERKNSt3__112basic_stringIcNS5_11char_traitsIcEENS5_9allocatorIcEEEESD_NS5_15source_locationE
FNA:16,0,_ZN7pyfolio6ResultINS_11performance12DrawdownInfoEE5errorENS_9ErrorCodeERKNSt3__112basic_stringIcNS5_11char_traitsIcEENS5_9allocatorIcEEEESD_NS5_15source_locationE
FNA:16,2,_ZN7pyfolio6ResultINS_8DateTimeEE5errorENS_9ErrorCodeERKNSt3__112basic_stringIcNS4_11char_traitsIcEENS4_9allocatorIcEEEESC_NS4_15source_locationE
FNA:16,0,_ZN7pyfolio6ResultINSt3__16vectorINS_11performance12DrawdownInfoENS1_9allocatorIS4_EEEEE5errorENS_9ErrorCodeERKNS1_12basic_stringIcNS1_11char_traitsIcEENS5_IcEEEESG_NS1_15source_locationE
FNA:16,0,_ZN7pyfolio6ResultINSt3__16vectorIdNS1_9allocatorIdEEEEE5errorENS_9ErrorCodeERKNS1_12basic_stringIcNS1_11char_traitsIcEENS3_IcEEEESE_NS1_15source_locationE
FNA:16,10,_ZN7pyfolio6ResultIdE5errorENS_9ErrorCodeERKNSt3__112basic_stringIcNS3_11char_traitsIcEENS3_9allocatorIcEEEESB_NS3_15source_locationE
FNA:16,1,_ZN7pyfolio6ResultIiE5errorENS_9ErrorCodeERKNSt3__112basic_stringIcNS3_11char_traitsIcEENS3_9allocatorIcEEEESB_NS3_15source_locationE
FNL:17,95,96
FNA:17,2,_ZNK7pyfolio6ResultINS_10Statistics15AlphaBetaResultEE5is_okEv
FNA:17,2,_ZNK7pyfolio6ResultINS_10Statistics18SimpleDrawdownInfoEE5is_okEv
FNA:17,9,_ZNK7pyfolio6ResultINS_10TimeSeriesIdEEE5is_okEv
FNA:17,1,_ZNK7pyfolio6ResultINS_18PerformanceMetrics18CaptureRatioResultEE5is_okEv
FNA:17,2,_ZNK7pyfolio6ResultINS_8DateTimeEE5is_okEv
FNA:17,2,_ZNK7pyfolio6ResultINS_9analytics10statistics18StatisticalSummaryEE5is_okEv
FNA:17,1,_ZNK7pyfolio6ResultINS_9analytics18PerformanceMetricsEE5is_okEv
FNA:17,1,_ZNK7pyfolio6ResultINSt3__14pairINS_10TimeSeriesIdEES4_EEE5is_okEv
FNA:17,0,_ZNK7pyfolio6ResultINSt3__16vectorINS_11performance12DrawdownInfoENS1_9allocatorIS4_EEEEE5is_okEv
FNA:17,0,_ZNK7pyfolio6ResultINSt3__16vectorIdNS1_9allocatorIdEEEEE5is_okEv
FNA:17,100042,_ZNK7pyfolio6ResultIdE5is_okEv
FNA:17,15,_ZNK7pyfolio6ResultIiE5is_okEv
FNL:18,99,100
FNA:18,2,_ZNK7pyfolio6ResultINS_10Statistics15AlphaBetaResultEE8is_errorEv
FNA:18,2,_ZNK7pyfolio6ResultINS_10Statistics18SimpleDrawdownInfoEE8is_errorEv
FNA:18,20,_ZNK7pyfolio6ResultINS_10TimeSeriesIdEEE8is_errorEv
FNA:18,1,_ZNK7pyfolio6ResultINS_18PerformanceMetrics18CaptureRatioResultEE8is_errorEv
FNA:18,391,_ZNK7pyfolio6ResultINS_8DateTimeEE8is_errorEv
FNA:18,2,_ZNK7pyfolio6ResultINS_9analytics10statistics18StatisticalSummaryEE8is_errorEv
FNA:18,1,_ZNK7pyfolio6ResultINS_9analytics18PerformanceMetricsEE8is_errorEv
FNA:18,1,_ZNK7pyfolio6ResultINSt3__14pairINS_10TimeSeriesIdEES4_EEE8is_errorEv
FNA:18,0,_ZNK7pyfolio6ResultINSt3__16vectorINS_11performance12DrawdownInfoENS1_9allocatorIS4_EEEEE8is_errorEv
FNA:18,0,_ZNK7pyfolio6ResultINSt3__16vectorIdNS1_9allocatorIdEEEEE8is_errorEv
FNA:18,100154,_ZNK7pyfolio6ResultIdE8is_errorEv
FNA:18,4,_ZNK7pyfolio6ResultIiE8is_errorEv
FNF:19
FNH:17
DA:38,0
DA:44,30
DA:48,30
DA:51,4
DA:53,4
DA:55,1
DA:56,3
DA:57,2
DA:58,1
DA:59,0
DA:72,54
DA:73,200978
DA:74,0
DA:75,32
DA:78,27
DA:79,27
DA:82,100488
DA:83,100488
DA:87,14
DA:91,14
DA:92,0
DA:95,100077
DA:96,100077
DA:99,100578
DA:100,100578
DA:104,6
DA:105,6
DA:117,100506
DA:118,100506
DA:119,0
DA:120,0
DA:122,100506
DA:123,0
DA:125,3
DA:126,3
DA:127,0
DA:129,3
DA:130,0
DA:133,2
DA:134,2
DA:139,0
DA:142,0
DA:143,0
DA:147,0
DA:148,0
DA:149,0
DA:150,0
DA:151,0
LF:48
LH:31
end_of_record
TN:
SF:/Users/yunjinqi/Documents/source_code/pyfolio_cpp/include/pyfolio/core/time_series.h
FNL:0,122,129
FNA:0,95,_ZN7pyfolio10TimeSeriesIdE12sort_by_timeEv
FNL:1,130,147
FNA:1,670,_ZZN7pyfolio10TimeSeriesIdE12sort_by_timeEvENKUlmmE_clEmm
FNL:2,167,191
FNA:2,1,_ZNK7pyfolio10TimeSeriesIdE5sliceERKNS_8DateTimeES4_
FNL:3,19,19
FNA:3,14,_ZN7pyfolio10TimeSeriesIdEC1EOS1_
FNA:3,12,_ZN7pyfolio10TimeSeriesIdEC1ERKS1_
FNA:3,14,_ZN7pyfolio10TimeSeriesIdEC2EOS1_
FNA:3,12,_ZN7pyfolio10TimeSeriesIdEC2ERKS1_
FNA:3,195,_ZN7pyfolio10TimeSeriesIdED1Ev
FNA:3,195,_ZN7pyfolio10TimeSeriesIdED2Ev
FNA:3,70,_ZN7pyfolio10TimeSeriesIdEaSEOS1_
FNL:4,196,196
FNA:4,1,_ZNK7pyfolio10TimeSeriesIdE8resampleENS_9FrequencyE
FNL:5,199,208
FNA:5,5,_ZZNK7pyfolio10TimeSeriesIdE8resampleENS_9FrequencyEENKUlRKNSt3__16vectorIdNS3_9allocatorIdEEEEE_clES9_
FNL:6,213,239
FNA:6,1,_ZNK7pyfolio10TimeSeriesIdE8resampleENS_9FrequencyERKNSt3__18functionIFdRKNS3_6vectorIdNS3_9allocatorIdEEEEEEE
FNL:7,245,263
FNA:7,2,_ZNK7pyfolio10TimeSeriesIdE7rollingIZNKS1_12rolling_meanEmEUlNSt3__14spanIKdLm18446744073709551615EEEE_EENS_6ResultIS1_EEmOT_
FNA:7,0,_ZNK7pyfolio10TimeSeriesIdE7rollingIZNS_11performance15rolling_returnsERKS1_mE3$_0EENS_6ResultIS1_EEmOT_
FNL:8,26,30
FNA:8,95,_ZNK7pyfolio10TimeSeriesIdE20validate_consistencyEv
FNL:9,39,39
FNA:9,74,_ZN7pyfolio10TimeSeriesIdEC1Ev
FNA:9,74,_ZN7pyfolio10TimeSeriesIdEC2Ev
FNL:10,407,415
FNA:10,1,_ZNK7pyfolio10TimeSeriesIdE2atERKNS_8DateTimeE
FNL:11,420,420
FNA:11,2,_ZNK7pyfolio10TimeSeriesIdE12rolling_meanEm
FNL:12,422,427
FNA:12,9,_ZZNK7pyfolio10TimeSeriesIdE12rolling_meanEmENKUlNSt3__14spanIKdLm18446744073709551615EEEE_clES5_
FNL:13,43,49
FNA:13,90,_ZN7pyfolio10TimeSeriesIdEC1ERKNSt3__16vectorINS_8DateTimeENS2_9allocatorIS4_EEEERKNS3_IdNS5_IdEEEERKNS2_12basic_stringIcNS2_11char_traitsIcEENS5_IcEEEE
FNA:13,90,_ZN7pyfolio10TimeSeriesIdEC2ERKNSt3__16vectorINS_8DateTimeENS2_9allocatorIS4_EEEERKNS3_IdNS5_IdEEEERKNS2_12basic_stringIcNS2_11char_traitsIcEENS5_IcEEEE
FNL:14,434,445
FNA:14,30,_ZNK7pyfolio10TimeSeriesIdE4meanEv
FNL:15,450,471
FNA:15,15,_ZNK7pyfolio10TimeSeriesIdE3stdEv
FNL:16,476,496
FNA:16,1,_ZNK7pyfolio10TimeSeriesIdE7returnsEv
FNL:17,501,518
FNA:17,6,_ZNK7pyfolio10TimeSeriesIdE18cumulative_returnsEv
FNL:18,51,57
FNA:18,5,_ZN7pyfolio10TimeSeriesIdEC1EONSt3__16vectorINS_8DateTimeENS2_9allocatorIS4_EEEEONS3_IdNS5_IdEEEERKNS2_12basic_stringIcNS2_11char_traitsIcEENS5_IcEEEE
FNA:18,5,_ZN7pyfolio10TimeSeriesIdEC2EONSt3__16vectorINS_8DateTimeENS2_9allocatorIS4_EEEEONS3_IdNS5_IdEEEERKNS2_12basic_stringIcNS2_11char_traitsIcEENS5_IcEEEE
FNL:19,523,532
FNA:19,1,_ZNK7pyfolio10TimeSeriesIdE10initializeERKNSt3__16vectorINS_8DateTimeENS2_9allocatorIS4_EEEERKNS3_IdNS5_IdEEEE
FNL:20,537,541
FNA:20,1,_ZNK7pyfolio10TimeSeriesIdE5alignERKS1_
FNL:21,546,549
FNA:21,1,_ZNK7pyfolio10TimeSeriesIdE12fill_missingERKNSt3__16vectorINS_8DateTimeENS2_9allocatorIS4_EEEENS_10FillMethodE
FNL:22,553,581
FNA:22,5,_ZNK7pyfolio10TimeSeriesIdE16get_period_startERKNS_8DateTimeENS_9FrequencyE
FNL:23,60,60
FNA:23,385,_ZNK7pyfolio10TimeSeriesIdE4sizeEv
FNL:24,61,61
FNA:24,152,_ZNK7pyfolio10TimeSeriesIdE5emptyEv
FNL:25,68,68
FNA:25,0,_ZNK7pyfolio10TimeSeriesIdEixEm
FNL:26,69,69
FNA:26,13,_ZN7pyfolio10TimeSeriesIdEixEm
FNL:27,78,78
FNA:27,1,_ZN7pyfolio10TimeSeriesIdE4backEv
FNL:28,81,81
FNA:28,0,_ZNK7pyfolio10TimeSeriesIdE9timestampEm
FNL:29,82,82
FNA:29,1,_ZNK7pyfolio10TimeSeriesIdE10timestampsEv
FNL:30,83,83
FNA:30,26,_ZNK7pyfolio10TimeSeriesIdE6valuesEv
FNL:31,86,86
FNA:31,2,_ZN7pyfolio10TimeSeriesIdE5beginEv
FNL:32,87,87
FNA:32,0,_ZNK7pyfolio10TimeSeriesIdE5beginEv
FNL:33,90,90
FNA:33,2,_ZN7pyfolio10TimeSeriesIdE3endEv
FNL:34,91,91
FNA:34,0,_ZNK7pyfolio10TimeSeriesIdE3endEv
FNL:35,95,95
FNA:35,0,_ZNK7pyfolio10TimeSeriesIdE4nameEv
FNL:36,96,96
FNA:36,0,_ZN7pyfolio10TimeSeriesIdE8set_nameERKNSt3__112basic_stringIcNS2_11char_traitsIcEENS2_9allocatorIcEEEE
FNF:37
FNH:31
DA:19,12
DA:26,95
DA:27,95
DA:28,0
DA:30,95
DA:39,148
DA:43,180
DA:46,180
DA:47,90
DA:48,90
DA:49,180
DA:51,10
DA:54,10
DA:55,5
DA:56,5
DA:57,10
DA:60,385
DA:61,152
DA:68,0
DA:69,13
DA:78,1
DA:81,0
DA:82,1
DA:83,26
DA:86,2
DA:87,0
DA:90,2
DA:91,0
DA:95,0
DA:96,0
DA:122,95
DA:123,95
DA:126,95
DA:127,95
DA:129,190
DA:130,765
DA:131,670
DA:135,95
DA:136,95
DA:137,95
DA:138,95
DA:140,860
DA:141,765
DA:142,765
DA:145,95
DA:146,95
DA:147,95
DA:167,1
DA:168,1
DA:169,0
DA:170,0
DA:173,1
DA:174,1
DA:176,1
DA:177,0
DA:178,0
DA:181,1
DA:182,1
DA:184,2
DA:185,1
DA:186,2
DA:187,1
DA:189,1
DA:190,1
DA:191,1
DA:196,1
DA:199,6
DA:200,5
DA:201,5
DA:202,10
DA:203,5
DA:205,5
DA:206,5
DA:207,1
DA:208,0
DA:213,1
DA:215,1
DA:216,0
DA:217,0
DA:221,1
DA:223,6
DA:224,5
DA:225,5
DA:226,5
DA:228,1
DA:229,1
DA:231,6
DA:232,5
DA:233,10
DA:236,1
DA:237,1
DA:238,1
DA:239,1
DA:245,2
DA:246,2
DA:247,0
DA:248,0
DA:251,2
DA:252,2
DA:254,11
DA:255,9
DA:256,9
DA:257,9
DA:258,9
DA:260,2
DA:261,2
DA:262,2
DA:263,2
DA:407,1
DA:408,3
DA:409,3
DA:410,1
DA:412,2
DA:413,0
DA:414,0
DA:415,1
DA:420,2
DA:422,11
DA:423,9
DA:424,48
DA:425,39
DA:427,9
DA:434,30
DA:435,30
DA:436,4
DA:437,4
DA:440,26
DA:441,237
DA:442,211
DA:444,26
DA:445,30
DA:450,15
DA:451,15
DA:452,2
DA:453,2
DA:456,13
DA:457,13
DA:458,0
DA:461,13
DA:462,13
DA:464,113
DA:465,100
DA:466,100
DA:469,13
DA:470,13
DA:471,15
DA:476,1
DA:477,1
DA:478,0
DA:479,0
DA:482,1
DA:483,1
DA:485,5
DA:486,4
DA:487,4
DA:488,4
DA:489,4
DA:490,4
DA:491,4
DA:493,1
DA:494,1
DA:495,1
DA:496,1
DA:501,6
DA:502,6
DA:503,0
DA:504,0
DA:507,6
DA:508,6
DA:510,6
DA:511,56
DA:512,50
DA:513,50
DA:516,6
DA:517,6
DA:518,6
DA:523,1
DA:525,1
DA:526,1
DA:527,1
DA:530,0
DA:531,0
DA:532,1
DA:537,1
DA:539,1
DA:540,1
DA:541,0
DA:546,1
DA:549,1
DA:553,5
DA:555,5
DA:557,5
DA:560,0
DA:564,0
DA:569,0
DA:570,0
DA:571,0
DA:576,0
DA:579,5
DA:581,5
LF:200
LH:168
end_of_record
TN:
SF:/Users/yunjinqi/Documents/source_code/pyfolio_cpp/include/pyfolio/math/statistics.h
FNL:0,108,137
FNA:0,2,_ZN7pyfolio5stats8kurtosisIdEENS_6ResultIdEENSt3__14spanIKT_Lm18446744073709551615EEEb
FNL:1,143,184
FNA:1,0,_ZN7pyfolio5stats11correlationIddEENS_6ResultIdEENSt3__14spanIKT_Lm18446744073709551615EEENS5_IKT0_Lm18446744073709551615EEE
FNL:2,21,29
FNA:2,12,_ZN7pyfolio5stats4meanIdEENS_6ResultIdEENSt3__14spanIKT_Lm18446744073709551615EEE
FNL:3,225,255
FNA:3,3,_ZN7pyfolio5stats10percentileIdEENS_6ResultIdEENSt3__14spanIKT_Lm18446744073709551615EEEd
FNL:4,282,297
FNA:4,3,_ZN7pyfolio5stats13value_at_riskIdEENS_6ResultIdEENSt3__14spanIKT_Lm18446744073709551615EEEd
FNL:5,303,331
FNA:5,1,_ZN7pyfolio5stats25conditional_value_at_riskIdEENS_6ResultIdEENSt3__14spanIKT_Lm18446744073709551615EEEd
FNL:6,337,361
FNA:6,0,_ZN7pyfolio5stats17rolling_statisticIdZNS0_11rolling_stdIdEENS_6ResultINSt3__16vectorIdNS4_9allocatorIdEEEEEENS4_4spanIKT_Lm18446744073709551615EEEmEUlNSA_IKdLm18446744073709551615EEEE_EES9_SD_mOT0_
FNL:7,35,56
FNA:7,6,_ZN7pyfolio5stats8varianceIdEENS_6ResultIdEENSt3__14spanIKT_Lm18446744073709551615EEEb
FNL:8,376,377
FNA:8,0,_ZN7pyfolio5stats11rolling_stdIdEENS_6ResultINSt3__16vectorIdNS3_9allocatorIdEEEEEENS3_4spanIKT_Lm18446744073709551615EEEm
FNL:9,378,378
FNA:9,0,_ZZN7pyfolio5stats11rolling_stdIdEENS_6ResultINSt3__16vectorIdNS3_9allocatorIdEEEEEENS3_4spanIKT_Lm18446744073709551615EEEmENKUlNS9_IKdLm18446744073709551615EEEE_clESE_
FNL:10,62,69
FNA:10,4,_ZN7pyfolio5stats18standard_deviationIdEENS_6ResultIdEENSt3__14spanIKT_Lm18446744073709551615EEEb
FNL:11,75,102
FNA:11,2,_ZN7pyfolio5stats8skewnessIdEENS_6ResultIdEENSt3__14spanIKT_Lm18446744073709551615EEE
FNF:12
FNH:8
DA:21,12
DA:22,12
DA:23,0
DA:24,0
DA:27,12
DA:28,12
DA:29,12
DA:35,6
DA:36,6
DA:37,1
DA:38,1
DA:41,5
DA:42,5
DA:43,0
DA:46,5
DA:47,5
DA:49,45
DA:50,40
DA:51,40
DA:54,5
DA:55,5
DA:56,6
DA:62,4
DA:63,4
DA:64,4
DA:65,0
DA:68,4
DA:69,4
DA:75,2
DA:76,2
DA:77,0
DA:78,0
DA:81,2
DA:82,2
DA:84,2
DA:85,2
DA:87,2
DA:88,2
DA:90,2
DA:91,0
DA:92,0
DA:95,2
DA:96,18
DA:97,16
DA:98,16
DA:101,2
DA:102,2
DA:108,2
DA:109,2
DA:110,0
DA:111,0
DA:114,2
DA:115,2
DA:117,2
DA:118,2
DA:120,2
DA:121,2
DA:123,2
DA:124,0
DA:125,0
DA:128,2
DA:129,18
DA:130,16
DA:131,16
DA:132,16
DA:135,2
DA:136,2
DA:137,2
DA:143,0
DA:144,0
DA:145,0
DA:146,0
DA:149,0
DA:150,0
DA:151,0
DA:154,0
DA:155,0
DA:157,0
DA:158,0
DA:160,0
DA:161,0
DA:163,0
DA:164,0
DA:165,0
DA:167,0
DA:168,0
DA:169,0
DA:171,0
DA:172,0
DA:173,0
DA:174,0
DA:176,0
DA:178,0
DA:179,0
DA:180,0
DA:183,0
DA:184,0
DA:225,3
DA:226,3
DA:227,0
DA:228,0
DA:231,3
DA:232,0
DA:233,0
DA:236,3
DA:237,3
DA:239,3
DA:240,3
DA:242,3
DA:243,3
DA:244,3
DA:246,3
DA:247,0
DA:250,3
DA:251,6
DA:252,3
DA:254,3
DA:255,3
DA:282,3
DA:283,3
DA:284,0
DA:285,0
DA:288,3
DA:289,3
DA:291,3
DA:292,0
DA:296,3
DA:297,3
DA:303,1
DA:304,1
DA:305,1
DA:306,0
DA:309,1
DA:312,1
DA:313,9
DA:314,8
DA:315,7
DA:316,7
DA:319,1
DA:320,0
DA:321,0
DA:324,1
DA:325,1
DA:326,0
DA:330,1
DA:331,1
DA:337,0
DA:340,0
DA:341,0
DA:342,0
DA:345,0
DA:346,0
DA:348,0
DA:349,0
DA:350,0
DA:352,0
DA:353,0
DA:354,0
DA:357,0
DA:358,0
DA:360,0
DA:361,0
DA:376,0
DA:377,0
DA:378,0
LF:165
LH:93
end_of_record
TN:
SF:/Users/yunjinqi/Documents/source_code/pyfolio_cpp/include/pyfolio/performance/drawdown.h
FNL:0,15,28
FNA:0,0,_ZN7pyfolio11performance12DrawdownInfoC1Ev
FNA:0,0,_ZN7pyfolio11performance12DrawdownInfoC2Ev
FNL:1,171,207
FNA:1,0,_ZN7pyfolio11performance17drawdown_durationERKNS_10TimeSeriesIdEE
FNL:2,212,288
FNA:2,0,_ZN7pyfolio11performance21find_drawdown_periodsERKNS_10TimeSeriesIdEEd
FNL:3,28,63
FNA:3,0,_ZN7pyfolio11performance19calculate_drawdownsERKNS_10TimeSeriesIdEE
FNL:4,293,323
FNA:4,0,_ZN7pyfolio11performance16average_drawdownERKNS_10TimeSeriesIdEE
FNL:5,328,366
FNA:5,0,_ZN7pyfolio11performance20rolling_max_drawdownERKNS_10TimeSeriesIdEEm
FNL:6,371,401
FNA:6,0,_ZN7pyfolio11performance21average_recovery_timeERKNS_10TimeSeriesIdEEd
FNL:7,68,85
FNA:7,0,_ZN7pyfolio11performance12max_drawdownERKNS_10TimeSeriesIdEE
FNL:8,90,166
FNA:8,0,_ZN7pyfolio11performance17max_drawdown_infoERKNS_10TimeSeriesIdEE
FNF:9
FNH:0
DA:28,0
DA:29,0
DA:30,0
DA:31,0
DA:35,0
DA:36,0
DA:37,0
DA:38,0
DA:41,0
DA:43,0
DA:44,0
DA:46,0
DA:48,0
DA:49,0
DA:51,0
DA:52,0
DA:53,0
DA:56,0
DA:57,0
DA:60,0
DA:61,0
DA:62,0
DA:63,0
DA:68,0
DA:69,0
DA:70,0
DA:71,0
DA:72,0
DA:75,0
DA:77,0
DA:78,0
DA:79,0
DA:82,0
DA:84,0
DA:85,0
DA:90,0
DA:91,0
DA:92,0
DA:93,0
DA:96,0
DA:97,0
DA:98,0
DA:99,0
DA:102,0
DA:104,0
DA:105,0
DA:107,0
DA:108,0
DA:109,0
DA:110,0
DA:112,0
DA:113,0
DA:115,0
DA:116,0
DA:117,0
DA:120,0
DA:121,0
DA:122,0
DA:123,0
DA:124,0
DA:126,0
DA:128,0
DA:129,0
DA:130,0
DA:131,0
DA:132,0
DA:133,0
DA:136,0
DA:137,0
DA:139,0
DA:140,0
DA:141,0
DA:142,0
DA:143,0
DA:144,0
DA:146,0
DA:147,0
DA:149,0
DA:150,0
DA:151,0
DA:152,0
DA:153,0
DA:155,0
DA:156,0
DA:157,0
DA:158,0
DA:159,0
DA:160,0
DA:163,0
DA:165,0
DA:166,0
DA:171,0
DA:172,0
DA:173,0
DA:174,0
DA:177,0
DA:178,0
DA:179,0
DA:180,0
DA:183,0
DA:185,0
DA:186,0
DA:188,0
DA:189,0
DA:191,0
DA:192,0
DA:194,0
DA:195,0
DA:196,0
DA:197,0
DA:198,0
DA:201,0
DA:204,0
DA:205,0
DA:206,0
DA:207,0
DA:212,0
DA:214,0
DA:215,0
DA:216,0
DA:219,0
DA:220,0
DA:221,0
DA:222,0
DA:225,0
DA:227,0
DA:229,0
DA:230,0
DA:231,0
DA:232,0
DA:233,0
DA:235,0
DA:236,0
DA:238,0
DA:240,0
DA:242,0
DA:243,0
DA:244,0
DA:245,0
DA:246,0
DA:247,0
DA:248,0
DA:249,0
DA:251,0
DA:252,0
DA:254,0
DA:255,0
DA:256,0
DA:257,0
DA:258,0
DA:260,0
DA:262,0
DA:263,0
DA:264,0
DA:266,0
DA:267,0
DA:268,0
DA:269,0
DA:271,0
DA:274,0
DA:275,0
DA:276,0
DA:277,0
DA:278,0
DA:279,0
DA:280,0
DA:281,0
DA:282,0
DA:284,0
DA:285,0
DA:287,0
DA:288,0
DA:293,0
DA:294,0
DA:295,0
DA:296,0
DA:297,0
DA:300,0
DA:302,0
DA:303,0
DA:304,0
DA:308,0
DA:309,0
DA:310,0
DA:311,0
DA:312,0
DA:315,0
DA:316,0
DA:319,0
DA:320,0
DA:322,0
DA:323,0
DA:328,0
DA:330,0
DA:331,0
DA:332,0
DA:335,0
DA:336,0
DA:338,0
DA:339,0
DA:341,0
DA:343,0
DA:344,0
DA:346,0
DA:347,0
DA:348,0
DA:349,0
DA:351,0
DA:353,0
DA:354,0
DA:355,0
DA:356,0
DA:357,0
DA:360,0
DA:361,0
DA:363,0
DA:364,0
DA:365,0
DA:366,0
DA:371,0
DA:373,0
DA:374,0
DA:375,0
DA:376,0
DA:379,0
DA:381,0
DA:382,0
DA:385,0
DA:386,0
DA:387,0
DA:388,0
DA:389,0
DA:392,0
DA:393,0
DA:394,0
DA:397,0
DA:398,0
DA:400,0
DA:401,0
LF:239
LH:0
end_of_record
TN:
SF:/Users/yunjinqi/Documents/source_code/pyfolio_cpp/include/pyfolio/performance/ratios.h
FNL:0,121,167
FNA:0,0,_ZN7pyfolio11performance12calmar_ratioERKNS_10TimeSeriesIdEENS_9FrequencyE
FNL:1,15,60
FNA:1,0,_ZN7pyfolio11performance12sharpe_ratioERKNS_10TimeSeriesIdEEdNS_9FrequencyE
FNL:2,172,221
FNA:2,0,_ZN7pyfolio11performance17information_ratioERKNS_10TimeSeriesIdEES4_NS_9FrequencyE
FNL:3,226,261
FNA:3,0,_ZN7pyfolio11performance11omega_ratioERKNS_10TimeSeriesIdEEdNS_9FrequencyE
FNL:4,266,343
FNA:4,0,_ZN7pyfolio11performance13treynor_ratioERKNS_10TimeSeriesIdEES4_dNS_9FrequencyE
FNL:5,348,389
FNA:5,0,_ZN7pyfolio11performance20rolling_sharpe_ratioERKNS_10TimeSeriesIdEEmdNS_9FrequencyE
FNL:6,65,116
FNA:6,0,_ZN7pyfolio11performance13sortino_ratioERKNS_10TimeSeriesIdEEdNS_9FrequencyE
FNF:7
FNH:0
DA:15,0
DA:18,0
DA:19,0
DA:20,0
DA:24,0
DA:25,0
DA:26,0
DA:27,0
DA:30,0
DA:33,0
DA:34,0
DA:35,0
DA:39,0
DA:40,0
DA:41,0
DA:42,0
DA:45,0
DA:46,0
DA:48,0
DA:49,0
DA:50,0
DA:54,0
DA:55,0
DA:57,0
DA:59,0
DA:60,0
DA:65,0
DA:68,0
DA:69,0
DA:70,0
DA:74,0
DA:75,0
DA:78,0
DA:79,0
DA:80,0
DA:83,0
DA:86,0
DA:87,0
DA:88,0
DA:89,0
DA:90,0
DA:91,0
DA:94,0
DA:95,0
DA:96,0
DA:99,0
DA:100,0
DA:101,0
DA:102,0
DA:104,0
DA:105,0
DA:106,0
DA:110,0
DA:111,0
DA:113,0
DA:115,0
DA:116,0
DA:121,0
DA:123,0
DA:124,0
DA:125,0
DA:129,0
DA:130,0
DA:131,0
DA:132,0
DA:137,0
DA:138,0
DA:139,0
DA:140,0
DA:143,0
DA:145,0
DA:146,0
DA:148,0
DA:149,0
DA:150,0
DA:151,0
DA:153,0
DA:154,0
DA:155,0
DA:156,0
DA:159,0
DA:160,0
DA:161,0
DA:164,0
DA:166,0
DA:167,0
DA:172,0
DA:175,0
DA:176,0
DA:177,0
DA:180,0
DA:181,0
DA:182,0
DA:186,0
DA:187,0
DA:189,0
DA:190,0
DA:191,0
DA:194,0
DA:195,0
DA:196,0
DA:200,0
DA:201,0
DA:202,0
DA:205,0
DA:206,0
DA:208,0
DA:209,0
DA:210,0
DA:214,0
DA:215,0
DA:216,0
DA:218,0
DA:220,0
DA:221,0
DA:226,0
DA:229,0
DA:230,0
DA:231,0
DA:235,0
DA:236,0
DA:238,0
DA:239,0
DA:241,0
DA:242,0
DA:243,0
DA:244,0
DA:245,0
DA:249,0
DA:250,0
DA:251,0
DA:253,0
DA:254,0
DA:258,0
DA:260,0
DA:261,0
DA:266,0
DA:270,0
DA:271,0
DA:272,0
DA:275,0
DA:276,0
DA:277,0
DA:281,0
DA:282,0
DA:283,0
DA:284,0
DA:288,0
DA:289,0
DA:290,0
DA:291,0
DA:294,0
DA:295,0
DA:298,0
DA:299,0
DA:300,0
DA:302,0
DA:303,0
DA:304,0
DA:307,0
DA:308,0
DA:310,0
DA:311,0
DA:312,0
DA:315,0
DA:316,0
DA:317,0
DA:319,0
DA:320,0
DA:321,0
DA:324,0
DA:326,0
DA:327,0
DA:328,0
DA:332,0
DA:333,0
DA:334,0
DA:337,0
DA:338,0
DA:340,0
DA:342,0
DA:343,0
DA:348,0
DA:352,0
DA:353,0
DA:354,0
DA:357,0
DA:358,0
DA:360,0
DA:361,0
DA:363,0
DA:365,0
DA:366,0
DA:368,0
DA:369,0
DA:370,0
DA:371,0
DA:373,0
DA:375,0
DA:376,0
DA:378,0
DA:379,0
DA:380,0
DA:383,0
DA:384,0
DA:386,0
DA:387,0
DA:388,0
DA:389,0
LF:209
LH:0
end_of_record
TN:
SF:/Users/yunjinqi/Documents/source_code/pyfolio_cpp/include/pyfolio/performance/returns.h
FNL:0,105,125
FNA:0,0,_ZN7pyfolio11performance28calculate_cumulative_returnsERKNS_10TimeSeriesIdEEd
FNL:1,130,149
FNA:1,0,_ZN7pyfolio11performance17annualize_returnsERKNS_10TimeSeriesIdEENS_9FrequencyE
FNL:2,15,45
FNA:2,0,_ZN7pyfolio11performance17calculate_returnsERKNS_10TimeSeriesIdEE
FNL:3,154,162
FNA:3,0,_ZN7pyfolio11performance17aggregate_returnsERKNS_10TimeSeriesIdEENS_9FrequencyE
FNL:4,163,180
FNA:4,0,_ZZN7pyfolio11performance17aggregate_returnsERKNS_10TimeSeriesIdEENS_9FrequencyEENK3$_0clERKNSt3__16vectorIdNS7_9allocatorIdEEEE
FNL:5,185,192
FNA:5,0,_ZN7pyfolio11performance15rolling_returnsERKNS_10TimeSeriesIdEEm
FNL:6,193,210
FNA:6,0,_ZZN7pyfolio11performance15rolling_returnsERKNS_10TimeSeriesIdEEmENK3$_0clENSt3__14spanIKdLm18446744073709551615EEE
FNL:7,215,234
FNA:7,0,_ZN7pyfolio11performance20calculate_volatilityERKNS_10TimeSeriesIdEENS_9FrequencyE
FNL:8,239,271
FNA:8,0,_ZN7pyfolio11performance18rolling_volatilityERKNS_10TimeSeriesIdEEmNS_9FrequencyE
FNL:9,276,288
FNA:9,0,_ZN7pyfolio11performance12total_returnERKNS_10TimeSeriesIdEE
FNL:10,293,317
FNA:10,0,_ZN7pyfolio11performance14calculate_cagrERKNS_10TimeSeriesIdEENS_9FrequencyE
FNL:11,322,334
FNA:11,0,_ZN7pyfolio11performance15convert_returnsERKNS_10TimeSeriesIdEEd
FNL:12,50,80
FNA:12,0,_ZN7pyfolio11performance21calculate_log_returnsERKNS_10TimeSeriesIdEE
FNL:13,85,100
FNA:13,0,_ZN7pyfolio11performance24calculate_excess_returnsERKNS_10TimeSeriesIdEEd
FNF:14
FNH:0
DA:15,0
DA:16,0
DA:17,0
DA:18,0
DA:21,0
DA:22,0
DA:24,0
DA:25,0
DA:27,0
DA:28,0
DA:29,0
DA:31,0
DA:32,0
DA:33,0
DA:36,0
DA:38,0
DA:39,0
DA:40,0
DA:42,0
DA:43,0
DA:44,0
DA:45,0
DA:50,0
DA:51,0
DA:52,0
DA:53,0
DA:56,0
DA:57,0
DA:59,0
DA:60,0
DA:62,0
DA:63,0
DA:64,0
DA:66,0
DA:67,0
DA:68,0
DA:71,0
DA:73,0
DA:74,0
DA:75,0
DA:77,0
DA:78,0
DA:79,0
DA:80,0
DA:85,0
DA:87,0
DA:88,0
DA:91,0
DA:93,0
DA:94,0
DA:97,0
DA:98,0
DA:99,0
DA:100,0
DA:105,0
DA:107,0
DA:108,0
DA:109,0
DA:112,0
DA:113,0
DA:115,0
DA:117,0
DA:118,0
DA:119,0
DA:122,0
DA:123,0
DA:124,0
DA:125,0
DA:130,0
DA:132,0
DA:133,0
DA:134,0
DA:137,0
DA:138,0
DA:139,0
DA:142,0
DA:143,0
DA:146,0
DA:148,0
DA:149,0
DA:154,0
DA:156,0
DA:157,0
DA:158,0
DA:162,0
DA:163,0
DA:165,0
DA:166,0
DA:167,0
DA:169,0
DA:172,0
DA:173,0
DA:176,0
DA:177,0
DA:179,0
DA:180,0
DA:185,0
DA:187,0
DA:188,0
DA:189,0
DA:192,0
DA:193,0
DA:195,0
DA:196,0
DA:197,0
DA:199,0
DA:202,0
DA:203,0
DA:206,0
DA:207,0
DA:209,0
DA:210,0
DA:215,0
DA:217,0
DA:218,0
DA:219,0
DA:222,0
DA:223,0
DA:224,0
DA:227,0
DA:228,0
DA:231,0
DA:233,0
DA:234,0
DA:239,0
DA:242,0
DA:243,0
DA:244,0
DA:245,0
DA:246,0
DA:249,0
DA:250,0
DA:253,0
DA:254,0
DA:256,0
DA:257,0
DA:261,0
DA:262,0
DA:264,0
DA:265,0
DA:266,0
DA:268,0
DA:269,0
DA:270,0
DA:271,0
DA:276,0
DA:277,0
DA:278,0
DA:279,0
DA:282,0
DA:283,0
DA:284,0
DA:287,0
DA:288,0
DA:293,0
DA:295,0
DA:296,0
DA:297,0
DA:300,0
DA:301,0
DA:302,0
DA:305,0
DA:306,0
DA:307,0
DA:309,0
DA:310,0
DA:311,0
DA:314,0
DA:316,0
DA:317,0
DA:322,0
DA:324,0
DA:325,0
DA:327,0
DA:328,0
DA:331,0
DA:332,0
DA:333,0
DA:334,0
LF:179
LH:0
end_of_record
TN:
SF:/Users/yunjinqi/Documents/source_code/pyfolio_cpp/tests/test_core_types.cpp
FNL:0,0,11
FNA:0,1,__cxx_global_var_init
FNA:0,1,__cxx_global_var_init.100
FNA:0,1,__cxx_global_var_init.109
FNA:0,1,__cxx_global_var_init.117
FNA:0,1,__cxx_global_var_init.123
FNA:0,1,__cxx_global_var_init.126
FNA:0,1,__cxx_global_var_init.130
FNA:0,1,__cxx_global_var_init.20
FNA:0,1,__cxx_global_var_init.24
FNA:0,1,__cxx_global_var_init.35
FNA:0,1,__cxx_global_var_init.41
FNA:0,1,__cxx_global_var_init.46
FNA:0,1,__cxx_global_var_init.52
FNA:0,1,__cxx_global_var_init.59
FNA:0,1,__cxx_global_var_init.67
FNA:0,1,__cxx_global_var_init.75
FNA:0,1,__cxx_global_var_init.83
FNA:0,1,__cxx_global_var_init.9
FNA:0,1,__cxx_global_var_init.92
FNL:1,101,109
FNA:1,1,_ZN33CoreTypesTest_FinancialTypes_Test8TestBodyEv
FNA:1,1,_ZN33CoreTypesTest_FinancialTypes_TestC1Ev
FNA:1,1,_ZN33CoreTypesTest_FinancialTypes_TestC2Ev
FNA:1,1,_ZN33CoreTypesTest_FinancialTypes_TestD0Ev
FNA:1,1,_ZN33CoreTypesTest_FinancialTypes_TestD1Ev
FNA:1,1,_ZN33CoreTypesTest_FinancialTypes_TestD2Ev
FNL:2,11,13
FNA:2,18,_ZN13CoreTypesTest5SetUpEv
FNL:3,111,118
FNA:3,1,_ZN33CoreTypesTest_SymbolHandling_Test8TestBodyEv
FNA:3,1,_ZN33CoreTypesTest_SymbolHandling_TestC1Ev
FNA:3,1,_ZN33CoreTypesTest_SymbolHandling_TestC2Ev
FNA:3,1,_ZN33CoreTypesTest_SymbolHandling_TestD0Ev
FNA:3,1,_ZN33CoreTypesTest_SymbolHandling_TestD1Ev
FNA:3,1,_ZN33CoreTypesTest_SymbolHandling_TestD2Ev
FNL:4,120,127
FNA:4,1,_ZN35CoreTypesTest_CurrencyHandling_Test8TestBodyEv
FNA:4,1,_ZN35CoreTypesTest_CurrencyHandling_TestC1Ev
FNA:4,1,_ZN35CoreTypesTest_CurrencyHandling_TestC2Ev
FNA:4,1,_ZN35CoreTypesTest_CurrencyHandling_TestD0Ev
FNA:4,1,_ZN35CoreTypesTest_CurrencyHandling_TestD1Ev
FNA:4,1,_ZN35CoreTypesTest_CurrencyHandling_TestD2Ev
FNL:5,130,137
FNA:5,1,_ZN28CoreTypesTest_Constants_Test8TestBodyEv
FNA:5,1,_ZN28CoreTypesTest_Constants_TestC1Ev
FNA:5,1,_ZN28CoreTypesTest_Constants_TestC2Ev
FNA:5,1,_ZN28CoreTypesTest_Constants_TestD0Ev
FNA:5,1,_ZN28CoreTypesTest_Constants_TestD1Ev
FNA:5,1,_ZN28CoreTypesTest_Constants_TestD2Ev
FNL:6,140,146
FNA:6,1,_ZN41CoreTypesTest_ErrorHandlingEdgeCases_Test8TestBodyEv
FNA:6,1,_ZN41CoreTypesTest_ErrorHandlingEdgeCases_TestC1Ev
FNA:6,1,_ZN41CoreTypesTest_ErrorHandlingEdgeCases_TestC2Ev
FNA:6,1,_ZN41CoreTypesTest_ErrorHandlingEdgeCases_TestD0Ev
FNA:6,1,_ZN41CoreTypesTest_ErrorHandlingEdgeCases_TestD1Ev
FNA:6,1,_ZN41CoreTypesTest_ErrorHandlingEdgeCases_TestD2Ev
FNL:7,148,154
FNA:7,1,_ZN39CoreTypesTest_ResultValueOrDefault_Test8TestBodyEv
FNA:7,1,_ZN39CoreTypesTest_ResultValueOrDefault_TestC1Ev
FNA:7,1,_ZN39CoreTypesTest_ResultValueOrDefault_TestC2Ev
FNA:7,1,_ZN39CoreTypesTest_ResultValueOrDefault_TestD0Ev
FNA:7,1,_ZN39CoreTypesTest_ResultValueOrDefault_TestD1Ev
FNA:7,1,_ZN39CoreTypesTest_ResultValueOrDefault_TestD2Ev
FNL:8,15,17
FNA:8,18,_ZN13CoreTypesTest8TearDownEv
FNL:9,157,168
FNA:9,1,_ZN36CoreTypesTest_DateTimeEdgeCases_Test8TestBodyEv
FNA:9,1,_ZN36CoreTypesTest_DateTimeEdgeCases_TestC1Ev
FNA:9,1,_ZN36CoreTypesTest_DateTimeEdgeCases_TestC2Ev
FNA:9,1,_ZN36CoreTypesTest_DateTimeEdgeCases_TestD0Ev
FNA:9,1,_ZN36CoreTypesTest_DateTimeEdgeCases_TestD1Ev
FNA:9,1,_ZN36CoreTypesTest_DateTimeEdgeCases_TestD2Ev
FNL:10,170,180
FNA:10,1,_ZN37CoreTypesTest_DateTimeComparison_Test8TestBodyEv
FNA:10,1,_ZN37CoreTypesTest_DateTimeComparison_TestC1Ev
FNA:10,1,_ZN37CoreTypesTest_DateTimeComparison_TestC2Ev
FNA:10,1,_ZN37CoreTypesTest_DateTimeComparison_TestD0Ev
FNA:10,1,_ZN37CoreTypesTest_DateTimeComparison_TestD1Ev
FNA:10,1,_ZN37CoreTypesTest_DateTimeComparison_TestD2Ev
FNL:11,183,188
FNA:11,1,_ZN36CoreTypesTest_BasicThreadSafety_Test8TestBodyEv
FNA:11,1,_ZN36CoreTypesTest_BasicThreadSafety_TestC1Ev
FNA:11,1,_ZN36CoreTypesTest_BasicThreadSafety_TestC2Ev
FNA:11,1,_ZN36CoreTypesTest_BasicThreadSafety_TestD0Ev
FNA:11,1,_ZN36CoreTypesTest_BasicThreadSafety_TestD1Ev
FNA:11,1,_ZN36CoreTypesTest_BasicThreadSafety_TestD2Ev
FNL:12,189,202
FNA:12,10,_ZZN36CoreTypesTest_BasicThreadSafety_Test8TestBodyEvENK3$_0clEv
FNL:13,205,223
FNA:13,1,_ZN38CoreTypesTest_PerformanceBaseline_Test8TestBodyEv
FNA:13,1,_ZN38CoreTypesTest_PerformanceBaseline_TestC1Ev
FNA:13,1,_ZN38CoreTypesTest_PerformanceBaseline_TestC2Ev
FNA:13,1,_ZN38CoreTypesTest_PerformanceBaseline_TestD0Ev
FNA:13,1,_ZN38CoreTypesTest_PerformanceBaseline_TestD1Ev
FNA:13,1,_ZN38CoreTypesTest_PerformanceBaseline_TestD2Ev
FNL:14,21,27
FNA:14,1,_ZN48CoreTypesTest_ResultMonadBasicFunctionality_Test8TestBodyEv
FNA:14,1,_ZN48CoreTypesTest_ResultMonadBasicFunctionality_TestC1Ev
FNA:14,1,_ZN48CoreTypesTest_ResultMonadBasicFunctionality_TestC2Ev
FNA:14,1,_ZN48CoreTypesTest_ResultMonadBasicFunctionality_TestD0Ev
FNA:14,1,_ZN48CoreTypesTest_ResultMonadBasicFunctionality_TestD1Ev
FNA:14,1,_ZN48CoreTypesTest_ResultMonadBasicFunctionality_TestD2Ev
FNL:15,29,36
FNA:15,1,_ZN43CoreTypesTest_ResultMonadErrorHandling_Test8TestBodyEv
FNA:15,1,_ZN43CoreTypesTest_ResultMonadErrorHandling_TestC1Ev
FNA:15,1,_ZN43CoreTypesTest_ResultMonadErrorHandling_TestC2Ev
FNA:15,1,_ZN43CoreTypesTest_ResultMonadErrorHandling_TestD0Ev
FNA:15,1,_ZN43CoreTypesTest_ResultMonadErrorHandling_TestD1Ev
FNA:15,1,_ZN43CoreTypesTest_ResultMonadErrorHandling_TestD2Ev
FNL:16,38,46
FNA:16,1,_ZN38CoreTypesTest_ResultMonadChaining_Test8TestBodyEv
FNA:16,1,_ZN38CoreTypesTest_ResultMonadChaining_TestC1Ev
FNA:16,1,_ZN38CoreTypesTest_ResultMonadChaining_TestC2Ev
FNA:16,1,_ZN38CoreTypesTest_ResultMonadChaining_TestD0Ev
FNA:16,1,_ZN38CoreTypesTest_ResultMonadChaining_TestD1Ev
FNA:16,1,_ZN38CoreTypesTest_ResultMonadChaining_TestD2Ev
FNL:17,49,58
FNA:17,1,_ZN42CoreTypesTest_DateTimeBasicOperations_Test8TestBodyEv
FNA:17,1,_ZN42CoreTypesTest_DateTimeBasicOperations_TestC1Ev
FNA:17,1,_ZN42CoreTypesTest_DateTimeBasicOperations_TestC2Ev
FNA:17,1,_ZN42CoreTypesTest_DateTimeBasicOperations_TestD0Ev
FNA:17,1,_ZN42CoreTypesTest_DateTimeBasicOperations_TestD1Ev
FNA:17,1,_ZN42CoreTypesTest_DateTimeBasicOperations_TestD2Ev
FNL:18,60,66
FNA:18,1,_ZN38CoreTypesTest_DateTimeDifferences_Test8TestBodyEv
FNA:18,1,_ZN38CoreTypesTest_DateTimeDifferences_TestC1Ev
FNA:18,1,_ZN38CoreTypesTest_DateTimeDifferences_TestC2Ev
FNA:18,1,_ZN38CoreTypesTest_DateTimeDifferences_TestD0Ev
FNA:18,1,_ZN38CoreTypesTest_DateTimeDifferences_TestD1Ev
FNA:18,1,_ZN38CoreTypesTest_DateTimeDifferences_TestD2Ev
FNL:19,68,74
FNA:19,1,_ZN39CoreTypesTest_DateTimeBusinessDays_Test8TestBodyEv
FNA:19,1,_ZN39CoreTypesTest_DateTimeBusinessDays_TestC1Ev
FNA:19,1,_ZN39CoreTypesTest_DateTimeBusinessDays_TestC2Ev
FNA:19,1,_ZN39CoreTypesTest_DateTimeBusinessDays_TestD0Ev
FNA:19,1,_ZN39CoreTypesTest_DateTimeBusinessDays_TestD1Ev
FNA:19,1,_ZN39CoreTypesTest_DateTimeBusinessDays_TestD2Ev
FNL:20,77,86
FNA:20,1,_ZN43CoreTypesTest_BusinessCalendarHolidays_Test8TestBodyEv
FNA:20,1,_ZN43CoreTypesTest_BusinessCalendarHolidays_TestC1Ev
FNA:20,1,_ZN43CoreTypesTest_BusinessCalendarHolidays_TestC2Ev
FNA:20,1,_ZN43CoreTypesTest_BusinessCalendarHolidays_TestD0Ev
FNA:20,1,_ZN43CoreTypesTest_BusinessCalendarHolidays_TestD1Ev
FNA:20,1,_ZN43CoreTypesTest_BusinessCalendarHolidays_TestD2Ev
FNL:21,88,98
FNA:21,1,_ZN43CoreTypesTest_BusinessCalendarWeekends_Test8TestBodyEv
FNA:21,1,_ZN43CoreTypesTest_BusinessCalendarWeekends_TestC1Ev
FNA:21,1,_ZN43CoreTypesTest_BusinessCalendarWeekends_TestC2Ev
FNA:21,1,_ZN43CoreTypesTest_BusinessCalendarWeekends_TestD0Ev
FNA:21,1,_ZN43CoreTypesTest_BusinessCalendarWeekends_TestD1Ev
FNA:21,1,_ZN43CoreTypesTest_BusinessCalendarWeekends_TestD2Ev
FNL:22,9,11
FNA:22,18,_ZN13CoreTypesTestC2Ev
FNA:22,0,_ZN13CoreTypesTestD0Ev
FNA:22,0,_ZN13CoreTypesTestD1Ev
FNA:22,18,_ZN13CoreTypesTestD2Ev
FNF:23
FNH:23
DA:11,18
DA:13,18
DA:15,18
DA:17,18
DA:21,7
DA:23,1
DA:24,1
DA:25,1
DA:26,1
DA:27,1
DA:29,7
DA:31,1
DA:32,1
DA:33,1
DA:34,1
DA:35,1
DA:36,1
DA:38,7
DA:39,1
DA:42,1
DA:43,1
DA:44,1
DA:45,1
DA:46,1
DA:49,7
DA:50,1
DA:51,1
DA:53,1
DA:54,1
DA:56,1
DA:57,1
DA:58,1
DA:60,7
DA:61,1
DA:62,1
DA:64,1
DA:65,1
DA:66,1
DA:68,7
DA:69,1
DA:70,1
DA:72,1
DA:73,1
DA:74,1
DA:77,7
DA:78,1
DA:81,1
DA:82,1
DA:84,1
DA:85,1
DA:86,1
DA:88,7
DA:89,1
DA:91,1
DA:92,1
DA:93,1
DA:95,1
DA:96,1
DA:97,1
DA:98,1
DA:101,7
DA:102,1
DA:103,1
DA:104,1
DA:106,1
DA:107,1
DA:108,1
DA:109,1
DA:111,7
DA:112,1
DA:113,1
DA:115,1
DA:116,1
DA:117,1
DA:118,1
DA:120,7
DA:121,1
DA:122,1
DA:124,1
DA:125,1
DA:126,1
DA:127,1
DA:130,7
DA:131,1
DA:132,1
DA:133,1
DA:134,1
DA:135,1
DA:136,1
DA:137,1
DA:140,7
DA:142,1
DA:143,1
DA:144,1
DA:145,1
DA:146,1
DA:148,7
DA:149,1
DA:150,1
DA:152,1
DA:153,1
DA:154,1
DA:157,7
DA:159,1
DA:160,1
DA:163,1
DA:164,1
DA:166,1
DA:167,1
DA:168,1
DA:170,7
DA:171,1
DA:172,1
DA:173,1
DA:175,1
DA:176,1
DA:177,1
DA:178,1
DA:179,1
DA:180,1
DA:183,7
DA:185,1
DA:186,1
DA:188,11
DA:189,20
DA:190,10
DA:191,10
DA:192,10
DA:193,10
DA:194,10
DA:195,10
DA:197,11
DA:198,10
DA:201,1
DA:202,1
DA:205,7
DA:206,1
DA:208,1
DA:210,100001
DA:211,100000
DA:212,100000
DA:213,100000
DA:214,100000
DA:215,100000
DA:216,100000
DA:218,1
DA:219,1
DA:222,1
DA:223,1
LF:149
LH:149
end_of_record
TN:
SF:/Users/yunjinqi/Documents/source_code/pyfolio_cpp/tests/test_performance_metrics.cpp
FNL:0,0,9
FNA:0,1,__cxx_global_var_init
FNA:0,1,__cxx_global_var_init.143
FNA:0,1,__cxx_global_var_init.148
FNA:0,1,__cxx_global_var_init.153
FNA:0,1,__cxx_global_var_init.157
FNA:0,1,__cxx_global_var_init.160
FNA:0,1,__cxx_global_var_init.170
FNA:0,1,__cxx_global_var_init.180
FNA:0,1,__cxx_global_var_init.183
FNA:0,1,__cxx_global_var_init.186
FNA:0,1,__cxx_global_var_init.191
FNA:0,1,__cxx_global_var_init.194
FNA:0,1,__cxx_global_var_init.197
FNA:0,1,__cxx_global_var_init.200
FNA:0,1,__cxx_global_var_init.208
FNA:0,1,__cxx_global_var_init.217
FNA:0,1,__cxx_global_var_init.221
FNA:0,1,__cxx_global_var_init.226
FNA:0,1,__cxx_global_var_init.231
FNL:1,110,116
FNA:1,1,_ZN50PerformanceMetricsTest_CalmarRatioCalculation_Test8TestBodyEv
FNA:1,1,_ZN50PerformanceMetricsTest_CalmarRatioCalculation_TestC1Ev
FNA:1,1,_ZN50PerformanceMetricsTest_CalmarRatioCalculation_TestC2Ev
FNA:1,1,_ZN50PerformanceMetricsTest_CalmarRatioCalculation_TestD0Ev
FNA:1,1,_ZN50PerformanceMetricsTest_CalmarRatioCalculation_TestD1Ev
FNA:1,1,_ZN50PerformanceMetricsTest_CalmarRatioCalculation_TestD2Ev
FNL:2,118,128
FNA:2,1,_ZN47PerformanceMetricsTest_MaxDrawdownAnalysis_Test8TestBodyEv
FNA:2,1,_ZN47PerformanceMetricsTest_MaxDrawdownAnalysis_TestC1Ev
FNA:2,1,_ZN47PerformanceMetricsTest_MaxDrawdownAnalysis_TestC2Ev
FNA:2,1,_ZN47PerformanceMetricsTest_MaxDrawdownAnalysis_TestD0Ev
FNA:2,1,_ZN47PerformanceMetricsTest_MaxDrawdownAnalysis_TestD1Ev
FNA:2,1,_ZN47PerformanceMetricsTest_MaxDrawdownAnalysis_TestD2Ev
FNL:3,130,143
FNA:3,1,_ZN45PerformanceMetricsTest_AlphaBetaAnalysis_Test8TestBodyEv
FNA:3,1,_ZN45PerformanceMetricsTest_AlphaBetaAnalysis_TestC1Ev
FNA:3,1,_ZN45PerformanceMetricsTest_AlphaBetaAnalysis_TestC2Ev
FNA:3,1,_ZN45PerformanceMetricsTest_AlphaBetaAnalysis_TestD0Ev
FNA:3,1,_ZN45PerformanceMetricsTest_AlphaBetaAnalysis_TestD1Ev
FNA:3,1,_ZN45PerformanceMetricsTest_AlphaBetaAnalysis_TestD2Ev
FNL:4,145,151
FNA:4,1,_ZN55PerformanceMetricsTest_InformationRatioCalculation_Test8TestBodyEv
FNA:4,1,_ZN55PerformanceMetricsTest_InformationRatioCalculation_TestC1Ev
FNA:4,1,_ZN55PerformanceMetricsTest_InformationRatioCalculation_TestC2Ev
FNA:4,1,_ZN55PerformanceMetricsTest_InformationRatioCalculation_TestD0Ev
FNA:4,1,_ZN55PerformanceMetricsTest_InformationRatioCalculation_TestD1Ev
FNA:4,1,_ZN55PerformanceMetricsTest_InformationRatioCalculation_TestD2Ev
FNL:5,153,160
FNA:5,1,_ZN52PerformanceMetricsTest_TrackingErrorCalculation_Test8TestBodyEv
FNA:5,1,_ZN52PerformanceMetricsTest_TrackingErrorCalculation_TestC1Ev
FNA:5,1,_ZN52PerformanceMetricsTest_TrackingErrorCalculation_TestC2Ev
FNA:5,1,_ZN52PerformanceMetricsTest_TrackingErrorCalculation_TestD0Ev
FNA:5,1,_ZN52PerformanceMetricsTest_TrackingErrorCalculation_TestD1Ev
FNA:5,1,_ZN52PerformanceMetricsTest_TrackingErrorCalculation_TestD2Ev
FNL:6,162,173
FNA:6,1,_ZN46PerformanceMetricsTest_UpDownCaptureRatio_Test8TestBodyEv
FNA:6,1,_ZN46PerformanceMetricsTest_UpDownCaptureRatio_TestC1Ev
FNA:6,1,_ZN46PerformanceMetricsTest_UpDownCaptureRatio_TestC2Ev
FNA:6,1,_ZN46PerformanceMetricsTest_UpDownCaptureRatio_TestD0Ev
FNA:6,1,_ZN46PerformanceMetricsTest_UpDownCaptureRatio_TestD1Ev
FNA:6,1,_ZN46PerformanceMetricsTest_UpDownCaptureRatio_TestD2Ev
FNL:7,175,181
FNA:7,1,_ZN37PerformanceMetricsTest_TailRatio_Test8TestBodyEv
FNA:7,1,_ZN37PerformanceMetricsTest_TailRatio_TestC1Ev
FNA:7,1,_ZN37PerformanceMetricsTest_TailRatio_TestC2Ev
FNA:7,1,_ZN37PerformanceMetricsTest_TailRatio_TestD0Ev
FNA:7,1,_ZN37PerformanceMetricsTest_TailRatio_TestD1Ev
FNA:7,1,_ZN37PerformanceMetricsTest_TailRatio_TestD2Ev
FNL:8,183,189
FNA:8,1,_ZN44PerformanceMetricsTest_CommonSenseRatio_Test8TestBodyEv
FNA:8,1,_ZN44PerformanceMetricsTest_CommonSenseRatio_TestC1Ev
FNA:8,1,_ZN44PerformanceMetricsTest_CommonSenseRatio_TestC2Ev
FNA:8,1,_ZN44PerformanceMetricsTest_CommonSenseRatio_TestD0Ev
FNA:8,1,_ZN44PerformanceMetricsTest_CommonSenseRatio_TestD1Ev
FNA:8,1,_ZN44PerformanceMetricsTest_CommonSenseRatio_TestD2Ev
FNL:9,191,198
FNA:9,1,_ZN49PerformanceMetricsTest_StabilityOfTimeseries_Test8TestBodyEv
FNA:9,1,_ZN49PerformanceMetricsTest_StabilityOfTimeseries_TestC1Ev
FNA:9,1,_ZN49PerformanceMetricsTest_StabilityOfTimeseries_TestC2Ev
FNA:9,1,_ZN49PerformanceMetricsTest_StabilityOfTimeseries_TestD0Ev
FNA:9,1,_ZN49PerformanceMetricsTest_StabilityOfTimeseries_TestD1Ev
FNA:9,1,_ZN49PerformanceMetricsTest_StabilityOfTimeseries_TestD2Ev
FNL:10,200,216
FNA:10,1,_ZN53PerformanceMetricsTest_ComprehensiveMetricsSuite_Test8TestBodyEv
FNA:10,1,_ZN53PerformanceMetricsTest_ComprehensiveMetricsSuite_TestC1Ev
FNA:10,1,_ZN53PerformanceMetricsTest_ComprehensiveMetricsSuite_TestC2Ev
FNA:10,1,_ZN53PerformanceMetricsTest_ComprehensiveMetricsSuite_TestD0Ev
FNA:10,1,_ZN53PerformanceMetricsTest_ComprehensiveMetricsSuite_TestD1Ev
FNA:10,1,_ZN53PerformanceMetricsTest_ComprehensiveMetricsSuite_TestD2Ev
FNL:11,218,230
FNA:11,1,_ZN52PerformanceMetricsTest_CumulativeReturnsProfile_Test8TestBodyEv
FNA:11,1,_ZN52PerformanceMetricsTest_CumulativeReturnsProfile_TestC1Ev
FNA:11,1,_ZN52PerformanceMetricsTest_CumulativeReturnsProfile_TestC2Ev
FNA:11,1,_ZN52PerformanceMetricsTest_CumulativeReturnsProfile_TestD0Ev
FNA:11,1,_ZN52PerformanceMetricsTest_CumulativeReturnsProfile_TestD1Ev
FNA:11,1,_ZN52PerformanceMetricsTest_CumulativeReturnsProfile_TestD2Ev
FNL:12,232,243
FNA:12,1,_ZN42PerformanceMetricsTest_DrawdownSeries_Test8TestBodyEv
FNA:12,1,_ZN42PerformanceMetricsTest_DrawdownSeries_TestC1Ev
FNA:12,1,_ZN42PerformanceMetricsTest_DrawdownSeries_TestC2Ev
FNA:12,1,_ZN42PerformanceMetricsTest_DrawdownSeries_TestD0Ev
FNA:12,1,_ZN42PerformanceMetricsTest_DrawdownSeries_TestD1Ev
FNA:12,1,_ZN42PerformanceMetricsTest_DrawdownSeries_TestD2Ev
FNL:13,245,256
FNA:13,1,_ZN42PerformanceMetricsTest_RollingMetrics_Test8TestBodyEv
FNA:13,1,_ZN42PerformanceMetricsTest_RollingMetrics_TestC1Ev
FNA:13,1,_ZN42PerformanceMetricsTest_RollingMetrics_TestC2Ev
FNA:13,1,_ZN42PerformanceMetricsTest_RollingMetrics_TestD0Ev
FNA:13,1,_ZN42PerformanceMetricsTest_RollingMetrics_TestD1Ev
FNA:13,1,_ZN42PerformanceMetricsTest_RollingMetrics_TestD2Ev
FNL:14,258,275
FNA:14,1,_ZN41PerformanceMetricsTest_ErrorHandling_Test8TestBodyEv
FNA:14,1,_ZN41PerformanceMetricsTest_ErrorHandling_TestC1Ev
FNA:14,1,_ZN41PerformanceMetricsTest_ErrorHandling_TestC2Ev
FNA:14,1,_ZN41PerformanceMetricsTest_ErrorHandling_TestD0Ev
FNA:14,1,_ZN41PerformanceMetricsTest_ErrorHandling_TestD1Ev
FNA:14,1,_ZN41PerformanceMetricsTest_ErrorHandling_TestD2Ev
FNL:15,65,73
FNA:15,1,_ZN40PerformanceMetricsTest_AnnualReturn_Test8TestBodyEv
FNA:15,1,_ZN40PerformanceMetricsTest_AnnualReturn_TestC1Ev
FNA:15,1,_ZN40PerformanceMetricsTest_AnnualReturn_TestC2Ev
FNA:15,1,_ZN40PerformanceMetricsTest_AnnualReturn_TestD0Ev
FNA:15,1,_ZN40PerformanceMetricsTest_AnnualReturn_TestD1Ev
FNA:15,1,_ZN40PerformanceMetricsTest_AnnualReturn_TestD2Ev
FNL:16,7,9
FNA:16,18,_ZN22PerformanceMetricsTestC2Ev
FNA:16,0,_ZN22PerformanceMetricsTestD0Ev
FNA:16,0,_ZN22PerformanceMetricsTestD1Ev
FNA:16,18,_ZN22PerformanceMetricsTestD2Ev
FNL:17,75,82
FNA:17,1,_ZN44PerformanceMetricsTest_AnnualVolatility_Test8TestBodyEv
FNA:17,1,_ZN44PerformanceMetricsTest_AnnualVolatility_TestC1Ev
FNA:17,1,_ZN44PerformanceMetricsTest_AnnualVolatility_TestC2Ev
FNA:17,1,_ZN44PerformanceMetricsTest_AnnualVolatility_TestD0Ev
FNA:17,1,_ZN44PerformanceMetricsTest_AnnualVolatility_TestD1Ev
FNA:17,1,_ZN44PerformanceMetricsTest_AnnualVolatility_TestD2Ev
FNL:18,84,93
FNA:18,1,_ZN50PerformanceMetricsTest_SharpeRatioCalculation_Test8TestBodyEv
FNA:18,1,_ZN50PerformanceMetricsTest_SharpeRatioCalculation_TestC1Ev
FNA:18,1,_ZN50PerformanceMetricsTest_SharpeRatioCalculation_TestC2Ev
FNA:18,1,_ZN50PerformanceMetricsTest_SharpeRatioCalculation_TestD0Ev
FNA:18,1,_ZN50PerformanceMetricsTest_SharpeRatioCalculation_TestD1Ev
FNA:18,1,_ZN50PerformanceMetricsTest_SharpeRatioCalculation_TestD2Ev
FNL:19,9,52
FNA:19,18,_ZN22PerformanceMetricsTest5SetUpEv
FNL:20,95,108
FNA:20,1,_ZN51PerformanceMetricsTest_SortinoRatioCalculation_Test8TestBodyEv
FNA:20,1,_ZN51PerformanceMetricsTest_SortinoRatioCalculation_TestC1Ev
FNA:20,1,_ZN51PerformanceMetricsTest_SortinoRatioCalculation_TestC2Ev
FNA:20,1,_ZN51PerformanceMetricsTest_SortinoRatioCalculation_TestD0Ev
FNA:20,1,_ZN51PerformanceMetricsTest_SortinoRatioCalculation_TestD1Ev
FNA:20,1,_ZN51PerformanceMetricsTest_SortinoRatioCalculation_TestD2Ev
FNF:21
FNH:21
DA:9,18
DA:11,198
DA:12,18
DA:13,18
DA:14,18
DA:15,18
DA:16,18
DA:17,18
DA:18,18
DA:19,18
DA:20,18
DA:21,18
DA:25,18
DA:28,18
DA:31,18
DA:33,18
DA:35,18
DA:38,18
DA:40,198
DA:41,18
DA:42,18
DA:43,18
DA:44,18
DA:45,18
DA:46,18
DA:47,18
DA:48,18
DA:49,18
DA:50,18
DA:52,18
DA:65,7
DA:66,1
DA:67,1
DA:69,1
DA:71,1
DA:72,1
DA:73,1
DA:75,7
DA:76,1
DA:77,1
DA:79,1
DA:80,1
DA:81,1
DA:82,1
DA:84,7
DA:85,1
DA:86,1
DA:88,1
DA:90,1
DA:91,1
DA:92,1
DA:93,1
DA:95,7
DA:96,1
DA:97,1
DA:99,1
DA:100,1
DA:103,1
DA:104,1
DA:107,1
DA:108,1
DA:110,7
DA:111,1
DA:112,1
DA:114,1
DA:115,1
DA:116,1
DA:118,7
DA:119,1
DA:120,1
DA:122,1
DA:123,1
DA:124,1
DA:125,1
DA:126,1
DA:127,1
DA:128,1
DA:130,7
DA:131,1
DA:132,1
DA:134,1
DA:135,1
DA:136,1
DA:137,1
DA:138,1
DA:141,1
DA:142,1
DA:143,1
DA:145,7
DA:146,1
DA:147,1
DA:149,1
DA:150,1
DA:151,1
DA:153,7
DA:154,1
DA:155,1
DA:157,1
DA:158,1
DA:159,1
DA:160,1
DA:162,7
DA:163,1
DA:164,1
DA:166,1
DA:167,1
DA:168,1
DA:171,1
DA:172,1
DA:173,1
DA:175,7
DA:176,1
DA:177,1
DA:179,1
DA:180,1
DA:181,1
DA:183,7
DA:184,1
DA:185,1
DA:187,1
DA:188,1
DA:189,1
DA:191,7
DA:192,1
DA:193,1
DA:195,1
DA:196,1
DA:197,1
DA:198,1
DA:200,7
DA:201,1
DA:202,1
DA:203,1
DA:205,1
DA:208,1
DA:209,1
DA:210,1
DA:211,1
DA:212,1
DA:213,1
DA:214,1
DA:215,1
DA:216,1
DA:218,7
DA:219,1
DA:220,1
DA:222,1
DA:223,1
DA:226,1
DA:229,1
DA:230,1
DA:232,7
DA:233,1
DA:234,1
DA:236,1
DA:237,1
DA:240,11
DA:241,10
DA:243,1
DA:245,7
DA:246,1
DA:247,1
DA:249,1
DA:250,1
DA:253,7
DA:254,6
DA:256,1
DA:258,7
DA:259,1
DA:262,1
DA:263,1
DA:265,1
DA:266,1
DA:269,1
DA:270,1
DA:271,1
DA:273,1
DA:274,1
DA:275,1
LF:179
LH:179
end_of_record
TN:
SF:/Users/yunjinqi/Documents/source_code/pyfolio_cpp/tests/test_statistics.cpp
FNL:0,0,10
FNA:0,1,__cxx_global_var_init
FNA:0,1,__cxx_global_var_init.13
FNA:0,1,__cxx_global_var_init.20
FNA:0,1,__cxx_global_var_init.24
FNA:0,1,__cxx_global_var_init.27
FNA:0,1,__cxx_global_var_init.33
FNA:0,1,__cxx_global_var_init.38
FNA:0,1,__cxx_global_var_init.42
FNA:0,1,__cxx_global_var_init.49
FNA:0,1,__cxx_global_var_init.52
FNA:0,1,__cxx_global_var_init.56
FNA:0,1,__cxx_global_var_init.61
FNA:0,1,__cxx_global_var_init.66
FNA:0,1,__cxx_global_var_init.69
FNA:0,1,__cxx_global_var_init.73
FNA:0,1,__cxx_global_var_init.77
FNA:0,1,__cxx_global_var_init.81
FNA:0,1,__cxx_global_var_init.86
FNL:1,10,31
FNA:1,17,_ZN14StatisticsTest5SetUpEv
FNL:2,105,117
FNA:2,1,_ZN41StatisticsTest_VolatilityCalculation_Test8TestBodyEv
FNA:2,1,_ZN41StatisticsTest_VolatilityCalculation_TestC1Ev
FNA:2,1,_ZN41StatisticsTest_VolatilityCalculation_TestC2Ev
FNA:2,1,_ZN41StatisticsTest_VolatilityCalculation_TestD0Ev
FNA:2,1,_ZN41StatisticsTest_VolatilityCalculation_TestD1Ev
FNA:2,1,_ZN41StatisticsTest_VolatilityCalculation_TestD2Ev
FNL:3,119,130
FNA:3,1,_ZN37StatisticsTest_DownsideDeviation_Test8TestBodyEv
FNA:3,1,_ZN37StatisticsTest_DownsideDeviation_TestC1Ev
FNA:3,1,_ZN37StatisticsTest_DownsideDeviation_TestC2Ev
FNA:3,1,_ZN37StatisticsTest_DownsideDeviation_TestD0Ev
FNA:3,1,_ZN37StatisticsTest_DownsideDeviation_TestD1Ev
FNA:3,1,_ZN37StatisticsTest_DownsideDeviation_TestD2Ev
FNL:4,132,143
FNA:4,1,_ZN29StatisticsTest_AlphaBeta_Test8TestBodyEv
FNA:4,1,_ZN29StatisticsTest_AlphaBeta_TestC1Ev
FNA:4,1,_ZN29StatisticsTest_AlphaBeta_TestC2Ev
FNA:4,1,_ZN29StatisticsTest_AlphaBeta_TestD0Ev
FNA:4,1,_ZN29StatisticsTest_AlphaBeta_TestD1Ev
FNA:4,1,_ZN29StatisticsTest_AlphaBeta_TestD2Ev
FNL:5,145,152
FNA:5,1,_ZN36StatisticsTest_InformationRatio_Test8TestBodyEv
FNA:5,1,_ZN36StatisticsTest_InformationRatio_TestC1Ev
FNA:5,1,_ZN36StatisticsTest_InformationRatio_TestC2Ev
FNA:5,1,_ZN36StatisticsTest_InformationRatio_TestD0Ev
FNA:5,1,_ZN36StatisticsTest_InformationRatio_TestD1Ev
FNA:5,1,_ZN36StatisticsTest_InformationRatio_TestD2Ev
FNL:6,154,163
FNA:6,1,_ZN33StatisticsTest_TrackingError_Test8TestBodyEv
FNA:6,1,_ZN33StatisticsTest_TrackingError_TestC1Ev
FNA:6,1,_ZN33StatisticsTest_TrackingError_TestC2Ev
FNA:6,1,_ZN33StatisticsTest_TrackingError_TestD0Ev
FNA:6,1,_ZN33StatisticsTest_TrackingError_TestD1Ev
FNA:6,1,_ZN33StatisticsTest_TrackingError_TestD2Ev
FNL:7,165,173
FNA:7,1,_ZN28StatisticsTest_Skewness_Test8TestBodyEv
FNA:7,1,_ZN28StatisticsTest_Skewness_TestC1Ev
FNA:7,1,_ZN28StatisticsTest_Skewness_TestC2Ev
FNA:7,1,_ZN28StatisticsTest_Skewness_TestD0Ev
FNA:7,1,_ZN28StatisticsTest_Skewness_TestD1Ev
FNA:7,1,_ZN28StatisticsTest_Skewness_TestD2Ev
FNL:8,175,183
FNA:8,1,_ZN28StatisticsTest_Kurtosis_Test8TestBodyEv
FNA:8,1,_ZN28StatisticsTest_Kurtosis_TestC1Ev
FNA:8,1,_ZN28StatisticsTest_Kurtosis_TestC2Ev
FNA:8,1,_ZN28StatisticsTest_Kurtosis_TestD0Ev
FNA:8,1,_ZN28StatisticsTest_Kurtosis_TestD1Ev
FNA:8,1,_ZN28StatisticsTest_Kurtosis_TestD2Ev
FNL:9,185,192
FNA:9,1,_ZN33StatisticsTest_VaRHistorical_Test8TestBodyEv
FNA:9,1,_ZN33StatisticsTest_VaRHistorical_TestC1Ev
FNA:9,1,_ZN33StatisticsTest_VaRHistorical_TestC2Ev
FNA:9,1,_ZN33StatisticsTest_VaRHistorical_TestD0Ev
FNA:9,1,_ZN33StatisticsTest_VaRHistorical_TestD1Ev
FNA:9,1,_ZN33StatisticsTest_VaRHistorical_TestD2Ev
FNL:10,194,205
FNA:10,1,_ZN34StatisticsTest_ConditionalVaR_Test8TestBodyEv
FNA:10,1,_ZN34StatisticsTest_ConditionalVaR_TestC1Ev
FNA:10,1,_ZN34StatisticsTest_ConditionalVaR_TestC2Ev
FNA:10,1,_ZN34StatisticsTest_ConditionalVaR_TestD0Ev
FNA:10,1,_ZN34StatisticsTest_ConditionalVaR_TestD1Ev
FNA:10,1,_ZN34StatisticsTest_ConditionalVaR_TestD2Ev
FNL:11,207,215
FNA:11,1,_ZN43StatisticsTest_EmptyTimeSeriesHandling_Test8TestBodyEv
FNA:11,1,_ZN43StatisticsTest_EmptyTimeSeriesHandling_TestC1Ev
FNA:11,1,_ZN43StatisticsTest_EmptyTimeSeriesHandling_TestC2Ev
FNA:11,1,_ZN43StatisticsTest_EmptyTimeSeriesHandling_TestD0Ev
FNA:11,1,_ZN43StatisticsTest_EmptyTimeSeriesHandling_TestD1Ev
FNA:11,1,_ZN43StatisticsTest_EmptyTimeSeriesHandling_TestD2Ev
FNL:12,217,232
FNA:12,1,_ZN41StatisticsTest_SingleValueTimeSeries_Test8TestBodyEv
FNA:12,1,_ZN41StatisticsTest_SingleValueTimeSeries_TestC1Ev
FNA:12,1,_ZN41StatisticsTest_SingleValueTimeSeries_TestC2Ev
FNA:12,1,_ZN41StatisticsTest_SingleValueTimeSeries_TestD0Ev
FNA:12,1,_ZN41StatisticsTest_SingleValueTimeSeries_TestD1Ev
FNA:12,1,_ZN41StatisticsTest_SingleValueTimeSeries_TestD2Ev
FNL:13,234,241
FNA:13,1,_ZN42StatisticsTest_PerformanceConsistency_Test8TestBodyEv
FNA:13,1,_ZN42StatisticsTest_PerformanceConsistency_TestC1Ev
FNA:13,1,_ZN42StatisticsTest_PerformanceConsistency_TestC2Ev
FNA:13,1,_ZN42StatisticsTest_PerformanceConsistency_TestD0Ev
FNA:13,1,_ZN42StatisticsTest_PerformanceConsistency_TestD1Ev
FNA:13,1,_ZN42StatisticsTest_PerformanceConsistency_TestD2Ev
FNL:14,40,51
FNA:14,1,_ZN35StatisticsTest_BasicStatistics_Test8TestBodyEv
FNA:14,1,_ZN35StatisticsTest_BasicStatistics_TestC1Ev
FNA:14,1,_ZN35StatisticsTest_BasicStatistics_TestC2Ev
FNA:14,1,_ZN35StatisticsTest_BasicStatistics_TestD0Ev
FNA:14,1,_ZN35StatisticsTest_BasicStatistics_TestD1Ev
FNA:14,1,_ZN35StatisticsTest_BasicStatistics_TestD2Ev
FNL:15,53,70
FNA:15,1,_ZN31StatisticsTest_SharpeRatio_Test8TestBodyEv
FNA:15,1,_ZN31StatisticsTest_SharpeRatio_TestC1Ev
FNA:15,1,_ZN31StatisticsTest_SharpeRatio_TestC2Ev
FNA:15,1,_ZN31StatisticsTest_SharpeRatio_TestD0Ev
FNA:15,1,_ZN31StatisticsTest_SharpeRatio_TestD1Ev
FNA:15,1,_ZN31StatisticsTest_SharpeRatio_TestD2Ev
FNL:16,72,85
FNA:16,1,_ZN32StatisticsTest_SortinoRatio_Test8TestBodyEv
FNA:16,1,_ZN32StatisticsTest_SortinoRatio_TestC1Ev
FNA:16,1,_ZN32StatisticsTest_SortinoRatio_TestC2Ev
FNA:16,1,_ZN32StatisticsTest_SortinoRatio_TestD0Ev
FNA:16,1,_ZN32StatisticsTest_SortinoRatio_TestD1Ev
FNA:16,1,_ZN32StatisticsTest_SortinoRatio_TestD2Ev
FNL:17,8,10
FNA:17,17,_ZN14StatisticsTestC2Ev
FNA:17,0,_ZN14StatisticsTestD0Ev
FNA:17,0,_ZN14StatisticsTestD1Ev
FNA:17,17,_ZN14StatisticsTestD2Ev
FNL:18,87,93
FNA:18,1,_ZN31StatisticsTest_CalmarRatio_Test8TestBodyEv
FNA:18,1,_ZN31StatisticsTest_CalmarRatio_TestC1Ev
FNA:18,1,_ZN31StatisticsTest_CalmarRatio_TestC2Ev
FNA:18,1,_ZN31StatisticsTest_CalmarRatio_TestD0Ev
FNA:18,1,_ZN31StatisticsTest_CalmarRatio_TestD1Ev
FNA:18,1,_ZN31StatisticsTest_CalmarRatio_TestD2Ev
FNL:19,95,103
FNA:19,1,_ZN31StatisticsTest_MaxDrawdown_Test8TestBodyEv
FNA:19,1,_ZN31StatisticsTest_MaxDrawdown_TestC1Ev
FNA:19,1,_ZN31StatisticsTest_MaxDrawdown_TestC2Ev
FNA:19,1,_ZN31StatisticsTest_MaxDrawdown_TestD0Ev
FNA:19,1,_ZN31StatisticsTest_MaxDrawdown_TestD1Ev
FNA:19,1,_ZN31StatisticsTest_MaxDrawdown_TestD2Ev
FNF:20
FNH:20
DA:10,17
DA:12,153
DA:13,17
DA:14,17
DA:15,17
DA:16,17
DA:17,17
DA:18,17
DA:19,17
DA:20,17
DA:24,17
DA:26,17
DA:29,17
DA:30,17
DA:31,17
DA:40,7
DA:41,1
DA:42,1
DA:44,1
DA:45,1
DA:46,1
DA:49,1
DA:50,1
DA:51,1
DA:53,7
DA:54,1
DA:55,1
DA:57,1
DA:58,1
DA:61,1
DA:62,1
DA:63,1
DA:65,1
DA:66,1
DA:67,1
DA:69,1
DA:70,1
DA:72,7
DA:73,1
DA:74,1
DA:76,1
DA:77,1
DA:80,1
DA:81,1
DA:84,1
DA:85,1
DA:87,7
DA:88,1
DA:89,1
DA:91,1
DA:92,1
DA:93,1
DA:95,7
DA:96,1
DA:97,1
DA:99,1
DA:100,1
DA:101,1
DA:102,1
DA:103,1
DA:105,7
DA:106,1
DA:107,1
DA:109,1
DA:110,1
DA:113,1
DA:114,1
DA:116,1
DA:117,1
DA:119,7
DA:120,1
DA:121,1
DA:123,1
DA:124,1
DA:127,1
DA:128,1
DA:129,1
DA:130,1
DA:132,7
DA:133,1
DA:134,1
DA:136,1
DA:137,1
DA:141,1
DA:142,1
DA:143,1
DA:145,7
DA:146,1
DA:147,1
DA:149,1
DA:151,1
DA:152,1
DA:154,7
DA:155,1
DA:156,1
DA:158,1
DA:159,1
DA:162,1
DA:163,1
DA:165,7
DA:166,1
DA:167,1
DA:169,1
DA:171,1
DA:172,1
DA:173,1
DA:175,7
DA:176,1
DA:177,1
DA:179,1
DA:181,1
DA:182,1
DA:183,1
DA:185,7
DA:186,1
DA:187,1
DA:189,1
DA:190,1
DA:191,1
DA:192,1
DA:194,7
DA:195,1
DA:196,1
DA:198,1
DA:199,1
DA:202,1
DA:203,1
DA:204,1
DA:205,1
DA:207,7
DA:208,1
DA:210,1
DA:211,1
DA:213,1
DA:214,1
DA:215,1
DA:217,7
DA:218,1
DA:219,1
DA:220,1
DA:222,1
DA:223,1
DA:225,0
DA:226,0
DA:227,0
DA:230,0
DA:231,0
DA:232,1
DA:234,7
DA:236,1
DA:237,1
DA:239,1
DA:240,1
DA:241,1
LF:154
LH:149
end_of_record
TN:
SF:/Users/yunjinqi/Documents/source_code/pyfolio_cpp/tests/test_time_series.cpp
FNL:0,0,9
FNA:0,1,__cxx_global_var_init
FNA:0,1,__cxx_global_var_init.13
FNA:0,1,__cxx_global_var_init.18
FNA:0,1,__cxx_global_var_init.27
FNA:0,1,__cxx_global_var_init.31
FNA:0,1,__cxx_global_var_init.37
FNA:0,1,__cxx_global_var_init.45
FNA:0,1,__cxx_global_var_init.53
FNA:0,1,__cxx_global_var_init.58
FNA:0,1,__cxx_global_var_init.64
FNA:0,1,__cxx_global_var_init.67
FNA:0,1,__cxx_global_var_init.73
FNA:0,1,__cxx_global_var_init.77
FNL:1,103,121
FNA:1,1,_ZN37TimeSeriesTest_CumulativeReturns_Test8TestBodyEv
FNA:1,1,_ZN37TimeSeriesTest_CumulativeReturns_TestC1Ev
FNA:1,1,_ZN37TimeSeriesTest_CumulativeReturns_TestC2Ev
FNA:1,1,_ZN37TimeSeriesTest_CumulativeReturns_TestD0Ev
FNA:1,1,_ZN37TimeSeriesTest_CumulativeReturns_TestD1Ev
FNA:1,1,_ZN37TimeSeriesTest_CumulativeReturns_TestD2Ev
FNL:2,123,131
FNA:2,1,_ZN35TimeSeriesTest_EmptyTimeSeries_Test8TestBodyEv
FNA:2,1,_ZN35TimeSeriesTest_EmptyTimeSeries_TestC1Ev
FNA:2,1,_ZN35TimeSeriesTest_EmptyTimeSeries_TestC2Ev
FNA:2,1,_ZN35TimeSeriesTest_EmptyTimeSeries_TestD0Ev
FNA:2,1,_ZN35TimeSeriesTest_EmptyTimeSeries_TestD1Ev
FNA:2,1,_ZN35TimeSeriesTest_EmptyTimeSeries_TestD2Ev
FNL:3,133,140
FNA:3,1,_ZN35TimeSeriesTest_MismatchedSizes_Test8TestBodyEv
FNA:3,1,_ZN35TimeSeriesTest_MismatchedSizes_TestC1Ev
FNA:3,1,_ZN35TimeSeriesTest_MismatchedSizes_TestC2Ev
FNA:3,1,_ZN35TimeSeriesTest_MismatchedSizes_TestD0Ev
FNA:3,1,_ZN35TimeSeriesTest_MismatchedSizes_TestD1Ev
FNA:3,1,_ZN35TimeSeriesTest_MismatchedSizes_TestD2Ev
FNL:4,142,155
FNA:4,1,_ZN29TimeSeriesTest_Alignment_Test8TestBodyEv
FNA:4,1,_ZN29TimeSeriesTest_Alignment_TestC1Ev
FNA:4,1,_ZN29TimeSeriesTest_Alignment_TestC2Ev
FNA:4,1,_ZN29TimeSeriesTest_Alignment_TestD0Ev
FNA:4,1,_ZN29TimeSeriesTest_Alignment_TestD1Ev
FNA:4,1,_ZN29TimeSeriesTest_Alignment_TestD2Ev
FNL:5,157,174
FNA:5,1,_ZN37TimeSeriesTest_FillMissingValues_Test8TestBodyEv
FNA:5,1,_ZN37TimeSeriesTest_FillMissingValues_TestC1Ev
FNA:5,1,_ZN37TimeSeriesTest_FillMissingValues_TestC2Ev
FNA:5,1,_ZN37TimeSeriesTest_FillMissingValues_TestD0Ev
FNA:5,1,_ZN37TimeSeriesTest_FillMissingValues_TestD1Ev
FNA:5,1,_ZN37TimeSeriesTest_FillMissingValues_TestD2Ev
FNL:6,26,33
FNA:6,1,_ZN37TimeSeriesTest_BasicConstruction_Test8TestBodyEv
FNA:6,1,_ZN37TimeSeriesTest_BasicConstruction_TestC1Ev
FNA:6,1,_ZN37TimeSeriesTest_BasicConstruction_TestC2Ev
FNA:6,1,_ZN37TimeSeriesTest_BasicConstruction_TestD0Ev
FNA:6,1,_ZN37TimeSeriesTest_BasicConstruction_TestD1Ev
FNA:6,1,_ZN37TimeSeriesTest_BasicConstruction_TestD2Ev
FNL:7,35,41
FNA:7,1,_ZN32TimeSeriesTest_DateIndexing_Test8TestBodyEv
FNA:7,1,_ZN32TimeSeriesTest_DateIndexing_TestC1Ev
FNA:7,1,_ZN32TimeSeriesTest_DateIndexing_TestC2Ev
FNA:7,1,_ZN32TimeSeriesTest_DateIndexing_TestD0Ev
FNA:7,1,_ZN32TimeSeriesTest_DateIndexing_TestD1Ev
FNA:7,1,_ZN32TimeSeriesTest_DateIndexing_TestD2Ev
FNL:8,43,51
FNA:8,1,_ZN37TimeSeriesTest_SlicingOperations_Test8TestBodyEv
FNA:8,1,_ZN37TimeSeriesTest_SlicingOperations_TestC1Ev
FNA:8,1,_ZN37TimeSeriesTest_SlicingOperations_TestC2Ev
FNA:8,1,_ZN37TimeSeriesTest_SlicingOperations_TestD0Ev
FNA:8,1,_ZN37TimeSeriesTest_SlicingOperations_TestD1Ev
FNA:8,1,_ZN37TimeSeriesTest_SlicingOperations_TestD2Ev
FNL:9,53,59
FNA:9,1,_ZN35TimeSeriesTest_ResamplingDaily_Test8TestBodyEv
FNA:9,1,_ZN35TimeSeriesTest_ResamplingDaily_TestC1Ev
FNA:9,1,_ZN35TimeSeriesTest_ResamplingDaily_TestC2Ev
FNA:9,1,_ZN35TimeSeriesTest_ResamplingDaily_TestD0Ev
FNA:9,1,_ZN35TimeSeriesTest_ResamplingDaily_TestD1Ev
FNA:9,1,_ZN35TimeSeriesTest_ResamplingDaily_TestD2Ev
FNL:10,61,72
FNA:10,1,_ZN43TimeSeriesTest_RollingWindowOperations_Test8TestBodyEv
FNA:10,1,_ZN43TimeSeriesTest_RollingWindowOperations_TestC1Ev
FNA:10,1,_ZN43TimeSeriesTest_RollingWindowOperations_TestC2Ev
FNA:10,1,_ZN43TimeSeriesTest_RollingWindowOperations_TestD0Ev
FNA:10,1,_ZN43TimeSeriesTest_RollingWindowOperations_TestD1Ev
FNA:10,1,_ZN43TimeSeriesTest_RollingWindowOperations_TestD2Ev
FNL:11,7,9
FNA:11,12,_ZN14TimeSeriesTestC2Ev
FNA:11,0,_ZN14TimeSeriesTestD0Ev
FNA:11,0,_ZN14TimeSeriesTestD1Ev
FNA:11,12,_ZN14TimeSeriesTestD2Ev
FNL:12,74,85
FNA:12,1,_ZN41TimeSeriesTest_StatisticalOperations_Test8TestBodyEv
FNA:12,1,_ZN41TimeSeriesTest_StatisticalOperations_TestC1Ev
FNA:12,1,_ZN41TimeSeriesTest_StatisticalOperations_TestC2Ev
FNA:12,1,_ZN41TimeSeriesTest_StatisticalOperations_TestD0Ev
FNA:12,1,_ZN41TimeSeriesTest_StatisticalOperations_TestD1Ev
FNA:12,1,_ZN41TimeSeriesTest_StatisticalOperations_TestD2Ev
FNL:13,87,101
FNA:13,1,_ZN38TimeSeriesTest_ReturnCalculations_Test8TestBodyEv
FNA:13,1,_ZN38TimeSeriesTest_ReturnCalculations_TestC1Ev
FNA:13,1,_ZN38TimeSeriesTest_ReturnCalculations_TestC2Ev
FNA:13,1,_ZN38TimeSeriesTest_ReturnCalculations_TestD0Ev
FNA:13,1,_ZN38TimeSeriesTest_ReturnCalculations_TestD1Ev
FNA:13,1,_ZN38TimeSeriesTest_ReturnCalculations_TestD2Ev
FNL:14,9,20
FNA:14,12,_ZN14TimeSeriesTest5SetUpEv
FNF:15
FNH:15
DA:9,12
DA:11,72
DA:12,12
DA:13,12
DA:14,12
DA:15,12
DA:16,12
DA:19,12
DA:20,12
DA:26,7
DA:27,1
DA:29,1
DA:30,1
DA:31,1
DA:32,1
DA:33,1
DA:35,7
DA:36,1
DA:38,1
DA:39,1
DA:40,1
DA:41,1
DA:43,7
DA:44,1
DA:46,1
DA:47,1
DA:48,1
DA:49,1
DA:50,1
DA:51,1
DA:53,7
DA:54,1
DA:56,1
DA:57,1
DA:58,1
DA:59,1
DA:61,7
DA:62,1
DA:64,1
DA:65,1
DA:68,1
DA:69,1
DA:71,1
DA:72,1
DA:74,7
DA:75,1
DA:77,1
DA:78,1
DA:79,1
DA:80,1
DA:82,1
DA:83,1
DA:84,1
DA:85,1
DA:87,7
DA:88,1
DA:90,1
DA:91,1
DA:93,1
DA:94,1
DA:97,1
DA:100,1
DA:101,1
DA:103,7
DA:104,1
DA:105,1
DA:107,1
DA:109,1
DA:110,1
DA:112,1
DA:113,1
DA:116,1
DA:119,1
DA:120,1
DA:121,1
DA:123,7
DA:124,1
DA:126,1
DA:127,1
DA:129,1
DA:130,1
DA:131,1
DA:133,7
DA:134,1
DA:137,1
DA:138,1
DA:139,1
DA:140,1
DA:142,7
DA:143,1
DA:145,1
DA:146,1
DA:147,1
DA:149,1
DA:150,1
DA:152,2
DA:153,2
DA:154,1
DA:155,1
DA:157,7
DA:159,1
DA:160,1
DA:162,1
DA:164,1
DA:165,1
DA:167,1
DA:168,1
DA:171,1
DA:172,1
DA:173,1
DA:174,1
LF:111
LH:111
end_of_record
