TN:
SF:/Library/Developer/CommandLineTools/SDKs/MacOSX.sdk/usr/include/___wctype.h
FNL:0,153,155
FNA:0,0,_Z8towloweri
FNF:1
FNH:0
DA:153,0
DA:155,0
LF:2
LH:0
end_of_record
TN:
SF:/Library/Developer/CommandLineTools/SDKs/MacOSX.sdk/usr/include/_ctype.h
FNL:0,137,139
FNA:0,0,_Z7isasciii
FNL:1,155,161
FNA:1,0,_Z8__istypeim
FNL:2,166,172
FNA:2,0,_Z9__isctypeim
FNL:3,232,234
FNA:3,0,_Z7iscntrli
FNL:4,239,241
FNA:4,0,_Z7isdigiti
FNL:5,269,271
FNA:5,0,_Z7isspacei
FNL:6,282,284
FNA:6,0,_Z8isxdigiti
FNL:7,300,302
FNA:7,4968,_Z7toupperi
FNF:8
FNH:1
DA:137,0
DA:139,0
DA:155,0
DA:160,0
DA:161,0
DA:166,0
DA:171,0
DA:172,0
DA:232,0
DA:234,0
DA:239,0
DA:241,0
DA:269,0
DA:271,0
DA:282,0
DA:284,0
DA:300,4968
DA:302,4968
LF:18
LH:2
end_of_record
TN:
SF:/Library/Developer/CommandLineTools/SDKs/MacOSX.sdk/usr/include/c++/v1/__algorithm/all_of.h
FNL:0,23,28
FNA:0,863,_ZNSt3__16all_ofB8ne180100IPKN8nlohmann16json_abi_v3_11_36detail8json_refINS2_10basic_jsonINS_3mapENS_6vectorENS_12basic_stringIcNS_11char_traitsIcEENS_9allocatorIcEEEEbxydSB_NS2_14adl_serializerENS7_IhNSB_IhEEEEvEEEEZNSH_C1ESt16initializer_listISI_EbNS3_7value_tEEUlRSJ_E_EEbT_SQ_T0_
FNF:1
FNH:1
DA:23,863
DA:24,1470
DA:25,1224
DA:26,617
DA:27,246
DA:28,863
LF:6
LH:6
end_of_record
TN:
SF:/Library/Developer/CommandLineTools/SDKs/MacOSX.sdk/usr/include/c++/v1/__algorithm/any_of.h
FNL:0,23,28
FNA:0,539,_ZNSt3__16any_ofB8ne180100INS_11__wrap_iterIPKNS_12basic_stringIcNS_11char_traitsIcEENS_9allocatorIcEEEEEEZNK7testing8internal12_GLOBAL__N_114UnitTestFilter11MatchesNameERS8_EUlSF_E_EEbT_SH_T0_
FNA:0,58,_ZNSt3__16any_ofB8ne180100INS_11__wrap_iterIPKcEEZN7testing8internal12_GLOBAL__N_113IsGlobPatternERKNS_12basic_stringIcNS_11char_traitsIcEENS_9allocatorIcEEEEE3$_0EEbT_SH_T0_
FNF:1
FNH:1
DA:23,597
DA:24,1255
DA:25,848
DA:26,190
DA:27,407
DA:28,597
LF:6
LH:6
end_of_record
TN:
SF:/Library/Developer/CommandLineTools/SDKs/MacOSX.sdk/usr/include/c++/v1/__algorithm/comp.h
FNL:0,40,41
FNA:0,0,_ZNKSt3__16__lessIvvEclB8ne180100IN7pyfolio8DateTimeES4_EEbRKT_RKT0_
FNA:0,78,_ZNKSt3__16__lessIvvEclB8ne180100IPKcS4_EEbRKT_RKT0_
FNA:0,9802,_ZNKSt3__16__lessIvvEclB8ne180100IddEEbRKT_RKT0_
FNA:0,16248,_ZNKSt3__16__lessIvvEclB8ne180100ImmEEbRKT_RKT0_
FNF:1
FNH:1
DA:40,26128
DA:41,26128
LF:2
LH:2
end_of_record
TN:
SF:/Library/Developer/CommandLineTools/SDKs/MacOSX.sdk/usr/include/c++/v1/__algorithm/copy.h
FNL:0,103,104
FNA:0,18,_ZNKSt3__114__copy_trivialclB8ne180100IKN7pyfolio8DateTimeES3_Li0EEENS_4pairIPT_PT0_EES7_S7_S9_
FNA:0,438,_ZNKSt3__114__copy_trivialclB8ne180100IKccLi0EEENS_4pairIPT_PT0_EES5_S5_S7_
FNA:0,70,_ZNKSt3__114__copy_trivialclB8ne180100IKddLi0EEENS_4pairIPT_PT0_EES5_S5_S7_
FNA:0,1,_ZNKSt3__114__copy_trivialclB8ne180100IKmmLi0EEENS_4pairIPT_PT0_EES5_S5_S7_
FNA:0,138,_ZNKSt3__114__copy_trivialclB8ne180100IN7pyfolio8DateTimeES3_Li0EEENS_4pairIPT_PT0_EES6_S6_S8_
FNA:0,0,_ZNKSt3__114__copy_trivialclB8ne180100IN7testing8internal13edit_distance8EditTypeES5_Li0EEENS_4pairIPT_PT0_EES8_S8_SA_
FNA:0,173,_ZNKSt3__114__copy_trivialclB8ne180100IddLi0EEENS_4pairIPT_PT0_EES4_S4_S6_
FNA:0,0,_ZNKSt3__114__copy_trivialclB8ne180100IhhLi0EEENS_4pairIPT_PT0_EES4_S4_S6_
FNL:1,110,112
FNA:1,18,_ZNSt3__16__copyB8ne180100INS_17_ClassicAlgPolicyEPKN7pyfolio8DateTimeES5_PS3_EENS_4pairIT0_T2_EES8_T1_S9_
FNA:1,0,_ZNSt3__16__copyB8ne180100INS_17_ClassicAlgPolicyEPKNS_12basic_stringIcNS_11char_traitsIcEENS_9allocatorIcEEEES9_PS7_EENS_4pairIT0_T2_EESC_T1_SD_
FNA:1,438,_ZNSt3__16__copyB8ne180100INS_17_ClassicAlgPolicyEPKcS3_PcEENS_4pairIT0_T2_EES6_T1_S7_
FNA:1,70,_ZNSt3__16__copyB8ne180100INS_17_ClassicAlgPolicyEPKdS3_PdEENS_4pairIT0_T2_EES6_T1_S7_
FNA:1,1,_ZNSt3__16__copyB8ne180100INS_17_ClassicAlgPolicyEPKmS3_PmEENS_4pairIT0_T2_EES6_T1_S7_
FNA:1,138,_ZNSt3__16__copyB8ne180100INS_17_ClassicAlgPolicyEPN7pyfolio8DateTimeES4_S4_EENS_4pairIT0_T2_EES6_T1_S7_
FNA:1,0,_ZNSt3__16__copyB8ne180100INS_17_ClassicAlgPolicyEPN7testing8internal13edit_distance8EditTypeES6_S6_EENS_4pairIT0_T2_EES8_T1_S9_
FNA:1,173,_ZNSt3__16__copyB8ne180100INS_17_ClassicAlgPolicyEPdS2_S2_EENS_4pairIT0_T2_EES4_T1_S5_
FNA:1,0,_ZNSt3__16__copyB8ne180100INS_17_ClassicAlgPolicyEPhS2_S2_EENS_4pairIT0_T2_EES4_T1_S5_
FNL:2,117,118
FNA:2,18,_ZNSt3__14copyB8ne180100IPKN7pyfolio8DateTimeEPS2_EET0_T_S7_S6_
FNA:2,0,_ZNSt3__14copyB8ne180100IPKNS_12basic_stringIcNS_11char_traitsIcEENS_9allocatorIcEEEEPS6_EET0_T_SB_SA_
FNA:2,438,_ZNSt3__14copyB8ne180100IPKcPcEET0_T_S5_S4_
FNA:2,70,_ZNSt3__14copyB8ne180100IPKdPdEET0_T_S5_S4_
FNA:2,1,_ZNSt3__14copyB8ne180100IPKmPmEET0_T_S5_S4_
FNA:2,136,_ZNSt3__14copyB8ne180100IPN7pyfolio8DateTimeES3_EET0_T_S5_S4_
FNA:2,0,_ZNSt3__14copyB8ne180100IPN7testing8internal13edit_distance8EditTypeES5_EET0_T_S7_S6_
FNA:2,172,_ZNSt3__14copyB8ne180100IPdS1_EET0_T_S3_S2_
FNA:2,0,_ZNSt3__14copyB8ne180100IPhS1_EET0_T_S3_S2_
FNL:3,38,45
FNA:3,0,_ZNKSt3__111__copy_loopINS_17_ClassicAlgPolicyEEclB8ne180100IPKNS_12basic_stringIcNS_11char_traitsIcEENS_9allocatorIcEEEESB_PS9_EENS_4pairIT_T1_EESE_T0_SF_
FNF:4
FNH:3
DA:38,0
DA:39,0
DA:40,0
DA:41,0
DA:42,0
DA:45,0
DA:103,838
DA:104,838
DA:110,838
DA:111,838
DA:112,838
DA:117,835
DA:118,835
LF:13
LH:7
end_of_record
TN:
SF:/Library/Developer/CommandLineTools/SDKs/MacOSX.sdk/usr/include/c++/v1/__algorithm/copy_move_common.h
FNL:0,107,111
FNA:0,18,_ZNSt3__121__unwrap_and_dispatchB8ne180100INS_10__overloadINS_11__copy_loopINS_17_ClassicAlgPolicyEEENS_14__copy_trivialEEEPKN7pyfolio8DateTimeESA_PS8_Li0EEENS_4pairIT0_T2_EESD_T1_SE_
FNA:0,0,_ZNSt3__121__unwrap_and_dispatchB8ne180100INS_10__overloadINS_11__copy_loopINS_17_ClassicAlgPolicyEEENS_14__copy_trivialEEEPKNS_12basic_stringIcNS_11char_traitsIcEENS_9allocatorIcEEEESE_PSC_Li0EEENS_4pairIT0_T2_EESH_T1_SI_
FNA:0,438,_ZNSt3__121__unwrap_and_dispatchB8ne180100INS_10__overloadINS_11__copy_loopINS_17_ClassicAlgPolicyEEENS_14__copy_trivialEEEPKcS8_PcLi0EEENS_4pairIT0_T2_EESB_T1_SC_
FNA:0,70,_ZNSt3__121__unwrap_and_dispatchB8ne180100INS_10__overloadINS_11__copy_loopINS_17_ClassicAlgPolicyEEENS_14__copy_trivialEEEPKdS8_PdLi0EEENS_4pairIT0_T2_EESB_T1_SC_
FNA:0,1,_ZNSt3__121__unwrap_and_dispatchB8ne180100INS_10__overloadINS_11__copy_loopINS_17_ClassicAlgPolicyEEENS_14__copy_trivialEEEPKmS8_PmLi0EEENS_4pairIT0_T2_EESB_T1_SC_
FNA:0,138,_ZNSt3__121__unwrap_and_dispatchB8ne180100INS_10__overloadINS_11__copy_loopINS_17_ClassicAlgPolicyEEENS_14__copy_trivialEEEPN7pyfolio8DateTimeES9_S9_Li0EEENS_4pairIT0_T2_EESB_T1_SC_
FNA:0,0,_ZNSt3__121__unwrap_and_dispatchB8ne180100INS_10__overloadINS_11__copy_loopINS_17_ClassicAlgPolicyEEENS_14__copy_trivialEEEPN7testing8internal13edit_distance8EditTypeESB_SB_Li0EEENS_4pairIT0_T2_EESD_T1_SE_
FNA:0,173,_ZNSt3__121__unwrap_and_dispatchB8ne180100INS_10__overloadINS_11__copy_loopINS_17_ClassicAlgPolicyEEENS_14__copy_trivialEEEPdS7_S7_Li0EEENS_4pairIT0_T2_EES9_T1_SA_
FNA:0,0,_ZNSt3__121__unwrap_and_dispatchB8ne180100INS_10__overloadINS_11__copy_loopINS_17_ClassicAlgPolicyEEENS_14__copy_trivialEEEPhS7_S7_Li0EEENS_4pairIT0_T2_EES9_T1_SA_
FNA:0,853,_ZNSt3__121__unwrap_and_dispatchB8ne180100INS_10__overloadINS_11__move_loopINS_17_ClassicAlgPolicyEEENS_14__move_trivialEEENS_11__wrap_iterIPN8nlohmann16json_abi_v3_11_310basic_jsonINS_3mapENS_6vectorENS_12basic_stringIcNS_11char_traitsIcEENS_9allocatorIcEEEEbxydSG_NS9_14adl_serializerENSC_IhNSG_IhEEEEvEEEESO_NS_20back_insert_iteratorINSC_ISM_NSG_ISM_EEEEEELi0EEENS_4pairIT0_T2_EESU_T1_SV_
FNA:0,35,_ZNSt3__121__unwrap_and_dispatchB8ne180100INS_10__overloadINS_11__move_loopINS_17_ClassicAlgPolicyEEENS_14__move_trivialEEENS_11__wrap_iterIPNS_12basic_stringIcNS_11char_traitsIcEENS_9allocatorIcEEEEEESF_NS_15insert_iteratorINS_13unordered_setISD_NS_4hashISD_EENS_8equal_toISD_EENSB_ISD_EEEEEELi0EEENS_4pairIT0_T2_EESQ_T1_SR_
FNA:0,35,_ZNSt3__121__unwrap_and_dispatchB8ne180100INS_10__overloadINS_11__move_loopINS_17_ClassicAlgPolicyEEENS_14__move_trivialEEENS_11__wrap_iterIPNS_12basic_stringIcNS_11char_traitsIcEENS_9allocatorIcEEEEEESF_NS_15insert_iteratorINS_6vectorISD_NSB_ISD_EEEEEELi0EEENS_4pairIT0_T2_EESM_T1_SN_
FNA:0,930,_ZNSt3__121__unwrap_and_dispatchB8ne180100INS_10__overloadINS_11__move_loopINS_17_ClassicAlgPolicyEEENS_14__move_trivialEEENS_16reverse_iteratorIPN7pyfolio8DateTimeEEESB_SB_Li0EEENS_4pairIT0_T2_EESD_T1_SE_
FNA:0,0,_ZNSt3__121__unwrap_and_dispatchB8ne180100INS_10__overloadINS_11__move_loopINS_17_ClassicAlgPolicyEEENS_14__move_trivialEEENS_16reverse_iteratorIPN7testing8internal13edit_distance8EditTypeEEESD_SD_Li0EEENS_4pairIT0_T2_EESF_T1_SG_
FNA:0,0,_ZNSt3__121__unwrap_and_dispatchB8ne180100INS_10__overloadINS_11__move_loopINS_17_ClassicAlgPolicyEEENS_14__move_trivialEEENS_16reverse_iteratorIPPN7testing11EnvironmentEEESC_SC_Li0EEENS_4pairIT0_T2_EESE_T1_SF_
FNA:0,12,_ZNSt3__121__unwrap_and_dispatchB8ne180100INS_10__overloadINS_11__move_loopINS_17_ClassicAlgPolicyEEENS_14__move_trivialEEENS_16reverse_iteratorIPPN7testing17TestEventListenerEEESC_SC_Li0EEENS_4pairIT0_T2_EESE_T1_SF_
FNA:0,54,_ZNSt3__121__unwrap_and_dispatchB8ne180100INS_10__overloadINS_11__move_loopINS_17_ClassicAlgPolicyEEENS_14__move_trivialEEENS_16reverse_iteratorIPPN7testing8TestInfoEEESC_SC_Li0EEENS_4pairIT0_T2_EESE_T1_SF_
FNA:0,11,_ZNSt3__121__unwrap_and_dispatchB8ne180100INS_10__overloadINS_11__move_loopINS_17_ClassicAlgPolicyEEENS_14__move_trivialEEENS_16reverse_iteratorIPPN7testing9TestSuiteEEESC_SC_Li0EEENS_4pairIT0_T2_EESE_T1_SF_
FNA:0,0,_ZNSt3__121__unwrap_and_dispatchB8ne180100INS_10__overloadINS_11__move_loopINS_17_ClassicAlgPolicyEEENS_14__move_trivialEEENS_16reverse_iteratorIPPcEESA_SA_Li0EEENS_4pairIT0_T2_EESC_T1_SD_
FNA:0,2369,_ZNSt3__121__unwrap_and_dispatchB8ne180100INS_10__overloadINS_11__move_loopINS_17_ClassicAlgPolicyEEENS_14__move_trivialEEENS_16reverse_iteratorIPdEES9_S9_Li0EEENS_4pairIT0_T2_EESB_T1_SC_
FNA:0,65,_ZNSt3__121__unwrap_and_dispatchB8ne180100INS_10__overloadINS_11__move_loopINS_17_ClassicAlgPolicyEEENS_14__move_trivialEEENS_16reverse_iteratorIPiEES9_S9_Li0EEENS_4pairIT0_T2_EESB_T1_SC_
FNA:0,0,_ZNSt3__121__unwrap_and_dispatchB8ne180100INS_10__overloadINS_11__move_loopINS_17_ClassicAlgPolicyEEENS_14__move_trivialEEENS_16reverse_iteratorIPmEES9_S9_Li0EEENS_4pairIT0_T2_EESB_T1_SC_
FNA:0,0,_ZNSt3__121__unwrap_and_dispatchB8ne180100INS_10__overloadINS_11__move_loopINS_17_ClassicAlgPolicyEEENS_14__move_trivialEEEPNS_12basic_stringIcNS_11char_traitsIcEENS_9allocatorIcEEEESD_SD_Li0EEENS_4pairIT0_T2_EESF_T1_SG_
FNA:0,0,_ZNSt3__121__unwrap_and_dispatchB8ne180100INS_10__overloadINS_11__move_loopINS_17_ClassicAlgPolicyEEENS_14__move_trivialEEEPPN7testing17TestEventListenerESA_SA_Li0EEENS_4pairIT0_T2_EESC_T1_SD_
FNA:0,0,_ZNSt3__121__unwrap_and_dispatchB8ne180100INS_10__overloadINS_11__move_loopINS_17_ClassicAlgPolicyEEENS_14__move_trivialEEEPPN7testing9TestSuiteESA_SA_Li0EEENS_4pairIT0_T2_EESC_T1_SD_
FNA:0,0,_ZNSt3__121__unwrap_and_dispatchB8ne180100INS_10__overloadINS_11__move_loopINS_17_ClassicAlgPolicyEEENS_14__move_trivialEEEPPcS8_S8_Li0EEENS_4pairIT0_T2_EESA_T1_SB_
FNA:0,0,_ZNSt3__121__unwrap_and_dispatchB8ne180100INS_10__overloadINS_20__move_backward_loopINS_17_ClassicAlgPolicyEEENS_23__move_backward_trivialEEEPNS_12basic_stringIcNS_11char_traitsIcEENS_9allocatorIcEEEESD_SD_Li0EEENS_4pairIT0_T2_EESF_T1_SG_
FNA:0,0,_ZNSt3__121__unwrap_and_dispatchB8ne180100INS_10__overloadINS_20__move_backward_loopINS_17_ClassicAlgPolicyEEENS_23__move_backward_trivialEEEPPN7testing9TestSuiteESA_SA_Li0EEENS_4pairIT0_T2_EESC_T1_SD_
FNA:0,0,_ZNSt3__121__unwrap_and_dispatchB8ne180100INS_10__overloadINS_20__move_backward_loopINS_17_ClassicAlgPolicyEEENS_23__move_backward_trivialEEEPPcS8_S8_Li0EEENS_4pairIT0_T2_EESA_T1_SB_
FNL:1,131,133
FNA:1,18,_ZNSt3__123__dispatch_copy_or_moveB8ne180100INS_17_ClassicAlgPolicyENS_11__copy_loopIS1_EENS_14__copy_trivialEPKN7pyfolio8DateTimeES8_PS6_EENS_4pairIT2_T4_EESB_T3_SC_
FNA:1,0,_ZNSt3__123__dispatch_copy_or_moveB8ne180100INS_17_ClassicAlgPolicyENS_11__copy_loopIS1_EENS_14__copy_trivialEPKNS_12basic_stringIcNS_11char_traitsIcEENS_9allocatorIcEEEESC_PSA_EENS_4pairIT2_T4_EESF_T3_SG_
FNA:1,438,_ZNSt3__123__dispatch_copy_or_moveB8ne180100INS_17_ClassicAlgPolicyENS_11__copy_loopIS1_EENS_14__copy_trivialEPKcS6_PcEENS_4pairIT2_T4_EES9_T3_SA_
FNA:1,70,_ZNSt3__123__dispatch_copy_or_moveB8ne180100INS_17_ClassicAlgPolicyENS_11__copy_loopIS1_EENS_14__copy_trivialEPKdS6_PdEENS_4pairIT2_T4_EES9_T3_SA_
FNA:1,1,_ZNSt3__123__dispatch_copy_or_moveB8ne180100INS_17_ClassicAlgPolicyENS_11__copy_loopIS1_EENS_14__copy_trivialEPKmS6_PmEENS_4pairIT2_T4_EES9_T3_SA_
FNA:1,138,_ZNSt3__123__dispatch_copy_or_moveB8ne180100INS_17_ClassicAlgPolicyENS_11__copy_loopIS1_EENS_14__copy_trivialEPN7pyfolio8DateTimeES7_S7_EENS_4pairIT2_T4_EES9_T3_SA_
FNA:1,0,_ZNSt3__123__dispatch_copy_or_moveB8ne180100INS_17_ClassicAlgPolicyENS_11__copy_loopIS1_EENS_14__copy_trivialEPN7testing8internal13edit_distance8EditTypeES9_S9_EENS_4pairIT2_T4_EESB_T3_SC_
FNA:1,173,_ZNSt3__123__dispatch_copy_or_moveB8ne180100INS_17_ClassicAlgPolicyENS_11__copy_loopIS1_EENS_14__copy_trivialEPdS5_S5_EENS_4pairIT2_T4_EES7_T3_S8_
FNA:1,0,_ZNSt3__123__dispatch_copy_or_moveB8ne180100INS_17_ClassicAlgPolicyENS_11__copy_loopIS1_EENS_14__copy_trivialEPhS5_S5_EENS_4pairIT2_T4_EES7_T3_S8_
FNA:1,853,_ZNSt3__123__dispatch_copy_or_moveB8ne180100INS_17_ClassicAlgPolicyENS_11__move_loopIS1_EENS_14__move_trivialENS_11__wrap_iterIPN8nlohmann16json_abi_v3_11_310basic_jsonINS_3mapENS_6vectorENS_12basic_stringIcNS_11char_traitsIcEENS_9allocatorIcEEEEbxydSE_NS7_14adl_serializerENSA_IhNSE_IhEEEEvEEEESM_NS_20back_insert_iteratorINSA_ISK_NSE_ISK_EEEEEEEENS_4pairIT2_T4_EESS_T3_ST_
FNA:1,35,_ZNSt3__123__dispatch_copy_or_moveB8ne180100INS_17_ClassicAlgPolicyENS_11__move_loopIS1_EENS_14__move_trivialENS_11__wrap_iterIPNS_12basic_stringIcNS_11char_traitsIcEENS_9allocatorIcEEEEEESD_NS_15insert_iteratorINS_13unordered_setISB_NS_4hashISB_EENS_8equal_toISB_EENS9_ISB_EEEEEEEENS_4pairIT2_T4_EESO_T3_SP_
FNA:1,35,_ZNSt3__123__dispatch_copy_or_moveB8ne180100INS_17_ClassicAlgPolicyENS_11__move_loopIS1_EENS_14__move_trivialENS_11__wrap_iterIPNS_12basic_stringIcNS_11char_traitsIcEENS_9allocatorIcEEEEEESD_NS_15insert_iteratorINS_6vectorISB_NS9_ISB_EEEEEEEENS_4pairIT2_T4_EESK_T3_SL_
FNA:1,930,_ZNSt3__123__dispatch_copy_or_moveB8ne180100INS_17_ClassicAlgPolicyENS_11__move_loopIS1_EENS_14__move_trivialENS_16reverse_iteratorIPN7pyfolio8DateTimeEEES9_S9_EENS_4pairIT2_T4_EESB_T3_SC_
FNA:1,0,_ZNSt3__123__dispatch_copy_or_moveB8ne180100INS_17_ClassicAlgPolicyENS_11__move_loopIS1_EENS_14__move_trivialENS_16reverse_iteratorIPN7testing8internal13edit_distance8EditTypeEEESB_SB_EENS_4pairIT2_T4_EESD_T3_SE_
FNA:1,0,_ZNSt3__123__dispatch_copy_or_moveB8ne180100INS_17_ClassicAlgPolicyENS_11__move_loopIS1_EENS_14__move_trivialENS_16reverse_iteratorIPPN7testing11EnvironmentEEESA_SA_EENS_4pairIT2_T4_EESC_T3_SD_
FNA:1,12,_ZNSt3__123__dispatch_copy_or_moveB8ne180100INS_17_ClassicAlgPolicyENS_11__move_loopIS1_EENS_14__move_trivialENS_16reverse_iteratorIPPN7testing17TestEventListenerEEESA_SA_EENS_4pairIT2_T4_EESC_T3_SD_
FNA:1,54,_ZNSt3__123__dispatch_copy_or_moveB8ne180100INS_17_ClassicAlgPolicyENS_11__move_loopIS1_EENS_14__move_trivialENS_16reverse_iteratorIPPN7testing8TestInfoEEESA_SA_EENS_4pairIT2_T4_EESC_T3_SD_
FNA:1,11,_ZNSt3__123__dispatch_copy_or_moveB8ne180100INS_17_ClassicAlgPolicyENS_11__move_loopIS1_EENS_14__move_trivialENS_16reverse_iteratorIPPN7testing9TestSuiteEEESA_SA_EENS_4pairIT2_T4_EESC_T3_SD_
FNA:1,0,_ZNSt3__123__dispatch_copy_or_moveB8ne180100INS_17_ClassicAlgPolicyENS_11__move_loopIS1_EENS_14__move_trivialENS_16reverse_iteratorIPPcEES8_S8_EENS_4pairIT2_T4_EESA_T3_SB_
FNA:1,2369,_ZNSt3__123__dispatch_copy_or_moveB8ne180100INS_17_ClassicAlgPolicyENS_11__move_loopIS1_EENS_14__move_trivialENS_16reverse_iteratorIPdEES7_S7_EENS_4pairIT2_T4_EES9_T3_SA_
FNA:1,65,_ZNSt3__123__dispatch_copy_or_moveB8ne180100INS_17_ClassicAlgPolicyENS_11__move_loopIS1_EENS_14__move_trivialENS_16reverse_iteratorIPiEES7_S7_EENS_4pairIT2_T4_EES9_T3_SA_
FNA:1,0,_ZNSt3__123__dispatch_copy_or_moveB8ne180100INS_17_ClassicAlgPolicyENS_11__move_loopIS1_EENS_14__move_trivialENS_16reverse_iteratorIPmEES7_S7_EENS_4pairIT2_T4_EES9_T3_SA_
FNA:1,0,_ZNSt3__123__dispatch_copy_or_moveB8ne180100INS_17_ClassicAlgPolicyENS_11__move_loopIS1_EENS_14__move_trivialEPNS_12basic_stringIcNS_11char_traitsIcEENS_9allocatorIcEEEESB_SB_EENS_4pairIT2_T4_EESD_T3_SE_
FNA:1,0,_ZNSt3__123__dispatch_copy_or_moveB8ne180100INS_17_ClassicAlgPolicyENS_11__move_loopIS1_EENS_14__move_trivialEPPN7testing17TestEventListenerES8_S8_EENS_4pairIT2_T4_EESA_T3_SB_
FNA:1,0,_ZNSt3__123__dispatch_copy_or_moveB8ne180100INS_17_ClassicAlgPolicyENS_11__move_loopIS1_EENS_14__move_trivialEPPN7testing9TestSuiteES8_S8_EENS_4pairIT2_T4_EESA_T3_SB_
FNA:1,0,_ZNSt3__123__dispatch_copy_or_moveB8ne180100INS_17_ClassicAlgPolicyENS_11__move_loopIS1_EENS_14__move_trivialEPPcS6_S6_EENS_4pairIT2_T4_EES8_T3_S9_
FNA:1,0,_ZNSt3__123__dispatch_copy_or_moveB8ne180100INS_17_ClassicAlgPolicyENS_20__move_backward_loopIS1_EENS_23__move_backward_trivialEPNS_12basic_stringIcNS_11char_traitsIcEENS_9allocatorIcEEEESB_SB_EENS_4pairIT2_T4_EESD_T3_SE_
FNA:1,0,_ZNSt3__123__dispatch_copy_or_moveB8ne180100INS_17_ClassicAlgPolicyENS_20__move_backward_loopIS1_EENS_23__move_backward_trivialEPPN7testing9TestSuiteES8_S8_EENS_4pairIT2_T4_EESA_T3_SB_
FNA:1,0,_ZNSt3__123__dispatch_copy_or_moveB8ne180100INS_17_ClassicAlgPolicyENS_20__move_backward_loopIS1_EENS_23__move_backward_trivialEPPcS6_S6_EENS_4pairIT2_T4_EES8_T3_S9_
FNL:2,63,68
FNA:2,18,_ZNSt3__119__copy_trivial_implB8ne180100IKN7pyfolio8DateTimeES2_EENS_4pairIPT_PT0_EES6_S6_S8_
FNA:2,438,_ZNSt3__119__copy_trivial_implB8ne180100IKccEENS_4pairIPT_PT0_EES4_S4_S6_
FNA:2,70,_ZNSt3__119__copy_trivial_implB8ne180100IKddEENS_4pairIPT_PT0_EES4_S4_S6_
FNA:2,1,_ZNSt3__119__copy_trivial_implB8ne180100IKmmEENS_4pairIPT_PT0_EES4_S4_S6_
FNA:2,138,_ZNSt3__119__copy_trivial_implB8ne180100IN7pyfolio8DateTimeES2_EENS_4pairIPT_PT0_EES5_S5_S7_
FNA:2,0,_ZNSt3__119__copy_trivial_implB8ne180100IN7testing8internal13edit_distance8EditTypeES4_EENS_4pairIPT_PT0_EES7_S7_S9_
FNA:2,0,_ZNSt3__119__copy_trivial_implB8ne180100IPN7testing17TestEventListenerES3_EENS_4pairIPT_PT0_EES6_S6_S8_
FNA:2,0,_ZNSt3__119__copy_trivial_implB8ne180100IPN7testing9TestSuiteES3_EENS_4pairIPT_PT0_EES6_S6_S8_
FNA:2,0,_ZNSt3__119__copy_trivial_implB8ne180100IPcS1_EENS_4pairIPT_PT0_EES4_S4_S6_
FNA:2,173,_ZNSt3__119__copy_trivial_implB8ne180100IddEENS_4pairIPT_PT0_EES3_S3_S5_
FNA:2,0,_ZNSt3__119__copy_trivial_implB8ne180100IhhEENS_4pairIPT_PT0_EES3_S3_S5_
FNL:3,73,79
FNA:3,0,_ZNSt3__128__copy_backward_trivial_implB8ne180100IPN7testing9TestSuiteES3_EENS_4pairIPT_PT0_EES6_S6_S8_
FNA:3,0,_ZNSt3__128__copy_backward_trivial_implB8ne180100IPcS1_EENS_4pairIPT_PT0_EES4_S4_S6_
FNF:4
FNH:3
DA:63,838
DA:64,838
DA:66,838
DA:68,838
DA:73,0
DA:74,0
DA:75,0
DA:77,0
DA:79,0
DA:107,5202
DA:108,5202
DA:109,5202
DA:110,10404
DA:111,5202
DA:131,5202
DA:133,5202
LF:16
LH:11
end_of_record
TN:
SF:/Library/Developer/CommandLineTools/SDKs/MacOSX.sdk/usr/include/c++/v1/__algorithm/copy_n.h
FNL:0,51,55
FNA:0,438,_ZNSt3__16copy_nB8ne180100IPKcmPcLi0EEET1_T_T0_S4_
FNF:1
FNH:1
DA:51,438
DA:54,438
DA:55,438
LF:3
LH:3
end_of_record
TN:
SF:/Library/Developer/CommandLineTools/SDKs/MacOSX.sdk/usr/include/c++/v1/__algorithm/fill_n.h
FNL:0,26,29
FNA:0,219,_ZNSt3__18__fill_nB8ne180100IPcmcEET_S2_T0_RKT1_
FNA:0,0,_ZNSt3__18__fill_nB8ne180100IPdmdEET_S2_T0_RKT1_
FNL:1,34,35
FNA:1,219,_ZNSt3__16fill_nB8ne180100IPcmcEET_S2_T0_RKT1_
FNA:1,0,_ZNSt3__16fill_nB8ne180100IPdmdEET_S2_T0_RKT1_
FNF:2
FNH:2
DA:26,219
DA:27,438
DA:28,219
DA:29,219
DA:34,219
DA:35,219
LF:6
LH:6
end_of_record
TN:
SF:/Library/Developer/CommandLineTools/SDKs/MacOSX.sdk/usr/include/c++/v1/__algorithm/find.h
FNL:0,177,180
FNA:0,0,_ZNSt3__14findB8ne180100INS_11__wrap_iterIPKN7pyfolio8DateTimeEEES3_EET_S7_S7_RKT0_
FNA:0,0,_ZNSt3__14findB8ne180100INS_11__wrap_iterIPKNS_12basic_stringIcNS_11char_traitsIcEENS_9allocatorIcEEEEEES7_EET_SB_SB_RKT0_
FNL:1,46,50
FNA:1,0,_ZNSt3__111__find_implB8ne180100IPKN7pyfolio8DateTimeES4_S2_NS_10__identityEEET_S6_T0_RKT1_RT2_
FNA:1,0,_ZNSt3__111__find_implB8ne180100IPKNS_12basic_stringIcNS_11char_traitsIcEENS_9allocatorIcEEEES8_S6_NS_10__identityEEET_SA_T0_RKT1_RT2_
FNF:2
FNH:0
DA:46,0
DA:47,0
DA:48,0
DA:49,0
DA:50,0
DA:177,0
DA:179,0
DA:180,0
LF:8
LH:0
end_of_record
TN:
SF:/Library/Developer/CommandLineTools/SDKs/MacOSX.sdk/usr/include/c++/v1/__algorithm/find_if.h
FNL:0,23,27
FNA:0,0,_ZNSt3__17find_ifB8ne180100INS_11__wrap_iterIPN7testing12TestPropertyEEENS2_8internal17TestPropertyKeyIsEEET_S8_S8_T0_
FNA:0,132,_ZNSt3__17find_ifB8ne180100INS_16reverse_iteratorINS_11__wrap_iterIPPN7testing9TestSuiteEEEEENS3_8internal15TestSuiteNameIsEEET_SB_SB_T0_
FNF:1
FNH:1
DA:23,132
DA:24,132
DA:25,121
DA:26,121
DA:27,132
LF:5
LH:5
end_of_record
TN:
SF:/Library/Developer/CommandLineTools/SDKs/MacOSX.sdk/usr/include/c++/v1/__algorithm/for_each.h
FNL:0,32,35
FNA:0,12,_ZNSt3__18for_eachB8ne180100INS_11__wrap_iterIPKPN7testing11EnvironmentEEEPFvS4_EEET0_T_SB_SA_
FNA:0,1,_ZNSt3__18for_eachB8ne180100INS_11__wrap_iterIPKPN7testing17TestEventListenerEEEPFvS4_EEET0_T_SB_SA_
FNA:0,11,_ZNSt3__18for_eachB8ne180100INS_11__wrap_iterIPKPN7testing8TestInfoEEEPFvS4_EEET0_T_SB_SA_
FNA:0,13,_ZNSt3__18for_eachB8ne180100INS_11__wrap_iterIPKPN7testing9TestSuiteEEEPFvS4_EEET0_T_SB_SA_
FNA:0,11,_ZNSt3__18for_eachB8ne180100INS_16reverse_iteratorINS_11__wrap_iterIPPN7testing11EnvironmentEEEEEPFvS5_EEET0_T_SC_SB_
FNF:1
FNH:1
DA:32,48
DA:33,192
DA:34,144
DA:35,48
LF:4
LH:4
end_of_record
TN:
SF:/Library/Developer/CommandLineTools/SDKs/MacOSX.sdk/usr/include/c++/v1/__algorithm/half_positive.h
FNL:0,26,27
FNA:0,0,_ZNSt3__115__half_positiveB8ne180100IlLi0EEET_S1_
FNF:1
FNH:0
DA:26,0
DA:27,0
LF:2
LH:0
end_of_record
TN:
SF:/Library/Developer/CommandLineTools/SDKs/MacOSX.sdk/usr/include/c++/v1/__algorithm/iter_swap.h
FNL:0,23,27
FNA:0,0,_ZNSt3__19iter_swapB8ne180100INS_11__wrap_iterIPN7testing8internal13edit_distance8EditTypeEEES7_EEvT_T0_
FNA:0,0,_ZNSt3__19iter_swapB8ne180100INS_11__wrap_iterIPNS_12basic_stringIcNS_11char_traitsIcEENS_9allocatorIcEEEEEES9_EEvT_T0_
FNA:0,0,_ZNSt3__19iter_swapB8ne180100IPNS_4pairIN7pyfolio8DateTimeEdEES5_EEvT_T0_
FNF:1
FNH:0
DA:23,0
DA:26,0
DA:27,0
LF:3
LH:0
end_of_record
TN:
SF:/Library/Developer/CommandLineTools/SDKs/MacOSX.sdk/usr/include/c++/v1/__algorithm/iterator_operations.h
FNL:0,102,108
FNA:0,18195,_ZNSt3__18_IterOpsINS_17_ClassicAlgPolicyEE25__validate_iter_referenceB8ne180100IRNS_16reverse_iteratorIPN7pyfolio8DateTimeEEEEEvv
FNA:0,0,_ZNSt3__18_IterOpsINS_17_ClassicAlgPolicyEE25__validate_iter_referenceB8ne180100IRNS_16reverse_iteratorIPN7testing8internal13edit_distance8EditTypeEEEEEvv
FNA:0,0,_ZNSt3__18_IterOpsINS_17_ClassicAlgPolicyEE25__validate_iter_referenceB8ne180100IRNS_16reverse_iteratorIPPN7testing11EnvironmentEEEEEvv
FNA:0,0,_ZNSt3__18_IterOpsINS_17_ClassicAlgPolicyEE25__validate_iter_referenceB8ne180100IRNS_16reverse_iteratorIPPN7testing17TestEventListenerEEEEEvv
FNA:0,177,_ZNSt3__18_IterOpsINS_17_ClassicAlgPolicyEE25__validate_iter_referenceB8ne180100IRNS_16reverse_iteratorIPPN7testing8TestInfoEEEEEvv
FNA:0,0,_ZNSt3__18_IterOpsINS_17_ClassicAlgPolicyEE25__validate_iter_referenceB8ne180100IRNS_16reverse_iteratorIPPN7testing9TestSuiteEEEEEvv
FNA:0,0,_ZNSt3__18_IterOpsINS_17_ClassicAlgPolicyEE25__validate_iter_referenceB8ne180100IRNS_16reverse_iteratorIPPcEEEEvv
FNA:0,60467,_ZNSt3__18_IterOpsINS_17_ClassicAlgPolicyEE25__validate_iter_referenceB8ne180100IRNS_16reverse_iteratorIPdEEEEvv
FNA:0,177,_ZNSt3__18_IterOpsINS_17_ClassicAlgPolicyEE25__validate_iter_referenceB8ne180100IRNS_16reverse_iteratorIPiEEEEvv
FNA:0,0,_ZNSt3__18_IterOpsINS_17_ClassicAlgPolicyEE25__validate_iter_referenceB8ne180100IRNS_16reverse_iteratorIPmEEEEvv
FNA:0,3591,_ZNSt3__18_IterOpsINS_17_ClassicAlgPolicyEE25__validate_iter_referenceB8ne180100IRPN8nlohmann16json_abi_v3_11_310basic_jsonINS_3mapENS_6vectorENS_12basic_stringIcNS_11char_traitsIcEENS_9allocatorIcEEEEbxydSC_NS5_14adl_serializerENS8_IhNSC_IhEEEEvEEEEvv
FNA:0,58,_ZNSt3__18_IterOpsINS_17_ClassicAlgPolicyEE25__validate_iter_referenceB8ne180100IRPNS_12basic_stringIcNS_11char_traitsIcEENS_9allocatorIcEEEEEEvv
FNA:0,0,_ZNSt3__18_IterOpsINS_17_ClassicAlgPolicyEE25__validate_iter_referenceB8ne180100IRPNS_4pairIN7pyfolio8DateTimeEdEEEEvv
FNL:1,116,119
FNA:1,18195,_ZNSt3__18_IterOpsINS_17_ClassicAlgPolicyEE11__iter_moveB8ne180100IRNS_16reverse_iteratorIPN7pyfolio8DateTimeEEELi0EEEDTclsr3stdE4movedeclsr3stdE7declvalIRT_EEEEOSA_
FNA:1,0,_ZNSt3__18_IterOpsINS_17_ClassicAlgPolicyEE11__iter_moveB8ne180100IRNS_16reverse_iteratorIPN7testing8internal13edit_distance8EditTypeEEELi0EEEDTclsr3stdE4movedeclsr3stdE7declvalIRT_EEEEOSC_
FNA:1,0,_ZNSt3__18_IterOpsINS_17_ClassicAlgPolicyEE11__iter_moveB8ne180100IRNS_16reverse_iteratorIPPN7testing11EnvironmentEEELi0EEEDTclsr3stdE4movedeclsr3stdE7declvalIRT_EEEEOSB_
FNA:1,0,_ZNSt3__18_IterOpsINS_17_ClassicAlgPolicyEE11__iter_moveB8ne180100IRNS_16reverse_iteratorIPPN7testing17TestEventListenerEEELi0EEEDTclsr3stdE4movedeclsr3stdE7declvalIRT_EEEEOSB_
FNA:1,177,_ZNSt3__18_IterOpsINS_17_ClassicAlgPolicyEE11__iter_moveB8ne180100IRNS_16reverse_iteratorIPPN7testing8TestInfoEEELi0EEEDTclsr3stdE4movedeclsr3stdE7declvalIRT_EEEEOSB_
FNA:1,0,_ZNSt3__18_IterOpsINS_17_ClassicAlgPolicyEE11__iter_moveB8ne180100IRNS_16reverse_iteratorIPPN7testing9TestSuiteEEELi0EEEDTclsr3stdE4movedeclsr3stdE7declvalIRT_EEEEOSB_
FNA:1,0,_ZNSt3__18_IterOpsINS_17_ClassicAlgPolicyEE11__iter_moveB8ne180100IRNS_16reverse_iteratorIPPcEELi0EEEDTclsr3stdE4movedeclsr3stdE7declvalIRT_EEEEOS9_
FNA:1,60467,_ZNSt3__18_IterOpsINS_17_ClassicAlgPolicyEE11__iter_moveB8ne180100IRNS_16reverse_iteratorIPdEELi0EEEDTclsr3stdE4movedeclsr3stdE7declvalIRT_EEEEOS8_
FNA:1,177,_ZNSt3__18_IterOpsINS_17_ClassicAlgPolicyEE11__iter_moveB8ne180100IRNS_16reverse_iteratorIPiEELi0EEEDTclsr3stdE4movedeclsr3stdE7declvalIRT_EEEEOS8_
FNA:1,0,_ZNSt3__18_IterOpsINS_17_ClassicAlgPolicyEE11__iter_moveB8ne180100IRNS_16reverse_iteratorIPmEELi0EEEDTclsr3stdE4movedeclsr3stdE7declvalIRT_EEEEOS8_
FNA:1,3591,_ZNSt3__18_IterOpsINS_17_ClassicAlgPolicyEE11__iter_moveB8ne180100IRPN8nlohmann16json_abi_v3_11_310basic_jsonINS_3mapENS_6vectorENS_12basic_stringIcNS_11char_traitsIcEENS_9allocatorIcEEEEbxydSC_NS5_14adl_serializerENS8_IhNSC_IhEEEEvEELi0EEEDTclsr3stdE4movedeclsr3stdE7declvalIRT_EEEEOSL_
FNA:1,58,_ZNSt3__18_IterOpsINS_17_ClassicAlgPolicyEE11__iter_moveB8ne180100IRPNS_12basic_stringIcNS_11char_traitsIcEENS_9allocatorIcEEEELi0EEEDTclsr3stdE4movedeclsr3stdE7declvalIRT_EEEEOSC_
FNA:1,0,_ZNSt3__18_IterOpsINS_17_ClassicAlgPolicyEE11__iter_moveB8ne180100IRPNS_4pairIN7pyfolio8DateTimeEdEELi0EEEDTclsr3stdE4movedeclsr3stdE7declvalIRT_EEEEOSA_
FNL:2,136,138
FNA:2,0,_ZNSt3__18_IterOpsINS_17_ClassicAlgPolicyEE9iter_swapB8ne180100IPNS_4pairIN7pyfolio8DateTimeEdEES8_EEvOT_OT0_
FNA:2,0,_ZNSt3__18_IterOpsINS_17_ClassicAlgPolicyEE9iter_swapB8ne180100IRNS_11__wrap_iterIPN7testing8internal13edit_distance8EditTypeEEESB_EEvOT_OT0_
FNA:2,0,_ZNSt3__18_IterOpsINS_17_ClassicAlgPolicyEE9iter_swapB8ne180100IRNS_11__wrap_iterIPNS_12basic_stringIcNS_11char_traitsIcEENS_9allocatorIcEEEEEESD_EEvOT_OT0_
FNA:2,0,_ZNSt3__18_IterOpsINS_17_ClassicAlgPolicyEE9iter_swapB8ne180100IRPNS_4pairIN7pyfolio8DateTimeEdEES8_EEvOT_OT0_
FNA:2,0,_ZNSt3__18_IterOpsINS_17_ClassicAlgPolicyEE9iter_swapB8ne180100IRPNS_4pairIN7pyfolio8DateTimeEdEES9_EEvOT_OT0_
FNL:3,142,143
FNA:3,35,_ZNSt3__18_IterOpsINS_17_ClassicAlgPolicyEE4nextB8ne180100INS_11__wrap_iterIPNS_12basic_stringIcNS_11char_traitsIcEENS_9allocatorIcEEEEEEEET_SD_SD_
FNA:3,0,_ZNSt3__18_IterOpsINS_17_ClassicAlgPolicyEE4nextB8ne180100IPNS_12basic_stringIcNS_11char_traitsIcEENS_9allocatorIcEEEEEET_SB_SB_
FNA:3,0,_ZNSt3__18_IterOpsINS_17_ClassicAlgPolicyEE4nextB8ne180100IPNS_4pairIN7pyfolio8DateTimeEdEEEET_S9_S9_
FNL:4,148,149
FNA:4,0,_ZNSt3__18_IterOpsINS_17_ClassicAlgPolicyEE4nextB8ne180100IRNS_11__wrap_iterIPKN7pyfolio8DateTimeEEEEEu14__remove_cvrefIT_EOSB_NS_15iterator_traitsISC_E15difference_typeE
FNL:5,84,86
FNA:5,0,_ZNSt3__18_IterOpsINS_17_ClassicAlgPolicyEE7advanceB8ne180100INS_11__wrap_iterIPKN7pyfolio8DateTimeEEElEEvRT_T0_
FNL:6,91,92
FNA:6,0,_ZNSt3__18_IterOpsINS_17_ClassicAlgPolicyEE8distanceB8ne180100INS_11__wrap_iterIPKN7pyfolio8DateTimeEEEEENS_15iterator_traitsIT_E15difference_typeESB_SB_
FNF:7
FNH:3
DA:84,0
DA:85,0
DA:86,0
DA:91,0
DA:92,0
DA:102,82665
DA:108,82665
DA:116,82665
DA:117,82665
DA:119,82665
DA:136,0
DA:137,0
DA:138,0
DA:142,35
DA:143,35
DA:148,0
DA:149,0
LF:17
LH:7
end_of_record
TN:
SF:/Library/Developer/CommandLineTools/SDKs/MacOSX.sdk/usr/include/c++/v1/__algorithm/lower_bound.h
FNL:0,32,46
FNA:0,0,_ZNSt3__113__lower_boundB8ne180100INS_17_ClassicAlgPolicyENS_11__wrap_iterIPKN7pyfolio8DateTimeEEES7_S4_NS_10__identityENS_6__lessIvvEEEET0_SB_T1_RKT2_RT4_RT3_
FNL:1,51,54
FNA:1,0,_ZNSt3__111lower_boundB8ne180100INS_11__wrap_iterIPKN7pyfolio8DateTimeEEES3_NS_6__lessIvvEEEET_S9_S9_RKT0_T1_
FNL:2,59,60
FNA:2,0,_ZNSt3__111lower_boundB8ne180100INS_11__wrap_iterIPKN7pyfolio8DateTimeEEES3_EET_S7_S7_RKT0_
FNF:3
FNH:0
DA:32,0
DA:33,0
DA:35,0
DA:36,0
DA:37,0
DA:38,0
DA:39,0
DA:40,0
DA:41,0
DA:42,0
DA:43,0
DA:46,0
DA:51,0
DA:53,0
DA:54,0
DA:59,0
DA:60,0
LF:17
LH:0
end_of_record
TN:
SF:/Library/Developer/CommandLineTools/SDKs/MacOSX.sdk/usr/include/c++/v1/__algorithm/make_heap.h
FNL:0,31,42
FNA:0,0,_ZNSt3__111__make_heapB8ne180100INS_17_ClassicAlgPolicyERZN7pyfolio10TimeSeriesIdE22sort_by_time_optimizedEvEUlRKT_RKT0_E_PNS_4pairINS2_8DateTimeEdEEEEvT1_SH_OS8_
FNF:1
FNH:0
DA:31,0
DA:32,0
DA:35,0
DA:36,0
DA:38,0
DA:39,0
DA:40,0
DA:41,0
DA:42,0
LF:9
LH:0
end_of_record
TN:
SF:/Library/Developer/CommandLineTools/SDKs/MacOSX.sdk/usr/include/c++/v1/__algorithm/max.h
FNL:0,29,30
FNA:0,8780,_ZNSt3__13maxB8ne180100IdNS_6__lessIvvEEEERKT_S5_S5_T0_
FNA:0,2925,_ZNSt3__13maxB8ne180100ImNS_6__lessIvvEEEERKT_S5_S5_T0_
FNL:1,35,36
FNA:1,8780,_ZNSt3__13maxB8ne180100IdEERKT_S3_S3_
FNA:1,2925,_ZNSt3__13maxB8ne180100ImEERKT_S3_S3_
FNF:2
FNH:2
DA:29,11705
DA:30,11705
DA:35,11705
DA:36,11705
LF:4
LH:4
end_of_record
TN:
SF:/Library/Developer/CommandLineTools/SDKs/MacOSX.sdk/usr/include/c++/v1/__algorithm/max_element.h
FNL:0,25,34
FNA:0,1,_ZNSt3__113__max_elementB8ne180100IRNS_6__lessIvvEENS_11__wrap_iterIPKdEEEET0_S8_S8_T_
FNA:0,1,_ZNSt3__113__max_elementB8ne180100IRNS_6__lessIvvEENS_11__wrap_iterIPdEEEET0_S7_S7_T_
FNL:1,39,40
FNA:1,1,_ZNSt3__111max_elementB8ne180100INS_11__wrap_iterIPKdEENS_6__lessIvvEEEET_S7_S7_T0_
FNA:1,1,_ZNSt3__111max_elementB8ne180100INS_11__wrap_iterIPdEENS_6__lessIvvEEEET_S6_S6_T0_
FNL:2,45,46
FNA:2,1,_ZNSt3__111max_elementB8ne180100INS_11__wrap_iterIPKdEEEET_S5_S5_
FNA:2,1,_ZNSt3__111max_elementB8ne180100INS_11__wrap_iterIPdEEEET_S4_S4_
FNF:3
FNH:3
DA:25,2
DA:28,2
DA:29,2
DA:30,504
DA:31,502
DA:32,73
DA:33,2
DA:34,2
DA:39,2
DA:40,2
DA:45,2
DA:46,2
LF:12
LH:12
end_of_record
TN:
SF:/Library/Developer/CommandLineTools/SDKs/MacOSX.sdk/usr/include/c++/v1/__algorithm/min.h
FNL:0,29,30
FNA:0,8,_ZNSt3__13minB8ne180100IdNS_6__lessIvvEEEERKT_S5_S5_T0_
FNA:0,13323,_ZNSt3__13minB8ne180100ImNS_6__lessIvvEEEERKT_S5_S5_T0_
FNL:1,35,36
FNA:1,8,_ZNSt3__13minB8ne180100IdEERKT_S3_S3_
FNA:1,13323,_ZNSt3__13minB8ne180100ImEERKT_S3_S3_
FNL:2,48,49
FNA:2,0,_ZNSt3__13minB8ne180100ImEET_St16initializer_listIS1_E
FNF:3
FNH:2
DA:29,13331
DA:30,13331
DA:35,13331
DA:36,13331
DA:48,0
DA:49,0
LF:6
LH:4
end_of_record
TN:
SF:/Library/Developer/CommandLineTools/SDKs/MacOSX.sdk/usr/include/c++/v1/__algorithm/min_element.h
FNL:0,32,42
FNA:0,1,_ZNSt3__113__min_elementB8ne180100IRNS_6__lessIvvEENS_11__wrap_iterIPKdEES7_NS_10__identityEEET0_S9_T1_T_RT2_
FNA:0,1,_ZNSt3__113__min_elementB8ne180100IRNS_6__lessIvvEENS_11__wrap_iterIPdEES6_NS_10__identityEEET0_S8_T1_T_RT2_
FNA:0,0,_ZNSt3__113__min_elementB8ne180100IRNS_6__lessIvvEEPKmS5_NS_10__identityEEET0_S7_T1_T_RT2_
FNL:1,45,47
FNA:1,1,_ZNSt3__113__min_elementB8ne180100IRNS_6__lessIvvEENS_11__wrap_iterIPKdEES7_EET0_S8_T1_T_
FNA:1,1,_ZNSt3__113__min_elementB8ne180100IRNS_6__lessIvvEENS_11__wrap_iterIPdEES6_EET0_S7_T1_T_
FNA:1,0,_ZNSt3__113__min_elementB8ne180100IRNS_6__lessIvvEEPKmS5_EET0_S6_T1_T_
FNL:2,52,58
FNA:2,1,_ZNSt3__111min_elementB8ne180100INS_11__wrap_iterIPKdEENS_6__lessIvvEEEET_S7_S7_T0_
FNA:2,1,_ZNSt3__111min_elementB8ne180100INS_11__wrap_iterIPdEENS_6__lessIvvEEEET_S6_S6_T0_
FNA:2,0,_ZNSt3__111min_elementB8ne180100IPKmNS_6__lessIvvEEEET_S5_S5_T0_
FNL:3,63,64
FNA:3,1,_ZNSt3__111min_elementB8ne180100INS_11__wrap_iterIPKdEEEET_S5_S5_
FNA:3,1,_ZNSt3__111min_elementB8ne180100INS_11__wrap_iterIPdEEEET_S4_S4_
FNF:4
FNH:4
DA:32,2
DA:33,2
DA:34,0
DA:36,2
DA:37,504
DA:38,502
DA:39,17
DA:41,2
DA:42,2
DA:45,2
DA:46,2
DA:47,2
DA:52,2
DA:58,2
DA:63,2
DA:64,2
LF:16
LH:15
end_of_record
TN:
SF:/Library/Developer/CommandLineTools/SDKs/MacOSX.sdk/usr/include/c++/v1/__algorithm/minmax_element.h
FNL:0,32,33
FNA:0,2,_ZNSt3__122_MinmaxElementLessFuncINS_6__lessIvvEENS_10__identityEEC1B8ne180100ERS2_RS3_
FNA:0,2,_ZNSt3__122_MinmaxElementLessFuncINS_6__lessIvvEENS_10__identityEEC2B8ne180100ERS2_RS3_
FNL:1,36,37
FNA:1,10,_ZNSt3__122_MinmaxElementLessFuncINS_6__lessIvvEENS_10__identityEEclB8ne180100INS_11__wrap_iterIPdEEEEbRT_SA_
FNL:2,43,79
FNA:2,2,_ZNSt3__121__minmax_element_implB8ne180100INS_11__wrap_iterIPdEES3_NS_10__identityENS_6__lessIvvEEEENS_4pairIT_S8_EES8_T0_RT2_RT1_
FNL:3,83,89
FNA:3,2,_ZNSt3__114minmax_elementB8ne180100INS_11__wrap_iterIPdEENS_6__lessIvvEEEENS_4pairIT_S7_EES7_S7_T0_
FNL:4,95,96
FNA:4,2,_ZNSt3__114minmax_elementB8ne180100INS_11__wrap_iterIPdEEEENS_4pairIT_S5_EES5_S5_
FNF:5
FNH:5
DA:32,4
DA:33,4
DA:36,10
DA:37,10
DA:43,2
DA:44,2
DA:46,2
DA:47,2
DA:48,1
DA:50,1
DA:51,1
DA:53,0
DA:55,4
DA:56,3
DA:57,3
DA:58,0
DA:59,0
DA:60,0
DA:61,0
DA:62,0
DA:65,3
DA:66,3
DA:67,0
DA:68,3
DA:69,2
DA:70,3
DA:71,0
DA:72,0
DA:73,0
DA:74,0
DA:78,1
DA:79,2
DA:83,2
DA:88,2
DA:89,2
DA:95,2
DA:96,2
LF:37
LH:26
end_of_record
TN:
SF:/Library/Developer/CommandLineTools/SDKs/MacOSX.sdk/usr/include/c++/v1/__algorithm/move.h
FNL:0,104,105
FNA:0,0,_ZNKSt3__114__move_trivialclB8ne180100IPN7testing17TestEventListenerES4_Li0EEENS_4pairIPT_PT0_EES7_S7_S9_
FNA:0,0,_ZNKSt3__114__move_trivialclB8ne180100IPN7testing9TestSuiteES4_Li0EEENS_4pairIPT_PT0_EES7_S7_S9_
FNA:0,0,_ZNKSt3__114__move_trivialclB8ne180100IPcS2_Li0EEENS_4pairIPT_PT0_EES5_S5_S7_
FNL:1,111,113
FNA:1,853,_ZNSt3__16__moveB8ne180100INS_17_ClassicAlgPolicyENS_11__wrap_iterIPN8nlohmann16json_abi_v3_11_310basic_jsonINS_3mapENS_6vectorENS_12basic_stringIcNS_11char_traitsIcEENS_9allocatorIcEEEEbxydSB_NS4_14adl_serializerENS7_IhNSB_IhEEEEvEEEESJ_NS_20back_insert_iteratorINS7_ISH_NSB_ISH_EEEEEEEENS_4pairIT0_T2_EESP_T1_SQ_
FNA:1,35,_ZNSt3__16__moveB8ne180100INS_17_ClassicAlgPolicyENS_11__wrap_iterIPNS_12basic_stringIcNS_11char_traitsIcEENS_9allocatorIcEEEEEESA_NS_15insert_iteratorINS_13unordered_setIS8_NS_4hashIS8_EENS_8equal_toIS8_EENS6_IS8_EEEEEEEENS_4pairIT0_T2_EESL_T1_SM_
FNA:1,35,_ZNSt3__16__moveB8ne180100INS_17_ClassicAlgPolicyENS_11__wrap_iterIPNS_12basic_stringIcNS_11char_traitsIcEENS_9allocatorIcEEEEEESA_NS_15insert_iteratorINS_6vectorIS8_NS6_IS8_EEEEEEEENS_4pairIT0_T2_EESH_T1_SI_
FNA:1,930,_ZNSt3__16__moveB8ne180100INS_17_ClassicAlgPolicyENS_16reverse_iteratorIPN7pyfolio8DateTimeEEES6_S6_EENS_4pairIT0_T2_EES8_T1_S9_
FNA:1,0,_ZNSt3__16__moveB8ne180100INS_17_ClassicAlgPolicyENS_16reverse_iteratorIPN7testing8internal13edit_distance8EditTypeEEES8_S8_EENS_4pairIT0_T2_EESA_T1_SB_
FNA:1,0,_ZNSt3__16__moveB8ne180100INS_17_ClassicAlgPolicyENS_16reverse_iteratorIPPN7testing11EnvironmentEEES7_S7_EENS_4pairIT0_T2_EES9_T1_SA_
FNA:1,12,_ZNSt3__16__moveB8ne180100INS_17_ClassicAlgPolicyENS_16reverse_iteratorIPPN7testing17TestEventListenerEEES7_S7_EENS_4pairIT0_T2_EES9_T1_SA_
FNA:1,54,_ZNSt3__16__moveB8ne180100INS_17_ClassicAlgPolicyENS_16reverse_iteratorIPPN7testing8TestInfoEEES7_S7_EENS_4pairIT0_T2_EES9_T1_SA_
FNA:1,11,_ZNSt3__16__moveB8ne180100INS_17_ClassicAlgPolicyENS_16reverse_iteratorIPPN7testing9TestSuiteEEES7_S7_EENS_4pairIT0_T2_EES9_T1_SA_
FNA:1,0,_ZNSt3__16__moveB8ne180100INS_17_ClassicAlgPolicyENS_16reverse_iteratorIPPcEES5_S5_EENS_4pairIT0_T2_EES7_T1_S8_
FNA:1,2369,_ZNSt3__16__moveB8ne180100INS_17_ClassicAlgPolicyENS_16reverse_iteratorIPdEES4_S4_EENS_4pairIT0_T2_EES6_T1_S7_
FNA:1,65,_ZNSt3__16__moveB8ne180100INS_17_ClassicAlgPolicyENS_16reverse_iteratorIPiEES4_S4_EENS_4pairIT0_T2_EES6_T1_S7_
FNA:1,0,_ZNSt3__16__moveB8ne180100INS_17_ClassicAlgPolicyENS_16reverse_iteratorIPmEES4_S4_EENS_4pairIT0_T2_EES6_T1_S7_
FNA:1,0,_ZNSt3__16__moveB8ne180100INS_17_ClassicAlgPolicyEPNS_12basic_stringIcNS_11char_traitsIcEENS_9allocatorIcEEEES8_S8_EENS_4pairIT0_T2_EESA_T1_SB_
FNA:1,0,_ZNSt3__16__moveB8ne180100INS_17_ClassicAlgPolicyEPPN7testing17TestEventListenerES5_S5_EENS_4pairIT0_T2_EES7_T1_S8_
FNA:1,0,_ZNSt3__16__moveB8ne180100INS_17_ClassicAlgPolicyEPPN7testing9TestSuiteES5_S5_EENS_4pairIT0_T2_EES7_T1_S8_
FNA:1,0,_ZNSt3__16__moveB8ne180100INS_17_ClassicAlgPolicyEPPcS3_S3_EENS_4pairIT0_T2_EES5_T1_S6_
FNL:2,118,122
FNA:2,853,_ZNSt3__14moveB8ne180100INS_11__wrap_iterIPN8nlohmann16json_abi_v3_11_310basic_jsonINS_3mapENS_6vectorENS_12basic_stringIcNS_11char_traitsIcEENS_9allocatorIcEEEEbxydSA_NS3_14adl_serializerENS6_IhNSA_IhEEEEvEEEENS_20back_insert_iteratorINS6_ISG_NSA_ISG_EEEEEEEET0_T_SO_SN_
FNA:2,35,_ZNSt3__14moveB8ne180100INS_11__wrap_iterIPNS_12basic_stringIcNS_11char_traitsIcEENS_9allocatorIcEEEEEENS_15insert_iteratorINS_13unordered_setIS7_NS_4hashIS7_EENS_8equal_toIS7_EENS5_IS7_EEEEEEEET0_T_SK_SJ_
FNA:2,35,_ZNSt3__14moveB8ne180100INS_11__wrap_iterIPNS_12basic_stringIcNS_11char_traitsIcEENS_9allocatorIcEEEEEENS_15insert_iteratorINS_6vectorIS7_NS5_IS7_EEEEEEEET0_T_SG_SF_
FNA:2,930,_ZNSt3__14moveB8ne180100INS_16reverse_iteratorIPN7pyfolio8DateTimeEEES5_EET0_T_S7_S6_
FNA:2,0,_ZNSt3__14moveB8ne180100INS_16reverse_iteratorIPN7testing8internal13edit_distance8EditTypeEEES7_EET0_T_S9_S8_
FNA:2,0,_ZNSt3__14moveB8ne180100INS_16reverse_iteratorIPPN7testing11EnvironmentEEES6_EET0_T_S8_S7_
FNA:2,12,_ZNSt3__14moveB8ne180100INS_16reverse_iteratorIPPN7testing17TestEventListenerEEES6_EET0_T_S8_S7_
FNA:2,54,_ZNSt3__14moveB8ne180100INS_16reverse_iteratorIPPN7testing8TestInfoEEES6_EET0_T_S8_S7_
FNA:2,11,_ZNSt3__14moveB8ne180100INS_16reverse_iteratorIPPN7testing9TestSuiteEEES6_EET0_T_S8_S7_
FNA:2,0,_ZNSt3__14moveB8ne180100INS_16reverse_iteratorIPPcEES4_EET0_T_S6_S5_
FNA:2,2369,_ZNSt3__14moveB8ne180100INS_16reverse_iteratorIPdEES3_EET0_T_S5_S4_
FNA:2,65,_ZNSt3__14moveB8ne180100INS_16reverse_iteratorIPiEES3_EET0_T_S5_S4_
FNA:2,0,_ZNSt3__14moveB8ne180100INS_16reverse_iteratorIPmEES3_EET0_T_S5_S4_
FNA:2,0,_ZNSt3__14moveB8ne180100IPNS_12basic_stringIcNS_11char_traitsIcEENS_9allocatorIcEEEES7_EET0_T_S9_S8_
FNA:2,0,_ZNSt3__14moveB8ne180100IPPN7testing17TestEventListenerES4_EET0_T_S6_S5_
FNA:2,0,_ZNSt3__14moveB8ne180100IPPN7testing9TestSuiteES4_EET0_T_S6_S5_
FNA:2,0,_ZNSt3__14moveB8ne180100IPPcS2_EET0_T_S4_S3_
FNL:3,40,46
FNA:3,930,_ZNKSt3__111__move_loopINS_17_ClassicAlgPolicyEEclB8ne180100INS_16reverse_iteratorIPN7pyfolio8DateTimeEEES8_S8_EENS_4pairIT_T1_EESA_T0_SB_
FNA:3,0,_ZNKSt3__111__move_loopINS_17_ClassicAlgPolicyEEclB8ne180100INS_16reverse_iteratorIPN7testing8internal13edit_distance8EditTypeEEESA_SA_EENS_4pairIT_T1_EESC_T0_SD_
FNA:3,0,_ZNKSt3__111__move_loopINS_17_ClassicAlgPolicyEEclB8ne180100INS_16reverse_iteratorIPPN7testing11EnvironmentEEES9_S9_EENS_4pairIT_T1_EESB_T0_SC_
FNA:3,12,_ZNKSt3__111__move_loopINS_17_ClassicAlgPolicyEEclB8ne180100INS_16reverse_iteratorIPPN7testing17TestEventListenerEEES9_S9_EENS_4pairIT_T1_EESB_T0_SC_
FNA:3,54,_ZNKSt3__111__move_loopINS_17_ClassicAlgPolicyEEclB8ne180100INS_16reverse_iteratorIPPN7testing8TestInfoEEES9_S9_EENS_4pairIT_T1_EESB_T0_SC_
FNA:3,11,_ZNKSt3__111__move_loopINS_17_ClassicAlgPolicyEEclB8ne180100INS_16reverse_iteratorIPPN7testing9TestSuiteEEES9_S9_EENS_4pairIT_T1_EESB_T0_SC_
FNA:3,0,_ZNKSt3__111__move_loopINS_17_ClassicAlgPolicyEEclB8ne180100INS_16reverse_iteratorIPPcEES7_S7_EENS_4pairIT_T1_EES9_T0_SA_
FNA:3,2369,_ZNKSt3__111__move_loopINS_17_ClassicAlgPolicyEEclB8ne180100INS_16reverse_iteratorIPdEES6_S6_EENS_4pairIT_T1_EES8_T0_S9_
FNA:3,65,_ZNKSt3__111__move_loopINS_17_ClassicAlgPolicyEEclB8ne180100INS_16reverse_iteratorIPiEES6_S6_EENS_4pairIT_T1_EES8_T0_S9_
FNA:3,0,_ZNKSt3__111__move_loopINS_17_ClassicAlgPolicyEEclB8ne180100INS_16reverse_iteratorIPmEES6_S6_EENS_4pairIT_T1_EES8_T0_S9_
FNA:3,853,_ZNKSt3__111__move_loopINS_17_ClassicAlgPolicyEEclB8ne180100IPN8nlohmann16json_abi_v3_11_310basic_jsonINS_3mapENS_6vectorENS_12basic_stringIcNS_11char_traitsIcEENS_9allocatorIcEEEEbxydSC_NS5_14adl_serializerENS8_IhNSC_IhEEEEvEESJ_NS_20back_insert_iteratorINS8_ISI_NSC_ISI_EEEEEEEENS_4pairIT_T1_EESP_T0_SQ_
FNA:3,35,_ZNKSt3__111__move_loopINS_17_ClassicAlgPolicyEEclB8ne180100IPNS_12basic_stringIcNS_11char_traitsIcEENS_9allocatorIcEEEESA_NS_15insert_iteratorINS_13unordered_setIS9_NS_4hashIS9_EENS_8equal_toIS9_EENS7_IS9_EEEEEEEENS_4pairIT_T1_EESL_T0_SM_
FNA:3,35,_ZNKSt3__111__move_loopINS_17_ClassicAlgPolicyEEclB8ne180100IPNS_12basic_stringIcNS_11char_traitsIcEENS_9allocatorIcEEEESA_NS_15insert_iteratorINS_6vectorIS9_NS7_IS9_EEEEEEEENS_4pairIT_T1_EESH_T0_SI_
FNA:3,0,_ZNKSt3__111__move_loopINS_17_ClassicAlgPolicyEEclB8ne180100IPNS_12basic_stringIcNS_11char_traitsIcEENS_9allocatorIcEEEESA_SA_EENS_4pairIT_T1_EESC_T0_SD_
FNF:4
FNH:3
DA:40,4364
DA:41,87029
DA:42,82665
DA:43,82665
DA:44,82665
DA:46,4364
DA:104,0
DA:105,0
DA:111,4364
DA:112,4364
DA:113,4364
DA:118,4364
DA:122,4364
LF:13
LH:11
end_of_record
TN:
SF:/Library/Developer/CommandLineTools/SDKs/MacOSX.sdk/usr/include/c++/v1/__algorithm/move_backward.h
FNL:0,113,114
FNA:0,0,_ZNKSt3__123__move_backward_trivialclB8ne180100IPN7testing9TestSuiteES4_Li0EEENS_4pairIPT_PT0_EES7_S7_S9_
FNA:0,0,_ZNKSt3__123__move_backward_trivialclB8ne180100IPcS2_Li0EEENS_4pairIPT_PT0_EES5_S5_S7_
FNL:1,120,126
FNA:1,0,_ZNSt3__115__move_backwardB8ne180100INS_17_ClassicAlgPolicyEPNS_12basic_stringIcNS_11char_traitsIcEENS_9allocatorIcEEEES8_S8_EENS_4pairIT0_T2_EESA_T1_SB_
FNA:1,0,_ZNSt3__115__move_backwardB8ne180100INS_17_ClassicAlgPolicyEPPN7testing9TestSuiteES5_S5_EENS_4pairIT0_T2_EES7_T1_S8_
FNA:1,0,_ZNSt3__115__move_backwardB8ne180100INS_17_ClassicAlgPolicyEPPcS3_S3_EENS_4pairIT0_T2_EES5_T1_S6_
FNL:2,131,132
FNA:2,0,_ZNSt3__113move_backwardB8ne180100IPNS_12basic_stringIcNS_11char_traitsIcEENS_9allocatorIcEEEES7_EET0_T_S9_S8_
FNA:2,0,_ZNSt3__113move_backwardB8ne180100IPPN7testing9TestSuiteES4_EET0_T_S6_S5_
FNA:2,0,_ZNSt3__113move_backwardB8ne180100IPPcS2_EET0_T_S4_S3_
FNL:3,39,47
FNA:3,0,_ZNKSt3__120__move_backward_loopINS_17_ClassicAlgPolicyEEclB8ne180100IPNS_12basic_stringIcNS_11char_traitsIcEENS_9allocatorIcEEEESA_SA_EENS_4pairIT_T1_EESC_T0_SD_
FNF:4
FNH:0
DA:39,0
DA:40,0
DA:41,0
DA:43,0
DA:44,0
DA:47,0
DA:113,0
DA:114,0
DA:120,0
DA:125,0
DA:126,0
DA:131,0
DA:132,0
LF:13
LH:0
end_of_record
TN:
SF:/Library/Developer/CommandLineTools/SDKs/MacOSX.sdk/usr/include/c++/v1/__algorithm/partial_sort.h
FNL:0,35,54
FNA:0,0,_ZNSt3__119__partial_sort_implB8ne180100INS_17_ClassicAlgPolicyERZN7pyfolio10TimeSeriesIdE22sort_by_time_optimizedEvEUlRKT_RKT0_E_PNS_4pairINS2_8DateTimeEdEESG_EET1_SH_SH_T2_OS8_
FNL:1,58,70
FNA:1,0,_ZNSt3__114__partial_sortB8ne180100INS_17_ClassicAlgPolicyERZN7pyfolio10TimeSeriesIdE22sort_by_time_optimizedEvEUlRKT_RKT0_E_PNS_4pairINS2_8DateTimeEdEESG_EET1_SH_SH_T2_RS8_
FNF:2
FNH:0
DA:35,0
DA:37,0
DA:38,0
DA:41,0
DA:43,0
DA:44,0
DA:45,0
DA:46,0
DA:47,0
DA:48,0
DA:49,0
DA:50,0
DA:51,0
DA:53,0
DA:54,0
DA:58,0
DA:59,0
DA:60,0
DA:62,0
DA:64,0
DA:65,0
DA:67,0
DA:69,0
DA:70,0
LF:24
LH:0
end_of_record
TN:
SF:/Library/Developer/CommandLineTools/SDKs/MacOSX.sdk/usr/include/c++/v1/__algorithm/partition.h
FNL:0,50,69
FNA:0,35,_ZNSt3__116__partition_implB8ne180100IRPFbRKNS_12basic_stringIcNS_11char_traitsIcEENS_9allocatorIcEEEEENS_17_ClassicAlgPolicyENS_11__wrap_iterIPS6_EESF_EENS_4pairIT1_SH_EESH_T2_T_NS_26bidirectional_iterator_tagE
FNL:1,73,75
FNA:1,35,_ZNSt3__111__partitionB8ne180100INS_17_ClassicAlgPolicyENS_11__wrap_iterIPNS_12basic_stringIcNS_11char_traitsIcEENS_9allocatorIcEEEEEESA_RPFbRKS8_ENS_26random_access_iterator_tagEEENS_4pairIT0_SI_EESI_T1_OT2_T3_
FNL:2,80,83
FNA:2,35,_ZNSt3__19partitionB8ne180100INS_11__wrap_iterIPNS_12basic_stringIcNS_11char_traitsIcEENS_9allocatorIcEEEEEEPFbRKS7_EEET_SE_SE_T0_
FNF:3
FNH:3
DA:50,35
DA:51,35
DA:52,35
DA:54,35
DA:55,93
DA:56,93
DA:57,35
DA:58,58
DA:59,0
DA:60,58
DA:62,0
DA:63,0
DA:64,0
DA:65,0
DA:66,0
DA:67,0
DA:69,35
DA:73,35
DA:74,35
DA:75,35
DA:80,35
DA:82,35
DA:83,35
LF:23
LH:16
end_of_record
TN:
SF:/Library/Developer/CommandLineTools/SDKs/MacOSX.sdk/usr/include/c++/v1/__algorithm/pop_heap.h
FNL:0,35,59
FNA:0,0,_ZNSt3__110__pop_heapB8ne180100INS_17_ClassicAlgPolicyEZN7pyfolio10TimeSeriesIdE22sort_by_time_optimizedEvEUlRKT_RKT0_E_PNS_4pairINS2_8DateTimeEdEEEEvT1_SG_RS8_NS_15iterator_traitsISG_E15difference_typeE
FNF:1
FNH:0
DA:35,0
DA:42,0
DA:45,0
DA:46,0
DA:47,0
DA:48,0
DA:50,0
DA:51,0
DA:52,0
DA:53,0
DA:54,0
DA:55,0
DA:56,0
DA:58,0
DA:59,0
LF:15
LH:0
end_of_record
TN:
SF:/Library/Developer/CommandLineTools/SDKs/MacOSX.sdk/usr/include/c++/v1/__algorithm/push_heap.h
FNL:0,32,56
FNA:0,0,_ZNSt3__19__sift_upB8ne180100INS_17_ClassicAlgPolicyERZN7pyfolio10TimeSeriesIdE22sort_by_time_optimizedEvEUlRKT_RKT0_E_PNS_4pairINS2_8DateTimeEdEEEEvT1_SH_OS8_NS_15iterator_traitsISH_E15difference_typeE
FNF:1
FNH:0
DA:32,0
DA:38,0
DA:39,0
DA:40,0
DA:42,0
DA:43,0
DA:44,0
DA:45,0
DA:46,0
DA:47,0
DA:48,0
DA:49,0
DA:50,0
DA:51,0
DA:53,0
DA:54,0
DA:55,0
DA:56,0
LF:18
LH:0
end_of_record
TN:
SF:/Library/Developer/CommandLineTools/SDKs/MacOSX.sdk/usr/include/c++/v1/__algorithm/reverse.h
FNL:0,40,44
FNA:0,0,_ZNSt3__114__reverse_implB8ne180100INS_17_ClassicAlgPolicyENS_11__wrap_iterIPN7testing8internal13edit_distance8EditTypeEEEEEvT0_S9_NS_26random_access_iterator_tagE
FNL:1,47,50
FNA:1,0,_ZNSt3__19__reverseB8ne180100INS_17_ClassicAlgPolicyENS_11__wrap_iterIPN7testing8internal13edit_distance8EditTypeEEES8_EEvT0_T1_
FNL:2,54,56
FNA:2,0,_ZNSt3__17reverseB8ne180100INS_11__wrap_iterIPN7testing8internal13edit_distance8EditTypeEEEEEvT_S8_
FNF:3
FNH:0
DA:40,0
DA:41,0
DA:42,0
DA:43,0
DA:44,0
DA:47,0
DA:49,0
DA:50,0
DA:54,0
DA:55,0
DA:56,0
LF:11
LH:0
end_of_record
TN:
SF:/Library/Developer/CommandLineTools/SDKs/MacOSX.sdk/usr/include/c++/v1/__algorithm/sift_down.h
FNL:0,29,80
FNA:0,0,_ZNSt3__111__sift_downB8ne180100INS_17_ClassicAlgPolicyERZN7pyfolio10TimeSeriesIdE22sort_by_time_optimizedEvEUlRKT_RKT0_E_PNS_4pairINS2_8DateTimeEdEEEEvT1_OS8_NS_15iterator_traitsISH_E15difference_typeESH_
FNL:1,83,110
FNA:1,0,_ZNSt3__117__floyd_sift_downB8ne180100INS_17_ClassicAlgPolicyERZN7pyfolio10TimeSeriesIdE22sort_by_time_optimizedEvEUlRKT_RKT0_E_PNS_4pairINS2_8DateTimeEdEEEET1_SH_OS8_NS_15iterator_traitsISH_E15difference_typeE
FNF:2
FNH:0
DA:29,0
DA:39,0
DA:41,0
DA:42,0
DA:44,0
DA:45,0
DA:47,0
DA:49,0
DA:50,0
DA:51,0
DA:54,0
DA:56,0
DA:58,0
DA:59,0
DA:61,0
DA:62,0
DA:64,0
DA:65,0
DA:68,0
DA:69,0
DA:71,0
DA:73,0
DA:74,0
DA:75,0
DA:78,0
DA:79,0
DA:80,0
DA:83,0
DA:90,0
DA:91,0
DA:92,0
DA:94,0
DA:95,0
DA:96,0
DA:98,0
DA:100,0
DA:101,0
DA:102,0
DA:105,0
DA:106,0
DA:109,0
DA:110,0
LF:42
LH:0
end_of_record
TN:
SF:/Library/Developer/CommandLineTools/SDKs/MacOSX.sdk/usr/include/c++/v1/__algorithm/sort.h
FNL:0,1003,1005
FNA:0,0,_ZNSt3__14sortB8ne180100INS_11__wrap_iterIPNS_4pairIN7pyfolio8DateTimeEdEEEEZNS3_10TimeSeriesIdE22sort_by_time_optimizedEvEUlRKT_RKT0_E_EEvSA_SA_SD_
FNA:0,23,_ZNSt3__14sortB8ne180100INS_11__wrap_iterIPdEENS_6__lessIvvEEEEvT_S6_T0_
FNL:1,1009,1011
FNA:1,23,_ZNSt3__14sortB8ne180100INS_11__wrap_iterIPdEEEEvT_S4_
FNL:2,107,128
FNA:2,0,_ZNSt3__17__sort5B8ne180100INS_17_ClassicAlgPolicyERZN7pyfolio10TimeSeriesIdE22sort_by_time_optimizedEvEUlRKT_RKT0_E_PNS_4pairINS2_8DateTimeEdEEEEvT1_SH_SH_SH_SH_S8_
FNL:3,199,202
FNA:3,0,_ZNSt3__124__sort3_maybe_branchlessB8ne180100INS_17_ClassicAlgPolicyERZN7pyfolio10TimeSeriesIdE22sort_by_time_optimizedEvEUlRKT_RKT0_E_PNS_4pairINS2_8DateTimeEdEELi0EEEvT1_SH_SH_S8_
FNL:4,225,232
FNA:4,0,_ZNSt3__124__sort4_maybe_branchlessB8ne180100INS_17_ClassicAlgPolicyERZN7pyfolio10TimeSeriesIdE22sort_by_time_optimizedEvEUlRKT_RKT0_E_PNS_4pairINS2_8DateTimeEdEELi0EEEvT1_SH_SH_SH_S8_
FNL:5,257,266
FNA:5,0,_ZNSt3__124__sort5_maybe_branchlessB8ne180100INS_17_ClassicAlgPolicyERZN7pyfolio10TimeSeriesIdE22sort_by_time_optimizedEvEUlRKT_RKT0_E_PNS_4pairINS2_8DateTimeEdEELi0EEEvT1_SH_SH_SH_SH_S8_
FNL:6,284,305
FNA:6,0,_ZNSt3__116__insertion_sortB8ne180100INS_17_ClassicAlgPolicyERZN7pyfolio10TimeSeriesIdE22sort_by_time_optimizedEvEUlRKT_RKT0_E_PNS_4pairINS2_8DateTimeEdEEEEvT1_SH_S8_
FNL:7,314,338
FNA:7,0,_ZNSt3__126__insertion_sort_unguardedB8ne180100INS_17_ClassicAlgPolicyERZN7pyfolio10TimeSeriesIdE22sort_by_time_optimizedEvEUlRKT_RKT0_E_PNS_4pairINS2_8DateTimeEdEEEEvT1_SH_S8_
FNL:8,342,392
FNA:8,0,_ZNSt3__127__insertion_sort_incompleteB8ne180100INS_17_ClassicAlgPolicyERZN7pyfolio10TimeSeriesIdE22sort_by_time_optimizedEvEUlRKT_RKT0_E_PNS_4pairINS2_8DateTimeEdEEEEbT1_SH_S8_
FNL:9,395,408
FNA:9,0,_ZNSt3__117__swap_bitmap_posB8ne180100INS_17_ClassicAlgPolicyEPNS_4pairIN7pyfolio8DateTimeEdEEEEvT0_S7_RyS8_
FNL:10,414,424
FNA:10,0,_ZNSt3__122__populate_left_bitsetB8ne180100IRZN7pyfolio10TimeSeriesIdE22sort_by_time_optimizedEvEUlRKT_RKT0_E_PNS_4pairINS1_8DateTimeEdEESE_EEvS7_S4_RT1_Ry
FNL:11,430,440
FNA:11,0,_ZNSt3__123__populate_right_bitsetB8ne180100IRZN7pyfolio10TimeSeriesIdE22sort_by_time_optimizedEvEUlRKT_RKT0_E_PNS_4pairINS1_8DateTimeEdEESE_EEvS7_S4_RT1_Ry
FNL:12,446,490
FNA:12,0,_ZNSt3__133__bitset_partition_partial_blocksB8ne180100INS_17_ClassicAlgPolicyERZN7pyfolio10TimeSeriesIdE22sort_by_time_optimizedEvEUlRKT_RKT0_E_PNS_4pairINS2_8DateTimeEdEESF_EEvRT1_SI_S8_RT2_RySL_
FNL:13,493,523
FNA:13,0,_ZNSt3__124__swap_bitmap_pos_withinB8ne180100INS_17_ClassicAlgPolicyEPNS_4pairIN7pyfolio8DateTimeEdEEEEvRT0_S8_RyS9_
FNL:14,51,83
FNA:14,0,_ZNSt3__17__sort3B8ne180100INS_17_ClassicAlgPolicyERZN7pyfolio10TimeSeriesIdE22sort_by_time_optimizedEvEUlRKT_RKT0_E_PNS_4pairINS2_8DateTimeEdEEEEjT1_SH_SH_S8_
FNL:15,535,617
FNA:15,0,_ZNSt3__118__bitset_partitionB8ne180100INS_17_ClassicAlgPolicyEPNS_4pairIN7pyfolio8DateTimeEdEERZNS3_10TimeSeriesIdE22sort_by_time_optimizedEvEUlRKT_RKT0_E_EENS2_ISC_bEESC_SC_T1_
FNL:16,627,688
FNA:16,0,_ZNSt3__132__partition_with_equals_on_rightB8ne180100INS_17_ClassicAlgPolicyEPNS_4pairIN7pyfolio8DateTimeEdEERZNS3_10TimeSeriesIdE22sort_by_time_optimizedEvEUlRKT_RKT0_E_EENS2_ISC_bEESC_SC_T1_
FNL:17,695,747
FNA:17,0,_ZNSt3__131__partition_with_equals_on_leftB8ne180100INS_17_ClassicAlgPolicyEPNS_4pairIN7pyfolio8DateTimeEdEERZNS3_10TimeSeriesIdE22sort_by_time_optimizedEvEUlRKT_RKT0_E_EESC_SC_SC_T1_
FNL:18,758,870
FNA:18,0,_ZNSt3__111__introsortINS_17_ClassicAlgPolicyERZN7pyfolio10TimeSeriesIdE22sort_by_time_optimizedEvEUlRKT_RKT0_E_PNS_4pairINS2_8DateTimeEdEELb0EEEvT1_SH_S8_NS_15iterator_traitsISH_E15difference_typeEb
FNL:19,873,889
FNA:19,0,_ZNSt3__17__log2iB8ne180100IlEET_S1_
FNL:20,89,101
FNA:20,0,_ZNSt3__17__sort4B8ne180100INS_17_ClassicAlgPolicyERZN7pyfolio10TimeSeriesIdE22sort_by_time_optimizedEvEUlRKT_RKT0_E_PNS_4pairINS2_8DateTimeEdEEEEvT1_SH_SH_SH_S8_
FNL:21,922,933
FNA:21,0,_ZNSt3__115__sort_dispatchB8ne180100INS_17_ClassicAlgPolicyEPNS_4pairIN7pyfolio8DateTimeEdEEZNS3_10TimeSeriesIdE22sort_by_time_optimizedEvEUlRKT_RKT0_E_EEvSC_SC_RT1_
FNL:22,960,963
FNA:22,23,_ZNSt3__115__sort_dispatchB8ne180100INS_17_ClassicAlgPolicyEdLi0EEEvPT0_S3_RNS_6__lessIvvEE
FNL:23,989,999
FNA:23,0,_ZNSt3__111__sort_implB8ne180100INS_17_ClassicAlgPolicyENS_11__wrap_iterIPNS_4pairIN7pyfolio8DateTimeEdEEEEZNS4_10TimeSeriesIdE22sort_by_time_optimizedEvEUlRKT_RKT0_E_EEvSE_SE_RT1_
FNA:23,23,_ZNSt3__111__sort_implB8ne180100INS_17_ClassicAlgPolicyENS_11__wrap_iterIPdEENS_6__lessIvvEEEEvT0_S7_RT1_
FNF:24
FNH:4
DA:51,0
DA:54,0
DA:55,0
DA:57,0
DA:58,0
DA:60,0
DA:61,0
DA:62,0
DA:64,0
DA:65,0
DA:66,0
DA:67,0
DA:69,0
DA:71,0
DA:72,0
DA:73,0
DA:75,0
DA:76,0
DA:77,0
DA:79,0
DA:80,0
DA:81,0
DA:82,0
DA:83,0
DA:89,0
DA:91,0
DA:92,0
DA:93,0
DA:94,0
DA:95,0
DA:96,0
DA:97,0
DA:98,0
DA:99,0
DA:100,0
DA:101,0
DA:107,0
DA:115,0
DA:116,0
DA:117,0
DA:118,0
DA:119,0
DA:120,0
DA:121,0
DA:122,0
DA:123,0
DA:124,0
DA:125,0
DA:126,0
DA:127,0
DA:128,0
DA:199,0
DA:201,0
DA:202,0
DA:225,0
DA:231,0
DA:232,0
DA:257,0
DA:264,0
DA:265,0
DA:266,0
DA:284,0
DA:288,0
DA:289,0
DA:290,0
DA:291,0
DA:292,0
DA:293,0
DA:294,0
DA:295,0
DA:296,0
DA:297,0
DA:298,0
DA:299,0
DA:300,0
DA:301,0
DA:302,0
DA:303,0
DA:304,0
DA:305,0
DA:314,0
DA:318,0
DA:319,0
DA:320,0
DA:322,0
DA:323,0
DA:324,0
DA:325,0
DA:326,0
DA:327,0
DA:328,0
DA:329,0
DA:330,0
DA:334,0
DA:335,0
DA:336,0
DA:337,0
DA:338,0
DA:342,0
DA:346,0
DA:349,0
DA:351,0
DA:352,0
DA:353,0
DA:355,0
DA:356,0
DA:358,0
DA:359,0
DA:360,0
DA:362,0
DA:363,0
DA:364,0
DA:365,0
DA:366,0
DA:367,0
DA:368,0
DA:369,0
DA:372,0
DA:373,0
DA:374,0
DA:375,0
DA:376,0
DA:377,0
DA:378,0
DA:379,0
DA:380,0
DA:381,0
DA:382,0
DA:383,0
DA:384,0
DA:385,0
DA:386,0
DA:387,0
DA:388,0
DA:389,0
DA:390,0
DA:391,0
DA:392,0
DA:395,0
DA:401,0
DA:402,0
DA:403,0
DA:404,0
DA:405,0
DA:406,0
DA:408,0
DA:414,0
DA:417,0
DA:418,0
DA:419,0
DA:420,0
DA:421,0
DA:422,0
DA:424,0
DA:430,0
DA:433,0
DA:434,0
DA:435,0
DA:436,0
DA:437,0
DA:438,0
DA:440,0
DA:446,0
DA:454,0
DA:457,0
DA:458,0
DA:459,0
DA:460,0
DA:462,0
DA:463,0
DA:464,0
DA:465,0
DA:466,0
DA:469,0
DA:470,0
DA:471,0
DA:472,0
DA:473,0
DA:474,0
DA:475,0
DA:476,0
DA:479,0
DA:480,0
DA:481,0
DA:482,0
DA:483,0
DA:484,0
DA:485,0
DA:486,0
DA:487,0
DA:488,0
DA:489,0
DA:490,0
DA:493,0
DA:497,0
DA:500,0
DA:501,0
DA:502,0
DA:503,0
DA:504,0
DA:505,0
DA:506,0
DA:507,0
DA:509,0
DA:510,0
DA:513,0
DA:514,0
DA:515,0
DA:516,0
DA:517,0
DA:518,0
DA:519,0
DA:520,0
DA:522,0
DA:523,0
DA:535,0
DA:540,0
DA:541,0
DA:544,0
DA:546,0
DA:548,0
DA:549,0
DA:553,0
DA:554,0
DA:555,0
DA:559,0
DA:562,0
DA:566,0
DA:567,0
DA:568,0
DA:573,0
DA:574,0
DA:575,0
DA:576,0
DA:577,0
DA:581,0
DA:582,0
DA:583,0
DA:586,0
DA:589,0
DA:590,0
DA:593,0
DA:594,0
DA:597,0
DA:600,0
DA:601,0
DA:605,0
DA:606,0
DA:609,0
DA:612,0
DA:613,0
DA:614,0
DA:615,0
DA:616,0
DA:617,0
DA:627,0
DA:632,0
DA:633,0
DA:635,0
DA:639,0
DA:640,0
DA:644,0
DA:647,0
DA:648,0
DA:650,0
DA:652,0
DA:656,0
DA:657,0
DA:663,0
DA:667,0
DA:668,0
DA:669,0
DA:670,0
DA:674,0
DA:675,0
DA:679,0
DA:680,0
DA:683,0
DA:684,0
DA:685,0
DA:686,0
DA:687,0
DA:688,0
DA:695,0
DA:700,0
DA:701,0
DA:703,0
DA:704,0
DA:706,0
DA:707,0
DA:711,0
DA:712,0
DA:713,0
DA:717,0
DA:720,0
DA:724,0
DA:725,0
DA:726,0
DA:727,0
DA:728,0
DA:729,0
DA:730,0
DA:734,0
DA:735,0
DA:739,0
DA:740,0
DA:742,0
DA:743,0
DA:744,0
DA:745,0
DA:746,0
DA:747,0
DA:758,0
DA:767,0
DA:769,0
DA:770,0
DA:771,0
DA:772,0
DA:775,0
DA:777,0
DA:778,0
DA:779,0
DA:781,0
DA:782,0
DA:784,0
DA:785,0
DA:786,0
DA:788,0
DA:789,0
DA:790,0
DA:791,0
DA:792,0
DA:793,0
DA:794,0
DA:795,0
DA:798,0
DA:799,0
DA:800,0
DA:801,0
DA:802,0
DA:804,0
DA:806,0
DA:808,0
DA:809,0
DA:811,0
DA:813,0
DA:816,0
DA:817,0
DA:818,0
DA:819,0
DA:820,0
DA:821,0
DA:822,0
DA:823,0
DA:824,0
DA:825,0
DA:826,0
DA:837,0
DA:838,0
DA:839,0
DA:840,0
DA:843,0
DA:844,0
DA:845,0
DA:846,0
DA:847,0
DA:850,0
DA:851,0
DA:852,0
DA:853,0
DA:854,0
DA:855,0
DA:856,0
DA:858,0
DA:859,0
DA:860,0
DA:863,0
DA:865,0
DA:866,0
DA:867,0
DA:868,0
DA:870,0
DA:873,0
DA:874,0
DA:875,0
DA:879,0
DA:889,0
DA:922,0
DA:924,0
DA:929,0
DA:932,0
DA:933,0
DA:960,23
DA:962,23
DA:963,23
DA:989,23
DA:990,23
DA:996,23
DA:998,23
DA:999,23
DA:1003,23
DA:1004,23
DA:1005,23
DA:1009,23
DA:1010,23
DA:1011,23
LF:406
LH:14
end_of_record
TN:
SF:/Library/Developer/CommandLineTools/SDKs/MacOSX.sdk/usr/include/c++/v1/__algorithm/sort_heap.h
FNL:0,34,42
FNA:0,0,_ZNSt3__111__sort_heapB8ne180100INS_17_ClassicAlgPolicyERZN7pyfolio10TimeSeriesIdE22sort_by_time_optimizedEvEUlRKT_RKT0_E_PNS_4pairINS2_8DateTimeEdEEEEvT1_SH_OS8_
FNF:1
FNH:0
DA:34,0
DA:35,0
DA:36,0
DA:39,0
DA:40,0
DA:41,0
DA:42,0
LF:7
LH:0
end_of_record
TN:
SF:/Library/Developer/CommandLineTools/SDKs/MacOSX.sdk/usr/include/c++/v1/__algorithm/unwrap_iter.h
FNL:0,39,39
FNA:0,35,_ZNSt3__118__unwrap_iter_implINS_15insert_iteratorINS_13unordered_setINS_12basic_stringIcNS_11char_traitsIcEENS_9allocatorIcEEEENS_4hashIS8_EENS_8equal_toIS8_EENS6_IS8_EEEEEELb0EE8__rewrapB8ne180100ESF_SF_
FNA:0,35,_ZNSt3__118__unwrap_iter_implINS_15insert_iteratorINS_6vectorINS_12basic_stringIcNS_11char_traitsIcEENS_9allocatorIcEEEENS6_IS8_EEEEEELb0EE8__rewrapB8ne180100ESB_SB_
FNA:0,1860,_ZNSt3__118__unwrap_iter_implINS_16reverse_iteratorIPN7pyfolio8DateTimeEEELb0EE8__rewrapB8ne180100ES5_S5_
FNA:0,0,_ZNSt3__118__unwrap_iter_implINS_16reverse_iteratorIPN7testing8internal13edit_distance8EditTypeEEELb0EE8__rewrapB8ne180100ES7_S7_
FNA:0,0,_ZNSt3__118__unwrap_iter_implINS_16reverse_iteratorIPPN7testing11EnvironmentEEELb0EE8__rewrapB8ne180100ES6_S6_
FNA:0,24,_ZNSt3__118__unwrap_iter_implINS_16reverse_iteratorIPPN7testing17TestEventListenerEEELb0EE8__rewrapB8ne180100ES6_S6_
FNA:0,108,_ZNSt3__118__unwrap_iter_implINS_16reverse_iteratorIPPN7testing8TestInfoEEELb0EE8__rewrapB8ne180100ES6_S6_
FNA:0,22,_ZNSt3__118__unwrap_iter_implINS_16reverse_iteratorIPPN7testing9TestSuiteEEELb0EE8__rewrapB8ne180100ES6_S6_
FNA:0,0,_ZNSt3__118__unwrap_iter_implINS_16reverse_iteratorIPPcEELb0EE8__rewrapB8ne180100ES4_S4_
FNA:0,4738,_ZNSt3__118__unwrap_iter_implINS_16reverse_iteratorIPdEELb0EE8__rewrapB8ne180100ES3_S3_
FNA:0,130,_ZNSt3__118__unwrap_iter_implINS_16reverse_iteratorIPiEELb0EE8__rewrapB8ne180100ES3_S3_
FNA:0,0,_ZNSt3__118__unwrap_iter_implINS_16reverse_iteratorIPmEELb0EE8__rewrapB8ne180100ES3_S3_
FNA:0,853,_ZNSt3__118__unwrap_iter_implINS_20back_insert_iteratorINS_6vectorIN8nlohmann16json_abi_v3_11_310basic_jsonINS_3mapES2_NS_12basic_stringIcNS_11char_traitsIcEENS_9allocatorIcEEEEbxydSA_NS4_14adl_serializerENS2_IhNSA_IhEEEEvEENSA_ISG_EEEEEELb0EE8__rewrapB8ne180100ESJ_SJ_
FNL:1,40,40
FNA:1,35,_ZNSt3__118__unwrap_iter_implINS_15insert_iteratorINS_13unordered_setINS_12basic_stringIcNS_11char_traitsIcEENS_9allocatorIcEEEENS_4hashIS8_EENS_8equal_toIS8_EENS6_IS8_EEEEEELb0EE8__unwrapB8ne180100ESF_
FNA:1,35,_ZNSt3__118__unwrap_iter_implINS_15insert_iteratorINS_6vectorINS_12basic_stringIcNS_11char_traitsIcEENS_9allocatorIcEEEENS6_IS8_EEEEEELb0EE8__unwrapB8ne180100ESB_
FNA:1,2790,_ZNSt3__118__unwrap_iter_implINS_16reverse_iteratorIPN7pyfolio8DateTimeEEELb0EE8__unwrapB8ne180100ES5_
FNA:1,0,_ZNSt3__118__unwrap_iter_implINS_16reverse_iteratorIPN7testing8internal13edit_distance8EditTypeEEELb0EE8__unwrapB8ne180100ES7_
FNA:1,0,_ZNSt3__118__unwrap_iter_implINS_16reverse_iteratorIPPN7testing11EnvironmentEEELb0EE8__unwrapB8ne180100ES6_
FNA:1,36,_ZNSt3__118__unwrap_iter_implINS_16reverse_iteratorIPPN7testing17TestEventListenerEEELb0EE8__unwrapB8ne180100ES6_
FNA:1,162,_ZNSt3__118__unwrap_iter_implINS_16reverse_iteratorIPPN7testing8TestInfoEEELb0EE8__unwrapB8ne180100ES6_
FNA:1,33,_ZNSt3__118__unwrap_iter_implINS_16reverse_iteratorIPPN7testing9TestSuiteEEELb0EE8__unwrapB8ne180100ES6_
FNA:1,0,_ZNSt3__118__unwrap_iter_implINS_16reverse_iteratorIPPcEELb0EE8__unwrapB8ne180100ES4_
FNA:1,7107,_ZNSt3__118__unwrap_iter_implINS_16reverse_iteratorIPdEELb0EE8__unwrapB8ne180100ES3_
FNA:1,195,_ZNSt3__118__unwrap_iter_implINS_16reverse_iteratorIPiEELb0EE8__unwrapB8ne180100ES3_
FNA:1,0,_ZNSt3__118__unwrap_iter_implINS_16reverse_iteratorIPmEELb0EE8__unwrapB8ne180100ES3_
FNA:1,853,_ZNSt3__118__unwrap_iter_implINS_20back_insert_iteratorINS_6vectorIN8nlohmann16json_abi_v3_11_310basic_jsonINS_3mapES2_NS_12basic_stringIcNS_11char_traitsIcEENS_9allocatorIcEEEEbxydSA_NS4_14adl_serializerENS2_IhNSA_IhEEEEvEENSA_ISG_EEEEEELb0EE8__unwrapB8ne180100ESJ_
FNL:2,51,52
FNA:2,0,_ZNSt3__118__unwrap_iter_implINS_11__wrap_iterIPKN7pyfolio8DateTimeEEELb1EE8__rewrapB8ne180100ES6_S5_
FNA:2,0,_ZNSt3__118__unwrap_iter_implINS_11__wrap_iterIPKNS_12basic_stringIcNS_11char_traitsIcEENS_9allocatorIcEEEEEELb1EE8__rewrapB8ne180100ESA_S9_
FNA:2,853,_ZNSt3__118__unwrap_iter_implINS_11__wrap_iterIPN8nlohmann16json_abi_v3_11_310basic_jsonINS_3mapENS_6vectorENS_12basic_stringIcNS_11char_traitsIcEENS_9allocatorIcEEEEbxydSA_NS3_14adl_serializerENS6_IhNSA_IhEEEEvEEEELb1EE8__rewrapB8ne180100ESI_SH_
FNA:2,70,_ZNSt3__118__unwrap_iter_implINS_11__wrap_iterIPNS_12basic_stringIcNS_11char_traitsIcEENS_9allocatorIcEEEEEELb1EE8__rewrapB8ne180100ES9_S8_
FNA:2,18,_ZNSt3__118__unwrap_iter_implIPKN7pyfolio8DateTimeELb1EE8__rewrapB8ne180100ES4_S4_
FNA:2,0,_ZNSt3__118__unwrap_iter_implIPKNS_12basic_stringIcNS_11char_traitsIcEENS_9allocatorIcEEEELb1EE8__rewrapB8ne180100ES8_S8_
FNA:2,438,_ZNSt3__118__unwrap_iter_implIPKcLb1EE8__rewrapB8ne180100ES2_S2_
FNA:2,70,_ZNSt3__118__unwrap_iter_implIPKdLb1EE8__rewrapB8ne180100ES2_S2_
FNA:2,1,_ZNSt3__118__unwrap_iter_implIPKmLb1EE8__rewrapB8ne180100ES2_S2_
FNA:2,4,_ZNSt3__118__unwrap_iter_implIPN7pyfolio10TimeSeriesIdEELb1EE8__rewrapB8ne180100ES4_S4_
FNA:2,4,_ZNSt3__118__unwrap_iter_implIPN7pyfolio11attribution17SectorAttributionELb1EE8__rewrapB8ne180100ES4_S4_
FNA:2,3,_ZNSt3__118__unwrap_iter_implIPN7pyfolio13visualization8PlotDataELb1EE8__rewrapB8ne180100ES4_S4_
FNA:2,448,_ZNSt3__118__unwrap_iter_implIPN7pyfolio8DateTimeELb1EE8__rewrapB8ne180100ES3_S3_
FNA:2,0,_ZNSt3__118__unwrap_iter_implIPN7testing8internal13edit_distance8EditTypeELb1EE8__rewrapB8ne180100ES5_S5_
FNA:2,698,_ZNSt3__118__unwrap_iter_implIPN8nlohmann16json_abi_v3_11_310basic_jsonINS_3mapENS_6vectorENS_12basic_stringIcNS_11char_traitsIcEENS_9allocatorIcEEEEbxydS9_NS2_14adl_serializerENS5_IhNS9_IhEEEEvEELb1EE8__rewrapB8ne180100ESG_SG_
FNA:2,80,_ZNSt3__118__unwrap_iter_implIPNS_12basic_stringIcNS_11char_traitsIcEENS_9allocatorIcEEEELb1EE8__rewrapB8ne180100ES7_S7_
FNA:2,2,_ZNSt3__118__unwrap_iter_implIPNS_6vectorIdNS_9allocatorIdEEEELb1EE8__rewrapB8ne180100ES5_S5_
FNA:2,0,_ZNSt3__118__unwrap_iter_implIPPN7testing17TestEventListenerELb1EE8__rewrapB8ne180100ES4_S4_
FNA:2,0,_ZNSt3__118__unwrap_iter_implIPPN7testing9TestSuiteELb1EE8__rewrapB8ne180100ES4_S4_
FNA:2,0,_ZNSt3__118__unwrap_iter_implIPPcLb1EE8__rewrapB8ne180100ES2_S2_
FNA:2,438,_ZNSt3__118__unwrap_iter_implIPcLb1EE8__rewrapB8ne180100ES1_S1_
FNA:2,658,_ZNSt3__118__unwrap_iter_implIPdLb1EE8__rewrapB8ne180100ES1_S1_
FNA:2,0,_ZNSt3__118__unwrap_iter_implIPhLb1EE8__rewrapB8ne180100ES1_S1_
FNA:2,2,_ZNSt3__118__unwrap_iter_implIPmLb1EE8__rewrapB8ne180100ES1_S1_
FNL:3,55,56
FNA:3,0,_ZNSt3__118__unwrap_iter_implINS_11__wrap_iterIPKN7pyfolio8DateTimeEEELb1EE8__unwrapB8ne180100ES6_
FNA:3,18,_ZNSt3__118__unwrap_iter_implINS_11__wrap_iterIPKNS_12basic_stringIcNS_11char_traitsIcEENS_9allocatorIcEEEEEELb1EE8__unwrapB8ne180100ESA_
FNA:3,6,_ZNSt3__118__unwrap_iter_implINS_11__wrap_iterIPKNS_6vectorIdNS_9allocatorIdEEEEEELb1EE8__unwrapB8ne180100ES8_
FNA:3,84,_ZNSt3__118__unwrap_iter_implINS_11__wrap_iterIPKdEELb1EE8__unwrapB8ne180100ES4_
FNA:3,1706,_ZNSt3__118__unwrap_iter_implINS_11__wrap_iterIPN8nlohmann16json_abi_v3_11_310basic_jsonINS_3mapENS_6vectorENS_12basic_stringIcNS_11char_traitsIcEENS_9allocatorIcEEEEbxydSA_NS3_14adl_serializerENS6_IhNSA_IhEEEEvEEEELb1EE8__unwrapB8ne180100ESI_
FNA:3,140,_ZNSt3__118__unwrap_iter_implINS_11__wrap_iterIPNS_12basic_stringIcNS_11char_traitsIcEENS_9allocatorIcEEEEEELb1EE8__unwrapB8ne180100ES9_
FNA:3,0,_ZNSt3__118__unwrap_iter_implINS_11__wrap_iterIPNS_4pairIN7pyfolio8DateTimeEdEEEELb1EE8__unwrapB8ne180100ES7_
FNA:3,92,_ZNSt3__118__unwrap_iter_implINS_11__wrap_iterIPdEELb1EE8__unwrapB8ne180100ES3_
FNA:3,8,_ZNSt3__118__unwrap_iter_implIPKN7pyfolio10TimeSeriesIdEELb1EE8__unwrapB8ne180100ES5_
FNA:3,6,_ZNSt3__118__unwrap_iter_implIPKN7pyfolio13visualization8PlotDataELb1EE8__unwrapB8ne180100ES5_
FNA:3,72,_ZNSt3__118__unwrap_iter_implIPKN7pyfolio8DateTimeELb1EE8__unwrapB8ne180100ES4_
FNA:3,1234,_ZNSt3__118__unwrap_iter_implIPKN8nlohmann16json_abi_v3_11_36detail8json_refINS2_10basic_jsonINS_3mapENS_6vectorENS_12basic_stringIcNS_11char_traitsIcEENS_9allocatorIcEEEEbxydSB_NS2_14adl_serializerENS7_IhNSB_IhEEEEvEEEELb1EE8__unwrapB8ne180100ESK_
FNA:3,116,_ZNSt3__118__unwrap_iter_implIPKNS_12basic_stringIcNS_11char_traitsIcEENS_9allocatorIcEEEELb1EE8__unwrapB8ne180100ES8_
FNA:3,4,_ZNSt3__118__unwrap_iter_implIPKNS_6vectorIdNS_9allocatorIdEEEELb1EE8__unwrapB8ne180100ES6_
FNA:3,0,_ZNSt3__118__unwrap_iter_implIPKPKcLb1EE8__unwrapB8ne180100ES4_
FNA:3,876,_ZNSt3__118__unwrap_iter_implIPKcLb1EE8__unwrapB8ne180100ES2_
FNA:3,238,_ZNSt3__118__unwrap_iter_implIPKdLb1EE8__unwrapB8ne180100ES2_
FNA:3,4,_ZNSt3__118__unwrap_iter_implIPKmLb1EE8__unwrapB8ne180100ES2_
FNA:3,4,_ZNSt3__118__unwrap_iter_implIPN7pyfolio10TimeSeriesIdEELb1EE8__unwrapB8ne180100ES4_
FNA:3,12,_ZNSt3__118__unwrap_iter_implIPN7pyfolio11attribution17SectorAttributionELb1EE8__unwrapB8ne180100ES4_
FNA:3,3,_ZNSt3__118__unwrap_iter_implIPN7pyfolio13visualization8PlotDataELb1EE8__unwrapB8ne180100ES4_
FNA:3,858,_ZNSt3__118__unwrap_iter_implIPN7pyfolio8DateTimeELb1EE8__unwrapB8ne180100ES3_
FNA:3,0,_ZNSt3__118__unwrap_iter_implIPN7testing8internal13edit_distance8EditTypeELb1EE8__unwrapB8ne180100ES5_
FNA:3,794,_ZNSt3__118__unwrap_iter_implIPN8nlohmann16json_abi_v3_11_310basic_jsonINS_3mapENS_6vectorENS_12basic_stringIcNS_11char_traitsIcEENS_9allocatorIcEEEEbxydS9_NS2_14adl_serializerENS5_IhNS9_IhEEEEvEELb1EE8__unwrapB8ne180100ESG_
FNA:3,124,_ZNSt3__118__unwrap_iter_implIPNS_12basic_stringIcNS_11char_traitsIcEENS_9allocatorIcEEEELb1EE8__unwrapB8ne180100ES7_
FNA:3,2,_ZNSt3__118__unwrap_iter_implIPNS_6vectorIdNS_9allocatorIdEEEELb1EE8__unwrapB8ne180100ES5_
FNA:3,0,_ZNSt3__118__unwrap_iter_implIPPN7testing17TestEventListenerELb1EE8__unwrapB8ne180100ES4_
FNA:3,0,_ZNSt3__118__unwrap_iter_implIPPN7testing9TestSuiteELb1EE8__unwrapB8ne180100ES4_
FNA:3,0,_ZNSt3__118__unwrap_iter_implIPPcLb1EE8__unwrapB8ne180100ES2_
FNA:3,438,_ZNSt3__118__unwrap_iter_implIPcLb1EE8__unwrapB8ne180100ES1_
FNA:3,1175,_ZNSt3__118__unwrap_iter_implIPdLb1EE8__unwrapB8ne180100ES1_
FNA:3,0,_ZNSt3__118__unwrap_iter_implIPhLb1EE8__unwrapB8ne180100ES1_
FNA:3,2,_ZNSt3__118__unwrap_iter_implIPmLb1EE8__unwrapB8ne180100ES1_
FNL:4,64,65
FNA:4,0,_ZNSt3__113__unwrap_iterB8ne180100INS_11__wrap_iterIPKN7pyfolio8DateTimeEEENS_18__unwrap_iter_implIS6_Lb1EEELi0EEEDTclsrT0_8__unwrapclsr3stdE7declvalIT_EEEESA_
FNA:4,18,_ZNSt3__113__unwrap_iterB8ne180100INS_11__wrap_iterIPKNS_12basic_stringIcNS_11char_traitsIcEENS_9allocatorIcEEEEEENS_18__unwrap_iter_implISA_Lb1EEELi0EEEDTclsrT0_8__unwrapclsr3stdE7declvalIT_EEEESE_
FNA:4,6,_ZNSt3__113__unwrap_iterB8ne180100INS_11__wrap_iterIPKNS_6vectorIdNS_9allocatorIdEEEEEENS_18__unwrap_iter_implIS8_Lb1EEELi0EEEDTclsrT0_8__unwrapclsr3stdE7declvalIT_EEEESC_
FNA:4,84,_ZNSt3__113__unwrap_iterB8ne180100INS_11__wrap_iterIPKdEENS_18__unwrap_iter_implIS4_Lb1EEELi0EEEDTclsrT0_8__unwrapclsr3stdE7declvalIT_EEEES8_
FNA:4,1706,_ZNSt3__113__unwrap_iterB8ne180100INS_11__wrap_iterIPN8nlohmann16json_abi_v3_11_310basic_jsonINS_3mapENS_6vectorENS_12basic_stringIcNS_11char_traitsIcEENS_9allocatorIcEEEEbxydSA_NS3_14adl_serializerENS6_IhNSA_IhEEEEvEEEENS_18__unwrap_iter_implISI_Lb1EEELi0EEEDTclsrT0_8__unwrapclsr3stdE7declvalIT_EEEESM_
FNA:4,140,_ZNSt3__113__unwrap_iterB8ne180100INS_11__wrap_iterIPNS_12basic_stringIcNS_11char_traitsIcEENS_9allocatorIcEEEEEENS_18__unwrap_iter_implIS9_Lb1EEELi0EEEDTclsrT0_8__unwrapclsr3stdE7declvalIT_EEEESD_
FNA:4,0,_ZNSt3__113__unwrap_iterB8ne180100INS_11__wrap_iterIPNS_4pairIN7pyfolio8DateTimeEdEEEENS_18__unwrap_iter_implIS7_Lb1EEELi0EEEDTclsrT0_8__unwrapclsr3stdE7declvalIT_EEEESB_
FNA:4,92,_ZNSt3__113__unwrap_iterB8ne180100INS_11__wrap_iterIPdEENS_18__unwrap_iter_implIS3_Lb1EEELi0EEEDTclsrT0_8__unwrapclsr3stdE7declvalIT_EEEES7_
FNA:4,35,_ZNSt3__113__unwrap_iterB8ne180100INS_15insert_iteratorINS_13unordered_setINS_12basic_stringIcNS_11char_traitsIcEENS_9allocatorIcEEEENS_4hashIS8_EENS_8equal_toIS8_EENS6_IS8_EEEEEENS_18__unwrap_iter_implISF_Lb0EEELi0EEEDTclsrT0_8__unwrapclsr3stdE7declvalIT_EEEESJ_
FNA:4,35,_ZNSt3__113__unwrap_iterB8ne180100INS_15insert_iteratorINS_6vectorINS_12basic_stringIcNS_11char_traitsIcEENS_9allocatorIcEEEENS6_IS8_EEEEEENS_18__unwrap_iter_implISB_Lb0EEELi0EEEDTclsrT0_8__unwrapclsr3stdE7declvalIT_EEEESF_
FNA:4,2790,_ZNSt3__113__unwrap_iterB8ne180100INS_16reverse_iteratorIPN7pyfolio8DateTimeEEENS_18__unwrap_iter_implIS5_Lb0EEELi0EEEDTclsrT0_8__unwrapclsr3stdE7declvalIT_EEEES9_
FNA:4,0,_ZNSt3__113__unwrap_iterB8ne180100INS_16reverse_iteratorIPN7testing8internal13edit_distance8EditTypeEEENS_18__unwrap_iter_implIS7_Lb0EEELi0EEEDTclsrT0_8__unwrapclsr3stdE7declvalIT_EEEESB_
FNA:4,0,_ZNSt3__113__unwrap_iterB8ne180100INS_16reverse_iteratorIPPN7testing11EnvironmentEEENS_18__unwrap_iter_implIS6_Lb0EEELi0EEEDTclsrT0_8__unwrapclsr3stdE7declvalIT_EEEESA_
FNA:4,36,_ZNSt3__113__unwrap_iterB8ne180100INS_16reverse_iteratorIPPN7testing17TestEventListenerEEENS_18__unwrap_iter_implIS6_Lb0EEELi0EEEDTclsrT0_8__unwrapclsr3stdE7declvalIT_EEEESA_
FNA:4,162,_ZNSt3__113__unwrap_iterB8ne180100INS_16reverse_iteratorIPPN7testing8TestInfoEEENS_18__unwrap_iter_implIS6_Lb0EEELi0EEEDTclsrT0_8__unwrapclsr3stdE7declvalIT_EEEESA_
FNA:4,33,_ZNSt3__113__unwrap_iterB8ne180100INS_16reverse_iteratorIPPN7testing9TestSuiteEEENS_18__unwrap_iter_implIS6_Lb0EEELi0EEEDTclsrT0_8__unwrapclsr3stdE7declvalIT_EEEESA_
FNA:4,0,_ZNSt3__113__unwrap_iterB8ne180100INS_16reverse_iteratorIPPcEENS_18__unwrap_iter_implIS4_Lb0EEELi0EEEDTclsrT0_8__unwrapclsr3stdE7declvalIT_EEEES8_
FNA:4,7107,_ZNSt3__113__unwrap_iterB8ne180100INS_16reverse_iteratorIPdEENS_18__unwrap_iter_implIS3_Lb0EEELi0EEEDTclsrT0_8__unwrapclsr3stdE7declvalIT_EEEES7_
FNA:4,195,_ZNSt3__113__unwrap_iterB8ne180100INS_16reverse_iteratorIPiEENS_18__unwrap_iter_implIS3_Lb0EEELi0EEEDTclsrT0_8__unwrapclsr3stdE7declvalIT_EEEES7_
FNA:4,0,_ZNSt3__113__unwrap_iterB8ne180100INS_16reverse_iteratorIPmEENS_18__unwrap_iter_implIS3_Lb0EEELi0EEEDTclsrT0_8__unwrapclsr3stdE7declvalIT_EEEES7_
FNA:4,853,_ZNSt3__113__unwrap_iterB8ne180100INS_20back_insert_iteratorINS_6vectorIN8nlohmann16json_abi_v3_11_310basic_jsonINS_3mapES2_NS_12basic_stringIcNS_11char_traitsIcEENS_9allocatorIcEEEEbxydSA_NS4_14adl_serializerENS2_IhNSA_IhEEEEvEENSA_ISG_EEEEEENS_18__unwrap_iter_implISJ_Lb0EEELi0EEEDTclsrT0_8__unwrapclsr3stdE7declvalIT_EEEESN_
FNA:4,8,_ZNSt3__113__unwrap_iterB8ne180100IPKN7pyfolio10TimeSeriesIdEENS_18__unwrap_iter_implIS5_Lb1EEELi0EEEDTclsrT0_8__unwrapclsr3stdE7declvalIT_EEEES9_
FNA:4,6,_ZNSt3__113__unwrap_iterB8ne180100IPKN7pyfolio13visualization8PlotDataENS_18__unwrap_iter_implIS5_Lb1EEELi0EEEDTclsrT0_8__unwrapclsr3stdE7declvalIT_EEEES9_
FNA:4,72,_ZNSt3__113__unwrap_iterB8ne180100IPKN7pyfolio8DateTimeENS_18__unwrap_iter_implIS4_Lb1EEELi0EEEDTclsrT0_8__unwrapclsr3stdE7declvalIT_EEEES8_
FNA:4,1234,_ZNSt3__113__unwrap_iterB8ne180100IPKN8nlohmann16json_abi_v3_11_36detail8json_refINS2_10basic_jsonINS_3mapENS_6vectorENS_12basic_stringIcNS_11char_traitsIcEENS_9allocatorIcEEEEbxydSB_NS2_14adl_serializerENS7_IhNSB_IhEEEEvEEEENS_18__unwrap_iter_implISK_Lb1EEELi0EEEDTclsrT0_8__unwrapclsr3stdE7declvalIT_EEEESO_
FNA:4,116,_ZNSt3__113__unwrap_iterB8ne180100IPKNS_12basic_stringIcNS_11char_traitsIcEENS_9allocatorIcEEEENS_18__unwrap_iter_implIS8_Lb1EEELi0EEEDTclsrT0_8__unwrapclsr3stdE7declvalIT_EEEESC_
FNA:4,4,_ZNSt3__113__unwrap_iterB8ne180100IPKNS_6vectorIdNS_9allocatorIdEEEENS_18__unwrap_iter_implIS6_Lb1EEELi0EEEDTclsrT0_8__unwrapclsr3stdE7declvalIT_EEEESA_
FNA:4,0,_ZNSt3__113__unwrap_iterB8ne180100IPKPKcNS_18__unwrap_iter_implIS4_Lb1EEELi0EEEDTclsrT0_8__unwrapclsr3stdE7declvalIT_EEEES8_
FNA:4,876,_ZNSt3__113__unwrap_iterB8ne180100IPKcNS_18__unwrap_iter_implIS2_Lb1EEELi0EEEDTclsrT0_8__unwrapclsr3stdE7declvalIT_EEEES6_
FNA:4,238,_ZNSt3__113__unwrap_iterB8ne180100IPKdNS_18__unwrap_iter_implIS2_Lb1EEELi0EEEDTclsrT0_8__unwrapclsr3stdE7declvalIT_EEEES6_
FNA:4,4,_ZNSt3__113__unwrap_iterB8ne180100IPKmNS_18__unwrap_iter_implIS2_Lb1EEELi0EEEDTclsrT0_8__unwrapclsr3stdE7declvalIT_EEEES6_
FNA:4,4,_ZNSt3__113__unwrap_iterB8ne180100IPN7pyfolio10TimeSeriesIdEENS_18__unwrap_iter_implIS4_Lb1EEELi0EEEDTclsrT0_8__unwrapclsr3stdE7declvalIT_EEEES8_
FNA:4,12,_ZNSt3__113__unwrap_iterB8ne180100IPN7pyfolio11attribution17SectorAttributionENS_18__unwrap_iter_implIS4_Lb1EEELi0EEEDTclsrT0_8__unwrapclsr3stdE7declvalIT_EEEES8_
FNA:4,3,_ZNSt3__113__unwrap_iterB8ne180100IPN7pyfolio13visualization8PlotDataENS_18__unwrap_iter_implIS4_Lb1EEELi0EEEDTclsrT0_8__unwrapclsr3stdE7declvalIT_EEEES8_
FNA:4,858,_ZNSt3__113__unwrap_iterB8ne180100IPN7pyfolio8DateTimeENS_18__unwrap_iter_implIS3_Lb1EEELi0EEEDTclsrT0_8__unwrapclsr3stdE7declvalIT_EEEES7_
FNA:4,0,_ZNSt3__113__unwrap_iterB8ne180100IPN7testing8internal13edit_distance8EditTypeENS_18__unwrap_iter_implIS5_Lb1EEELi0EEEDTclsrT0_8__unwrapclsr3stdE7declvalIT_EEEES9_
FNA:4,794,_ZNSt3__113__unwrap_iterB8ne180100IPN8nlohmann16json_abi_v3_11_310basic_jsonINS_3mapENS_6vectorENS_12basic_stringIcNS_11char_traitsIcEENS_9allocatorIcEEEEbxydS9_NS2_14adl_serializerENS5_IhNS9_IhEEEEvEENS_18__unwrap_iter_implISG_Lb1EEELi0EEEDTclsrT0_8__unwrapclsr3stdE7declvalIT_EEEESK_
FNA:4,124,_ZNSt3__113__unwrap_iterB8ne180100IPNS_12basic_stringIcNS_11char_traitsIcEENS_9allocatorIcEEEENS_18__unwrap_iter_implIS7_Lb1EEELi0EEEDTclsrT0_8__unwrapclsr3stdE7declvalIT_EEEESB_
FNA:4,2,_ZNSt3__113__unwrap_iterB8ne180100IPNS_6vectorIdNS_9allocatorIdEEEENS_18__unwrap_iter_implIS5_Lb1EEELi0EEEDTclsrT0_8__unwrapclsr3stdE7declvalIT_EEEES9_
FNA:4,0,_ZNSt3__113__unwrap_iterB8ne180100IPPN7testing17TestEventListenerENS_18__unwrap_iter_implIS4_Lb1EEELi0EEEDTclsrT0_8__unwrapclsr3stdE7declvalIT_EEEES8_
FNA:4,0,_ZNSt3__113__unwrap_iterB8ne180100IPPN7testing9TestSuiteENS_18__unwrap_iter_implIS4_Lb1EEELi0EEEDTclsrT0_8__unwrapclsr3stdE7declvalIT_EEEES8_
FNA:4,0,_ZNSt3__113__unwrap_iterB8ne180100IPPcNS_18__unwrap_iter_implIS2_Lb1EEELi0EEEDTclsrT0_8__unwrapclsr3stdE7declvalIT_EEEES6_
FNA:4,438,_ZNSt3__113__unwrap_iterB8ne180100IPcNS_18__unwrap_iter_implIS1_Lb1EEELi0EEEDTclsrT0_8__unwrapclsr3stdE7declvalIT_EEEES5_
FNA:4,1175,_ZNSt3__113__unwrap_iterB8ne180100IPdNS_18__unwrap_iter_implIS1_Lb1EEELi0EEEDTclsrT0_8__unwrapclsr3stdE7declvalIT_EEEES5_
FNA:4,0,_ZNSt3__113__unwrap_iterB8ne180100IPhNS_18__unwrap_iter_implIS1_Lb1EEELi0EEEDTclsrT0_8__unwrapclsr3stdE7declvalIT_EEEES5_
FNA:4,2,_ZNSt3__113__unwrap_iterB8ne180100IPmNS_18__unwrap_iter_implIS1_Lb1EEELi0EEEDTclsrT0_8__unwrapclsr3stdE7declvalIT_EEEES5_
FNL:5,77,78
FNA:5,0,_ZNSt3__113__rewrap_iterB8ne180100INS_11__wrap_iterIPKN7pyfolio8DateTimeEEES5_NS_18__unwrap_iter_implIS6_Lb1EEEEET_S9_T0_
FNA:5,0,_ZNSt3__113__rewrap_iterB8ne180100INS_11__wrap_iterIPKNS_12basic_stringIcNS_11char_traitsIcEENS_9allocatorIcEEEEEES9_NS_18__unwrap_iter_implISA_Lb1EEEEET_SD_T0_
FNA:5,853,_ZNSt3__113__rewrap_iterB8ne180100INS_11__wrap_iterIPN8nlohmann16json_abi_v3_11_310basic_jsonINS_3mapENS_6vectorENS_12basic_stringIcNS_11char_traitsIcEENS_9allocatorIcEEEEbxydSA_NS3_14adl_serializerENS6_IhNSA_IhEEEEvEEEESH_NS_18__unwrap_iter_implISI_Lb1EEEEET_SL_T0_
FNA:5,70,_ZNSt3__113__rewrap_iterB8ne180100INS_11__wrap_iterIPNS_12basic_stringIcNS_11char_traitsIcEENS_9allocatorIcEEEEEES8_NS_18__unwrap_iter_implIS9_Lb1EEEEET_SC_T0_
FNA:5,35,_ZNSt3__113__rewrap_iterB8ne180100INS_15insert_iteratorINS_13unordered_setINS_12basic_stringIcNS_11char_traitsIcEENS_9allocatorIcEEEENS_4hashIS8_EENS_8equal_toIS8_EENS6_IS8_EEEEEESF_NS_18__unwrap_iter_implISF_Lb0EEEEET_SI_T0_
FNA:5,35,_ZNSt3__113__rewrap_iterB8ne180100INS_15insert_iteratorINS_6vectorINS_12basic_stringIcNS_11char_traitsIcEENS_9allocatorIcEEEENS6_IS8_EEEEEESB_NS_18__unwrap_iter_implISB_Lb0EEEEET_SE_T0_
FNA:5,1860,_ZNSt3__113__rewrap_iterB8ne180100INS_16reverse_iteratorIPN7pyfolio8DateTimeEEES5_NS_18__unwrap_iter_implIS5_Lb0EEEEET_S8_T0_
FNA:5,0,_ZNSt3__113__rewrap_iterB8ne180100INS_16reverse_iteratorIPN7testing8internal13edit_distance8EditTypeEEES7_NS_18__unwrap_iter_implIS7_Lb0EEEEET_SA_T0_
FNA:5,0,_ZNSt3__113__rewrap_iterB8ne180100INS_16reverse_iteratorIPPN7testing11EnvironmentEEES6_NS_18__unwrap_iter_implIS6_Lb0EEEEET_S9_T0_
FNA:5,24,_ZNSt3__113__rewrap_iterB8ne180100INS_16reverse_iteratorIPPN7testing17TestEventListenerEEES6_NS_18__unwrap_iter_implIS6_Lb0EEEEET_S9_T0_
FNA:5,108,_ZNSt3__113__rewrap_iterB8ne180100INS_16reverse_iteratorIPPN7testing8TestInfoEEES6_NS_18__unwrap_iter_implIS6_Lb0EEEEET_S9_T0_
FNA:5,22,_ZNSt3__113__rewrap_iterB8ne180100INS_16reverse_iteratorIPPN7testing9TestSuiteEEES6_NS_18__unwrap_iter_implIS6_Lb0EEEEET_S9_T0_
FNA:5,0,_ZNSt3__113__rewrap_iterB8ne180100INS_16reverse_iteratorIPPcEES4_NS_18__unwrap_iter_implIS4_Lb0EEEEET_S7_T0_
FNA:5,4738,_ZNSt3__113__rewrap_iterB8ne180100INS_16reverse_iteratorIPdEES3_NS_18__unwrap_iter_implIS3_Lb0EEEEET_S6_T0_
FNA:5,130,_ZNSt3__113__rewrap_iterB8ne180100INS_16reverse_iteratorIPiEES3_NS_18__unwrap_iter_implIS3_Lb0EEEEET_S6_T0_
FNA:5,0,_ZNSt3__113__rewrap_iterB8ne180100INS_16reverse_iteratorIPmEES3_NS_18__unwrap_iter_implIS3_Lb0EEEEET_S6_T0_
FNA:5,853,_ZNSt3__113__rewrap_iterB8ne180100INS_20back_insert_iteratorINS_6vectorIN8nlohmann16json_abi_v3_11_310basic_jsonINS_3mapES2_NS_12basic_stringIcNS_11char_traitsIcEENS_9allocatorIcEEEEbxydSA_NS4_14adl_serializerENS2_IhNSA_IhEEEEvEENSA_ISG_EEEEEESJ_NS_18__unwrap_iter_implISJ_Lb0EEEEET_SM_T0_
FNA:5,18,_ZNSt3__113__rewrap_iterB8ne180100IPKN7pyfolio8DateTimeES4_NS_18__unwrap_iter_implIS4_Lb1EEEEET_S7_T0_
FNA:5,0,_ZNSt3__113__rewrap_iterB8ne180100IPKNS_12basic_stringIcNS_11char_traitsIcEENS_9allocatorIcEEEES8_NS_18__unwrap_iter_implIS8_Lb1EEEEET_SB_T0_
FNA:5,438,_ZNSt3__113__rewrap_iterB8ne180100IPKcS2_NS_18__unwrap_iter_implIS2_Lb1EEEEET_S5_T0_
FNA:5,70,_ZNSt3__113__rewrap_iterB8ne180100IPKdS2_NS_18__unwrap_iter_implIS2_Lb1EEEEET_S5_T0_
FNA:5,1,_ZNSt3__113__rewrap_iterB8ne180100IPKmS2_NS_18__unwrap_iter_implIS2_Lb1EEEEET_S5_T0_
FNA:5,4,_ZNSt3__113__rewrap_iterB8ne180100IPN7pyfolio10TimeSeriesIdEES4_NS_18__unwrap_iter_implIS4_Lb1EEEEET_S7_T0_
FNA:5,4,_ZNSt3__113__rewrap_iterB8ne180100IPN7pyfolio11attribution17SectorAttributionES4_NS_18__unwrap_iter_implIS4_Lb1EEEEET_S7_T0_
FNA:5,3,_ZNSt3__113__rewrap_iterB8ne180100IPN7pyfolio13visualization8PlotDataES4_NS_18__unwrap_iter_implIS4_Lb1EEEEET_S7_T0_
FNA:5,448,_ZNSt3__113__rewrap_iterB8ne180100IPN7pyfolio8DateTimeES3_NS_18__unwrap_iter_implIS3_Lb1EEEEET_S6_T0_
FNA:5,0,_ZNSt3__113__rewrap_iterB8ne180100IPN7testing8internal13edit_distance8EditTypeES5_NS_18__unwrap_iter_implIS5_Lb1EEEEET_S8_T0_
FNA:5,698,_ZNSt3__113__rewrap_iterB8ne180100IPN8nlohmann16json_abi_v3_11_310basic_jsonINS_3mapENS_6vectorENS_12basic_stringIcNS_11char_traitsIcEENS_9allocatorIcEEEEbxydS9_NS2_14adl_serializerENS5_IhNS9_IhEEEEvEESG_NS_18__unwrap_iter_implISG_Lb1EEEEET_SJ_T0_
FNA:5,80,_ZNSt3__113__rewrap_iterB8ne180100IPNS_12basic_stringIcNS_11char_traitsIcEENS_9allocatorIcEEEES7_NS_18__unwrap_iter_implIS7_Lb1EEEEET_SA_T0_
FNA:5,2,_ZNSt3__113__rewrap_iterB8ne180100IPNS_6vectorIdNS_9allocatorIdEEEES5_NS_18__unwrap_iter_implIS5_Lb1EEEEET_S8_T0_
FNA:5,0,_ZNSt3__113__rewrap_iterB8ne180100IPPN7testing17TestEventListenerES4_NS_18__unwrap_iter_implIS4_Lb1EEEEET_S7_T0_
FNA:5,0,_ZNSt3__113__rewrap_iterB8ne180100IPPN7testing9TestSuiteES4_NS_18__unwrap_iter_implIS4_Lb1EEEEET_S7_T0_
FNA:5,0,_ZNSt3__113__rewrap_iterB8ne180100IPPcS2_NS_18__unwrap_iter_implIS2_Lb1EEEEET_S5_T0_
FNA:5,438,_ZNSt3__113__rewrap_iterB8ne180100IPcS1_NS_18__unwrap_iter_implIS1_Lb1EEEEET_S4_T0_
FNA:5,658,_ZNSt3__113__rewrap_iterB8ne180100IPdS1_NS_18__unwrap_iter_implIS1_Lb1EEEEET_S4_T0_
FNA:5,0,_ZNSt3__113__rewrap_iterB8ne180100IPhS1_NS_18__unwrap_iter_implIS1_Lb1EEEEET_S4_T0_
FNA:5,2,_ZNSt3__113__rewrap_iterB8ne180100IPmS1_NS_18__unwrap_iter_implIS1_Lb1EEEEET_S4_T0_
FNF:6
FNH:6
DA:39,7805
DA:40,11246
DA:51,3787
DA:52,3787
DA:55,8016
DA:56,8016
DA:64,19262
DA:65,19262
DA:77,11592
DA:78,11592
LF:10
LH:10
end_of_record
TN:
SF:/Library/Developer/CommandLineTools/SDKs/MacOSX.sdk/usr/include/c++/v1/__algorithm/unwrap_range.h
FNL:0,64,65
FNA:0,0,_ZNSt3__119__unwrap_range_implINS_11__wrap_iterIPKN7pyfolio8DateTimeEEES6_E8__unwrapB8ne180100ES6_S6_
FNA:0,9,_ZNSt3__119__unwrap_range_implINS_11__wrap_iterIPKNS_12basic_stringIcNS_11char_traitsIcEENS_9allocatorIcEEEEEESA_E8__unwrapB8ne180100ESA_SA_
FNA:0,3,_ZNSt3__119__unwrap_range_implINS_11__wrap_iterIPKNS_6vectorIdNS_9allocatorIdEEEEEES8_E8__unwrapB8ne180100ES8_S8_
FNA:0,42,_ZNSt3__119__unwrap_range_implINS_11__wrap_iterIPKdEES4_E8__unwrapB8ne180100ES4_S4_
FNA:0,853,_ZNSt3__119__unwrap_range_implINS_11__wrap_iterIPN8nlohmann16json_abi_v3_11_310basic_jsonINS_3mapENS_6vectorENS_12basic_stringIcNS_11char_traitsIcEENS_9allocatorIcEEEEbxydSA_NS3_14adl_serializerENS6_IhNSA_IhEEEEvEEEESI_E8__unwrapB8ne180100ESI_SI_
FNA:0,70,_ZNSt3__119__unwrap_range_implINS_11__wrap_iterIPNS_12basic_stringIcNS_11char_traitsIcEENS_9allocatorIcEEEEEES9_E8__unwrapB8ne180100ES9_S9_
FNA:0,930,_ZNSt3__119__unwrap_range_implINS_16reverse_iteratorIPN7pyfolio8DateTimeEEES5_E8__unwrapB8ne180100ES5_S5_
FNA:0,0,_ZNSt3__119__unwrap_range_implINS_16reverse_iteratorIPN7testing8internal13edit_distance8EditTypeEEES7_E8__unwrapB8ne180100ES7_S7_
FNA:0,0,_ZNSt3__119__unwrap_range_implINS_16reverse_iteratorIPPN7testing11EnvironmentEEES6_E8__unwrapB8ne180100ES6_S6_
FNA:0,12,_ZNSt3__119__unwrap_range_implINS_16reverse_iteratorIPPN7testing17TestEventListenerEEES6_E8__unwrapB8ne180100ES6_S6_
FNA:0,54,_ZNSt3__119__unwrap_range_implINS_16reverse_iteratorIPPN7testing8TestInfoEEES6_E8__unwrapB8ne180100ES6_S6_
FNA:0,11,_ZNSt3__119__unwrap_range_implINS_16reverse_iteratorIPPN7testing9TestSuiteEEES6_E8__unwrapB8ne180100ES6_S6_
FNA:0,0,_ZNSt3__119__unwrap_range_implINS_16reverse_iteratorIPPcEES4_E8__unwrapB8ne180100ES4_S4_
FNA:0,2369,_ZNSt3__119__unwrap_range_implINS_16reverse_iteratorIPdEES3_E8__unwrapB8ne180100ES3_S3_
FNA:0,65,_ZNSt3__119__unwrap_range_implINS_16reverse_iteratorIPiEES3_E8__unwrapB8ne180100ES3_S3_
FNA:0,0,_ZNSt3__119__unwrap_range_implINS_16reverse_iteratorIPmEES3_E8__unwrapB8ne180100ES3_S3_
FNA:0,4,_ZNSt3__119__unwrap_range_implIPKN7pyfolio10TimeSeriesIdEES5_E8__unwrapB8ne180100ES5_S5_
FNA:0,3,_ZNSt3__119__unwrap_range_implIPKN7pyfolio13visualization8PlotDataES5_E8__unwrapB8ne180100ES5_S5_
FNA:0,36,_ZNSt3__119__unwrap_range_implIPKN7pyfolio8DateTimeES4_E8__unwrapB8ne180100ES4_S4_
FNA:0,617,_ZNSt3__119__unwrap_range_implIPKN8nlohmann16json_abi_v3_11_36detail8json_refINS2_10basic_jsonINS_3mapENS_6vectorENS_12basic_stringIcNS_11char_traitsIcEENS_9allocatorIcEEEEbxydSB_NS2_14adl_serializerENS7_IhNSB_IhEEEEvEEEESK_E8__unwrapB8ne180100ESK_SK_
FNA:0,58,_ZNSt3__119__unwrap_range_implIPKNS_12basic_stringIcNS_11char_traitsIcEENS_9allocatorIcEEEES8_E8__unwrapB8ne180100ES8_S8_
FNA:0,2,_ZNSt3__119__unwrap_range_implIPKNS_6vectorIdNS_9allocatorIdEEEES6_E8__unwrapB8ne180100ES6_S6_
FNA:0,0,_ZNSt3__119__unwrap_range_implIPKPKcS4_E8__unwrapB8ne180100ES4_S4_
FNA:0,438,_ZNSt3__119__unwrap_range_implIPKcS2_E8__unwrapB8ne180100ES2_S2_
FNA:0,119,_ZNSt3__119__unwrap_range_implIPKdS2_E8__unwrapB8ne180100ES2_S2_
FNA:0,2,_ZNSt3__119__unwrap_range_implIPKmS2_E8__unwrapB8ne180100ES2_S2_
FNA:0,4,_ZNSt3__119__unwrap_range_implIPN7pyfolio11attribution17SectorAttributionES4_E8__unwrapB8ne180100ES4_S4_
FNA:0,274,_ZNSt3__119__unwrap_range_implIPN7pyfolio8DateTimeES3_E8__unwrapB8ne180100ES3_S3_
FNA:0,0,_ZNSt3__119__unwrap_range_implIPN7testing8internal13edit_distance8EditTypeES5_E8__unwrapB8ne180100ES5_S5_
FNA:0,48,_ZNSt3__119__unwrap_range_implIPN8nlohmann16json_abi_v3_11_310basic_jsonINS_3mapENS_6vectorENS_12basic_stringIcNS_11char_traitsIcEENS_9allocatorIcEEEEbxydS9_NS2_14adl_serializerENS5_IhNS9_IhEEEEvEESG_E8__unwrapB8ne180100ESG_SG_
FNA:0,22,_ZNSt3__119__unwrap_range_implIPNS_12basic_stringIcNS_11char_traitsIcEENS_9allocatorIcEEEES7_E8__unwrapB8ne180100ES7_S7_
FNA:0,0,_ZNSt3__119__unwrap_range_implIPPN7testing17TestEventListenerES4_E8__unwrapB8ne180100ES4_S4_
FNA:0,0,_ZNSt3__119__unwrap_range_implIPPN7testing9TestSuiteES4_E8__unwrapB8ne180100ES4_S4_
FNA:0,0,_ZNSt3__119__unwrap_range_implIPPcS2_E8__unwrapB8ne180100ES2_S2_
FNA:0,345,_ZNSt3__119__unwrap_range_implIPdS1_E8__unwrapB8ne180100ES1_S1_
FNA:0,0,_ZNSt3__119__unwrap_range_implIPhS1_E8__unwrapB8ne180100ES1_S1_
FNL:1,69,70
FNA:1,853,_ZNSt3__119__unwrap_range_implINS_11__wrap_iterIPN8nlohmann16json_abi_v3_11_310basic_jsonINS_3mapENS_6vectorENS_12basic_stringIcNS_11char_traitsIcEENS_9allocatorIcEEEEbxydSA_NS3_14adl_serializerENS6_IhNSA_IhEEEEvEEEESI_E8__rewrapB8ne180100ESI_SH_
FNA:1,70,_ZNSt3__119__unwrap_range_implINS_11__wrap_iterIPNS_12basic_stringIcNS_11char_traitsIcEENS_9allocatorIcEEEEEES9_E8__rewrapB8ne180100ES9_S8_
FNA:1,930,_ZNSt3__119__unwrap_range_implINS_16reverse_iteratorIPN7pyfolio8DateTimeEEES5_E8__rewrapB8ne180100ES5_S5_
FNA:1,0,_ZNSt3__119__unwrap_range_implINS_16reverse_iteratorIPN7testing8internal13edit_distance8EditTypeEEES7_E8__rewrapB8ne180100ES7_S7_
FNA:1,0,_ZNSt3__119__unwrap_range_implINS_16reverse_iteratorIPPN7testing11EnvironmentEEES6_E8__rewrapB8ne180100ES6_S6_
FNA:1,12,_ZNSt3__119__unwrap_range_implINS_16reverse_iteratorIPPN7testing17TestEventListenerEEES6_E8__rewrapB8ne180100ES6_S6_
FNA:1,54,_ZNSt3__119__unwrap_range_implINS_16reverse_iteratorIPPN7testing8TestInfoEEES6_E8__rewrapB8ne180100ES6_S6_
FNA:1,11,_ZNSt3__119__unwrap_range_implINS_16reverse_iteratorIPPN7testing9TestSuiteEEES6_E8__rewrapB8ne180100ES6_S6_
FNA:1,0,_ZNSt3__119__unwrap_range_implINS_16reverse_iteratorIPPcEES4_E8__rewrapB8ne180100ES4_S4_
FNA:1,2369,_ZNSt3__119__unwrap_range_implINS_16reverse_iteratorIPdEES3_E8__rewrapB8ne180100ES3_S3_
FNA:1,65,_ZNSt3__119__unwrap_range_implINS_16reverse_iteratorIPiEES3_E8__rewrapB8ne180100ES3_S3_
FNA:1,0,_ZNSt3__119__unwrap_range_implINS_16reverse_iteratorIPmEES3_E8__rewrapB8ne180100ES3_S3_
FNA:1,18,_ZNSt3__119__unwrap_range_implIPKN7pyfolio8DateTimeES4_E8__rewrapB8ne180100ES4_S4_
FNA:1,0,_ZNSt3__119__unwrap_range_implIPKNS_12basic_stringIcNS_11char_traitsIcEENS_9allocatorIcEEEES8_E8__rewrapB8ne180100ES8_S8_
FNA:1,438,_ZNSt3__119__unwrap_range_implIPKcS2_E8__rewrapB8ne180100ES2_S2_
FNA:1,70,_ZNSt3__119__unwrap_range_implIPKdS2_E8__rewrapB8ne180100ES2_S2_
FNA:1,1,_ZNSt3__119__unwrap_range_implIPKmS2_E8__rewrapB8ne180100ES2_S2_
FNA:1,138,_ZNSt3__119__unwrap_range_implIPN7pyfolio8DateTimeES3_E8__rewrapB8ne180100ES3_S3_
FNA:1,0,_ZNSt3__119__unwrap_range_implIPN7testing8internal13edit_distance8EditTypeES5_E8__rewrapB8ne180100ES5_S5_
FNA:1,0,_ZNSt3__119__unwrap_range_implIPNS_12basic_stringIcNS_11char_traitsIcEENS_9allocatorIcEEEES7_E8__rewrapB8ne180100ES7_S7_
FNA:1,0,_ZNSt3__119__unwrap_range_implIPPN7testing17TestEventListenerES4_E8__rewrapB8ne180100ES4_S4_
FNA:1,0,_ZNSt3__119__unwrap_range_implIPPN7testing9TestSuiteES4_E8__rewrapB8ne180100ES4_S4_
FNA:1,0,_ZNSt3__119__unwrap_range_implIPPcS2_E8__rewrapB8ne180100ES2_S2_
FNA:1,173,_ZNSt3__119__unwrap_range_implIPdS1_E8__rewrapB8ne180100ES1_S1_
FNA:1,0,_ZNSt3__119__unwrap_range_implIPhS1_E8__rewrapB8ne180100ES1_S1_
FNL:2,75,76
FNA:2,0,_ZNSt3__114__unwrap_rangeB8ne180100INS_11__wrap_iterIPKN7pyfolio8DateTimeEEES6_EEDaT_T0_
FNA:2,9,_ZNSt3__114__unwrap_rangeB8ne180100INS_11__wrap_iterIPKNS_12basic_stringIcNS_11char_traitsIcEENS_9allocatorIcEEEEEESA_EEDaT_T0_
FNA:2,3,_ZNSt3__114__unwrap_rangeB8ne180100INS_11__wrap_iterIPKNS_6vectorIdNS_9allocatorIdEEEEEES8_EEDaT_T0_
FNA:2,42,_ZNSt3__114__unwrap_rangeB8ne180100INS_11__wrap_iterIPKdEES4_EEDaT_T0_
FNA:2,853,_ZNSt3__114__unwrap_rangeB8ne180100INS_11__wrap_iterIPN8nlohmann16json_abi_v3_11_310basic_jsonINS_3mapENS_6vectorENS_12basic_stringIcNS_11char_traitsIcEENS_9allocatorIcEEEEbxydSA_NS3_14adl_serializerENS6_IhNSA_IhEEEEvEEEESI_EEDaT_T0_
FNA:2,70,_ZNSt3__114__unwrap_rangeB8ne180100INS_11__wrap_iterIPNS_12basic_stringIcNS_11char_traitsIcEENS_9allocatorIcEEEEEES9_EEDaT_T0_
FNA:2,930,_ZNSt3__114__unwrap_rangeB8ne180100INS_16reverse_iteratorIPN7pyfolio8DateTimeEEES5_EEDaT_T0_
FNA:2,0,_ZNSt3__114__unwrap_rangeB8ne180100INS_16reverse_iteratorIPN7testing8internal13edit_distance8EditTypeEEES7_EEDaT_T0_
FNA:2,0,_ZNSt3__114__unwrap_rangeB8ne180100INS_16reverse_iteratorIPPN7testing11EnvironmentEEES6_EEDaT_T0_
FNA:2,12,_ZNSt3__114__unwrap_rangeB8ne180100INS_16reverse_iteratorIPPN7testing17TestEventListenerEEES6_EEDaT_T0_
FNA:2,54,_ZNSt3__114__unwrap_rangeB8ne180100INS_16reverse_iteratorIPPN7testing8TestInfoEEES6_EEDaT_T0_
FNA:2,11,_ZNSt3__114__unwrap_rangeB8ne180100INS_16reverse_iteratorIPPN7testing9TestSuiteEEES6_EEDaT_T0_
FNA:2,0,_ZNSt3__114__unwrap_rangeB8ne180100INS_16reverse_iteratorIPPcEES4_EEDaT_T0_
FNA:2,2369,_ZNSt3__114__unwrap_rangeB8ne180100INS_16reverse_iteratorIPdEES3_EEDaT_T0_
FNA:2,65,_ZNSt3__114__unwrap_rangeB8ne180100INS_16reverse_iteratorIPiEES3_EEDaT_T0_
FNA:2,0,_ZNSt3__114__unwrap_rangeB8ne180100INS_16reverse_iteratorIPmEES3_EEDaT_T0_
FNA:2,4,_ZNSt3__114__unwrap_rangeB8ne180100IPKN7pyfolio10TimeSeriesIdEES5_EEDaT_T0_
FNA:2,3,_ZNSt3__114__unwrap_rangeB8ne180100IPKN7pyfolio13visualization8PlotDataES5_EEDaT_T0_
FNA:2,36,_ZNSt3__114__unwrap_rangeB8ne180100IPKN7pyfolio8DateTimeES4_EEDaT_T0_
FNA:2,617,_ZNSt3__114__unwrap_rangeB8ne180100IPKN8nlohmann16json_abi_v3_11_36detail8json_refINS2_10basic_jsonINS_3mapENS_6vectorENS_12basic_stringIcNS_11char_traitsIcEENS_9allocatorIcEEEEbxydSB_NS2_14adl_serializerENS7_IhNSB_IhEEEEvEEEESK_EEDaT_T0_
FNA:2,58,_ZNSt3__114__unwrap_rangeB8ne180100IPKNS_12basic_stringIcNS_11char_traitsIcEENS_9allocatorIcEEEES8_EEDaT_T0_
FNA:2,2,_ZNSt3__114__unwrap_rangeB8ne180100IPKNS_6vectorIdNS_9allocatorIdEEEES6_EEDaT_T0_
FNA:2,0,_ZNSt3__114__unwrap_rangeB8ne180100IPKPKcS4_EEDaT_T0_
FNA:2,438,_ZNSt3__114__unwrap_rangeB8ne180100IPKcS2_EEDaT_T0_
FNA:2,119,_ZNSt3__114__unwrap_rangeB8ne180100IPKdS2_EEDaT_T0_
FNA:2,2,_ZNSt3__114__unwrap_rangeB8ne180100IPKmS2_EEDaT_T0_
FNA:2,4,_ZNSt3__114__unwrap_rangeB8ne180100IPN7pyfolio11attribution17SectorAttributionES4_EEDaT_T0_
FNA:2,274,_ZNSt3__114__unwrap_rangeB8ne180100IPN7pyfolio8DateTimeES3_EEDaT_T0_
FNA:2,0,_ZNSt3__114__unwrap_rangeB8ne180100IPN7testing8internal13edit_distance8EditTypeES5_EEDaT_T0_
FNA:2,48,_ZNSt3__114__unwrap_rangeB8ne180100IPN8nlohmann16json_abi_v3_11_310basic_jsonINS_3mapENS_6vectorENS_12basic_stringIcNS_11char_traitsIcEENS_9allocatorIcEEEEbxydS9_NS2_14adl_serializerENS5_IhNS9_IhEEEEvEESG_EEDaT_T0_
FNA:2,22,_ZNSt3__114__unwrap_rangeB8ne180100IPNS_12basic_stringIcNS_11char_traitsIcEENS_9allocatorIcEEEES7_EEDaT_T0_
FNA:2,0,_ZNSt3__114__unwrap_rangeB8ne180100IPPN7testing17TestEventListenerES4_EEDaT_T0_
FNA:2,0,_ZNSt3__114__unwrap_rangeB8ne180100IPPN7testing9TestSuiteES4_EEDaT_T0_
FNA:2,0,_ZNSt3__114__unwrap_rangeB8ne180100IPPcS2_EEDaT_T0_
FNA:2,345,_ZNSt3__114__unwrap_rangeB8ne180100IPdS1_EEDaT_T0_
FNA:2,0,_ZNSt3__114__unwrap_rangeB8ne180100IPhS1_EEDaT_T0_
FNL:3,80,81
FNA:3,853,_ZNSt3__114__rewrap_rangeB8ne180100INS_11__wrap_iterIPN8nlohmann16json_abi_v3_11_310basic_jsonINS_3mapENS_6vectorENS_12basic_stringIcNS_11char_traitsIcEENS_9allocatorIcEEEEbxydSA_NS3_14adl_serializerENS6_IhNSA_IhEEEEvEEEESI_SH_EET0_SJ_T1_
FNA:3,70,_ZNSt3__114__rewrap_rangeB8ne180100INS_11__wrap_iterIPNS_12basic_stringIcNS_11char_traitsIcEENS_9allocatorIcEEEEEES9_S8_EET0_SA_T1_
FNA:3,930,_ZNSt3__114__rewrap_rangeB8ne180100INS_16reverse_iteratorIPN7pyfolio8DateTimeEEES5_S5_EET0_S6_T1_
FNA:3,0,_ZNSt3__114__rewrap_rangeB8ne180100INS_16reverse_iteratorIPN7testing8internal13edit_distance8EditTypeEEES7_S7_EET0_S8_T1_
FNA:3,0,_ZNSt3__114__rewrap_rangeB8ne180100INS_16reverse_iteratorIPPN7testing11EnvironmentEEES6_S6_EET0_S7_T1_
FNA:3,12,_ZNSt3__114__rewrap_rangeB8ne180100INS_16reverse_iteratorIPPN7testing17TestEventListenerEEES6_S6_EET0_S7_T1_
FNA:3,54,_ZNSt3__114__rewrap_rangeB8ne180100INS_16reverse_iteratorIPPN7testing8TestInfoEEES6_S6_EET0_S7_T1_
FNA:3,11,_ZNSt3__114__rewrap_rangeB8ne180100INS_16reverse_iteratorIPPN7testing9TestSuiteEEES6_S6_EET0_S7_T1_
FNA:3,0,_ZNSt3__114__rewrap_rangeB8ne180100INS_16reverse_iteratorIPPcEES4_S4_EET0_S5_T1_
FNA:3,2369,_ZNSt3__114__rewrap_rangeB8ne180100INS_16reverse_iteratorIPdEES3_S3_EET0_S4_T1_
FNA:3,65,_ZNSt3__114__rewrap_rangeB8ne180100INS_16reverse_iteratorIPiEES3_S3_EET0_S4_T1_
FNA:3,0,_ZNSt3__114__rewrap_rangeB8ne180100INS_16reverse_iteratorIPmEES3_S3_EET0_S4_T1_
FNA:3,18,_ZNSt3__114__rewrap_rangeB8ne180100IPKN7pyfolio8DateTimeES4_S4_EET0_S5_T1_
FNA:3,0,_ZNSt3__114__rewrap_rangeB8ne180100IPKNS_12basic_stringIcNS_11char_traitsIcEENS_9allocatorIcEEEES8_S8_EET0_S9_T1_
FNA:3,438,_ZNSt3__114__rewrap_rangeB8ne180100IPKcS2_S2_EET0_S3_T1_
FNA:3,70,_ZNSt3__114__rewrap_rangeB8ne180100IPKdS2_S2_EET0_S3_T1_
FNA:3,1,_ZNSt3__114__rewrap_rangeB8ne180100IPKmS2_S2_EET0_S3_T1_
FNA:3,138,_ZNSt3__114__rewrap_rangeB8ne180100IPN7pyfolio8DateTimeES3_S3_EET0_S4_T1_
FNA:3,0,_ZNSt3__114__rewrap_rangeB8ne180100IPN7testing8internal13edit_distance8EditTypeES5_S5_EET0_S6_T1_
FNA:3,0,_ZNSt3__114__rewrap_rangeB8ne180100IPNS_12basic_stringIcNS_11char_traitsIcEENS_9allocatorIcEEEES7_S7_EET0_S8_T1_
FNA:3,0,_ZNSt3__114__rewrap_rangeB8ne180100IPPN7testing17TestEventListenerES4_S4_EET0_S5_T1_
FNA:3,0,_ZNSt3__114__rewrap_rangeB8ne180100IPPN7testing9TestSuiteES4_S4_EET0_S5_T1_
FNA:3,0,_ZNSt3__114__rewrap_rangeB8ne180100IPPcS2_S2_EET0_S3_T1_
FNA:3,173,_ZNSt3__114__rewrap_rangeB8ne180100IPdS1_S1_EET0_S2_T1_
FNA:3,0,_ZNSt3__114__rewrap_rangeB8ne180100IPhS1_S1_EET0_S2_T1_
FNF:4
FNH:4
DA:64,6390
DA:65,6390
DA:69,5202
DA:70,5202
DA:75,6390
DA:76,6390
DA:80,5202
DA:81,5202
LF:8
LH:8
end_of_record
TN:
SF:/Library/Developer/CommandLineTools/SDKs/MacOSX.sdk/usr/include/c++/v1/__algorithm/upper_bound.h
FNL:0,35,47
FNA:0,0,_ZNSt3__113__upper_boundB8ne180100INS_17_ClassicAlgPolicyENS_6__lessIvvEENS_11__wrap_iterIPKN7pyfolio8DateTimeEEES9_S6_NS_10__identityEEET1_SB_T2_RKT3_OT0_OT4_
FNL:1,52,55
FNA:1,0,_ZNSt3__111upper_boundB8ne180100INS_11__wrap_iterIPKN7pyfolio8DateTimeEEES3_NS_6__lessIvvEEEET_S9_S9_RKT0_T1_
FNL:2,60,61
FNA:2,0,_ZNSt3__111upper_boundB8ne180100INS_11__wrap_iterIPKN7pyfolio8DateTimeEEES3_EET_S7_S7_RKT0_
FNF:3
FNH:0
DA:35,0
DA:36,0
DA:37,0
DA:38,0
DA:39,0
DA:40,0
DA:41,0
DA:43,0
DA:44,0
DA:47,0
DA:52,0
DA:54,0
DA:55,0
DA:60,0
DA:61,0
LF:15
LH:0
end_of_record
TN:
SF:/Library/Developer/CommandLineTools/SDKs/MacOSX.sdk/usr/include/c++/v1/__atomic/atomic.h
FNL:0,47,47
FNA:0,1,_ZNSt3__16atomicIiEC1B8ne180100Ei
FNA:0,1,_ZNSt3__16atomicIiEC2B8ne180100Ei
FNF:1
FNH:1
DA:47,2
LF:1
LH:1
end_of_record
TN:
SF:/Library/Developer/CommandLineTools/SDKs/MacOSX.sdk/usr/include/c++/v1/__atomic/atomic_base.h
FNL:0,132,132
FNA:0,1,_ZNSt3__113__atomic_baseIiLb0EEC2B8ne180100Ei
FNL:1,150,150
FNA:1,1,_ZNSt3__113__atomic_baseIiLb1EEC2B8ne180100Ei
FNL:2,155,156
FNA:2,10,_ZNSt3__113__atomic_baseIiLb1EE9fetch_addB8ne180100EiNS_12memory_orderE
FNL:3,161,162
FNA:3,0,_ZNSt3__113__atomic_baseIiLb1EE9fetch_subB8ne180100EiNS_12memory_orderE
FNL:4,58,60
FNA:4,1,_ZNKSt3__113__atomic_baseIiLb0EE4loadB8ne180100ENS_12memory_orderE
FNF:5
FNH:4
DA:58,1
DA:60,1
DA:132,1
DA:150,1
DA:155,10
DA:156,10
DA:161,0
DA:162,0
LF:8
LH:6
end_of_record
TN:
SF:/Library/Developer/CommandLineTools/SDKs/MacOSX.sdk/usr/include/c++/v1/__atomic/cxx_atomic_impl.h
FNL:0,305,305
FNA:0,1,_ZNSt3__122__cxx_atomic_base_implIiEC2Ei
FNL:1,347,350
FNA:1,1,_ZNSt3__117__cxx_atomic_loadB8ne180100IiEET_PKNS_22__cxx_atomic_base_implIS1_EENS_12memory_orderE
FNL:2,448,450
FNA:2,10,_ZNSt3__122__cxx_atomic_fetch_addB8ne180100IiEET_PNS_22__cxx_atomic_base_implIS1_EES1_NS_12memory_orderE
FNL:3,474,476
FNA:3,0,_ZNSt3__122__cxx_atomic_fetch_subB8ne180100IiEET_PNS_22__cxx_atomic_base_implIS1_EES1_NS_12memory_orderE
FNL:4,819,819
FNA:4,1,_ZNSt3__117__cxx_atomic_implIiNS_22__cxx_atomic_base_implIiEEEC1B8ne180100Ei
FNA:4,1,_ZNSt3__117__cxx_atomic_implIiNS_22__cxx_atomic_base_implIiEEEC2B8ne180100Ei
FNF:5
FNH:4
DA:305,1
DA:347,1
DA:349,1
DA:350,1
DA:448,10
DA:449,10
DA:450,10
DA:474,0
DA:475,0
DA:476,0
DA:819,2
LF:11
LH:8
end_of_record
TN:
SF:/Library/Developer/CommandLineTools/SDKs/MacOSX.sdk/usr/include/c++/v1/__bit/blsr.h
FNL:0,28,29
FNA:0,0,_ZNSt3__113__libcpp_blsrB8ne180100Ey
FNF:1
FNH:0
DA:28,0
DA:29,0
LF:2
LH:0
end_of_record
TN:
SF:/Library/Developer/CommandLineTools/SDKs/MacOSX.sdk/usr/include/c++/v1/__bit/countl.h
FNL:0,31,32
FNA:0,0,_ZNSt3__112__libcpp_clzB8ne180100Em
FNL:1,35,36
FNA:1,0,_ZNSt3__112__libcpp_clzB8ne180100Ey
FNF:2
FNH:0
DA:31,0
DA:32,0
DA:35,0
DA:36,0
LF:4
LH:0
end_of_record
TN:
SF:/Library/Developer/CommandLineTools/SDKs/MacOSX.sdk/usr/include/c++/v1/__bit/countr.h
FNL:0,34,35
FNA:0,0,_ZNSt3__112__libcpp_ctzB8ne180100Ey
FNF:1
FNH:0
DA:34,0
DA:35,0
LF:2
LH:0
end_of_record
TN:
SF:/Library/Developer/CommandLineTools/SDKs/MacOSX.sdk/usr/include/c++/v1/__chrono/day.h
FNL:0,33,34
FNA:0,21197,_ZNSt3__16chrono3dayC1B8ne180100Ej
FNA:0,21197,_ZNSt3__16chrono3dayC2B8ne180100Ej
FNL:1,55,55
FNA:1,16635,_ZNKSt3__16chrono3daycvjB8ne180100Ev
FNL:2,63,64
FNA:2,402,_ZNSt3__16chronossB8ne180100ERKNS0_3dayES3_
FNF:3
FNH:3
DA:33,42394
DA:34,42394
DA:55,16635
DA:63,402
DA:64,402
LF:5
LH:5
end_of_record
TN:
SF:/Library/Developer/CommandLineTools/SDKs/MacOSX.sdk/usr/include/c++/v1/__chrono/duration.h
FNL:0,106,107
FNA:0,9331,_ZNSt3__16chrono13duration_castB8ne180100INS0_8durationIiNS_5ratioILl86400ELl1EEEEExNS3_ILl1ELl1000000EEELi0EEET_RKNS2_IT0_T1_EE
FNA:0,23603,_ZNSt3__16chrono13duration_castB8ne180100INS0_8durationIxNS_5ratioILl1ELl1000000EEEEEiNS3_ILl86400ELl1EEELi0EEET_RKNS2_IT0_T1_EE
FNA:0,1,_ZNSt3__16chrono13duration_castB8ne180100INS0_8durationIxNS_5ratioILl1ELl1000000EEEEExNS3_ILl1ELl1000000000EEELi0EEET_RKNS2_IT0_T1_EE
FNA:0,155,_ZNSt3__16chrono13duration_castB8ne180100INS0_8durationIxNS_5ratioILl1ELl1000EEEEExNS3_ILl1ELl1000000000EEELi0EEET_RKNS2_IT0_T1_EE
FNA:0,167,_ZNSt3__16chrono13duration_castB8ne180100INS0_8durationIxNS_5ratioILl1ELl1000EEEEExNS3_ILl1ELl1000000EEELi0EEET_RKNS2_IT0_T1_EE
FNL:1,128,132
FNA:1,9331,_ZNSt3__16chrono5floorB8ne180100INS0_8durationIiNS_5ratioILl86400ELl1EEEEExNS3_ILl1ELl1000000EEELi0EEET_RKNS2_IT0_T1_EE
FNL:2,210,210
FNA:2,24924,_ZNSt3__16chrono8durationIiNS_5ratioILl86400ELl1EEEEC1B8ne180100IiLi0EEERKT_
FNA:2,24924,_ZNSt3__16chrono8durationIiNS_5ratioILl86400ELl1EEEEC2B8ne180100IiLi0EEERKT_
FNA:2,156,_ZNSt3__16chrono8durationIxNS_5ratioILl1ELl1000000000EEEEC1B8ne180100IxLi0EEERKT_
FNA:2,156,_ZNSt3__16chrono8durationIxNS_5ratioILl1ELl1000000000EEEEC2B8ne180100IxLi0EEERKT_
FNA:2,26408,_ZNSt3__16chrono8durationIxNS_5ratioILl1ELl1000000EEEEC1B8ne180100IxLi0EEERKT_
FNA:2,26408,_ZNSt3__16chrono8durationIxNS_5ratioILl1ELl1000000EEEEC2B8ne180100IxLi0EEERKT_
FNA:2,322,_ZNSt3__16chrono8durationIxNS_5ratioILl1ELl1000EEEEC1B8ne180100IxLi0EEERKT_
FNA:2,322,_ZNSt3__16chrono8durationIxNS_5ratioILl1ELl1000EEEEC2B8ne180100IxLi0EEERKT_
FNL:3,219,220
FNA:3,23603,_ZNSt3__16chrono8durationIxNS_5ratioILl1ELl1000000EEEEC1B8ne180100IiNS2_ILl86400ELl1EEELi0EEERKNS1_IT_T0_EE
FNA:3,23603,_ZNSt3__16chrono8durationIxNS_5ratioILl1ELl1000000EEEEC2B8ne180100IiNS2_ILl86400ELl1EEELi0EEERKNS1_IT_T0_EE
FNL:4,224,224
FNA:4,34255,_ZNKSt3__16chrono8durationIiNS_5ratioILl86400ELl1EEEE5countB8ne180100Ev
FNA:4,468,_ZNKSt3__16chrono8durationIxNS_5ratioILl1ELl1000000000EEEE5countB8ne180100Ev
FNA:4,83565,_ZNKSt3__16chrono8durationIxNS_5ratioILl1ELl1000000EEEE5countB8ne180100Ev
FNA:4,322,_ZNKSt3__16chrono8durationIxNS_5ratioILl1ELl1000EEEE5countB8ne180100Ev
FNL:5,308,309
FNA:5,5304,_ZNKSt3__16chrono13__duration_eqINS0_8durationIxNS_5ratioILl1ELl1000000EEEEES5_EclB8ne180100ERKS5_S8_
FNL:6,315,316
FNA:6,5304,_ZNSt3__16chronoeqB8ne180100IxNS_5ratioILl1ELl1000000EEExS3_EEbRKNS0_8durationIT_T0_EERKNS4_IT1_T2_EE
FNL:7,383,385
FNA:7,9331,_ZNSt3__16chronossB8ne180100IiNS_5ratioILl86400ELl1EEExNS2_ILl1ELl1000000EEEEEDaRKNS0_8durationIT_T0_EERKNS6_IT1_T2_EE
FNA:7,7815,_ZNSt3__16chronossB8ne180100IxNS_5ratioILl1ELl1000000EEExS3_EEDaRKNS0_8durationIT_T0_EERKNS5_IT1_T2_EE
FNL:8,395,397
FNA:8,13,_ZNSt3__16chronoplB8ne180100IiNS_5ratioILl86400ELl1EEEiS3_EENS_11common_typeIJNS0_8durationIT_T0_EENS5_IT1_T2_EEEE4typeERKS8_RKSB_
FNA:8,2682,_ZNSt3__16chronoplB8ne180100IxNS_5ratioILl1ELl1000000EEEiNS2_ILl86400ELl1EEEEENS_11common_typeIJNS0_8durationIT_T0_EENS6_IT1_T2_EEEE4typeERKS9_RKSC_
FNL:9,405,407
FNA:9,1,_ZNSt3__16chronomiB8ne180100IiNS_5ratioILl86400ELl1EEEiS3_EENS_11common_typeIJNS0_8durationIT_T0_EENS5_IT1_T2_EEEE4typeERKS8_RKSB_
FNA:9,156,_ZNSt3__16chronomiB8ne180100IxNS_5ratioILl1ELl1000000000EEExS3_EENS_11common_typeIJNS0_8durationIT_T0_EENS5_IT1_T2_EEEE4typeERKS8_RKSB_
FNA:9,167,_ZNSt3__16chronomiB8ne180100IxNS_5ratioILl1ELl1000000EEExS3_EENS_11common_typeIJNS0_8durationIT_T0_EENS5_IT1_T2_EEEE4typeERKS8_RKSB_
FNL:10,80,83
FNA:10,1,_ZNKSt3__16chrono15__duration_castINS0_8durationIxNS_5ratioILl1ELl1000000000EEEEENS2_IxNS3_ILl1ELl1000000EEEEENS3_ILl1ELl1000EEELb1ELb0EEclB8ne180100ERKS5_
FNA:10,155,_ZNKSt3__16chrono15__duration_castINS0_8durationIxNS_5ratioILl1ELl1000000000EEEEENS2_IxNS3_ILl1ELl1000EEEEENS3_ILl1ELl1000000EEELb1ELb0EEclB8ne180100ERKS5_
FNA:10,9331,_ZNKSt3__16chrono15__duration_castINS0_8durationIxNS_5ratioILl1ELl1000000EEEEENS2_IiNS3_ILl86400ELl1EEEEENS3_ILl1ELl86400000000EEELb1ELb0EEclB8ne180100ERKS5_
FNA:10,167,_ZNKSt3__16chrono15__duration_castINS0_8durationIxNS_5ratioILl1ELl1000000EEEEENS2_IxNS3_ILl1ELl1000EEEEES6_Lb1ELb0EEclB8ne180100ERKS5_
FNL:11,89,92
FNA:11,23603,_ZNKSt3__16chrono15__duration_castINS0_8durationIiNS_5ratioILl86400ELl1EEEEENS2_IxNS3_ILl1ELl1000000EEEEENS3_ILl86400000000ELl1EEELb0ELb1EEclB8ne180100ERKS5_
FNF:12
FNH:12
DA:80,9654
DA:82,9654
DA:83,9654
DA:89,23603
DA:91,23603
DA:92,23603
DA:106,33257
DA:107,33257
DA:128,9331
DA:129,9331
DA:130,9331
DA:131,0
DA:132,9331
DA:210,103620
DA:219,47206
DA:220,47206
DA:224,118610
DA:308,5304
DA:309,5304
DA:315,5304
DA:316,5304
DA:383,17146
DA:385,17146
DA:395,2695
DA:397,2695
DA:405,324
DA:407,324
LF:27
LH:26
end_of_record
TN:
SF:/Library/Developer/CommandLineTools/SDKs/MacOSX.sdk/usr/include/c++/v1/__chrono/month.h
FNL:0,33,34
FNA:0,20936,_ZNSt3__16chrono5monthC1B8ne180100Ej
FNA:0,20936,_ZNSt3__16chrono5monthC2B8ne180100Ej
FNL:1,55,55
FNA:1,42534,_ZNKSt3__16chrono5monthcvjB8ne180100Ev
FNL:2,56,56
FNA:2,361,_ZNKSt3__16chrono5month2okB8ne180100Ev
FNL:3,59,60
FNA:3,183,_ZNSt3__16chronoeqB8ne180100ERKNS0_5monthES3_
FNL:4,63,64
FNA:4,13078,_ZNSt3__16chronossB8ne180100ERKNS0_5monthES3_
FNF:5
FNH:5
DA:33,41872
DA:34,41872
DA:55,42534
DA:56,361
DA:59,183
DA:60,183
DA:63,13078
DA:64,13078
LF:8
LH:8
end_of_record
TN:
SF:/Library/Developer/CommandLineTools/SDKs/MacOSX.sdk/usr/include/c++/v1/__chrono/monthday.h
FNL:0,96,96
FNA:0,183,_ZNSt3__16chrono14month_day_lastC1B8ne180100ERKNS0_5monthE
FNA:0,183,_ZNSt3__16chrono14month_day_lastC2B8ne180100ERKNS0_5monthE
FNL:1,97,97
FNA:1,540,_ZNKSt3__16chrono14month_day_last5monthB8ne180100Ev
FNF:2
FNH:2
DA:96,366
DA:97,540
LF:2
LH:2
end_of_record
TN:
SF:/Library/Developer/CommandLineTools/SDKs/MacOSX.sdk/usr/include/c++/v1/__chrono/time_point.h
FNL:0,122,123
FNA:0,5304,_ZNSt3__16chronoeqB8ne180100INS0_12system_clockENS0_8durationIxNS_5ratioILl1ELl1000000EEEEES6_EEbRKNS0_10time_pointIT_T0_EERKNS7_IS8_T1_EE
FNL:1,174,175
FNA:1,7815,_ZNSt3__16chronossB8ne180100INS0_12system_clockENS0_8durationIxNS_5ratioILl1ELl1000000EEEEES6_EEDaRKNS0_10time_pointIT_T0_EERKNS8_IS9_T1_EE
FNL:2,185,187
FNA:2,13,_ZNSt3__16chronoplB8ne180100INS0_12system_clockENS0_8durationIiNS_5ratioILl86400ELl1EEEEEiS5_EENS0_10time_pointIT_NS_11common_typeIJT0_NS3_IT1_T2_EEEE4typeEEERKNS7_IS8_SA_EERKSD_
FNA:2,2682,_ZNSt3__16chronoplB8ne180100INS0_12system_clockENS0_8durationIxNS_5ratioILl1ELl1000000EEEEEiNS4_ILl86400ELl1EEEEENS0_10time_pointIT_NS_11common_typeIJT0_NS3_IT1_T2_EEEE4typeEEERKNS8_IS9_SB_EERKSE_
FNL:3,213,214
FNA:3,156,_ZNSt3__16chronomiB8ne180100INS0_12steady_clockENS0_8durationIxNS_5ratioILl1ELl1000000000EEEEES6_EENS_11common_typeIJT0_T1_EE4typeERKNS0_10time_pointIT_S8_EERKNSC_ISD_S9_EE
FNA:3,1,_ZNSt3__16chronomiB8ne180100INS0_12system_clockENS0_8durationIiNS_5ratioILl86400ELl1EEEEES6_EENS_11common_typeIJT0_T1_EE4typeERKNS0_10time_pointIT_S8_EERKNSC_ISD_S9_EE
FNA:3,167,_ZNSt3__16chronomiB8ne180100INS0_12system_clockENS0_8durationIxNS_5ratioILl1ELl1000000EEEEES6_EENS_11common_typeIJT0_T1_EE4typeERKNS0_10time_pointIT_S8_EERKNSC_ISD_S9_EE
FNL:4,49,49
FNA:4,22228,_ZNSt3__16chrono10time_pointINS0_12system_clockENS0_8durationIiNS_5ratioILl86400ELl1EEEEEEC1B8ne180100ERKS6_
FNA:4,22228,_ZNSt3__16chrono10time_pointINS0_12system_clockENS0_8durationIiNS_5ratioILl86400ELl1EEEEEEC2B8ne180100ERKS6_
FNA:4,2682,_ZNSt3__16chrono10time_pointINS0_12system_clockENS0_8durationIxNS_5ratioILl1ELl1000000EEEEEEC1B8ne180100ERKS6_
FNA:4,2682,_ZNSt3__16chrono10time_pointINS0_12system_clockENS0_8durationIxNS_5ratioILl1ELl1000000EEEEEEC2B8ne180100ERKS6_
FNL:5,53,54
FNA:5,11590,_ZNSt3__16chrono10time_pointINS0_12system_clockENS0_8durationIxNS_5ratioILl1ELl1000000EEEEEEC1B8ne180100INS3_IiNS4_ILl86400ELl1EEEEELi0EEERKNS1_IS2_T_EE
FNA:5,11590,_ZNSt3__16chrono10time_pointINS0_12system_clockENS0_8durationIxNS_5ratioILl1ELl1000000EEEEEEC2B8ne180100INS3_IiNS4_ILl86400ELl1EEEEELi0EEERKNS1_IS2_T_EE
FNL:6,58,58
FNA:6,312,_ZNKSt3__16chrono10time_pointINS0_12steady_clockENS0_8durationIxNS_5ratioILl1ELl1000000000EEEEEE16time_since_epochB8ne180100Ev
FNA:6,22228,_ZNKSt3__16chrono10time_pointINS0_12system_clockENS0_8durationIiNS_5ratioILl86400ELl1EEEEEE16time_since_epochB8ne180100Ev
FNA:6,38495,_ZNKSt3__16chrono10time_pointINS0_12system_clockENS0_8durationIxNS_5ratioILl1ELl1000000EEEEEE16time_since_epochB8ne180100Ev
FNL:7,96,97
FNA:7,9331,_ZNSt3__16chrono5floorB8ne180100INS0_8durationIiNS_5ratioILl86400ELl1EEEEENS0_12system_clockENS2_IxNS3_ILl1ELl1000000EEEEELi0EEENS0_10time_pointIT0_T_EERKNS9_ISA_T1_EE
FNF:8
FNH:8
DA:49,49820
DA:53,23180
DA:54,23180
DA:58,61035
DA:96,9331
DA:97,9331
DA:122,5304
DA:123,5304
DA:174,7815
DA:175,7815
DA:185,2695
DA:187,2695
DA:213,324
DA:214,324
LF:14
LH:14
end_of_record
TN:
SF:/Library/Developer/CommandLineTools/SDKs/MacOSX.sdk/usr/include/c++/v1/__chrono/weekday.h
FNL:0,41,42
FNA:0,1281,_ZNSt3__16chrono7weekdayC1B8ne180100ERKNS0_10time_pointINS0_12system_clockENS0_8durationIiNS_5ratioILl86400ELl1EEEEEEE
FNA:0,1281,_ZNSt3__16chrono7weekdayC2B8ne180100ERKNS0_10time_pointINS0_12system_clockENS0_8durationIiNS_5ratioILl86400ELl1EEEEEEE
FNL:1,66,66
FNA:1,4756,_ZNKSt3__16chrono7weekday10c_encodingB8ne180100Ev
FNL:2,74,75
FNA:2,1281,_ZNSt3__16chrono7weekday19__weekday_from_daysB8ne180100Ei
FNL:3,78,79
FNA:3,2378,_ZNSt3__16chronoeqB8ne180100ERKNS0_7weekdayES3_
FNF:4
FNH:4
DA:41,2562
DA:42,2562
DA:66,4756
DA:74,1281
DA:75,1281
DA:78,2378
DA:79,2378
LF:7
LH:7
end_of_record
TN:
SF:/Library/Developer/CommandLineTools/SDKs/MacOSX.sdk/usr/include/c++/v1/__chrono/year.h
FNL:0,105,107
FNA:0,183,_ZNKSt3__16chrono4year2okB8ne180100Ev
FNL:1,37,37
FNA:1,21194,_ZNSt3__16chrono4yearC1B8ne180100Ei
FNA:1,21194,_ZNSt3__16chrono4yearC2B8ne180100Ei
FNL:2,62,63
FNA:2,8,_ZNKSt3__16chrono4year7is_leapB8ne180100Ev
FNL:3,65,65
FNA:3,17115,_ZNKSt3__16chrono4yearcviB8ne180100Ev
FNL:4,67,67
FNA:4,183,_ZNSt3__16chrono4year3minB8ne180100Ev
FNL:5,75,76
FNA:5,298,_ZNSt3__16chronossB8ne180100ERKNS0_4yearES3_
FNF:6
FNH:6
DA:37,42388
DA:62,8
DA:63,13
DA:65,17115
DA:67,183
DA:75,298
DA:76,298
DA:105,183
DA:107,183
LF:9
LH:9
end_of_record
TN:
SF:/Library/Developer/CommandLineTools/SDKs/MacOSX.sdk/usr/include/c++/v1/__chrono/year_month.h
FNL:0,35,36
FNA:0,11855,_ZNSt3__16chrono10year_monthC1B8ne180100ERKNS0_4yearERKNS0_5monthE
FNA:0,11855,_ZNSt3__16chrono10year_monthC2B8ne180100ERKNS0_4yearERKNS0_5monthE
FNL:1,37,37
FNA:1,11855,_ZNKSt3__16chrono10year_month4yearB8ne180100Ev
FNL:2,38,38
FNA:2,11855,_ZNKSt3__16chrono10year_month5monthB8ne180100Ev
FNL:3,46,47
FNA:3,11855,_ZNSt3__16chronodvB8ne180100ERKNS0_4yearERKNS0_5monthE
FNF:4
FNH:4
DA:35,23710
DA:36,23710
DA:37,11855
DA:38,11855
DA:46,11855
DA:47,11855
LF:6
LH:6
end_of_record
TN:
SF:/Library/Developer/CommandLineTools/SDKs/MacOSX.sdk/usr/include/c++/v1/__chrono/year_month_day.h
FNL:0,112,118
FNA:0,298,_ZNSt3__16chronossB8ne180100ERKNS0_14year_month_dayES3_
FNL:1,120,121
FNA:1,11672,_ZNSt3__16chronodvB8ne180100ERKNS0_10year_monthERKNS0_3dayE
FNL:2,124,125
FNA:2,78,_ZNSt3__16chronodvB8ne180100ERKNS0_10year_monthEi
FNL:3,197,198
FNA:3,183,_ZNSt3__16chrono19year_month_day_lastC1B8ne180100ERKNS0_4yearERKNS0_14month_day_lastE
FNA:3,183,_ZNSt3__16chrono19year_month_day_lastC2B8ne180100ERKNS0_4yearERKNS0_14month_day_lastE
FNL:4,205,205
FNA:4,1,_ZNKSt3__16chrono19year_month_day_last4yearB8ne180100Ev
FNL:5,206,206
FNA:5,540,_ZNKSt3__16chrono19year_month_day_last5monthB8ne180100Ev
FNL:6,218,234
FNA:6,189,_ZNKSt3__16chrono19year_month_day_last3dayB8ne180100Ev
FNL:7,271,272
FNA:7,183,_ZNSt3__16chronodvB8ne180100ERKNS0_10year_monthENS0_9last_specE
FNL:8,344,345
FNA:8,1,_ZNSt3__16chrono14year_month_dayC1B8ne180100ERKNS0_19year_month_day_lastE
FNA:8,1,_ZNSt3__16chrono14year_month_dayC2B8ne180100ERKNS0_19year_month_day_lastE
FNL:9,347,351
FNA:9,183,_ZNKSt3__16chrono14year_month_day2okB8ne180100Ev
FNL:10,46,48
FNA:10,21014,_ZNSt3__16chrono14year_month_dayC1B8ne180100ERKNS0_4yearERKNS0_5monthERKNS0_3dayE
FNA:10,21014,_ZNSt3__16chrono14year_month_dayC2B8ne180100ERKNS0_4yearERKNS0_5monthERKNS0_3dayE
FNL:11,50,51
FNA:11,9342,_ZNSt3__16chrono14year_month_dayC1B8ne180100ERKNS0_10time_pointINS0_12system_clockENS0_8durationIiNS_5ratioILl86400ELl1EEEEEEE
FNL:12,60,60
FNA:12,4051,_ZNKSt3__16chrono14year_month_day4yearB8ne180100Ev
FNL:13,61,61
FNA:13,3339,_ZNKSt3__16chrono14year_month_day5monthB8ne180100Ev
FNL:14,62,62
FNA:14,3027,_ZNKSt3__16chrono14year_month_day3dayB8ne180100Ev
FNL:15,63,63
FNA:15,12884,_ZNKSt3__16chrono14year_month_daycvNS0_10time_pointINS0_12system_clockENS0_8durationIiNS_5ratioILl86400ELl1EEEEEEEB8ne180100Ev
FNL:16,75,87
FNA:16,9342,_ZNSt3__16chrono14year_month_day11__from_daysB8ne180100ENS0_8durationIiNS_5ratioILl86400ELl1EEEEE
FNL:17,91,103
FNA:17,12884,_ZNKSt3__16chrono14year_month_day9__to_daysB8ne180100Ev
FNF:18
FNH:18
DA:46,42028
DA:48,42028
DA:50,9342
DA:51,9342
DA:60,4051
DA:61,3339
DA:62,3027
DA:63,12884
DA:75,9342
DA:78,9342
DA:79,9342
DA:80,9342
DA:81,9342
DA:82,9342
DA:83,9342
DA:84,9342
DA:85,9342
DA:86,9342
DA:87,9342
DA:91,12884
DA:95,12884
DA:96,12884
DA:97,12884
DA:99,12884
DA:100,12884
DA:101,12884
DA:102,12884
DA:103,12884
DA:112,298
DA:113,298
DA:114,104
DA:115,194
DA:116,156
DA:117,38
DA:118,298
DA:120,11672
DA:121,11672
DA:124,78
DA:125,78
DA:197,366
DA:198,366
DA:205,1
DA:206,540
DA:218,189
DA:219,189
DA:232,189
DA:233,178
DA:234,11
DA:271,183
DA:272,183
DA:344,2
DA:345,2
DA:347,183
DA:348,183
DA:349,1
DA:350,182
DA:351,183
LF:57
LH:57
end_of_record
TN:
SF:/Library/Developer/CommandLineTools/SDKs/MacOSX.sdk/usr/include/c++/v1/__compare/ordering.h
FNL:0,213,214
FNA:0,8307,_ZNSt3__1eqB8ne180100ENS_15strong_orderingENS_20_CmpUnspecifiedParamE
FNL:1,217,218
FNA:1,6918,_ZNSt3__1ltB8ne180100ENS_15strong_orderingENS_20_CmpUnspecifiedParamE
FNL:2,221,222
FNA:2,13263,_ZNSt3__1leB8ne180100ENS_15strong_orderingENS_20_CmpUnspecifiedParamE
FNL:3,225,226
FNA:3,17140,_ZNSt3__1gtB8ne180100ENS_15strong_orderingENS_20_CmpUnspecifiedParamE
FNL:4,229,230
FNA:4,4,_ZNSt3__1geB8ne180100ENS_15strong_orderingENS_20_CmpUnspecifiedParamE
FNL:5,233,234
FNA:5,0,_ZNSt3__1ltB8ne180100ENS_20_CmpUnspecifiedParamENS_15strong_orderingE
FNL:6,37,37
FNA:6,45632,_ZNSt3__120_CmpUnspecifiedParamC1B8ne180100EMS0_i
FNA:6,45632,_ZNSt3__120_CmpUnspecifiedParamC2B8ne180100EMS0_i
FNF:7
FNH:6
DA:37,91264
DA:213,8307
DA:214,8307
DA:217,6918
DA:218,6918
DA:221,13263
DA:222,13263
DA:225,17140
DA:226,17140
DA:229,4
DA:230,4
DA:233,0
DA:234,0
LF:13
LH:11
end_of_record
TN:
SF:/Library/Developer/CommandLineTools/SDKs/MacOSX.sdk/usr/include/c++/v1/__debug_utils/randomize_range.h
FNL:0,26,38
FNA:0,0,_ZNSt3__123__debug_randomize_rangeB8ne180100INS_17_ClassicAlgPolicyENS_11__wrap_iterIPNS_4pairIN7pyfolio8DateTimeEdEEEES8_EEvT0_T1_
FNA:0,23,_ZNSt3__123__debug_randomize_rangeB8ne180100INS_17_ClassicAlgPolicyENS_11__wrap_iterIPdEES4_EEvT0_T1_
FNA:0,0,_ZNSt3__123__debug_randomize_rangeB8ne180100INS_17_ClassicAlgPolicyEPNS_4pairIN7pyfolio8DateTimeEdEES6_EEvT0_T1_
FNF:1
FNH:1
DA:26,23
DA:38,23
LF:2
LH:2
end_of_record
TN:
SF:/Library/Developer/CommandLineTools/SDKs/MacOSX.sdk/usr/include/c++/v1/__debug_utils/strict_weak_ordering_check.h
FNL:0,28,73
FNA:0,0,_ZNSt3__135__check_strict_weak_ordering_sortedB8ne180100IPNS_4pairIN7pyfolio8DateTimeEdEEZNS2_10TimeSeriesIdE22sort_by_time_optimizedEvEUlRKT_RKT0_E_EEvS8_S8_RSB_
FNA:0,23,_ZNSt3__135__check_strict_weak_ordering_sortedB8ne180100IPdNS_6__lessIvvEEEEvT_S4_RT0_
FNF:1
FNH:1
DA:28,23
DA:71,23
DA:73,23
LF:3
LH:3
end_of_record
TN:
SF:/Library/Developer/CommandLineTools/SDKs/MacOSX.sdk/usr/include/c++/v1/__exception/exception.h
FNL:0,74,74
FNA:0,0,_ZNSt9exceptionC2B8ne180100Ev
FNF:1
FNH:0
DA:74,0
LF:1
LH:0
end_of_record
TN:
SF:/Library/Developer/CommandLineTools/SDKs/MacOSX.sdk/usr/include/c++/v1/__filesystem/file_status.h
FNL:0,36,36
FNA:0,8,_ZNSt3__14__fs10filesystem11file_statusD1B8ne180100Ev
FNA:0,8,_ZNSt3__14__fs10filesystem11file_statusD2B8ne180100Ev
FNL:1,42,42
FNA:1,8,_ZNKSt3__14__fs10filesystem11file_status4typeB8ne180100Ev
FNF:2
FNH:2
DA:36,16
DA:42,8
LF:2
LH:2
end_of_record
TN:
SF:/Library/Developer/CommandLineTools/SDKs/MacOSX.sdk/usr/include/c++/v1/__filesystem/operations.h
FNL:0,104,104
FNA:0,29,_ZNSt3__14__fs10filesystem18create_directoriesB8ne180100ERKNS1_4pathE
FNL:1,148,148
FNA:1,4,_ZNSt3__14__fs10filesystem12status_knownB8ne180100ENS1_11file_statusE
FNL:2,149,150
FNA:2,4,_ZNSt3__14__fs10filesystem6existsB8ne180100ENS1_11file_statusE
FNL:3,152,152
FNA:3,4,_ZNSt3__14__fs10filesystem6existsB8ne180100ERKNS1_4pathE
FNL:4,271,271
FNA:4,29,_ZNSt3__14__fs10filesystem10remove_allB8ne180100ERKNS1_4pathE
FNL:5,298,298
FNA:5,16,_ZNSt3__14__fs10filesystem19temp_directory_pathB8ne180100Ev
FNF:6
FNH:6
DA:104,29
DA:148,4
DA:149,4
DA:150,4
DA:152,4
DA:271,29
DA:298,16
LF:7
LH:7
end_of_record
TN:
SF:/Library/Developer/CommandLineTools/SDKs/MacOSX.sdk/usr/include/c++/v1/__filesystem/path.h
FNL:0,111,111
FNA:0,30,_ZNSt3__14__fs10filesystem20__is_pathable_stringINS_12basic_stringIcNS_11char_traitsIcEENS_9allocatorIcEEEEvE13__range_beginB8ne180100ERKS8_
FNL:1,113,113
FNA:1,30,_ZNSt3__14__fs10filesystem20__is_pathable_stringINS_12basic_stringIcNS_11char_traitsIcEENS_9allocatorIcEEEEvE11__range_endB8ne180100ERKS8_
FNL:2,139,139
FNA:2,1,_ZNSt3__14__fs10filesystem24__is_pathable_char_arrayIA15_cPccLb1EE13__range_beginB8ne180100EPKc
FNA:2,16,_ZNSt3__14__fs10filesystem24__is_pathable_char_arrayIA17_cPccLb1EE13__range_beginB8ne180100EPKc
FNA:2,1,_ZNSt3__14__fs10filesystem24__is_pathable_char_arrayIA24_cPccLb1EE13__range_beginB8ne180100EPKc
FNL:3,141,147
FNA:3,1,_ZNSt3__14__fs10filesystem24__is_pathable_char_arrayIA15_cPccLb1EE11__range_endB8ne180100EPKc
FNA:3,16,_ZNSt3__14__fs10filesystem24__is_pathable_char_arrayIA17_cPccLb1EE11__range_endB8ne180100EPKc
FNA:3,1,_ZNSt3__14__fs10filesystem24__is_pathable_char_arrayIA24_cPccLb1EE11__range_endB8ne180100EPKc
FNL:4,274,276
FNA:4,48,_ZNSt3__14__fs10filesystem8_PathCVTIcE14__append_rangeB8ne180100IPKcLi0EEEvRNS_12basic_stringIcNS_11char_traitsIcEENS_9allocatorIcEEEET_SE_
FNL:5,286,289
FNA:5,1,_ZNSt3__14__fs10filesystem8_PathCVTIcE15__append_sourceB8ne180100IA15_cEEvRNS_12basic_stringIcNS_11char_traitsIcEENS_9allocatorIcEEEERKT_
FNA:5,16,_ZNSt3__14__fs10filesystem8_PathCVTIcE15__append_sourceB8ne180100IA17_cEEvRNS_12basic_stringIcNS_11char_traitsIcEENS_9allocatorIcEEEERKT_
FNA:5,1,_ZNSt3__14__fs10filesystem8_PathCVTIcE15__append_sourceB8ne180100IA24_cEEvRNS_12basic_stringIcNS_11char_traitsIcEENS_9allocatorIcEEEERKT_
FNA:5,30,_ZNSt3__14__fs10filesystem8_PathCVTIcE15__append_sourceB8ne180100INS_12basic_stringIcNS_11char_traitsIcEENS_9allocatorIcEEEEEEvRSA_RKT_
FNL:6,407,407
FNA:6,16,_ZNSt3__14__fs10filesystem4pathC1B8ne180100Ev
FNA:6,16,_ZNSt3__14__fs10filesystem4pathC2B8ne180100Ev
FNL:7,408,408
FNA:7,18,_ZNSt3__14__fs10filesystem4pathC1B8ne180100ERKS2_
FNA:7,18,_ZNSt3__14__fs10filesystem4pathC2B8ne180100ERKS2_
FNL:8,414,416
FNA:8,1,_ZNSt3__14__fs10filesystem4pathC1B8ne180100IA15_cvEERKT_NS2_6formatE
FNA:8,16,_ZNSt3__14__fs10filesystem4pathC1B8ne180100IA17_cvEERKT_NS2_6formatE
FNA:8,1,_ZNSt3__14__fs10filesystem4pathC1B8ne180100IA24_cvEERKT_NS2_6formatE
FNA:8,30,_ZNSt3__14__fs10filesystem4pathC1B8ne180100INS_12basic_stringIcNS_11char_traitsIcEENS_9allocatorIcEEEEvEERKT_NS2_6formatE
FNA:8,1,_ZNSt3__14__fs10filesystem4pathC2B8ne180100IA15_cvEERKT_NS2_6formatE
FNA:8,16,_ZNSt3__14__fs10filesystem4pathC2B8ne180100IA17_cvEERKT_NS2_6formatE
FNA:8,1,_ZNSt3__14__fs10filesystem4pathC2B8ne180100IA24_cvEERKT_NS2_6formatE
FNA:8,30,_ZNSt3__14__fs10filesystem4pathC2B8ne180100INS_12basic_stringIcNS_11char_traitsIcEENS_9allocatorIcEEEEvEERKT_NS2_6formatE
FNL:9,435,435
FNA:9,98,_ZNSt3__14__fs10filesystem4pathD1B8ne180100Ev
FNA:9,98,_ZNSt3__14__fs10filesystem4pathD2B8ne180100Ev
FNL:10,443,445
FNA:10,16,_ZNSt3__14__fs10filesystem4pathaSB8ne180100EOS2_
FNL:11,514,523
FNA:11,18,_ZNSt3__14__fs10filesystem4pathdVB8ne180100ERKS2_
FNL:12,659,663
FNA:12,18,_ZNSt3__14__fs10filesystemdvB8ne180100ERKNS1_4pathES4_
FNL:13,671,671
FNA:13,18,_ZNKSt3__14__fs10filesystem4path6nativeB8ne180100Ev
FNL:14,733,733
FNA:14,2,_ZNKSt3__14__fs10filesystem4path6stringB8ne180100Ev
FNL:15,819,819
FNA:15,18,_ZNKSt3__14__fs10filesystem4path18has_root_directoryB8ne180100Ev
FNL:16,823,823
FNA:16,18,_ZNKSt3__14__fs10filesystem4path12has_filenameB8ne180100Ev
FNL:17,827,848
FNA:17,18,_ZNKSt3__14__fs10filesystem4path11is_absoluteB8ne180100Ev
FNF:18
FNH:18
DA:111,30
DA:113,30
DA:139,18
DA:141,18
DA:143,18
DA:144,18
DA:145,311
DA:147,18
DA:274,48
DA:275,48
DA:276,48
DA:286,48
DA:288,48
DA:289,48
DA:407,32
DA:408,36
DA:414,96
DA:415,48
DA:416,96
DA:435,196
DA:443,16
DA:444,16
DA:445,16
DA:514,18
DA:515,18
DA:516,0
DA:517,0
DA:519,18
DA:520,2
DA:521,18
DA:522,18
DA:523,18
DA:659,18
DA:660,18
DA:661,18
DA:662,18
DA:663,18
DA:671,18
DA:733,2
DA:819,18
DA:823,18
DA:827,18
DA:848,18
LF:43
LH:41
end_of_record
TN:
SF:/Library/Developer/CommandLineTools/SDKs/MacOSX.sdk/usr/include/c++/v1/__functional/function.h
FNL:0,105,106
FNA:0,0,_ZNSt3__110__function10__not_nullB8ne180100IZNK7pyfolio10TimeSeriesIdE8resampleENS2_9FrequencyEEUlRKNS_6vectorIdNS_9allocatorIdEEEEE_EEbRKT_
FNL:1,150,150
FNA:1,0,_ZNKSt3__110__function12__alloc_funcIZNK7pyfolio10TimeSeriesIdE8resampleENS2_9FrequencyEEUlRKNS_6vectorIdNS_9allocatorIdEEEEE_NS7_ISC_EEFdSB_EE8__targetB8ne180100Ev
FNL:2,153,153
FNA:2,0,_ZNKSt3__110__function12__alloc_funcIZNK7pyfolio10TimeSeriesIdE8resampleENS2_9FrequencyEEUlRKNS_6vectorIdNS_9allocatorIdEEEEE_NS7_ISC_EEFdSB_EE15__get_allocatorB8ne180100Ev
FNL:3,158,159
FNA:3,0,_ZNSt3__110__function12__alloc_funcIZNK7pyfolio10TimeSeriesIdE8resampleENS2_9FrequencyEEUlRKNS_6vectorIdNS_9allocatorIdEEEEE_NS7_ISC_EEFdSB_EEC1B8ne180100ERKSC_RKSD_
FNA:3,0,_ZNSt3__110__function12__alloc_funcIZNK7pyfolio10TimeSeriesIdE8resampleENS2_9FrequencyEEUlRKNS_6vectorIdNS_9allocatorIdEEEEE_NS7_ISC_EEFdSB_EEC2B8ne180100ERKSC_RKSD_
FNL:4,161,162
FNA:4,0,_ZNSt3__110__function12__alloc_funcIZNK7pyfolio10TimeSeriesIdE8resampleENS2_9FrequencyEEUlRKNS_6vectorIdNS_9allocatorIdEEEEE_NS7_ISC_EEFdSB_EEC1B8ne180100ERKSC_OSD_
FNA:4,0,_ZNSt3__110__function12__alloc_funcIZNK7pyfolio10TimeSeriesIdE8resampleENS2_9FrequencyEEUlRKNS_6vectorIdNS_9allocatorIdEEEEE_NS7_ISC_EEFdSB_EEC2B8ne180100ERKSC_OSD_
FNL:5,164,165
FNA:5,0,_ZNSt3__110__function12__alloc_funcIZNK7pyfolio10TimeSeriesIdE8resampleENS2_9FrequencyEEUlRKNS_6vectorIdNS_9allocatorIdEEEEE_NS7_ISC_EEFdSB_EEC1B8ne180100EOSC_OSD_
FNA:5,0,_ZNSt3__110__function12__alloc_funcIZNK7pyfolio10TimeSeriesIdE8resampleENS2_9FrequencyEEUlRKNS_6vectorIdNS_9allocatorIdEEEEE_NS7_ISC_EEFdSB_EEC2B8ne180100EOSC_OSD_
FNL:6,167,169
FNA:6,0,_ZNSt3__110__function12__alloc_funcIZNK7pyfolio10TimeSeriesIdE8resampleENS2_9FrequencyEEUlRKNS_6vectorIdNS_9allocatorIdEEEEE_NS7_ISC_EEFdSB_EEclB8ne180100ESB_
FNL:7,182,182
FNA:7,0,_ZNSt3__110__function12__alloc_funcIZNK7pyfolio10TimeSeriesIdE8resampleENS2_9FrequencyEEUlRKNS_6vectorIdNS_9allocatorIdEEEEE_NS7_ISC_EEFdSB_EE7destroyB8ne180100Ev
FNL:8,237,237
FNA:8,0,_ZNSt3__110__function6__baseIFdRKNS_6vectorIdNS_9allocatorIdEEEEEEC2B8ne180100Ev
FNL:9,238,238
FNA:9,0,_ZNSt3__110__function6__baseIFdRKNS_6vectorIdNS_9allocatorIdEEEEEED0Ev
FNA:9,0,_ZNSt3__110__function6__baseIFdRKNS_6vectorIdNS_9allocatorIdEEEEEED1Ev
FNA:9,0,_ZNSt3__110__function6__baseIFdRKNS_6vectorIdNS_9allocatorIdEEEEEED2Ev
FNL:10,253
FNA:10,0,_ZNSt3__110__function6__funcIZNK7pyfolio10TimeSeriesIdE8resampleENS2_9FrequencyEEUlRKNS_6vectorIdNS_9allocatorIdEEEEE_NS7_ISC_EEFdSB_EED0Ev
FNA:10,0,_ZNSt3__110__function6__funcIZNK7pyfolio10TimeSeriesIdE8resampleENS2_9FrequencyEEUlRKNS_6vectorIdNS_9allocatorIdEEEEE_NS7_ISC_EEFdSB_EED1Ev
FNA:10,0,_ZNSt3__110__function6__funcIZNK7pyfolio10TimeSeriesIdE8resampleENS2_9FrequencyEEUlRKNS_6vectorIdNS_9allocatorIdEEEEE_NS7_ISC_EEFdSB_EED2Ev
FNL:11,262,262
FNA:11,0,_ZNSt3__110__function6__funcIZNK7pyfolio10TimeSeriesIdE8resampleENS2_9FrequencyEEUlRKNS_6vectorIdNS_9allocatorIdEEEEE_NS7_ISC_EEFdSB_EEC1B8ne180100ERKSC_RKSD_
FNA:11,0,_ZNSt3__110__function6__funcIZNK7pyfolio10TimeSeriesIdE8resampleENS2_9FrequencyEEUlRKNS_6vectorIdNS_9allocatorIdEEEEE_NS7_ISC_EEFdSB_EEC2B8ne180100ERKSC_RKSD_
FNL:12,264,264
FNA:12,0,_ZNSt3__110__function6__funcIZNK7pyfolio10TimeSeriesIdE8resampleENS2_9FrequencyEEUlRKNS_6vectorIdNS_9allocatorIdEEEEE_NS7_ISC_EEFdSB_EEC1B8ne180100ERKSC_OSD_
FNA:12,0,_ZNSt3__110__function6__funcIZNK7pyfolio10TimeSeriesIdE8resampleENS2_9FrequencyEEUlRKNS_6vectorIdNS_9allocatorIdEEEEE_NS7_ISC_EEFdSB_EEC2B8ne180100ERKSC_OSD_
FNL:13,266,266
FNA:13,0,_ZNSt3__110__function6__funcIZNK7pyfolio10TimeSeriesIdE8resampleENS2_9FrequencyEEUlRKNS_6vectorIdNS_9allocatorIdEEEEE_NS7_ISC_EEFdSB_EEC1B8ne180100EOSC_OSD_
FNA:13,0,_ZNSt3__110__function6__funcIZNK7pyfolio10TimeSeriesIdE8resampleENS2_9FrequencyEEUlRKNS_6vectorIdNS_9allocatorIdEEEEE_NS7_ISC_EEFdSB_EEC2B8ne180100EOSC_OSD_
FNL:14,280,288
FNA:14,0,_ZNKSt3__110__function6__funcIZNK7pyfolio10TimeSeriesIdE8resampleENS2_9FrequencyEEUlRKNS_6vectorIdNS_9allocatorIdEEEEE_NS7_ISC_EEFdSB_EE7__cloneEv
FNL:15,291,293
FNA:15,0,_ZNKSt3__110__function6__funcIZNK7pyfolio10TimeSeriesIdE8resampleENS2_9FrequencyEEUlRKNS_6vectorIdNS_9allocatorIdEEEEE_NS7_ISC_EEFdSB_EE7__cloneEPNS0_6__baseISE_EE
FNL:16,296,298
FNA:16,0,_ZNSt3__110__function6__funcIZNK7pyfolio10TimeSeriesIdE8resampleENS2_9FrequencyEEUlRKNS_6vectorIdNS_9allocatorIdEEEEE_NS7_ISC_EEFdSB_EE7destroyEv
FNL:17,301,307
FNA:17,0,_ZNSt3__110__function6__funcIZNK7pyfolio10TimeSeriesIdE8resampleENS2_9FrequencyEEUlRKNS_6vectorIdNS_9allocatorIdEEEEE_NS7_ISC_EEFdSB_EE18destroy_deallocateEv
FNL:18,310,311
FNA:18,0,_ZNSt3__110__function6__funcIZNK7pyfolio10TimeSeriesIdE8resampleENS2_9FrequencyEEUlRKNS_6vectorIdNS_9allocatorIdEEEEE_NS7_ISC_EEFdSB_EEclESB_
FNL:19,317,321
FNA:19,0,_ZNKSt3__110__function6__funcIZNK7pyfolio10TimeSeriesIdE8resampleENS2_9FrequencyEEUlRKNS_6vectorIdNS_9allocatorIdEEEEE_NS7_ISC_EEFdSB_EE6targetERKSt9type_info
FNL:20,324,325
FNA:20,0,_ZNKSt3__110__function6__funcIZNK7pyfolio10TimeSeriesIdE8resampleENS2_9FrequencyEEUlRKNS_6vectorIdNS_9allocatorIdEEEEE_NS7_ISC_EEFdSB_EE11target_typeEv
FNL:21,350,367
FNA:21,0,_ZNSt3__110__function12__value_funcIFdRKNS_6vectorIdNS_9allocatorIdEEEEEEC1B8ne180100IZNK7pyfolio10TimeSeriesIdE8resampleENSB_9FrequencyEEUlS7_E_NS3_ISF_EEEEOT_RKT0_
FNA:21,0,_ZNSt3__110__function12__value_funcIFdRKNS_6vectorIdNS_9allocatorIdEEEEEEC2B8ne180100IZNK7pyfolio10TimeSeriesIdE8resampleENSB_9FrequencyEEUlS7_E_NS3_ISF_EEEEOT_RKT0_
FNL:22,370,370
FNA:22,0,_ZNSt3__110__function12__value_funcIFdRKNS_6vectorIdNS_9allocatorIdEEEEEEC1B8ne180100IZNK7pyfolio10TimeSeriesIdE8resampleENSB_9FrequencyEEUlS7_E_Li0EEEOT_
FNL:23,394,399
FNA:23,0,_ZNSt3__110__function12__value_funcIFdRKNS_6vectorIdNS_9allocatorIdEEEEEED1B8ne180100Ev
FNA:23,0,_ZNSt3__110__function12__value_funcIFdRKNS_6vectorIdNS_9allocatorIdEEEEEED2B8ne180100Ev
FNL:24,425,428
FNA:24,0,_ZNKSt3__110__function12__value_funcIFdRKNS_6vectorIdNS_9allocatorIdEEEEEEclB8ne180100ES7_
FNL:25,61,61
FNA:25,0,_ZNSt3__117bad_function_callC1B8ne180100Ev
FNA:25,0,_ZNSt3__117bad_function_callC2B8ne180100Ev
FNL:26,70,70
FNA:26,0,_ZNSt3__117bad_function_callD0Ev
FNA:26,0,_ZNSt3__117bad_function_callD1Ev
FNA:26,0,_ZNSt3__117bad_function_callD2Ev
FNL:27,79,81
FNA:27,0,_ZNSt3__125__throw_bad_function_callB8ne180100Ev
FNL:28,938,938
FNA:28,0,_ZNSt3__18functionIFdRKNS_6vectorIdNS_9allocatorIdEEEEEEC1IZNK7pyfolio10TimeSeriesIdE8resampleENSA_9FrequencyEEUlS6_E_vEET_
FNA:28,0,_ZNSt3__18functionIFdRKNS_6vectorIdNS_9allocatorIdEEEEEEC2IZNK7pyfolio10TimeSeriesIdE8resampleENSA_9FrequencyEEUlS6_E_vEET_
FNL:29,972,972
FNA:29,0,_ZNSt3__18functionIFdRKNS_6vectorIdNS_9allocatorIdEEEEEED1Ev
FNA:29,0,_ZNSt3__18functionIFdRKNS_6vectorIdNS_9allocatorIdEEEEEED2Ev
FNL:30,980,981
FNA:30,0,_ZNKSt3__18functionIFdRKNS_6vectorIdNS_9allocatorIdEEEEEEclES6_
FNF:31
FNH:0
DA:61,0
DA:70,0
DA:79,0
DA:81,0
DA:105,0
DA:106,0
DA:150,0
DA:153,0
DA:158,0
DA:159,0
DA:161,0
DA:162,0
DA:164,0
DA:165,0
DA:167,0
DA:169,0
DA:182,0
DA:237,0
DA:238,0
DA:262,0
DA:264,0
DA:266,0
DA:280,0
DA:283,0
DA:285,0
DA:286,0
DA:287,0
DA:288,0
DA:291,0
DA:292,0
DA:293,0
DA:296,0
DA:297,0
DA:298,0
DA:301,0
DA:304,0
DA:305,0
DA:306,0
DA:307,0
DA:310,0
DA:311,0
DA:317,0
DA:318,0
DA:319,0
DA:320,0
DA:321,0
DA:324,0
DA:325,0
DA:350,0
DA:355,0
DA:356,0
DA:359,0
DA:366,0
DA:367,0
DA:370,0
DA:394,0
DA:395,0
DA:396,0
DA:397,0
DA:398,0
DA:399,0
DA:425,0
DA:426,0
DA:427,0
DA:428,0
DA:938,0
DA:972,0
DA:980,0
DA:981,0
LF:69
LH:0
end_of_record
TN:
SF:/Library/Developer/CommandLineTools/SDKs/MacOSX.sdk/usr/include/c++/v1/__functional/hash.h
FNL:0,136,137
FNA:0,1911,_ZNSt3__121__murmur2_or_cityhashImLm64EE8__rotateB8ne180100Emi
FNL:1,140,141
FNA:1,145,_ZNSt3__121__murmur2_or_cityhashImLm64EE22__rotate_by_at_least_1B8ne180100Emi
FNL:2,144,144
FNA:2,294,_ZNSt3__121__murmur2_or_cityhashImLm64EE11__shift_mixB8ne180100Em
FNL:3,146,153
FNA:3,392,_ZNSt3__121__murmur2_or_cityhashImLm64EE13__hash_len_16B8ne180100Emm
FNL:4,157,181
FNA:4,147,_ZNSt3__121__murmur2_or_cityhashImLm64EE18__hash_len_0_to_16B8ne180100EPKcm
FNL:5,184,190
FNA:5,245,_ZNSt3__121__murmur2_or_cityhashImLm64EE19__hash_len_17_to_32B8ne180100EPKcm
FNL:6,196,203
FNA:6,0,_ZNSt3__121__murmur2_or_cityhashImLm64EE29__weak_hash_len_32_with_seedsB8ne180100Emmmmmm
FNL:7,208,215
FNA:7,0,_ZNSt3__121__murmur2_or_cityhashImLm64EE29__weak_hash_len_32_with_seedsB8ne180100EPKcmm
FNL:8,220,240
FNA:8,147,_ZNSt3__121__murmur2_or_cityhashImLm64EE19__hash_len_33_to_64B8ne180100EPKcm
FNL:9,38,41
FNA:9,4,_ZNSt3__110__loadwordB8ne180100IjEET_PKv
FNA:9,2740,_ZNSt3__110__loadwordB8ne180100ImEET_PKv
FNL:10,399,399
FNA:10,504,_ZNKSt3__14hashIiEclB8ne180100Ei
FNL:11,89,127
FNA:11,539,_ZNKSt3__121__murmur2_or_cityhashImLm64EEclB8ne180100EPKvm
FNF:12
FNH:10
DA:38,2744
DA:40,2744
DA:41,2744
DA:89,539
DA:90,539
DA:91,539
DA:92,392
DA:93,147
DA:95,245
DA:97,147
DA:98,147
DA:103,0
DA:104,0
DA:105,0
DA:106,0
DA:107,0
DA:108,0
DA:109,0
DA:112,0
DA:113,0
DA:114,0
DA:115,0
DA:116,0
DA:117,0
DA:118,0
DA:119,0
DA:120,0
DA:121,0
DA:122,0
DA:123,0
DA:124,0
DA:125,0
DA:126,0
DA:127,539
DA:136,1911
DA:137,1911
DA:140,145
DA:141,145
DA:144,294
DA:146,392
DA:147,392
DA:148,392
DA:149,392
DA:150,392
DA:151,392
DA:152,392
DA:153,392
DA:157,147
DA:158,147
DA:159,145
DA:160,145
DA:161,145
DA:163,2
DA:164,2
DA:165,2
DA:169,2
DA:172,0
DA:173,0
DA:174,0
DA:175,0
DA:176,0
DA:177,0
DA:178,0
DA:180,0
DA:181,147
DA:184,245
DA:185,245
DA:186,245
DA:187,245
DA:188,245
DA:189,245
DA:190,245
DA:196,0
DA:197,0
DA:198,0
DA:199,0
DA:200,0
DA:201,0
DA:202,0
DA:203,0
DA:208,0
DA:209,0
DA:210,0
DA:211,0
DA:212,0
DA:213,0
DA:214,0
DA:215,0
DA:220,147
DA:221,147
DA:222,147
DA:223,147
DA:224,147
DA:225,147
DA:226,147
DA:227,147
DA:228,147
DA:229,147
DA:230,147
DA:231,147
DA:232,147
DA:233,147
DA:234,147
DA:235,147
DA:236,147
DA:237,147
DA:238,147
DA:239,147
DA:240,147
DA:399,504
LF:110
LH:64
end_of_record
TN:
SF:/Library/Developer/CommandLineTools/SDKs/MacOSX.sdk/usr/include/c++/v1/__functional/identity.h
FNL:0,29,30
FNA:0,0,_ZNKSt3__110__identityclB8ne180100IRKN7pyfolio8DateTimeEEEOT_S7_
FNA:0,0,_ZNKSt3__110__identityclB8ne180100IRKNS_12basic_stringIcNS_11char_traitsIcEENS_9allocatorIcEEEEEEOT_SB_
FNA:0,502,_ZNKSt3__110__identityclB8ne180100IRKdEEOT_S5_
FNA:0,0,_ZNKSt3__110__identityclB8ne180100IRKmEEOT_S5_
FNA:0,522,_ZNKSt3__110__identityclB8ne180100IRdEEOT_S4_
FNF:1
FNH:1
DA:29,1024
DA:30,1024
LF:2
LH:2
end_of_record
TN:
SF:/Library/Developer/CommandLineTools/SDKs/MacOSX.sdk/usr/include/c++/v1/__functional/operations.h
FNL:0,296,297
FNA:0,0,_ZNKSt3__18equal_toINS_12basic_stringIcNS_11char_traitsIcEENS_9allocatorIcEEEEEclB8ne180100ERKS6_S9_
FNA:0,502,_ZNKSt3__18equal_toIiEclB8ne180100ERKiS3_
FNL:1,357,358
FNA:1,0,_ZNKSt3__14lessIN7pyfolio8DateTimeEEclB8ne180100ERKS2_S5_
FNA:1,308,_ZNKSt3__14lessINS_12basic_stringIcNS_11char_traitsIcEENS_9allocatorIcEEEEEclB8ne180100ERKS6_S9_
FNA:1,283,_ZNKSt3__14lessINS_6chrono14year_month_dayEEclB8ne180100ERKS2_S5_
FNL:2,367,370
FNA:2,0,_ZNKSt3__14lessIvEclB8ne180100IRA5_KcRKNS_12basic_stringIcNS_11char_traitsIcEENS_9allocatorIcEEEEEEDTltclsr3stdE7forwardIT_Efp_Eclsr3stdE7forwardIT0_Efp0_EEOSE_OSF_
FNA:2,0,_ZNKSt3__14lessIvEclB8ne180100IRKNS_12basic_stringIcNS_11char_traitsIcEENS_9allocatorIcEEEERA5_KcEEDTltclsr3stdE7forwardIT_Efp_Eclsr3stdE7forwardIT0_Efp0_EEOSE_OSF_
FNA:2,6325,_ZNKSt3__14lessIvEclB8ne180100IRKNS_12basic_stringIcNS_11char_traitsIcEENS_9allocatorIcEEEESA_EEDTltclsr3stdE7forwardIT_Efp_Eclsr3stdE7forwardIT0_Efp0_EEOSB_OSC_
FNF:3
FNH:3
DA:296,502
DA:297,502
DA:357,591
DA:358,591
DA:367,6325
DA:370,6325
LF:6
LH:6
end_of_record
TN:
SF:/Library/Developer/CommandLineTools/SDKs/MacOSX.sdk/usr/include/c++/v1/__hash_table
FNL:0,100
FNA:0,0,_ZNKSt3__116__hash_node_baseIPNS_11__hash_nodeINS_12basic_stringIcNS_11char_traitsIcEENS_9allocatorIcEEEEPvEEE6__hashB8ne180100Ev
FNA:0,1004,_ZNKSt3__116__hash_node_baseIPNS_11__hash_nodeINS_17__hash_value_typeIiNS_6vectorIdNS_9allocatorIdEEEEEEPvEEE6__hashB8ne180100Ev
FNL:1,102
FNA:1,59,_ZNSt3__116__hash_node_baseIPNS_11__hash_nodeINS_12basic_stringIcNS_11char_traitsIcEENS_9allocatorIcEEEEPvEEEC1B8ne180100Ev
FNA:1,59,_ZNSt3__116__hash_node_baseIPNS_11__hash_nodeINS_12basic_stringIcNS_11char_traitsIcEENS_9allocatorIcEEEEPvEEEC2B8ne180100Ev
FNA:1,2,_ZNSt3__116__hash_node_baseIPNS_11__hash_nodeINS_17__hash_value_typeIiNS_6vectorIdNS_9allocatorIdEEEEEEPvEEEC1B8ne180100Ev
FNA:1,2,_ZNSt3__116__hash_node_baseIPNS_11__hash_nodeINS_17__hash_value_typeIiNS_6vectorIdNS_9allocatorIdEEEEEEPvEEEC2B8ne180100Ev
FNL:2,103
FNA:2,0,_ZNSt3__116__hash_node_baseIPNS_11__hash_nodeINS_12basic_stringIcNS_11char_traitsIcEENS_9allocatorIcEEEEPvEEEC2B8ne180100EPSB_
FNA:2,2,_ZNSt3__116__hash_node_baseIPNS_11__hash_nodeINS_17__hash_value_typeIiNS_6vectorIdNS_9allocatorIdEEEEEEPvEEEC2B8ne180100EPSB_
FNL:3,1073
FNA:3,59,_ZNSt3__112__hash_tableINS_12basic_stringIcNS_11char_traitsIcEENS_9allocatorIcEEEENS_4hashIS6_EENS_8equal_toIS6_EENS4_IS6_EEED1Ev
FNA:3,59,_ZNSt3__112__hash_tableINS_12basic_stringIcNS_11char_traitsIcEENS_9allocatorIcEEEENS_4hashIS6_EENS_8equal_toIS6_EENS4_IS6_EEED2Ev
FNA:3,2,_ZNSt3__112__hash_tableINS_17__hash_value_typeIiNS_6vectorIdNS_9allocatorIdEEEEEENS_22__unordered_map_hasherIiS6_NS_4hashIiEENS_8equal_toIiEELb1EEENS_21__unordered_map_equalIiS6_SB_S9_Lb1EEENS3_IS6_EEED1Ev
FNA:3,2,_ZNSt3__112__hash_tableINS_17__hash_value_typeIiNS_6vectorIdNS_9allocatorIdEEEEEENS_22__unordered_map_hasherIiS6_NS_4hashIiEENS_8equal_toIiEELb1EEENS_21__unordered_map_equalIiS6_SB_S9_Lb1EEENS3_IS6_EEED2Ev
FNL:4,1106
FNA:4,59,_ZNSt3__112__hash_tableINS_12basic_stringIcNS_11char_traitsIcEENS_9allocatorIcEEEENS_4hashIS6_EENS_8equal_toIS6_EENS4_IS6_EEE17__deallocate_nodeEPNS_16__hash_node_baseIPNS_11__hash_nodeIS6_PvEEEE
FNA:4,2,_ZNSt3__112__hash_tableINS_17__hash_value_typeIiNS_6vectorIdNS_9allocatorIdEEEEEENS_22__unordered_map_hasherIiS6_NS_4hashIiEENS_8equal_toIiEELb1EEENS_21__unordered_map_equalIiS6_SB_S9_Lb1EEENS3_IS6_EEE17__deallocate_nodeEPNS_16__hash_node_baseIPNS_11__hash_nodeIS6_PvEEEE
FNL:5,1131
FNA:5,12,_ZNSt3__112__hash_tableINS_12basic_stringIcNS_11char_traitsIcEENS_9allocatorIcEEEENS_4hashIS6_EENS_8equal_toIS6_EENS4_IS6_EEE13__move_assignERSC_NS_17integral_constantIbLb1EEE
FNL:6,1190
FNA:6,12,_ZNSt3__112__hash_tableINS_12basic_stringIcNS_11char_traitsIcEENS_9allocatorIcEEEENS_4hashIS6_EENS_8equal_toIS6_EENS4_IS6_EEEaSEOSC_
FNL:7,124
FNA:7,0,_ZNSt3__111__hash_nodeINS_12basic_stringIcNS_11char_traitsIcEENS_9allocatorIcEEEEPvE11__get_valueB8ne180100Ev
FNA:7,1012,_ZNSt3__111__hash_nodeINS_17__hash_value_typeIiNS_6vectorIdNS_9allocatorIdEEEEEEPvE11__get_valueB8ne180100Ev
FNL:8,1262
FNA:8,35,_ZNSt3__112__hash_tableINS_12basic_stringIcNS_11char_traitsIcEENS_9allocatorIcEEEENS_4hashIS6_EENS_8equal_toIS6_EENS4_IS6_EEE5beginEv
FNA:8,2,_ZNSt3__112__hash_tableINS_17__hash_value_typeIiNS_6vectorIdNS_9allocatorIdEEEEEENS_22__unordered_map_hasherIiS6_NS_4hashIiEENS_8equal_toIiEELb1EEENS_21__unordered_map_equalIiS6_SB_S9_Lb1EEENS3_IS6_EEE5beginEv
FNL:9,1268
FNA:9,2,_ZNSt3__112__hash_tableINS_17__hash_value_typeIiNS_6vectorIdNS_9allocatorIdEEEEEENS_22__unordered_map_hasherIiS6_NS_4hashIiEENS_8equal_toIiEELb1EEENS_21__unordered_map_equalIiS6_SB_S9_Lb1EEENS3_IS6_EEE3endEv
FNL:10,1280
FNA:10,1078,_ZNKSt3__112__hash_tableINS_12basic_stringIcNS_11char_traitsIcEENS_9allocatorIcEEEENS_4hashIS6_EENS_8equal_toIS6_EENS4_IS6_EEE3endEv
FNL:11,1285
FNA:11,12,_ZNSt3__112__hash_tableINS_12basic_stringIcNS_11char_traitsIcEENS_9allocatorIcEEEENS_4hashIS6_EENS_8equal_toIS6_EENS4_IS6_EEE5clearEv
FNL:12,134
FNA:12,0,_ZNSt3__111__hash_nodeINS_12basic_stringIcNS_11char_traitsIcEENS_9allocatorIcEEEEPvEC1B8ne180100EPNS_16__hash_node_baseIPS8_EEm
FNA:12,0,_ZNSt3__111__hash_nodeINS_12basic_stringIcNS_11char_traitsIcEENS_9allocatorIcEEEEPvEC2B8ne180100EPNS_16__hash_node_baseIPS8_EEm
FNA:12,2,_ZNSt3__111__hash_nodeINS_17__hash_value_typeIiNS_6vectorIdNS_9allocatorIdEEEEEEPvEC1B8ne180100EPNS_16__hash_node_baseIPS8_EEm
FNA:12,2,_ZNSt3__111__hash_nodeINS_17__hash_value_typeIiNS_6vectorIdNS_9allocatorIdEEEEEEPvEC2B8ne180100EPNS_16__hash_node_baseIPS8_EEm
FNL:13,135
FNA:13,0,_ZNSt3__111__hash_nodeINS_12basic_stringIcNS_11char_traitsIcEENS_9allocatorIcEEEEPvED1B8ne180100Ev
FNA:13,0,_ZNSt3__111__hash_nodeINS_12basic_stringIcNS_11char_traitsIcEENS_9allocatorIcEEEEPvED2B8ne180100Ev
FNA:13,2,_ZNSt3__111__hash_nodeINS_17__hash_value_typeIiNS_6vectorIdNS_9allocatorIdEEEEEEPvED1B8ne180100Ev
FNA:13,2,_ZNSt3__111__hash_nodeINS_17__hash_value_typeIiNS_6vectorIdNS_9allocatorIdEEEEEEPvED2B8ne180100Ev
FNL:14,138
FNA:14,2,_ZNSt3__116__is_hash_power2B8ne180100Em
FNL:15,140
FNA:15,504,_ZNSt3__116__constrain_hashB8ne180100Emm
FNL:16,144
FNA:16,0,_ZNSt3__116__next_hash_pow2B8ne180100Em
FNL:17,1476
FNA:17,0,_ZNSt3__112__hash_tableINS_12basic_stringIcNS_11char_traitsIcEENS_9allocatorIcEEEENS_4hashIS6_EENS_8equal_toIS6_EENS4_IS6_EEE25__emplace_unique_key_argsIS6_JS6_EEENS_4pairINS_15__hash_iteratorIPNS_11__hash_nodeIS6_PvEEEEbEERKT_DpOT0_
FNA:17,252,_ZNSt3__112__hash_tableINS_17__hash_value_typeIiNS_6vectorIdNS_9allocatorIdEEEEEENS_22__unordered_map_hasherIiS6_NS_4hashIiEENS_8equal_toIiEELb1EEENS_21__unordered_map_equalIiS6_SB_S9_Lb1EEENS3_IS6_EEE25__emplace_unique_key_argsIiJRKNS_21piecewise_construct_tENS_5tupleIJOiEEENSL_IJEEEEEENS_4pairINS_15__hash_iteratorIPNS_11__hash_nodeIS6_PvEEEEbEERKT_DpOT0_
FNA:17,252,_ZNSt3__112__hash_tableINS_17__hash_value_typeIiNS_6vectorIdNS_9allocatorIdEEEEEENS_22__unordered_map_hasherIiS6_NS_4hashIiEENS_8equal_toIiEELb1EEENS_21__unordered_map_equalIiS6_SB_S9_Lb1EEENS3_IS6_EEE25__emplace_unique_key_argsIiJRKNS_21piecewise_construct_tENS_5tupleIJRKiEEENSL_IJEEEEEENS_4pairINS_15__hash_iteratorIPNS_11__hash_nodeIS6_PvEEEEbEERKT_DpOT0_
FNL:18,1656
FNA:18,0,_ZNSt3__112__hash_tableINS_12basic_stringIcNS_11char_traitsIcEENS_9allocatorIcEEEENS_4hashIS6_EENS_8equal_toIS6_EENS4_IS6_EEE8__rehashILb1EEEvm
FNA:18,2,_ZNSt3__112__hash_tableINS_17__hash_value_typeIiNS_6vectorIdNS_9allocatorIdEEEEEENS_22__unordered_map_hasherIiS6_NS_4hashIiEENS_8equal_toIiEELb1EEENS_21__unordered_map_equalIiS6_SB_S9_Lb1EEENS3_IS6_EEE8__rehashILb1EEEvm
FNL:19,1676
FNA:19,0,_ZNSt3__112__hash_tableINS_12basic_stringIcNS_11char_traitsIcEENS_9allocatorIcEEEENS_4hashIS6_EENS_8equal_toIS6_EENS4_IS6_EEE11__do_rehashILb1EEEvm
FNA:19,2,_ZNSt3__112__hash_tableINS_17__hash_value_typeIiNS_6vectorIdNS_9allocatorIdEEEEEENS_22__unordered_map_hasherIiS6_NS_4hashIiEENS_8equal_toIiEELb1EEENS_21__unordered_map_equalIiS6_SB_S9_Lb1EEENS3_IS6_EEE11__do_rehashILb1EEEvm
FNL:20,172
FNA:20,0,_ZNSt3__122__hash_key_value_typesINS_12basic_stringIcNS_11char_traitsIcEENS_9allocatorIcEEEEE9__get_keyB8ne180100ERKS6_
FNL:21,174
FNA:21,0,_ZNSt3__122__hash_key_value_typesINS_12basic_stringIcNS_11char_traitsIcEENS_9allocatorIcEEEEE9__get_ptrB8ne180100ERS6_
FNL:22,1740
FNA:22,539,_ZNKSt3__112__hash_tableINS_12basic_stringIcNS_11char_traitsIcEENS_9allocatorIcEEEENS_4hashIS6_EENS_8equal_toIS6_EENS4_IS6_EEE4findIS6_EENS_21__hash_const_iteratorIPNS_11__hash_nodeIS6_PvEEEERKT_
FNL:23,1785
FNA:23,0,_ZNSt3__112__hash_tableINS_12basic_stringIcNS_11char_traitsIcEENS_9allocatorIcEEEENS_4hashIS6_EENS_8equal_toIS6_EENS4_IS6_EEE21__construct_node_hashIS6_JEEENS_10unique_ptrINS_11__hash_nodeIS6_PvEENS_22__hash_node_destructorINS4_ISH_EEEEEEmOT_DpOT0_
FNA:23,1,_ZNSt3__112__hash_tableINS_17__hash_value_typeIiNS_6vectorIdNS_9allocatorIdEEEEEENS_22__unordered_map_hasherIiS6_NS_4hashIiEENS_8equal_toIiEELb1EEENS_21__unordered_map_equalIiS6_SB_S9_Lb1EEENS3_IS6_EEE21__construct_node_hashIRKNS_21piecewise_construct_tEJNS_5tupleIJOiEEENSL_IJEEEEEENS_10unique_ptrINS_11__hash_nodeIS6_PvEENS_22__hash_node_destructorINS3_ISS_EEEEEEmOT_DpOT0_
FNA:23,1,_ZNSt3__112__hash_tableINS_17__hash_value_typeIiNS_6vectorIdNS_9allocatorIdEEEEEENS_22__unordered_map_hasherIiS6_NS_4hashIiEENS_8equal_toIiEELb1EEENS_21__unordered_map_equalIiS6_SB_S9_Lb1EEENS3_IS6_EEE21__construct_node_hashIRKNS_21piecewise_construct_tEJNS_5tupleIJRKiEEENSL_IJEEEEEENS_10unique_ptrINS_11__hash_nodeIS6_PvEENS_22__hash_node_destructorINS3_IST_EEEEEEmOT_DpOT0_
FNL:24,1880
FNA:24,539,_ZNKSt3__112__hash_tableINS_12basic_stringIcNS_11char_traitsIcEENS_9allocatorIcEEEENS_4hashIS6_EENS_8equal_toIS6_EENS4_IS6_EEE14__count_uniqueIS6_EEmRKT_
FNL:25,199
FNA:25,4,_ZNSt3__122__hash_key_value_typesINS_17__hash_value_typeIiNS_6vectorIdNS_9allocatorIdEEEEEEE9__get_ptrB8ne180100ERS6_
FNL:26,289
FNA:26,506,_ZNKSt3__115__hash_iteratorIPNS_11__hash_nodeINS_17__hash_value_typeIiNS_6vectorIdNS_9allocatorIdEEEEEEPvEEEptB8ne180100Ev
FNL:27,293
FNA:27,2,_ZNSt3__115__hash_iteratorIPNS_11__hash_nodeINS_17__hash_value_typeIiNS_6vectorIdNS_9allocatorIdEEEEEEPvEEEppB8ne180100Ev
FNL:28,304
FNA:28,4,_ZNSt3__1eqB8ne180100ERKNS_15__hash_iteratorIPNS_11__hash_nodeINS_17__hash_value_typeIiNS_6vectorIdNS_9allocatorIdEEEEEEPvEEEESD_
FNL:29,312
FNA:29,35,_ZNSt3__115__hash_iteratorIPNS_11__hash_nodeINS_12basic_stringIcNS_11char_traitsIcEENS_9allocatorIcEEEEPvEEEC1B8ne180100EPNS_16__hash_node_baseISA_EE
FNA:29,35,_ZNSt3__115__hash_iteratorIPNS_11__hash_nodeINS_12basic_stringIcNS_11char_traitsIcEENS_9allocatorIcEEEEPvEEEC2B8ne180100EPNS_16__hash_node_baseISA_EE
FNA:29,508,_ZNSt3__115__hash_iteratorIPNS_11__hash_nodeINS_17__hash_value_typeIiNS_6vectorIdNS_9allocatorIdEEEEEEPvEEEC1B8ne180100EPNS_16__hash_node_baseISA_EE
FNA:29,508,_ZNSt3__115__hash_iteratorIPNS_11__hash_nodeINS_17__hash_value_typeIiNS_6vectorIdNS_9allocatorIdEEEEEEPvEEEC2B8ne180100EPNS_16__hash_node_baseISA_EE
FNL:30,346
FNA:30,35,_ZNSt3__121__hash_const_iteratorIPNS_11__hash_nodeINS_12basic_stringIcNS_11char_traitsIcEENS_9allocatorIcEEEEPvEEEC1B8ne180100ERKNS_15__hash_iteratorISA_EE
FNA:30,35,_ZNSt3__121__hash_const_iteratorIPNS_11__hash_nodeINS_12basic_stringIcNS_11char_traitsIcEENS_9allocatorIcEEEEPvEEEC2B8ne180100ERKNS_15__hash_iteratorISA_EE
FNL:31,353
FNA:31,0,_ZNSt3__121__hash_const_iteratorIPNS_11__hash_nodeINS_12basic_stringIcNS_11char_traitsIcEENS_9allocatorIcEEEEPvEEEppB8ne180100Ev
FNL:32,364
FNA:32,539,_ZNSt3__1eqB8ne180100ERKNS_21__hash_const_iteratorIPNS_11__hash_nodeINS_12basic_stringIcNS_11char_traitsIcEENS_9allocatorIcEEEEPvEEEESD_
FNL:33,367
FNA:33,539,_ZNSt3__1neB8ne180100ERKNS_21__hash_const_iteratorIPNS_11__hash_nodeINS_12basic_stringIcNS_11char_traitsIcEENS_9allocatorIcEEEEPvEEEESD_
FNL:34,372
FNA:34,1078,_ZNSt3__121__hash_const_iteratorIPNS_11__hash_nodeINS_12basic_stringIcNS_11char_traitsIcEENS_9allocatorIcEEEEPvEEEC1B8ne180100EPNS_16__hash_node_baseISA_EE
FNA:34,1078,_ZNSt3__121__hash_const_iteratorIPNS_11__hash_nodeINS_12basic_stringIcNS_11char_traitsIcEENS_9allocatorIcEEEEPvEEEC2B8ne180100EPNS_16__hash_node_baseISA_EE
FNL:35,533
FNA:35,59,_ZNSt3__125__bucket_list_deallocatorINS_9allocatorIPNS_16__hash_node_baseIPNS_11__hash_nodeINS_12basic_stringIcNS_11char_traitsIcEENS1_IcEEEEPvEEEEEEEC1B8ne180100Ev
FNA:35,59,_ZNSt3__125__bucket_list_deallocatorINS_9allocatorIPNS_16__hash_node_baseIPNS_11__hash_nodeINS_12basic_stringIcNS_11char_traitsIcEENS1_IcEEEEPvEEEEEEEC2B8ne180100Ev
FNA:35,2,_ZNSt3__125__bucket_list_deallocatorINS_9allocatorIPNS_16__hash_node_baseIPNS_11__hash_nodeINS_17__hash_value_typeIiNS_6vectorIdNS1_IdEEEEEEPvEEEEEEEC1B8ne180100Ev
FNA:35,2,_ZNSt3__125__bucket_list_deallocatorINS_9allocatorIPNS_16__hash_node_baseIPNS_11__hash_nodeINS_17__hash_value_typeIiNS_6vectorIdNS1_IdEEEEEEPvEEEEEEEC2B8ne180100Ev
FNL:36,546
FNA:36,36,_ZNSt3__125__bucket_list_deallocatorINS_9allocatorIPNS_16__hash_node_baseIPNS_11__hash_nodeINS_12basic_stringIcNS_11char_traitsIcEENS1_IcEEEEPvEEEEEEE4sizeB8ne180100Ev
FNA:36,4,_ZNSt3__125__bucket_list_deallocatorINS_9allocatorIPNS_16__hash_node_baseIPNS_11__hash_nodeINS_17__hash_value_typeIiNS_6vectorIdNS1_IdEEEEEEPvEEEEEEE4sizeB8ne180100Ev
FNL:37,547
FNA:37,539,_ZNKSt3__125__bucket_list_deallocatorINS_9allocatorIPNS_16__hash_node_baseIPNS_11__hash_nodeINS_12basic_stringIcNS_11char_traitsIcEENS1_IcEEEEPvEEEEEEE4sizeB8ne180100Ev
FNA:37,508,_ZNKSt3__125__bucket_list_deallocatorINS_9allocatorIPNS_16__hash_node_baseIPNS_11__hash_nodeINS_17__hash_value_typeIiNS_6vectorIdNS1_IdEEEEEEPvEEEEEEE4sizeB8ne180100Ev
FNL:38,549
FNA:38,24,_ZNSt3__125__bucket_list_deallocatorINS_9allocatorIPNS_16__hash_node_baseIPNS_11__hash_nodeINS_12basic_stringIcNS_11char_traitsIcEENS1_IcEEEEPvEEEEEEE7__allocB8ne180100Ev
FNA:38,4,_ZNSt3__125__bucket_list_deallocatorINS_9allocatorIPNS_16__hash_node_baseIPNS_11__hash_nodeINS_17__hash_value_typeIiNS_6vectorIdNS1_IdEEEEEEPvEEEEEEE7__allocB8ne180100Ev
FNL:39,552
FNA:39,0,_ZNSt3__125__bucket_list_deallocatorINS_9allocatorIPNS_16__hash_node_baseIPNS_11__hash_nodeINS_12basic_stringIcNS_11char_traitsIcEENS1_IcEEEEPvEEEEEEEclB8ne180100EPSD_
FNA:39,2,_ZNSt3__125__bucket_list_deallocatorINS_9allocatorIPNS_16__hash_node_baseIPNS_11__hash_nodeINS_17__hash_value_typeIiNS_6vectorIdNS1_IdEEEEEEPvEEEEEEEclB8ne180100EPSD_
FNL:40,577
FNA:40,0,_ZNSt3__122__hash_node_destructorINS_9allocatorINS_11__hash_nodeINS_12basic_stringIcNS_11char_traitsIcEENS1_IcEEEEPvEEEEEC1B8ne180100ERSA_b
FNA:40,0,_ZNSt3__122__hash_node_destructorINS_9allocatorINS_11__hash_nodeINS_12basic_stringIcNS_11char_traitsIcEENS1_IcEEEEPvEEEEEC2B8ne180100ERSA_b
FNA:40,2,_ZNSt3__122__hash_node_destructorINS_9allocatorINS_11__hash_nodeINS_17__hash_value_typeIiNS_6vectorIdNS1_IdEEEEEEPvEEEEEC1B8ne180100ERSA_b
FNA:40,2,_ZNSt3__122__hash_node_destructorINS_9allocatorINS_11__hash_nodeINS_17__hash_value_typeIiNS_6vectorIdNS1_IdEEEEEEPvEEEEEC2B8ne180100ERSA_b
FNL:41,581
FNA:41,0,_ZNSt3__122__hash_node_destructorINS_9allocatorINS_11__hash_nodeINS_12basic_stringIcNS_11char_traitsIcEENS1_IcEEEEPvEEEEEclB8ne180100EPS9_
FNA:41,0,_ZNSt3__122__hash_node_destructorINS_9allocatorINS_11__hash_nodeINS_17__hash_value_typeIiNS_6vectorIdNS1_IdEEEEEEPvEEEEEclB8ne180100EPS9_
FNL:42,695
FNA:42,48,_ZNSt3__112__hash_tableINS_12basic_stringIcNS_11char_traitsIcEENS_9allocatorIcEEEENS_4hashIS6_EENS_8equal_toIS6_EENS4_IS6_EEE4sizeB8ne180100Ev
FNA:42,6,_ZNSt3__112__hash_tableINS_17__hash_value_typeIiNS_6vectorIdNS_9allocatorIdEEEEEENS_22__unordered_map_hasherIiS6_NS_4hashIiEENS_8equal_toIiEELb1EEENS_21__unordered_map_equalIiS6_SB_S9_Lb1EEENS3_IS6_EEE4sizeB8ne180100Ev
FNL:43,700
FNA:43,24,_ZNSt3__112__hash_tableINS_12basic_stringIcNS_11char_traitsIcEENS_9allocatorIcEEEENS_4hashIS6_EENS_8equal_toIS6_EENS4_IS6_EEE13hash_functionB8ne180100Ev
FNA:43,504,_ZNSt3__112__hash_tableINS_17__hash_value_typeIiNS_6vectorIdNS_9allocatorIdEEEEEENS_22__unordered_map_hasherIiS6_NS_4hashIiEENS_8equal_toIiEELb1EEENS_21__unordered_map_equalIiS6_SB_S9_Lb1EEENS3_IS6_EEE13hash_functionB8ne180100Ev
FNL:44,701
FNA:44,539,_ZNKSt3__112__hash_tableINS_12basic_stringIcNS_11char_traitsIcEENS_9allocatorIcEEEENS_4hashIS6_EENS_8equal_toIS6_EENS4_IS6_EEE13hash_functionB8ne180100Ev
FNL:45,703
FNA:45,24,_ZNSt3__112__hash_tableINS_12basic_stringIcNS_11char_traitsIcEENS_9allocatorIcEEEENS_4hashIS6_EENS_8equal_toIS6_EENS4_IS6_EEE15max_load_factorB8ne180100Ev
FNA:45,4,_ZNSt3__112__hash_tableINS_17__hash_value_typeIiNS_6vectorIdNS_9allocatorIdEEEEEENS_22__unordered_map_hasherIiS6_NS_4hashIiEENS_8equal_toIiEELb1EEENS_21__unordered_map_equalIiS6_SB_S9_Lb1EEENS3_IS6_EEE15max_load_factorB8ne180100Ev
FNL:46,706
FNA:46,24,_ZNSt3__112__hash_tableINS_12basic_stringIcNS_11char_traitsIcEENS_9allocatorIcEEEENS_4hashIS6_EENS_8equal_toIS6_EENS4_IS6_EEE6key_eqB8ne180100Ev
FNA:46,502,_ZNSt3__112__hash_tableINS_17__hash_value_typeIiNS_6vectorIdNS_9allocatorIdEEEEEENS_22__unordered_map_hasherIiS6_NS_4hashIiEENS_8equal_toIiEELb1EEENS_21__unordered_map_equalIiS6_SB_S9_Lb1EEENS3_IS6_EEE6key_eqB8ne180100Ev
FNL:47,707
FNA:47,0,_ZNKSt3__112__hash_tableINS_12basic_stringIcNS_11char_traitsIcEENS_9allocatorIcEEEENS_4hashIS6_EENS_8equal_toIS6_EENS4_IS6_EEE6key_eqB8ne180100Ev
FNL:48,709
FNA:48,83,_ZNSt3__112__hash_tableINS_12basic_stringIcNS_11char_traitsIcEENS_9allocatorIcEEEENS_4hashIS6_EENS_8equal_toIS6_EENS4_IS6_EEE12__node_allocB8ne180100Ev
FNA:48,4,_ZNSt3__112__hash_tableINS_17__hash_value_typeIiNS_6vectorIdNS_9allocatorIdEEEEEENS_22__unordered_map_hasherIiS6_NS_4hashIiEENS_8equal_toIiEELb1EEENS_21__unordered_map_equalIiS6_SB_S9_Lb1EEENS3_IS6_EEE12__node_allocB8ne180100Ev
FNL:49,801
FNA:49,0,_ZNSt3__112__hash_tableINS_12basic_stringIcNS_11char_traitsIcEENS_9allocatorIcEEEENS_4hashIS6_EENS_8equal_toIS6_EENS4_IS6_EEE15__insert_uniqueB8ne180100EOS6_
FNL:50,846
FNA:50,0,_ZNSt3__112__hash_tableINS_12basic_stringIcNS_11char_traitsIcEENS_9allocatorIcEEEENS_4hashIS6_EENS_8equal_toIS6_EENS4_IS6_EEE15__rehash_uniqueB8ne180100Em
FNA:50,2,_ZNSt3__112__hash_tableINS_17__hash_value_typeIiNS_6vectorIdNS_9allocatorIdEEEEEENS_22__unordered_map_hasherIiS6_NS_4hashIiEENS_8equal_toIiEELb1EEENS_21__unordered_map_equalIiS6_SB_S9_Lb1EEENS3_IS6_EEE15__rehash_uniqueB8ne180100Em
FNL:51,855
FNA:51,539,_ZNKSt3__112__hash_tableINS_12basic_stringIcNS_11char_traitsIcEENS_9allocatorIcEEEENS_4hashIS6_EENS_8equal_toIS6_EENS4_IS6_EEE12bucket_countB8ne180100Ev
FNA:51,508,_ZNKSt3__112__hash_tableINS_17__hash_value_typeIiNS_6vectorIdNS_9allocatorIdEEEEEENS_22__unordered_map_hasherIiS6_NS_4hashIiEENS_8equal_toIiEELb1EEENS_21__unordered_map_equalIiS6_SB_S9_Lb1EEENS3_IS6_EEE12bucket_countB8ne180100Ev
FNL:52,92
FNA:52,0,_ZNSt3__116__hash_node_baseIPNS_11__hash_nodeINS_12basic_stringIcNS_11char_traitsIcEENS_9allocatorIcEEEEPvEEE5__ptrB8ne180100Ev
FNA:52,6,_ZNSt3__116__hash_node_baseIPNS_11__hash_nodeINS_17__hash_value_typeIiNS_6vectorIdNS_9allocatorIdEEEEEEPvEEE5__ptrB8ne180100Ev
FNL:53,96
FNA:53,0,_ZNSt3__116__hash_node_baseIPNS_11__hash_nodeINS_12basic_stringIcNS_11char_traitsIcEENS_9allocatorIcEEEEPvEEE8__upcastB8ne180100Ev
FNA:53,1010,_ZNSt3__116__hash_node_baseIPNS_11__hash_nodeINS_17__hash_value_typeIiNS_6vectorIdNS_9allocatorIdEEEEEEPvEEE8__upcastB8ne180100Ev
FNL:54,971
FNA:54,12,_ZNSt3__112__hash_tableINS_12basic_stringIcNS_11char_traitsIcEENS_9allocatorIcEEEENS_4hashIS6_EENS_8equal_toIS6_EENS4_IS6_EEE19__move_assign_allocB8ne180100ERSC_
FNL:55,976
FNA:55,12,_ZNSt3__112__hash_tableINS_12basic_stringIcNS_11char_traitsIcEENS_9allocatorIcEEEENS_4hashIS6_EENS_8equal_toIS6_EENS4_IS6_EEE19__move_assign_allocB8ne180100ERSC_NS_17integral_constantIbLb1EEE
FNL:56,993
FNA:56,59,_ZNSt3__112__hash_tableINS_12basic_stringIcNS_11char_traitsIcEENS_9allocatorIcEEEENS_4hashIS6_EENS_8equal_toIS6_EENS4_IS6_EEEC1Ev
FNA:56,59,_ZNSt3__112__hash_tableINS_12basic_stringIcNS_11char_traitsIcEENS_9allocatorIcEEEENS_4hashIS6_EENS_8equal_toIS6_EENS4_IS6_EEEC2Ev
FNA:56,2,_ZNSt3__112__hash_tableINS_17__hash_value_typeIiNS_6vectorIdNS_9allocatorIdEEEEEENS_22__unordered_map_hasherIiS6_NS_4hashIiEENS_8equal_toIiEELb1EEENS_21__unordered_map_equalIiS6_SB_S9_Lb1EEENS3_IS6_EEEC1Ev
FNA:56,2,_ZNSt3__112__hash_tableINS_17__hash_value_typeIiNS_6vectorIdNS_9allocatorIdEEEEEENS_22__unordered_map_hasherIiS6_NS_4hashIiEENS_8equal_toIiEELb1EEENS_21__unordered_map_equalIiS6_SB_S9_Lb1EEENS3_IS6_EEEC2Ev
FNF:57
FNH:50
DA:92,6
DA:93,6
DA:96,1010
DA:97,1010
DA:100,1004
DA:102,122
DA:103,2
DA:124,1012
DA:134,4
DA:135,4
DA:138,2
DA:140,504
DA:141,504
DA:144,0
DA:145,0
DA:172,0
DA:174,0
DA:199,4
DA:200,4
DA:289,506
DA:290,506
DA:293,2
DA:294,2
DA:295,2
DA:304,4
DA:305,4
DA:312,1086
DA:346,70
DA:353,0
DA:354,0
DA:355,0
DA:364,539
DA:365,539
DA:367,539
DA:368,539
DA:372,2156
DA:533,122
DA:534,122
DA:546,40
DA:547,1047
DA:549,28
DA:552,2
DA:577,4
DA:578,2
DA:579,4
DA:581,0
DA:582,0
DA:583,0
DA:584,0
DA:585,0
DA:586,0
DA:587,0
DA:588,0
DA:695,54
DA:700,528
DA:701,539
DA:703,28
DA:706,526
DA:707,0
DA:709,87
DA:718,61
DA:801,0
DA:802,0
DA:846,2
DA:855,1047
DA:971,12
DA:974,12
DA:975,12
DA:976,12
DA:978,12
DA:979,12
DA:980,12
DA:993,122
DA:997,122
DA:1073,122
DA:1079,61
DA:1080,122
DA:1106,61
DA:1107,61
DA:1108,63
DA:1109,2
DA:1110,2
DA:1111,2
DA:1112,2
DA:1113,2
DA:1114,2
DA:1116,61
DA:1131,12
DA:1134,12
DA:1135,12
DA:1136,12
DA:1137,12
DA:1138,12
DA:1139,12
DA:1140,12
DA:1141,12
DA:1142,12
DA:1143,12
DA:1144,12
DA:1145,0
DA:1146,0
DA:1147,0
DA:1148,0
DA:1149,12
DA:1190,12
DA:1193,12
DA:1194,12
DA:1262,37
DA:1263,37
DA:1268,2
DA:1269,2
DA:1280,1078
DA:1281,1078
DA:1285,12
DA:1286,12
DA:1287,0
DA:1288,0
DA:1289,0
DA:1290,0
DA:1291,0
DA:1292,0
DA:1293,0
DA:1294,12
DA:1476,504
DA:1477,504
DA:1478,504
DA:1479,504
DA:1482,504
DA:1483,502
DA:1484,502
DA:1485,502
DA:1486,1004
DA:1487,502
DA:1488,0
DA:1489,502
DA:1490,502
DA:1491,0
DA:1492,0
DA:1493,0
DA:1495,2
DA:1496,2
DA:1497,2
DA:1498,2
DA:1499,2
DA:1500,2
DA:1501,2
DA:1503,2
DA:1504,2
DA:1505,2
DA:1506,2
DA:1507,2
DA:1509,2
DA:1510,2
DA:1511,0
DA:1512,2
DA:1513,0
DA:1514,0
DA:1516,2
DA:1518,2
DA:1519,2
DA:1520,2
DA:1522,504
DA:1523,0
DA:1656,2
DA:1657,2
DA:1658,2
DA:1659,0
DA:1660,0
DA:1661,2
DA:1662,2
DA:1663,2
DA:1664,0
DA:1665,0
DA:1667,0
DA:1668,0
DA:1669,0
DA:1670,0
DA:1671,0
DA:1672,2
DA:1676,2
DA:1677,2
DA:1678,2
DA:1679,2
DA:1680,2
DA:1681,6
DA:1682,4
DA:1683,2
DA:1684,2
DA:1685,2
DA:1686,0
DA:1687,0
DA:1688,0
DA:1689,0
DA:1690,0
DA:1691,0
DA:1692,0
DA:1694,0
DA:1695,0
DA:1696,0
DA:1697,0
DA:1698,0
DA:1699,0
DA:1706,0
DA:1707,0
DA:1708,0
DA:1711,0
DA:1712,0
DA:1713,2
DA:1714,2
DA:1740,539
DA:1741,539
DA:1742,539
DA:1743,539
DA:1744,0
DA:1745,0
DA:1746,0
DA:1747,0
DA:1748,0
DA:1749,0
DA:1750,0
DA:1751,0
DA:1752,0
DA:1753,0
DA:1754,0
DA:1755,539
DA:1756,539
DA:1785,2
DA:1787,2
DA:1788,2
DA:1789,2
DA:1790,2
DA:1791,2
DA:1792,2
DA:1793,2
DA:1794,2
DA:1880,539
DA:1881,539
LF:237
LH:162
end_of_record
TN:
SF:/Library/Developer/CommandLineTools/SDKs/MacOSX.sdk/usr/include/c++/v1/__iterator/access.h
FNL:0,40,41
FNA:0,3,_ZNSt3__15beginB8ne180100INS_6vectorINS1_IdNS_9allocatorIdEEEENS2_IS4_EEEEEEDTcldtfp_5beginEERKT_
FNA:0,9,_ZNSt3__15beginB8ne180100INS_6vectorINS_12basic_stringIcNS_11char_traitsIcEENS_9allocatorIcEEEENS5_IS7_EEEEEEDTcldtfp_5beginEERKT_
FNA:0,21,_ZNSt3__15beginB8ne180100INS_6vectorIdNS_9allocatorIdEEEEEEDTcldtfp_5beginEERKT_
FNL:1,50,51
FNA:1,3,_ZNSt3__13endB8ne180100INS_6vectorINS1_IdNS_9allocatorIdEEEENS2_IS4_EEEEEEDTcldtfp_3endEERKT_
FNA:1,9,_ZNSt3__13endB8ne180100INS_6vectorINS_12basic_stringIcNS_11char_traitsIcEENS_9allocatorIcEEEENS5_IS7_EEEEEEDTcldtfp_3endEERKT_
FNA:1,21,_ZNSt3__13endB8ne180100INS_6vectorIdNS_9allocatorIdEEEEEEDTcldtfp_3endEERKT_
FNF:2
FNH:2
DA:40,33
DA:41,33
DA:50,33
DA:51,33
LF:4
LH:4
end_of_record
TN:
SF:/Library/Developer/CommandLineTools/SDKs/MacOSX.sdk/usr/include/c++/v1/__iterator/advance.h
FNL:0,46,53
FNA:0,0,_ZNSt3__19__advanceB8ne180100INS_14__map_iteratorINS_15__tree_iteratorINS_12__value_typeINS_12basic_stringIcNS_11char_traitsIcEENS_9allocatorIcEEEEN8nlohmann16json_abi_v3_11_310basic_jsonINS_3mapENS_6vectorES9_bxydS7_NSB_14adl_serializerENSE_IhNS7_IhEEEEvEEEEPNS_11__tree_nodeISJ_PvEElEEEEEEvRT_NS_15iterator_traitsISQ_E15difference_typeENS_26bidirectional_iterator_tagE
FNA:0,197,_ZNSt3__19__advanceB8ne180100INS_20__map_const_iteratorINS_21__tree_const_iteratorINS_12__value_typeINS_12basic_stringIcNS_11char_traitsIcEENS_9allocatorIcEEEEN8nlohmann16json_abi_v3_11_310basic_jsonINS_3mapENS_6vectorES9_bxydS7_NSB_14adl_serializerENSE_IhNS7_IhEEEEvEEEEPNS_11__tree_nodeISJ_PvEElEEEEEEvRT_NS_15iterator_traitsISQ_E15difference_typeENS_26bidirectional_iterator_tagE
FNA:0,0,_ZNSt3__19__advanceB8ne180100INS_21__tree_const_iteratorINS_12__value_typeINS_12basic_stringIcNS_11char_traitsIcEENS_9allocatorIcEEEEN8nlohmann16json_abi_v3_11_310basic_jsonINS_3mapENS_6vectorES8_bxydS6_NSA_14adl_serializerENSD_IhNS6_IhEEEEvEEEEPNS_11__tree_nodeISI_PvEElEEEEvRT_NS_15iterator_traitsISO_E15difference_typeENS_26bidirectional_iterator_tagE
FNA:0,0,_ZNSt3__19__advanceB8ne180100INS_21__tree_const_iteratorINS_12__value_typeINS_12basic_stringIcNS_11char_traitsIcEENS_9allocatorIcEEEEdEEPNS_11__tree_nodeIS9_PvEElEEEEvRT_NS_15iterator_traitsISF_E15difference_typeENS_26bidirectional_iterator_tagE
FNL:1,57,59
FNA:1,0,_ZNSt3__19__advanceB8ne180100INS_11__wrap_iterIPKN7pyfolio8DateTimeEEEEEvRT_NS_15iterator_traitsIS7_E15difference_typeENS_26random_access_iterator_tagE
FNA:1,0,_ZNSt3__19__advanceB8ne180100INS_11__wrap_iterIPN8nlohmann16json_abi_v3_11_310basic_jsonINS_3mapENS_6vectorENS_12basic_stringIcNS_11char_traitsIcEENS_9allocatorIcEEEEbxydSA_NS3_14adl_serializerENS6_IhNSA_IhEEEEvEEEEEEvRT_NS_15iterator_traitsISJ_E15difference_typeENS_26random_access_iterator_tagE
FNA:1,57,_ZNSt3__19__advanceB8ne180100INS_11__wrap_iterIPcEEEEvRT_NS_15iterator_traitsIS4_E15difference_typeENS_26random_access_iterator_tagE
FNA:1,0,_ZNSt3__19__advanceB8ne180100INS_16reverse_iteratorIPN7pyfolio10TimeSeriesIdEEEEEEvRT_NS_15iterator_traitsIS7_E15difference_typeENS_26random_access_iterator_tagE
FNA:1,0,_ZNSt3__19__advanceB8ne180100INS_16reverse_iteratorIPN7pyfolio11attribution17SectorAttributionEEEEEvRT_NS_15iterator_traitsIS7_E15difference_typeENS_26random_access_iterator_tagE
FNA:1,0,_ZNSt3__19__advanceB8ne180100INS_16reverse_iteratorIPN7pyfolio13visualization8PlotDataEEEEEvRT_NS_15iterator_traitsIS7_E15difference_typeENS_26random_access_iterator_tagE
FNA:1,0,_ZNSt3__19__advanceB8ne180100INS_16reverse_iteratorIPN7testing12TestPropertyEEEEEvRT_NS_15iterator_traitsIS6_E15difference_typeENS_26random_access_iterator_tagE
FNA:1,0,_ZNSt3__19__advanceB8ne180100INS_16reverse_iteratorIPN7testing14TestPartResultEEEEEvRT_NS_15iterator_traitsIS6_E15difference_typeENS_26random_access_iterator_tagE
FNA:1,0,_ZNSt3__19__advanceB8ne180100INS_16reverse_iteratorIPN7testing8internal9TraceInfoEEEEEvRT_NS_15iterator_traitsIS7_E15difference_typeENS_26random_access_iterator_tagE
FNA:1,0,_ZNSt3__19__advanceB8ne180100INS_16reverse_iteratorIPN8nlohmann16json_abi_v3_11_310basic_jsonINS_3mapENS_6vectorENS_12basic_stringIcNS_11char_traitsIcEENS_9allocatorIcEEEEbxydSA_NS3_14adl_serializerENS6_IhNSA_IhEEEEvEEEEEEvRT_NS_15iterator_traitsISJ_E15difference_typeENS_26random_access_iterator_tagE
FNA:1,0,_ZNSt3__19__advanceB8ne180100INS_16reverse_iteratorIPNS_12basic_stringIcNS_11char_traitsIcEENS_9allocatorIcEEEEEEEEvRT_NS_15iterator_traitsISA_E15difference_typeENS_26random_access_iterator_tagE
FNA:1,0,_ZNSt3__19__advanceB8ne180100INS_16reverse_iteratorIPNS_4pairIN7pyfolio8DateTimeEdEEEEEEvRT_NS_15iterator_traitsIS8_E15difference_typeENS_26random_access_iterator_tagE
FNA:1,0,_ZNSt3__19__advanceB8ne180100INS_16reverse_iteratorIPNS_6threadEEEEEvRT_NS_15iterator_traitsIS5_E15difference_typeENS_26random_access_iterator_tagE
FNA:1,0,_ZNSt3__19__advanceB8ne180100INS_16reverse_iteratorIPNS_6vectorIdNS_9allocatorIdEEEEEEEEvRT_NS_15iterator_traitsIS8_E15difference_typeENS_26random_access_iterator_tagE
FNA:1,0,_ZNSt3__19__advanceB8ne180100IPKN7pyfolio8DateTimeEEEvRT_NS_15iterator_traitsIS5_E15difference_typeENS_26random_access_iterator_tagE
FNA:1,0,_ZNSt3__19__advanceB8ne180100IPKNS_12basic_stringIcNS_11char_traitsIcEENS_9allocatorIcEEEEEEvRT_NS_15iterator_traitsIS9_E15difference_typeENS_26random_access_iterator_tagE
FNA:1,0,_ZNSt3__19__advanceB8ne180100IPKdEEvRT_NS_15iterator_traitsIS3_E15difference_typeENS_26random_access_iterator_tagE
FNA:1,35,_ZNSt3__19__advanceB8ne180100IPN7pyfolio10TimeSeriesIdEEEEvRT_NS_15iterator_traitsIS5_E15difference_typeENS_26random_access_iterator_tagE
FNA:1,6,_ZNSt3__19__advanceB8ne180100IPN7pyfolio11attribution17SectorAttributionEEEvRT_NS_15iterator_traitsIS5_E15difference_typeENS_26random_access_iterator_tagE
FNA:1,1,_ZNSt3__19__advanceB8ne180100IPN7pyfolio13visualization8PlotDataEEEvRT_NS_15iterator_traitsIS5_E15difference_typeENS_26random_access_iterator_tagE
FNA:1,0,_ZNSt3__19__advanceB8ne180100IPN7pyfolio8DateTimeEEEvRT_NS_15iterator_traitsIS4_E15difference_typeENS_26random_access_iterator_tagE
FNA:1,0,_ZNSt3__19__advanceB8ne180100IPN7testing12TestPropertyEEEvRT_NS_15iterator_traitsIS4_E15difference_typeENS_26random_access_iterator_tagE
FNA:1,138,_ZNSt3__19__advanceB8ne180100IPN7testing14TestPartResultEEEvRT_NS_15iterator_traitsIS4_E15difference_typeENS_26random_access_iterator_tagE
FNA:1,0,_ZNSt3__19__advanceB8ne180100IPN7testing8internal9TraceInfoEEEvRT_NS_15iterator_traitsIS5_E15difference_typeENS_26random_access_iterator_tagE
FNA:1,2597,_ZNSt3__19__advanceB8ne180100IPN8nlohmann16json_abi_v3_11_310basic_jsonINS_3mapENS_6vectorENS_12basic_stringIcNS_11char_traitsIcEENS_9allocatorIcEEEEbxydS9_NS2_14adl_serializerENS5_IhNS9_IhEEEEvEEEEvRT_NS_15iterator_traitsISH_E15difference_typeENS_26random_access_iterator_tagE
FNA:1,40,_ZNSt3__19__advanceB8ne180100IPNS_12basic_stringIcNS_11char_traitsIcEENS_9allocatorIcEEEEEEvRT_NS_15iterator_traitsIS8_E15difference_typeENS_26random_access_iterator_tagE
FNA:1,0,_ZNSt3__19__advanceB8ne180100IPNS_4pairIN7pyfolio8DateTimeEdEEEEvRT_NS_15iterator_traitsIS6_E15difference_typeENS_26random_access_iterator_tagE
FNA:1,15,_ZNSt3__19__advanceB8ne180100IPNS_6threadEEEvRT_NS_15iterator_traitsIS3_E15difference_typeENS_26random_access_iterator_tagE
FNA:1,15,_ZNSt3__19__advanceB8ne180100IPNS_6vectorIdNS_9allocatorIdEEEEEEvRT_NS_15iterator_traitsIS6_E15difference_typeENS_26random_access_iterator_tagE
FNA:1,0,_ZNSt3__19__advanceB8ne180100IPdEEvRT_NS_15iterator_traitsIS2_E15difference_typeENS_26random_access_iterator_tagE
FNL:2,65,72
FNA:2,0,_ZNSt3__17advanceB8ne180100INS_11__wrap_iterIPKN7pyfolio8DateTimeEEEllvEEvRT_T0_
FNA:2,0,_ZNSt3__17advanceB8ne180100INS_11__wrap_iterIPN8nlohmann16json_abi_v3_11_310basic_jsonINS_3mapENS_6vectorENS_12basic_stringIcNS_11char_traitsIcEENS_9allocatorIcEEEEbxydSA_NS3_14adl_serializerENS6_IhNSA_IhEEEEvEEEEiivEEvRT_T0_
FNA:2,57,_ZNSt3__17advanceB8ne180100INS_11__wrap_iterIPcEEllvEEvRT_T0_
FNA:2,0,_ZNSt3__17advanceB8ne180100INS_14__map_iteratorINS_15__tree_iteratorINS_12__value_typeINS_12basic_stringIcNS_11char_traitsIcEENS_9allocatorIcEEEEN8nlohmann16json_abi_v3_11_310basic_jsonINS_3mapENS_6vectorES9_bxydS7_NSB_14adl_serializerENSE_IhNS7_IhEEEEvEEEEPNS_11__tree_nodeISJ_PvEElEEEEiivEEvRT_T0_
FNA:2,0,_ZNSt3__17advanceB8ne180100INS_16reverse_iteratorIPN7pyfolio10TimeSeriesIdEEEEllvEEvRT_T0_
FNA:2,0,_ZNSt3__17advanceB8ne180100INS_16reverse_iteratorIPN7pyfolio11attribution17SectorAttributionEEEllvEEvRT_T0_
FNA:2,0,_ZNSt3__17advanceB8ne180100INS_16reverse_iteratorIPN7pyfolio13visualization8PlotDataEEEllvEEvRT_T0_
FNA:2,0,_ZNSt3__17advanceB8ne180100INS_16reverse_iteratorIPN7testing12TestPropertyEEEllvEEvRT_T0_
FNA:2,0,_ZNSt3__17advanceB8ne180100INS_16reverse_iteratorIPN7testing14TestPartResultEEEllvEEvRT_T0_
FNA:2,0,_ZNSt3__17advanceB8ne180100INS_16reverse_iteratorIPN7testing8internal9TraceInfoEEEllvEEvRT_T0_
FNA:2,0,_ZNSt3__17advanceB8ne180100INS_16reverse_iteratorIPN8nlohmann16json_abi_v3_11_310basic_jsonINS_3mapENS_6vectorENS_12basic_stringIcNS_11char_traitsIcEENS_9allocatorIcEEEEbxydSA_NS3_14adl_serializerENS6_IhNSA_IhEEEEvEEEEllvEEvRT_T0_
FNA:2,0,_ZNSt3__17advanceB8ne180100INS_16reverse_iteratorIPNS_12basic_stringIcNS_11char_traitsIcEENS_9allocatorIcEEEEEEllvEEvRT_T0_
FNA:2,0,_ZNSt3__17advanceB8ne180100INS_16reverse_iteratorIPNS_4pairIN7pyfolio8DateTimeEdEEEEllvEEvRT_T0_
FNA:2,0,_ZNSt3__17advanceB8ne180100INS_16reverse_iteratorIPNS_6threadEEEllvEEvRT_T0_
FNA:2,0,_ZNSt3__17advanceB8ne180100INS_16reverse_iteratorIPNS_6vectorIdNS_9allocatorIdEEEEEEllvEEvRT_T0_
FNA:2,197,_ZNSt3__17advanceB8ne180100INS_20__map_const_iteratorINS_21__tree_const_iteratorINS_12__value_typeINS_12basic_stringIcNS_11char_traitsIcEENS_9allocatorIcEEEEN8nlohmann16json_abi_v3_11_310basic_jsonINS_3mapENS_6vectorES9_bxydS7_NSB_14adl_serializerENSE_IhNS7_IhEEEEvEEEEPNS_11__tree_nodeISJ_PvEElEEEEllvEEvRT_T0_
FNA:2,0,_ZNSt3__17advanceB8ne180100INS_21__tree_const_iteratorINS_12__value_typeINS_12basic_stringIcNS_11char_traitsIcEENS_9allocatorIcEEEEN8nlohmann16json_abi_v3_11_310basic_jsonINS_3mapENS_6vectorES8_bxydS6_NSA_14adl_serializerENSD_IhNS6_IhEEEEvEEEEPNS_11__tree_nodeISI_PvEElEEllvEEvRT_T0_
FNA:2,0,_ZNSt3__17advanceB8ne180100INS_21__tree_const_iteratorINS_12__value_typeINS_12basic_stringIcNS_11char_traitsIcEENS_9allocatorIcEEEEdEEPNS_11__tree_nodeIS9_PvEElEEllvEEvRT_T0_
FNA:2,0,_ZNSt3__17advanceB8ne180100IPKN7pyfolio8DateTimeEllvEEvRT_T0_
FNA:2,0,_ZNSt3__17advanceB8ne180100IPKNS_12basic_stringIcNS_11char_traitsIcEENS_9allocatorIcEEEEllvEEvRT_T0_
FNA:2,0,_ZNSt3__17advanceB8ne180100IPKdllvEEvRT_T0_
FNA:2,35,_ZNSt3__17advanceB8ne180100IPN7pyfolio10TimeSeriesIdEEllvEEvRT_T0_
FNA:2,6,_ZNSt3__17advanceB8ne180100IPN7pyfolio11attribution17SectorAttributionEllvEEvRT_T0_
FNA:2,1,_ZNSt3__17advanceB8ne180100IPN7pyfolio13visualization8PlotDataEllvEEvRT_T0_
FNA:2,0,_ZNSt3__17advanceB8ne180100IPN7pyfolio8DateTimeEllvEEvRT_T0_
FNA:2,0,_ZNSt3__17advanceB8ne180100IPN7testing12TestPropertyEllvEEvRT_T0_
FNA:2,138,_ZNSt3__17advanceB8ne180100IPN7testing14TestPartResultEllvEEvRT_T0_
FNA:2,0,_ZNSt3__17advanceB8ne180100IPN7testing8internal9TraceInfoEllvEEvRT_T0_
FNA:2,2597,_ZNSt3__17advanceB8ne180100IPN8nlohmann16json_abi_v3_11_310basic_jsonINS_3mapENS_6vectorENS_12basic_stringIcNS_11char_traitsIcEENS_9allocatorIcEEEEbxydS9_NS2_14adl_serializerENS5_IhNS9_IhEEEEvEEllvEEvRT_T0_
FNA:2,40,_ZNSt3__17advanceB8ne180100IPNS_12basic_stringIcNS_11char_traitsIcEENS_9allocatorIcEEEEllvEEvRT_T0_
FNA:2,0,_ZNSt3__17advanceB8ne180100IPNS_4pairIN7pyfolio8DateTimeEdEEllvEEvRT_T0_
FNA:2,15,_ZNSt3__17advanceB8ne180100IPNS_6threadEllvEEvRT_T0_
FNA:2,15,_ZNSt3__17advanceB8ne180100IPNS_6vectorIdNS_9allocatorIdEEEEllvEEvRT_T0_
FNA:2,0,_ZNSt3__17advanceB8ne180100IPdllvEEvRT_T0_
FNF:3
FNH:3
DA:46,197
DA:47,197
DA:48,394
DA:49,394
DA:51,0
DA:52,0
DA:53,197
DA:57,2904
DA:58,2904
DA:59,2904
DA:65,3101
DA:67,3101
DA:71,3101
DA:72,3101
LF:14
LH:12
end_of_record
TN:
SF:/Library/Developer/CommandLineTools/SDKs/MacOSX.sdk/usr/include/c++/v1/__iterator/back_insert_iterator.h
FNL:0,53,54
FNA:0,853,_ZNSt3__120back_insert_iteratorINS_6vectorIN8nlohmann16json_abi_v3_11_310basic_jsonINS_3mapES1_NS_12basic_stringIcNS_11char_traitsIcEENS_9allocatorIcEEEEbxydS9_NS3_14adl_serializerENS1_IhNS9_IhEEEEvEENS9_ISF_EEEEEC1B8ne180100ERSH_
FNA:0,853,_ZNSt3__120back_insert_iteratorINS_6vectorIN8nlohmann16json_abi_v3_11_310basic_jsonINS_3mapES1_NS_12basic_stringIcNS_11char_traitsIcEENS_9allocatorIcEEEEbxydS9_NS3_14adl_serializerENS1_IhNS9_IhEEEEvEENS9_ISF_EEEEEC2B8ne180100ERSH_
FNL:1,62,64
FNA:1,3591,_ZNSt3__120back_insert_iteratorINS_6vectorIN8nlohmann16json_abi_v3_11_310basic_jsonINS_3mapES1_NS_12basic_stringIcNS_11char_traitsIcEENS_9allocatorIcEEEEbxydS9_NS3_14adl_serializerENS1_IhNS9_IhEEEEvEENS9_ISF_EEEEEaSB8ne180100EOSF_
FNL:2,67,67
FNA:2,3591,_ZNSt3__120back_insert_iteratorINS_6vectorIN8nlohmann16json_abi_v3_11_310basic_jsonINS_3mapES1_NS_12basic_stringIcNS_11char_traitsIcEENS_9allocatorIcEEEEbxydS9_NS3_14adl_serializerENS1_IhNS9_IhEEEEvEENS9_ISF_EEEEEdeB8ne180100Ev
FNL:3,68,68
FNA:3,3591,_ZNSt3__120back_insert_iteratorINS_6vectorIN8nlohmann16json_abi_v3_11_310basic_jsonINS_3mapES1_NS_12basic_stringIcNS_11char_traitsIcEENS_9allocatorIcEEEEbxydS9_NS3_14adl_serializerENS1_IhNS9_IhEEEEvEENS9_ISF_EEEEEppB8ne180100Ev
FNL:4,77,78
FNA:4,853,_ZNSt3__113back_inserterB8ne180100INS_6vectorIN8nlohmann16json_abi_v3_11_310basic_jsonINS_3mapES1_NS_12basic_stringIcNS_11char_traitsIcEENS_9allocatorIcEEEEbxydS9_NS3_14adl_serializerENS1_IhNS9_IhEEEEvEENS9_ISF_EEEEEENS_20back_insert_iteratorIT_EERSJ_
FNF:5
FNH:5
DA:53,1706
DA:54,1706
DA:62,3591
DA:63,3591
DA:64,3591
DA:67,3591
DA:68,3591
DA:77,853
DA:78,853
LF:9
LH:9
end_of_record
TN:
SF:/Library/Developer/CommandLineTools/SDKs/MacOSX.sdk/usr/include/c++/v1/__iterator/distance.h
FNL:0,40,41
FNA:0,0,_ZNSt3__110__distanceB8ne180100INS_11__wrap_iterIPKN7pyfolio8DateTimeEEEEENS_15iterator_traitsIT_E15difference_typeES8_S8_NS_26random_access_iterator_tagE
FNA:0,9,_ZNSt3__110__distanceB8ne180100INS_11__wrap_iterIPKNS_12basic_stringIcNS_11char_traitsIcEENS_9allocatorIcEEEEEEEENS_15iterator_traitsIT_E15difference_typeESC_SC_NS_26random_access_iterator_tagE
FNA:0,3,_ZNSt3__110__distanceB8ne180100INS_11__wrap_iterIPKNS_6vectorIdNS_9allocatorIdEEEEEEEENS_15iterator_traitsIT_E15difference_typeESA_SA_NS_26random_access_iterator_tagE
FNA:0,132,_ZNSt3__110__distanceB8ne180100INS_11__wrap_iterIPKcEEEENS_15iterator_traitsIT_E15difference_typeES6_S6_NS_26random_access_iterator_tagE
FNA:0,42,_ZNSt3__110__distanceB8ne180100INS_11__wrap_iterIPKdEEEENS_15iterator_traitsIT_E15difference_typeES6_S6_NS_26random_access_iterator_tagE
FNA:0,35,_ZNSt3__110__distanceB8ne180100INS_11__wrap_iterIPNS_12basic_stringIcNS_11char_traitsIcEENS_9allocatorIcEEEEEEEENS_15iterator_traitsIT_E15difference_typeESB_SB_NS_26random_access_iterator_tagE
FNA:0,0,_ZNSt3__110__distanceB8ne180100INS_13move_iteratorIPNS_12basic_stringIcNS_11char_traitsIcEENS_9allocatorIcEEEEEEEENS_15iterator_traitsIT_E15difference_typeESB_SB_NS_26random_access_iterator_tagE
FNA:0,0,_ZNSt3__110__distanceB8ne180100INS_13move_iteratorIPPN7testing9TestSuiteEEEEENS_15iterator_traitsIT_E15difference_typeES8_S8_NS_26random_access_iterator_tagE
FNA:0,0,_ZNSt3__110__distanceB8ne180100INS_13move_iteratorIPPcEEEENS_15iterator_traitsIT_E15difference_typeES6_S6_NS_26random_access_iterator_tagE
FNA:0,17,_ZNSt3__110__distanceB8ne180100IPKN7pyfolio8DateTimeEEENS_15iterator_traitsIT_E15difference_typeES6_S6_NS_26random_access_iterator_tagE
FNA:0,655,_ZNSt3__110__distanceB8ne180100IPKN8nlohmann16json_abi_v3_11_36detail8json_refINS2_10basic_jsonINS_3mapENS_6vectorENS_12basic_stringIcNS_11char_traitsIcEENS_9allocatorIcEEEEbxydSB_NS2_14adl_serializerENS7_IhNSB_IhEEEEvEEEEEENS_15iterator_traitsIT_E15difference_typeESM_SM_NS_26random_access_iterator_tagE
FNA:0,5,_ZNSt3__110__distanceB8ne180100IPKNS_12basic_stringIcNS_11char_traitsIcEENS_9allocatorIcEEEEEENS_15iterator_traitsIT_E15difference_typeESA_SA_NS_26random_access_iterator_tagE
FNA:0,0,_ZNSt3__110__distanceB8ne180100IPKPKcEENS_15iterator_traitsIT_E15difference_typeES6_S6_NS_26random_access_iterator_tagE
FNA:0,48,_ZNSt3__110__distanceB8ne180100IPKcEENS_15iterator_traitsIT_E15difference_typeES4_S4_NS_26random_access_iterator_tagE
FNA:0,39,_ZNSt3__110__distanceB8ne180100IPKdEENS_15iterator_traitsIT_E15difference_typeES4_S4_NS_26random_access_iterator_tagE
FNA:0,38,_ZNSt3__110__distanceB8ne180100IPN7pyfolio8DateTimeEEENS_15iterator_traitsIT_E15difference_typeES5_S5_NS_26random_access_iterator_tagE
FNA:0,37,_ZNSt3__110__distanceB8ne180100IPdEENS_15iterator_traitsIT_E15difference_typeES3_S3_NS_26random_access_iterator_tagE
FNL:1,46,47
FNA:1,0,_ZNSt3__18distanceB8ne180100INS_11__wrap_iterIPKN7pyfolio8DateTimeEEEEENS_15iterator_traitsIT_E15difference_typeES8_S8_
FNA:1,9,_ZNSt3__18distanceB8ne180100INS_11__wrap_iterIPKNS_12basic_stringIcNS_11char_traitsIcEENS_9allocatorIcEEEEEEEENS_15iterator_traitsIT_E15difference_typeESC_SC_
FNA:1,3,_ZNSt3__18distanceB8ne180100INS_11__wrap_iterIPKNS_6vectorIdNS_9allocatorIdEEEEEEEENS_15iterator_traitsIT_E15difference_typeESA_SA_
FNA:1,132,_ZNSt3__18distanceB8ne180100INS_11__wrap_iterIPKcEEEENS_15iterator_traitsIT_E15difference_typeES6_S6_
FNA:1,42,_ZNSt3__18distanceB8ne180100INS_11__wrap_iterIPKdEEEENS_15iterator_traitsIT_E15difference_typeES6_S6_
FNA:1,35,_ZNSt3__18distanceB8ne180100INS_11__wrap_iterIPNS_12basic_stringIcNS_11char_traitsIcEENS_9allocatorIcEEEEEEEENS_15iterator_traitsIT_E15difference_typeESB_SB_
FNA:1,0,_ZNSt3__18distanceB8ne180100INS_13move_iteratorIPNS_12basic_stringIcNS_11char_traitsIcEENS_9allocatorIcEEEEEEEENS_15iterator_traitsIT_E15difference_typeESB_SB_
FNA:1,0,_ZNSt3__18distanceB8ne180100INS_13move_iteratorIPPN7testing9TestSuiteEEEEENS_15iterator_traitsIT_E15difference_typeES8_S8_
FNA:1,0,_ZNSt3__18distanceB8ne180100INS_13move_iteratorIPPcEEEENS_15iterator_traitsIT_E15difference_typeES6_S6_
FNA:1,17,_ZNSt3__18distanceB8ne180100IPKN7pyfolio8DateTimeEEENS_15iterator_traitsIT_E15difference_typeES6_S6_
FNA:1,655,_ZNSt3__18distanceB8ne180100IPKN8nlohmann16json_abi_v3_11_36detail8json_refINS2_10basic_jsonINS_3mapENS_6vectorENS_12basic_stringIcNS_11char_traitsIcEENS_9allocatorIcEEEEbxydSB_NS2_14adl_serializerENS7_IhNSB_IhEEEEvEEEEEENS_15iterator_traitsIT_E15difference_typeESM_SM_
FNA:1,5,_ZNSt3__18distanceB8ne180100IPKNS_12basic_stringIcNS_11char_traitsIcEENS_9allocatorIcEEEEEENS_15iterator_traitsIT_E15difference_typeESA_SA_
FNA:1,0,_ZNSt3__18distanceB8ne180100IPKPKcEENS_15iterator_traitsIT_E15difference_typeES6_S6_
FNA:1,48,_ZNSt3__18distanceB8ne180100IPKcEENS_15iterator_traitsIT_E15difference_typeES4_S4_
FNA:1,39,_ZNSt3__18distanceB8ne180100IPKdEENS_15iterator_traitsIT_E15difference_typeES4_S4_
FNA:1,38,_ZNSt3__18distanceB8ne180100IPN7pyfolio8DateTimeEEENS_15iterator_traitsIT_E15difference_typeES5_S5_
FNA:1,37,_ZNSt3__18distanceB8ne180100IPdEENS_15iterator_traitsIT_E15difference_typeES3_S3_
FNF:2
FNH:2
DA:40,1060
DA:41,1060
DA:46,1060
DA:47,1060
LF:4
LH:4
end_of_record
TN:
SF:/Library/Developer/CommandLineTools/SDKs/MacOSX.sdk/usr/include/c++/v1/__iterator/insert_iterator.h
FNL:0,64,65
FNA:0,35,_ZNSt3__115insert_iteratorINS_13unordered_setINS_12basic_stringIcNS_11char_traitsIcEENS_9allocatorIcEEEENS_4hashIS7_EENS_8equal_toIS7_EENS5_IS7_EEEEEC1B8ne180100ERSD_NS_21__hash_const_iteratorIPNS_11__hash_nodeIS7_PvEEEE
FNA:0,35,_ZNSt3__115insert_iteratorINS_13unordered_setINS_12basic_stringIcNS_11char_traitsIcEENS_9allocatorIcEEEENS_4hashIS7_EENS_8equal_toIS7_EENS5_IS7_EEEEEC2B8ne180100ERSD_NS_21__hash_const_iteratorIPNS_11__hash_nodeIS7_PvEEEE
FNA:0,35,_ZNSt3__115insert_iteratorINS_6vectorINS_12basic_stringIcNS_11char_traitsIcEENS_9allocatorIcEEEENS5_IS7_EEEEEC1B8ne180100ERS9_NS_11__wrap_iterIPS7_EE
FNA:0,35,_ZNSt3__115insert_iteratorINS_6vectorINS_12basic_stringIcNS_11char_traitsIcEENS_9allocatorIcEEEENS5_IS7_EEEEEC2B8ne180100ERS9_NS_11__wrap_iterIPS7_EE
FNL:1,74,77
FNA:1,0,_ZNSt3__115insert_iteratorINS_13unordered_setINS_12basic_stringIcNS_11char_traitsIcEENS_9allocatorIcEEEENS_4hashIS7_EENS_8equal_toIS7_EENS5_IS7_EEEEEaSB8ne180100EOS7_
FNA:1,58,_ZNSt3__115insert_iteratorINS_6vectorINS_12basic_stringIcNS_11char_traitsIcEENS_9allocatorIcEEEENS5_IS7_EEEEEaSB8ne180100EOS7_
FNL:2,80,80
FNA:2,0,_ZNSt3__115insert_iteratorINS_13unordered_setINS_12basic_stringIcNS_11char_traitsIcEENS_9allocatorIcEEEENS_4hashIS7_EENS_8equal_toIS7_EENS5_IS7_EEEEEdeB8ne180100Ev
FNA:2,58,_ZNSt3__115insert_iteratorINS_6vectorINS_12basic_stringIcNS_11char_traitsIcEENS_9allocatorIcEEEENS5_IS7_EEEEEdeB8ne180100Ev
FNL:3,81,81
FNA:3,0,_ZNSt3__115insert_iteratorINS_13unordered_setINS_12basic_stringIcNS_11char_traitsIcEENS_9allocatorIcEEEENS_4hashIS7_EENS_8equal_toIS7_EENS5_IS7_EEEEEppB8ne180100Ev
FNA:3,58,_ZNSt3__115insert_iteratorINS_6vectorINS_12basic_stringIcNS_11char_traitsIcEENS_9allocatorIcEEEENS5_IS7_EEEEEppB8ne180100Ev
FNL:4,87,88
FNA:4,35,_ZNSt3__18inserterB8ne180100INS_13unordered_setINS_12basic_stringIcNS_11char_traitsIcEENS_9allocatorIcEEEENS_4hashIS7_EENS_8equal_toIS7_EENS5_IS7_EEEEEENS_15insert_iteratorIT_EERSF_DTclL_ZNS_6ranges5__cpo5beginEEclsr3stdE7declvalISH_EEEE
FNA:4,35,_ZNSt3__18inserterB8ne180100INS_6vectorINS_12basic_stringIcNS_11char_traitsIcEENS_9allocatorIcEEEENS5_IS7_EEEEEENS_15insert_iteratorIT_EERSB_DTclL_ZNS_6ranges5__cpo5beginEEclsr3stdE7declvalISD_EEEE
FNF:5
FNH:5
DA:64,140
DA:65,140
DA:74,58
DA:75,58
DA:76,58
DA:77,58
DA:80,58
DA:81,58
DA:87,70
DA:88,70
LF:10
LH:10
end_of_record
TN:
SF:/Library/Developer/CommandLineTools/SDKs/MacOSX.sdk/usr/include/c++/v1/__iterator/istreambuf_iterator.h
FNL:0,60,63
FNA:0,49904,_ZNKSt3__119istreambuf_iteratorIcNS_11char_traitsIcEEE14__test_for_eofB8ne180100Ev
FNL:1,67,67
FNA:1,3,_ZNSt3__119istreambuf_iteratorIcNS_11char_traitsIcEEEC1B8ne180100Ev
FNA:1,3,_ZNSt3__119istreambuf_iteratorIcNS_11char_traitsIcEEEC2B8ne180100Ev
FNL:2,71,71
FNA:2,3,_ZNSt3__119istreambuf_iteratorIcNS_11char_traitsIcEEEC1B8ne180100ERNS_13basic_istreamIcS2_EE
FNA:2,3,_ZNSt3__119istreambuf_iteratorIcNS_11char_traitsIcEEEC2B8ne180100ERNS_13basic_istreamIcS2_EE
FNL:3,75,75
FNA:3,24949,_ZNKSt3__119istreambuf_iteratorIcNS_11char_traitsIcEEEdeB8ne180100Ev
FNL:4,76,78
FNA:4,24949,_ZNSt3__119istreambuf_iteratorIcNS_11char_traitsIcEEEppB8ne180100Ev
FNL:5,82,83
FNA:5,24952,_ZNKSt3__119istreambuf_iteratorIcNS_11char_traitsIcEEE5equalB8ne180100ERKS3_
FNL:6,95,96
FNA:6,24952,_ZNSt3__1eqB8ne180100IcNS_11char_traitsIcEEEEbRKNS_19istreambuf_iteratorIT_T0_EES8_
FNF:7
FNH:7
DA:60,49904
DA:61,49904
DA:62,3
DA:63,49904
DA:67,6
DA:71,6
DA:75,24949
DA:76,24949
DA:77,24949
DA:78,24949
DA:82,24952
DA:83,24952
DA:95,24952
DA:96,24952
LF:14
LH:14
end_of_record
TN:
SF:/Library/Developer/CommandLineTools/SDKs/MacOSX.sdk/usr/include/c++/v1/__iterator/iter_move.h
FNL:0,72,74
FNA:0,0,_ZNKSt3__16ranges11__iter_move4__fnclB8ne180100IRKPNS_12basic_stringIcNS_11char_traitsIcEENS_9allocatorIcEEEEEEDTclsr3stdE4movedeclsr3stdE7forwardIT_Efp_EEEOSD_
FNA:0,0,_ZNKSt3__16ranges11__iter_move4__fnclB8ne180100IRKPPN7testing9TestSuiteEEEDTclsr3stdE4movedeclsr3stdE7forwardIT_Efp_EEEOSA_
FNA:0,0,_ZNKSt3__16ranges11__iter_move4__fnclB8ne180100IRKPPcEEDTclsr3stdE4movedeclsr3stdE7forwardIT_Efp_EEEOS8_
FNF:1
FNH:0
DA:72,0
DA:74,0
LF:2
LH:0
end_of_record
TN:
SF:/Library/Developer/CommandLineTools/SDKs/MacOSX.sdk/usr/include/c++/v1/__iterator/move_iterator.h
FNL:0,113,113
FNA:0,0,_ZNSt3__113move_iteratorIPNS_12basic_stringIcNS_11char_traitsIcEENS_9allocatorIcEEEEEC1B8ne180100ES7_
FNA:0,0,_ZNSt3__113move_iteratorIPNS_12basic_stringIcNS_11char_traitsIcEENS_9allocatorIcEEEEEC2B8ne180100ES7_
FNA:0,0,_ZNSt3__113move_iteratorIPPN7testing9TestSuiteEEC1B8ne180100ES4_
FNA:0,0,_ZNSt3__113move_iteratorIPPN7testing9TestSuiteEEC2B8ne180100ES4_
FNA:0,0,_ZNSt3__113move_iteratorIPPcEC1B8ne180100ES2_
FNA:0,0,_ZNSt3__113move_iteratorIPPcEC2B8ne180100ES2_
FNL:1,115,117
FNA:1,0,_ZNSt3__113move_iteratorIPNS_12basic_stringIcNS_11char_traitsIcEENS_9allocatorIcEEEEEppB8ne180100Ev
FNA:1,0,_ZNSt3__113move_iteratorIPPN7testing9TestSuiteEEppB8ne180100Ev
FNA:1,0,_ZNSt3__113move_iteratorIPPcEppB8ne180100Ev
FNL:2,140,140
FNA:2,0,_ZNKRSt3__113move_iteratorIPNS_12basic_stringIcNS_11char_traitsIcEENS_9allocatorIcEEEEE4baseB8ne180100Ev
FNA:2,0,_ZNKRSt3__113move_iteratorIPPN7testing9TestSuiteEE4baseB8ne180100Ev
FNA:2,0,_ZNKRSt3__113move_iteratorIPPcE4baseB8ne180100Ev
FNL:3,143,143
FNA:3,0,_ZNKSt3__113move_iteratorIPNS_12basic_stringIcNS_11char_traitsIcEENS_9allocatorIcEEEEEdeB8ne180100Ev
FNA:3,0,_ZNKSt3__113move_iteratorIPPN7testing9TestSuiteEEdeB8ne180100Ev
FNA:3,0,_ZNKSt3__113move_iteratorIPPcEdeB8ne180100Ev
FNL:4,304,305
FNA:4,0,_ZNSt3__1miB8ne180100IPNS_12basic_stringIcNS_11char_traitsIcEENS_9allocatorIcEEEES7_EEDTmicldtfp_4baseEcldtfp0_4baseEERKNS_13move_iteratorIT_EERKNS9_IT0_EE
FNA:4,0,_ZNSt3__1miB8ne180100IPPN7testing9TestSuiteES4_EEDTmicldtfp_4baseEcldtfp0_4baseEERKNS_13move_iteratorIT_EERKNS6_IT0_EE
FNA:4,0,_ZNSt3__1miB8ne180100IPPcS2_EEDTmicldtfp_4baseEcldtfp0_4baseEERKNS_13move_iteratorIT_EERKNS4_IT0_EE
FNF:5
FNH:0
DA:113,0
DA:115,0
DA:116,0
DA:117,0
DA:140,0
DA:143,0
DA:304,0
DA:305,0
LF:8
LH:0
end_of_record
TN:
SF:/Library/Developer/CommandLineTools/SDKs/MacOSX.sdk/usr/include/c++/v1/__iterator/next.h
FNL:0,29,36
FNA:0,0,_ZNSt3__14nextB8ne180100INS_11__wrap_iterIPKN7pyfolio8DateTimeEEELi0EEET_S7_NS_15iterator_traitsIS7_E15difference_typeE
FNA:0,197,_ZNSt3__14nextB8ne180100INS_20__map_const_iteratorINS_21__tree_const_iteratorINS_12__value_typeINS_12basic_stringIcNS_11char_traitsIcEENS_9allocatorIcEEEEN8nlohmann16json_abi_v3_11_310basic_jsonINS_3mapENS_6vectorES9_bxydS7_NSB_14adl_serializerENSE_IhNS7_IhEEEEvEEEEPNS_11__tree_nodeISJ_PvEElEEEELi0EEET_SQ_NS_15iterator_traitsISQ_E15difference_typeE
FNA:0,0,_ZNSt3__14nextB8ne180100INS_21__tree_const_iteratorINS_12__value_typeINS_12basic_stringIcNS_11char_traitsIcEENS_9allocatorIcEEEEN8nlohmann16json_abi_v3_11_310basic_jsonINS_3mapENS_6vectorES8_bxydS6_NSA_14adl_serializerENSD_IhNS6_IhEEEEvEEEEPNS_11__tree_nodeISI_PvEElEELi0EEET_SO_NS_15iterator_traitsISO_E15difference_typeE
FNA:0,0,_ZNSt3__14nextB8ne180100INS_21__tree_const_iteratorINS_12__value_typeINS_12basic_stringIcNS_11char_traitsIcEENS_9allocatorIcEEEEdEEPNS_11__tree_nodeIS9_PvEElEELi0EEET_SF_NS_15iterator_traitsISF_E15difference_typeE
FNA:0,0,_ZNSt3__14nextB8ne180100IPKN7pyfolio8DateTimeELi0EEET_S5_NS_15iterator_traitsIS5_E15difference_typeE
FNA:0,0,_ZNSt3__14nextB8ne180100IPKNS_12basic_stringIcNS_11char_traitsIcEENS_9allocatorIcEEEELi0EEET_S9_NS_15iterator_traitsIS9_E15difference_typeE
FNA:0,0,_ZNSt3__14nextB8ne180100IPKdLi0EEET_S3_NS_15iterator_traitsIS3_E15difference_typeE
FNA:0,0,_ZNSt3__14nextB8ne180100IPN7pyfolio8DateTimeELi0EEET_S4_NS_15iterator_traitsIS4_E15difference_typeE
FNA:0,0,_ZNSt3__14nextB8ne180100IPdLi0EEET_S2_NS_15iterator_traitsIS2_E15difference_typeE
FNF:1
FNH:1
DA:29,197
DA:35,197
DA:36,197
LF:3
LH:3
end_of_record
TN:
SF:/Library/Developer/CommandLineTools/SDKs/MacOSX.sdk/usr/include/c++/v1/__iterator/ostreambuf_iterator.h
FNL:0,53,53
FNA:0,24090,_ZNSt3__119ostreambuf_iteratorIcNS_11char_traitsIcEEEC1B8ne180100ERNS_13basic_ostreamIcS2_EE
FNA:0,24090,_ZNSt3__119ostreambuf_iteratorIcNS_11char_traitsIcEEEC2B8ne180100ERNS_13basic_ostreamIcS2_EE
FNL:1,63,63
FNA:1,24090,_ZNKSt3__119ostreambuf_iteratorIcNS_11char_traitsIcEEE6failedB8ne180100Ev
FNF:2
FNH:2
DA:53,48180
DA:63,24090
LF:2
LH:2
end_of_record
TN:
SF:/Library/Developer/CommandLineTools/SDKs/MacOSX.sdk/usr/include/c++/v1/__iterator/prev.h
FNL:0,29,35
FNA:0,57,_ZNSt3__14prevB8ne180100INS_11__wrap_iterIPcEELi0EEET_S4_NS_15iterator_traitsIS4_E15difference_typeE
FNA:0,0,_ZNSt3__14prevB8ne180100INS_16reverse_iteratorIPN7pyfolio10TimeSeriesIdEEEELi0EEET_S7_NS_15iterator_traitsIS7_E15difference_typeE
FNA:0,0,_ZNSt3__14prevB8ne180100INS_16reverse_iteratorIPN7pyfolio11attribution17SectorAttributionEEELi0EEET_S7_NS_15iterator_traitsIS7_E15difference_typeE
FNA:0,0,_ZNSt3__14prevB8ne180100INS_16reverse_iteratorIPN7pyfolio13visualization8PlotDataEEELi0EEET_S7_NS_15iterator_traitsIS7_E15difference_typeE
FNA:0,0,_ZNSt3__14prevB8ne180100INS_16reverse_iteratorIPN7testing12TestPropertyEEELi0EEET_S6_NS_15iterator_traitsIS6_E15difference_typeE
FNA:0,0,_ZNSt3__14prevB8ne180100INS_16reverse_iteratorIPN7testing14TestPartResultEEELi0EEET_S6_NS_15iterator_traitsIS6_E15difference_typeE
FNA:0,0,_ZNSt3__14prevB8ne180100INS_16reverse_iteratorIPN7testing8internal9TraceInfoEEELi0EEET_S7_NS_15iterator_traitsIS7_E15difference_typeE
FNA:0,0,_ZNSt3__14prevB8ne180100INS_16reverse_iteratorIPN8nlohmann16json_abi_v3_11_310basic_jsonINS_3mapENS_6vectorENS_12basic_stringIcNS_11char_traitsIcEENS_9allocatorIcEEEEbxydSA_NS3_14adl_serializerENS6_IhNSA_IhEEEEvEEEELi0EEET_SJ_NS_15iterator_traitsISJ_E15difference_typeE
FNA:0,0,_ZNSt3__14prevB8ne180100INS_16reverse_iteratorIPNS_12basic_stringIcNS_11char_traitsIcEENS_9allocatorIcEEEEEELi0EEET_SA_NS_15iterator_traitsISA_E15difference_typeE
FNA:0,0,_ZNSt3__14prevB8ne180100INS_16reverse_iteratorIPNS_4pairIN7pyfolio8DateTimeEdEEEELi0EEET_S8_NS_15iterator_traitsIS8_E15difference_typeE
FNA:0,0,_ZNSt3__14prevB8ne180100INS_16reverse_iteratorIPNS_6threadEEELi0EEET_S5_NS_15iterator_traitsIS5_E15difference_typeE
FNA:0,0,_ZNSt3__14prevB8ne180100INS_16reverse_iteratorIPNS_6vectorIdNS_9allocatorIdEEEEEELi0EEET_S8_NS_15iterator_traitsIS8_E15difference_typeE
FNA:0,35,_ZNSt3__14prevB8ne180100IPN7pyfolio10TimeSeriesIdEELi0EEET_S5_NS_15iterator_traitsIS5_E15difference_typeE
FNA:0,6,_ZNSt3__14prevB8ne180100IPN7pyfolio11attribution17SectorAttributionELi0EEET_S5_NS_15iterator_traitsIS5_E15difference_typeE
FNA:0,1,_ZNSt3__14prevB8ne180100IPN7pyfolio13visualization8PlotDataELi0EEET_S5_NS_15iterator_traitsIS5_E15difference_typeE
FNA:0,0,_ZNSt3__14prevB8ne180100IPN7testing12TestPropertyELi0EEET_S4_NS_15iterator_traitsIS4_E15difference_typeE
FNA:0,138,_ZNSt3__14prevB8ne180100IPN7testing14TestPartResultELi0EEET_S4_NS_15iterator_traitsIS4_E15difference_typeE
FNA:0,0,_ZNSt3__14prevB8ne180100IPN7testing8internal9TraceInfoELi0EEET_S5_NS_15iterator_traitsIS5_E15difference_typeE
FNA:0,2597,_ZNSt3__14prevB8ne180100IPN8nlohmann16json_abi_v3_11_310basic_jsonINS_3mapENS_6vectorENS_12basic_stringIcNS_11char_traitsIcEENS_9allocatorIcEEEEbxydS9_NS2_14adl_serializerENS5_IhNS9_IhEEEEvEELi0EEET_SH_NS_15iterator_traitsISH_E15difference_typeE
FNA:0,40,_ZNSt3__14prevB8ne180100IPNS_12basic_stringIcNS_11char_traitsIcEENS_9allocatorIcEEEELi0EEET_S8_NS_15iterator_traitsIS8_E15difference_typeE
FNA:0,0,_ZNSt3__14prevB8ne180100IPNS_4pairIN7pyfolio8DateTimeEdEELi0EEET_S6_NS_15iterator_traitsIS6_E15difference_typeE
FNA:0,15,_ZNSt3__14prevB8ne180100IPNS_6threadELi0EEET_S3_NS_15iterator_traitsIS3_E15difference_typeE
FNA:0,15,_ZNSt3__14prevB8ne180100IPNS_6vectorIdNS_9allocatorIdEEEELi0EEET_S6_NS_15iterator_traitsIS6_E15difference_typeE
FNF:1
FNH:1
DA:29,2904
DA:34,2904
DA:35,2904
LF:3
LH:3
end_of_record
TN:
SF:/Library/Developer/CommandLineTools/SDKs/MacOSX.sdk/usr/include/c++/v1/__iterator/reverse_iterator.h
FNL:0,129,129
FNA:0,0,_ZNKSt3__116reverse_iteratorINS0_IPN7pyfolio10TimeSeriesIdEEEEE4baseB8ne180100Ev
FNA:0,0,_ZNKSt3__116reverse_iteratorINS0_IPN7pyfolio11attribution17SectorAttributionEEEE4baseB8ne180100Ev
FNA:0,0,_ZNKSt3__116reverse_iteratorINS0_IPN7pyfolio13visualization8PlotDataEEEE4baseB8ne180100Ev
FNA:0,0,_ZNKSt3__116reverse_iteratorINS0_IPN7testing12TestPropertyEEEE4baseB8ne180100Ev
FNA:0,0,_ZNKSt3__116reverse_iteratorINS0_IPN7testing14TestPartResultEEEE4baseB8ne180100Ev
FNA:0,0,_ZNKSt3__116reverse_iteratorINS0_IPN7testing8internal9TraceInfoEEEE4baseB8ne180100Ev
FNA:0,0,_ZNKSt3__116reverse_iteratorINS0_IPN8nlohmann16json_abi_v3_11_310basic_jsonINS_3mapENS_6vectorENS_12basic_stringIcNS_11char_traitsIcEENS_9allocatorIcEEEEbxydS9_NS2_14adl_serializerENS5_IhNS9_IhEEEEvEEEEE4baseB8ne180100Ev
FNA:0,0,_ZNKSt3__116reverse_iteratorINS0_IPNS_12basic_stringIcNS_11char_traitsIcEENS_9allocatorIcEEEEEEE4baseB8ne180100Ev
FNA:0,0,_ZNKSt3__116reverse_iteratorINS0_IPNS_4pairIN7pyfolio8DateTimeEdEEEEE4baseB8ne180100Ev
FNA:0,0,_ZNKSt3__116reverse_iteratorINS0_IPNS_6threadEEEE4baseB8ne180100Ev
FNA:0,0,_ZNKSt3__116reverse_iteratorINS0_IPNS_6vectorIdNS_9allocatorIdEEEEEEE4baseB8ne180100Ev
FNA:0,22,_ZNKSt3__116reverse_iteratorINS_11__wrap_iterIPPN7testing11EnvironmentEEEE4baseB8ne180100Ev
FNA:0,528,_ZNKSt3__116reverse_iteratorINS_11__wrap_iterIPPN7testing9TestSuiteEEEE4baseB8ne180100Ev
FNA:0,130,_ZNKSt3__116reverse_iteratorIPN7pyfolio10TimeSeriesIdEEE4baseB8ne180100Ev
FNA:0,30,_ZNKSt3__116reverse_iteratorIPN7pyfolio11attribution17SectorAttributionEE4baseB8ne180100Ev
FNA:0,29,_ZNKSt3__116reverse_iteratorIPN7pyfolio13visualization8PlotDataEE4baseB8ne180100Ev
FNA:0,39180,_ZNKSt3__116reverse_iteratorIPN7pyfolio8DateTimeEE4baseB8ne180100Ev
FNA:0,0,_ZNKSt3__116reverse_iteratorIPN7testing12TestPropertyEE4baseB8ne180100Ev
FNA:0,354,_ZNKSt3__116reverse_iteratorIPN7testing14TestPartResultEE4baseB8ne180100Ev
FNA:0,0,_ZNKSt3__116reverse_iteratorIPN7testing8internal13edit_distance8EditTypeEE4baseB8ne180100Ev
FNA:0,0,_ZNKSt3__116reverse_iteratorIPN7testing8internal9TraceInfoEE4baseB8ne180100Ev
FNA:0,7909,_ZNKSt3__116reverse_iteratorIPN8nlohmann16json_abi_v3_11_310basic_jsonINS_3mapENS_6vectorENS_12basic_stringIcNS_11char_traitsIcEENS_9allocatorIcEEEEbxydS9_NS2_14adl_serializerENS5_IhNS9_IhEEEEvEEE4baseB8ne180100Ev
FNA:0,503,_ZNKSt3__116reverse_iteratorIPNS_12basic_stringIcNS_11char_traitsIcEENS_9allocatorIcEEEEE4baseB8ne180100Ev
FNA:0,0,_ZNKSt3__116reverse_iteratorIPNS_4pairIN7pyfolio8DateTimeEdEEE4baseB8ne180100Ev
FNA:0,45,_ZNKSt3__116reverse_iteratorIPNS_6threadEE4baseB8ne180100Ev
FNA:0,45,_ZNKSt3__116reverse_iteratorIPNS_6vectorIdNS_9allocatorIdEEEEE4baseB8ne180100Ev
FNA:0,0,_ZNKSt3__116reverse_iteratorIPPN7testing11EnvironmentEE4baseB8ne180100Ev
FNA:0,36,_ZNKSt3__116reverse_iteratorIPPN7testing17TestEventListenerEE4baseB8ne180100Ev
FNA:0,516,_ZNKSt3__116reverse_iteratorIPPN7testing8TestInfoEE4baseB8ne180100Ev
FNA:0,33,_ZNKSt3__116reverse_iteratorIPPN7testing9TestSuiteEE4baseB8ne180100Ev
FNA:0,0,_ZNKSt3__116reverse_iteratorIPPcE4baseB8ne180100Ev
FNA:0,128041,_ZNKSt3__116reverse_iteratorIPdE4baseB8ne180100Ev
FNA:0,549,_ZNKSt3__116reverse_iteratorIPiE4baseB8ne180100Ev
FNA:0,0,_ZNKSt3__116reverse_iteratorIPmE4baseB8ne180100Ev
FNL:1,130,132
FNA:1,0,_ZNKSt3__116reverse_iteratorINS_11__wrap_iterIPPN7testing11EnvironmentEEEEdeB8ne180100Ev
FNA:1,242,_ZNKSt3__116reverse_iteratorINS_11__wrap_iterIPPN7testing9TestSuiteEEEEdeB8ne180100Ev
FNA:1,35,_ZNKSt3__116reverse_iteratorIPN7pyfolio10TimeSeriesIdEEEdeB8ne180100Ev
FNA:1,6,_ZNKSt3__116reverse_iteratorIPN7pyfolio11attribution17SectorAttributionEEdeB8ne180100Ev
FNA:1,1,_ZNKSt3__116reverse_iteratorIPN7pyfolio13visualization8PlotDataEEdeB8ne180100Ev
FNA:1,36390,_ZNKSt3__116reverse_iteratorIPN7pyfolio8DateTimeEEdeB8ne180100Ev
FNA:1,0,_ZNKSt3__116reverse_iteratorIPN7testing12TestPropertyEEdeB8ne180100Ev
FNA:1,138,_ZNKSt3__116reverse_iteratorIPN7testing14TestPartResultEEdeB8ne180100Ev
FNA:1,0,_ZNKSt3__116reverse_iteratorIPN7testing8internal13edit_distance8EditTypeEEdeB8ne180100Ev
FNA:1,0,_ZNKSt3__116reverse_iteratorIPN7testing8internal9TraceInfoEEdeB8ne180100Ev
FNA:1,2597,_ZNKSt3__116reverse_iteratorIPN8nlohmann16json_abi_v3_11_310basic_jsonINS_3mapENS_6vectorENS_12basic_stringIcNS_11char_traitsIcEENS_9allocatorIcEEEEbxydS9_NS2_14adl_serializerENS5_IhNS9_IhEEEEvEEEdeB8ne180100Ev
FNA:1,40,_ZNKSt3__116reverse_iteratorIPNS_12basic_stringIcNS_11char_traitsIcEENS_9allocatorIcEEEEEdeB8ne180100Ev
FNA:1,0,_ZNKSt3__116reverse_iteratorIPNS_4pairIN7pyfolio8DateTimeEdEEEdeB8ne180100Ev
FNA:1,15,_ZNKSt3__116reverse_iteratorIPNS_6threadEEdeB8ne180100Ev
FNA:1,15,_ZNKSt3__116reverse_iteratorIPNS_6vectorIdNS_9allocatorIdEEEEEdeB8ne180100Ev
FNA:1,0,_ZNKSt3__116reverse_iteratorIPPN7testing11EnvironmentEEdeB8ne180100Ev
FNA:1,0,_ZNKSt3__116reverse_iteratorIPPN7testing17TestEventListenerEEdeB8ne180100Ev
FNA:1,354,_ZNKSt3__116reverse_iteratorIPPN7testing8TestInfoEEdeB8ne180100Ev
FNA:1,0,_ZNKSt3__116reverse_iteratorIPPN7testing9TestSuiteEEdeB8ne180100Ev
FNA:1,0,_ZNKSt3__116reverse_iteratorIPPcEdeB8ne180100Ev
FNA:1,120934,_ZNKSt3__116reverse_iteratorIPdEdeB8ne180100Ev
FNA:1,354,_ZNKSt3__116reverse_iteratorIPiEdeB8ne180100Ev
FNA:1,0,_ZNKSt3__116reverse_iteratorIPmEdeB8ne180100Ev
FNL:2,136,142
FNA:2,0,_ZNKSt3__116reverse_iteratorINS0_IPN7pyfolio10TimeSeriesIdEEEEEptB8ne180100Ev
FNA:2,0,_ZNKSt3__116reverse_iteratorINS0_IPN7pyfolio11attribution17SectorAttributionEEEEptB8ne180100Ev
FNA:2,0,_ZNKSt3__116reverse_iteratorINS0_IPN7pyfolio13visualization8PlotDataEEEEptB8ne180100Ev
FNA:2,0,_ZNKSt3__116reverse_iteratorINS0_IPN7testing12TestPropertyEEEEptB8ne180100Ev
FNA:2,0,_ZNKSt3__116reverse_iteratorINS0_IPN7testing14TestPartResultEEEEptB8ne180100Ev
FNA:2,0,_ZNKSt3__116reverse_iteratorINS0_IPN7testing8internal9TraceInfoEEEEptB8ne180100Ev
FNA:2,0,_ZNKSt3__116reverse_iteratorINS0_IPN8nlohmann16json_abi_v3_11_310basic_jsonINS_3mapENS_6vectorENS_12basic_stringIcNS_11char_traitsIcEENS_9allocatorIcEEEEbxydS9_NS2_14adl_serializerENS5_IhNS9_IhEEEEvEEEEEptB8ne180100Ev
FNA:2,0,_ZNKSt3__116reverse_iteratorINS0_IPNS_12basic_stringIcNS_11char_traitsIcEENS_9allocatorIcEEEEEEEptB8ne180100Ev
FNA:2,0,_ZNKSt3__116reverse_iteratorINS0_IPNS_4pairIN7pyfolio8DateTimeEdEEEEEptB8ne180100Ev
FNA:2,0,_ZNKSt3__116reverse_iteratorINS0_IPNS_6threadEEEEptB8ne180100Ev
FNA:2,0,_ZNKSt3__116reverse_iteratorINS0_IPNS_6vectorIdNS_9allocatorIdEEEEEEEptB8ne180100Ev
FNA:2,35,_ZNKSt3__116reverse_iteratorIPN7pyfolio10TimeSeriesIdEEEptB8ne180100Ev
FNA:2,6,_ZNKSt3__116reverse_iteratorIPN7pyfolio11attribution17SectorAttributionEEptB8ne180100Ev
FNA:2,1,_ZNKSt3__116reverse_iteratorIPN7pyfolio13visualization8PlotDataEEptB8ne180100Ev
FNA:2,0,_ZNKSt3__116reverse_iteratorIPN7testing12TestPropertyEEptB8ne180100Ev
FNA:2,138,_ZNKSt3__116reverse_iteratorIPN7testing14TestPartResultEEptB8ne180100Ev
FNA:2,0,_ZNKSt3__116reverse_iteratorIPN7testing8internal9TraceInfoEEptB8ne180100Ev
FNA:2,2597,_ZNKSt3__116reverse_iteratorIPN8nlohmann16json_abi_v3_11_310basic_jsonINS_3mapENS_6vectorENS_12basic_stringIcNS_11char_traitsIcEENS_9allocatorIcEEEEbxydS9_NS2_14adl_serializerENS5_IhNS9_IhEEEEvEEEptB8ne180100Ev
FNA:2,40,_ZNKSt3__116reverse_iteratorIPNS_12basic_stringIcNS_11char_traitsIcEENS_9allocatorIcEEEEEptB8ne180100Ev
FNA:2,0,_ZNKSt3__116reverse_iteratorIPNS_4pairIN7pyfolio8DateTimeEdEEEptB8ne180100Ev
FNA:2,15,_ZNKSt3__116reverse_iteratorIPNS_6threadEEptB8ne180100Ev
FNA:2,15,_ZNKSt3__116reverse_iteratorIPNS_6vectorIdNS_9allocatorIdEEEEEptB8ne180100Ev
FNL:3,149,151
FNA:3,0,_ZNSt3__116reverse_iteratorINS0_IPN7pyfolio10TimeSeriesIdEEEEEppB8ne180100Ev
FNA:3,0,_ZNSt3__116reverse_iteratorINS0_IPN7pyfolio11attribution17SectorAttributionEEEEppB8ne180100Ev
FNA:3,0,_ZNSt3__116reverse_iteratorINS0_IPN7pyfolio13visualization8PlotDataEEEEppB8ne180100Ev
FNA:3,0,_ZNSt3__116reverse_iteratorINS0_IPN7testing12TestPropertyEEEEppB8ne180100Ev
FNA:3,0,_ZNSt3__116reverse_iteratorINS0_IPN7testing14TestPartResultEEEEppB8ne180100Ev
FNA:3,0,_ZNSt3__116reverse_iteratorINS0_IPN7testing8internal9TraceInfoEEEEppB8ne180100Ev
FNA:3,0,_ZNSt3__116reverse_iteratorINS0_IPN8nlohmann16json_abi_v3_11_310basic_jsonINS_3mapENS_6vectorENS_12basic_stringIcNS_11char_traitsIcEENS_9allocatorIcEEEEbxydS9_NS2_14adl_serializerENS5_IhNS9_IhEEEEvEEEEEppB8ne180100Ev
FNA:3,0,_ZNSt3__116reverse_iteratorINS0_IPNS_12basic_stringIcNS_11char_traitsIcEENS_9allocatorIcEEEEEEEppB8ne180100Ev
FNA:3,0,_ZNSt3__116reverse_iteratorINS0_IPNS_4pairIN7pyfolio8DateTimeEdEEEEEppB8ne180100Ev
FNA:3,0,_ZNSt3__116reverse_iteratorINS0_IPNS_6threadEEEEppB8ne180100Ev
FNA:3,0,_ZNSt3__116reverse_iteratorINS0_IPNS_6vectorIdNS_9allocatorIdEEEEEEEppB8ne180100Ev
FNA:3,0,_ZNSt3__116reverse_iteratorINS_11__wrap_iterIPPN7testing11EnvironmentEEEEppB8ne180100Ev
FNA:3,0,_ZNSt3__116reverse_iteratorINS_11__wrap_iterIPPN7testing9TestSuiteEEEEppB8ne180100Ev
FNA:3,70,_ZNSt3__116reverse_iteratorIPN7pyfolio10TimeSeriesIdEEEppB8ne180100Ev
FNA:3,12,_ZNSt3__116reverse_iteratorIPN7pyfolio11attribution17SectorAttributionEEppB8ne180100Ev
FNA:3,2,_ZNSt3__116reverse_iteratorIPN7pyfolio13visualization8PlotDataEEppB8ne180100Ev
FNA:3,36390,_ZNSt3__116reverse_iteratorIPN7pyfolio8DateTimeEEppB8ne180100Ev
FNA:3,0,_ZNSt3__116reverse_iteratorIPN7testing12TestPropertyEEppB8ne180100Ev
FNA:3,276,_ZNSt3__116reverse_iteratorIPN7testing14TestPartResultEEppB8ne180100Ev
FNA:3,0,_ZNSt3__116reverse_iteratorIPN7testing8internal13edit_distance8EditTypeEEppB8ne180100Ev
FNA:3,0,_ZNSt3__116reverse_iteratorIPN7testing8internal9TraceInfoEEppB8ne180100Ev
FNA:3,5194,_ZNSt3__116reverse_iteratorIPN8nlohmann16json_abi_v3_11_310basic_jsonINS_3mapENS_6vectorENS_12basic_stringIcNS_11char_traitsIcEENS_9allocatorIcEEEEbxydS9_NS2_14adl_serializerENS5_IhNS9_IhEEEEvEEEppB8ne180100Ev
FNA:3,80,_ZNSt3__116reverse_iteratorIPNS_12basic_stringIcNS_11char_traitsIcEENS_9allocatorIcEEEEEppB8ne180100Ev
FNA:3,0,_ZNSt3__116reverse_iteratorIPNS_4pairIN7pyfolio8DateTimeEdEEEppB8ne180100Ev
FNA:3,30,_ZNSt3__116reverse_iteratorIPNS_6threadEEppB8ne180100Ev
FNA:3,30,_ZNSt3__116reverse_iteratorIPNS_6vectorIdNS_9allocatorIdEEEEEppB8ne180100Ev
FNA:3,0,_ZNSt3__116reverse_iteratorIPPN7testing11EnvironmentEEppB8ne180100Ev
FNA:3,0,_ZNSt3__116reverse_iteratorIPPN7testing17TestEventListenerEEppB8ne180100Ev
FNA:3,354,_ZNSt3__116reverse_iteratorIPPN7testing8TestInfoEEppB8ne180100Ev
FNA:3,0,_ZNSt3__116reverse_iteratorIPPN7testing9TestSuiteEEppB8ne180100Ev
FNA:3,0,_ZNSt3__116reverse_iteratorIPPcEppB8ne180100Ev
FNA:3,120934,_ZNSt3__116reverse_iteratorIPdEppB8ne180100Ev
FNA:3,354,_ZNSt3__116reverse_iteratorIPiEppB8ne180100Ev
FNA:3,0,_ZNSt3__116reverse_iteratorIPmEppB8ne180100Ev
FNL:4,158,160
FNA:4,0,_ZNSt3__116reverse_iteratorIPN7pyfolio10TimeSeriesIdEEEmmB8ne180100Ev
FNA:4,0,_ZNSt3__116reverse_iteratorIPN7pyfolio11attribution17SectorAttributionEEmmB8ne180100Ev
FNA:4,0,_ZNSt3__116reverse_iteratorIPN7pyfolio13visualization8PlotDataEEmmB8ne180100Ev
FNA:4,0,_ZNSt3__116reverse_iteratorIPN7testing12TestPropertyEEmmB8ne180100Ev
FNA:4,0,_ZNSt3__116reverse_iteratorIPN7testing14TestPartResultEEmmB8ne180100Ev
FNA:4,0,_ZNSt3__116reverse_iteratorIPN7testing8internal9TraceInfoEEmmB8ne180100Ev
FNA:4,0,_ZNSt3__116reverse_iteratorIPN8nlohmann16json_abi_v3_11_310basic_jsonINS_3mapENS_6vectorENS_12basic_stringIcNS_11char_traitsIcEENS_9allocatorIcEEEEbxydS9_NS2_14adl_serializerENS5_IhNS9_IhEEEEvEEEmmB8ne180100Ev
FNA:4,0,_ZNSt3__116reverse_iteratorIPNS_12basic_stringIcNS_11char_traitsIcEENS_9allocatorIcEEEEEmmB8ne180100Ev
FNA:4,0,_ZNSt3__116reverse_iteratorIPNS_4pairIN7pyfolio8DateTimeEdEEEmmB8ne180100Ev
FNA:4,0,_ZNSt3__116reverse_iteratorIPNS_6threadEEmmB8ne180100Ev
FNA:4,0,_ZNSt3__116reverse_iteratorIPNS_6vectorIdNS_9allocatorIdEEEEEmmB8ne180100Ev
FNL:5,170,172
FNA:5,0,_ZNSt3__116reverse_iteratorIPN7pyfolio10TimeSeriesIdEEEpLB8ne180100El
FNA:5,0,_ZNSt3__116reverse_iteratorIPN7pyfolio11attribution17SectorAttributionEEpLB8ne180100El
FNA:5,0,_ZNSt3__116reverse_iteratorIPN7pyfolio13visualization8PlotDataEEpLB8ne180100El
FNA:5,0,_ZNSt3__116reverse_iteratorIPN7testing12TestPropertyEEpLB8ne180100El
FNA:5,0,_ZNSt3__116reverse_iteratorIPN7testing14TestPartResultEEpLB8ne180100El
FNA:5,0,_ZNSt3__116reverse_iteratorIPN7testing8internal9TraceInfoEEpLB8ne180100El
FNA:5,0,_ZNSt3__116reverse_iteratorIPN8nlohmann16json_abi_v3_11_310basic_jsonINS_3mapENS_6vectorENS_12basic_stringIcNS_11char_traitsIcEENS_9allocatorIcEEEEbxydS9_NS2_14adl_serializerENS5_IhNS9_IhEEEEvEEEpLB8ne180100El
FNA:5,0,_ZNSt3__116reverse_iteratorIPNS_12basic_stringIcNS_11char_traitsIcEENS_9allocatorIcEEEEEpLB8ne180100El
FNA:5,0,_ZNSt3__116reverse_iteratorIPNS_4pairIN7pyfolio8DateTimeEdEEEpLB8ne180100El
FNA:5,0,_ZNSt3__116reverse_iteratorIPNS_6threadEEpLB8ne180100El
FNA:5,0,_ZNSt3__116reverse_iteratorIPNS_6vectorIdNS_9allocatorIdEEEEEpLB8ne180100El
FNL:6,231,238
FNA:6,11,_ZNSt3__1neB8ne180100INS_11__wrap_iterIPPN7testing11EnvironmentEEES6_EEbRKNS_16reverse_iteratorIT_EERKNS7_IT0_EE
FNA:6,264,_ZNSt3__1neB8ne180100INS_11__wrap_iterIPPN7testing9TestSuiteEEES6_EEbRKNS_16reverse_iteratorIT_EERKNS7_IT0_EE
FNA:6,0,_ZNSt3__1neB8ne180100INS_16reverse_iteratorIPN7pyfolio10TimeSeriesIdEEEES6_EEbRKNS1_IT_EERKNS1_IT0_EE
FNA:6,0,_ZNSt3__1neB8ne180100INS_16reverse_iteratorIPN7pyfolio11attribution17SectorAttributionEEES6_EEbRKNS1_IT_EERKNS1_IT0_EE
FNA:6,0,_ZNSt3__1neB8ne180100INS_16reverse_iteratorIPN7pyfolio13visualization8PlotDataEEES6_EEbRKNS1_IT_EERKNS1_IT0_EE
FNA:6,0,_ZNSt3__1neB8ne180100INS_16reverse_iteratorIPN7testing12TestPropertyEEES5_EEbRKNS1_IT_EERKNS1_IT0_EE
FNA:6,0,_ZNSt3__1neB8ne180100INS_16reverse_iteratorIPN7testing14TestPartResultEEES5_EEbRKNS1_IT_EERKNS1_IT0_EE
FNA:6,0,_ZNSt3__1neB8ne180100INS_16reverse_iteratorIPN7testing8internal9TraceInfoEEES6_EEbRKNS1_IT_EERKNS1_IT0_EE
FNA:6,0,_ZNSt3__1neB8ne180100INS_16reverse_iteratorIPN8nlohmann16json_abi_v3_11_310basic_jsonINS_3mapENS_6vectorENS_12basic_stringIcNS_11char_traitsIcEENS_9allocatorIcEEEEbxydSA_NS3_14adl_serializerENS6_IhNSA_IhEEEEvEEEESI_EEbRKNS1_IT_EERKNS1_IT0_EE
FNA:6,0,_ZNSt3__1neB8ne180100INS_16reverse_iteratorIPNS_12basic_stringIcNS_11char_traitsIcEENS_9allocatorIcEEEEEES9_EEbRKNS1_IT_EERKNS1_IT0_EE
FNA:6,0,_ZNSt3__1neB8ne180100INS_16reverse_iteratorIPNS_4pairIN7pyfolio8DateTimeEdEEEES7_EEbRKNS1_IT_EERKNS1_IT0_EE
FNA:6,0,_ZNSt3__1neB8ne180100INS_16reverse_iteratorIPNS_6threadEEES4_EEbRKNS1_IT_EERKNS1_IT0_EE
FNA:6,0,_ZNSt3__1neB8ne180100INS_16reverse_iteratorIPNS_6vectorIdNS_9allocatorIdEEEEEES7_EEbRKNS1_IT_EERKNS1_IT0_EE
FNA:6,55,_ZNSt3__1neB8ne180100IPN7pyfolio10TimeSeriesIdEES4_EEbRKNS_16reverse_iteratorIT_EERKNS5_IT0_EE
FNA:6,12,_ZNSt3__1neB8ne180100IPN7pyfolio11attribution17SectorAttributionES4_EEbRKNS_16reverse_iteratorIT_EERKNS5_IT0_EE
FNA:6,10,_ZNSt3__1neB8ne180100IPN7pyfolio13visualization8PlotDataES4_EEbRKNS_16reverse_iteratorIT_EERKNS5_IT0_EE
FNA:6,19125,_ZNSt3__1neB8ne180100IPN7pyfolio8DateTimeES3_EEbRKNS_16reverse_iteratorIT_EERKNS4_IT0_EE
FNA:6,0,_ZNSt3__1neB8ne180100IPN7testing12TestPropertyES3_EEbRKNS_16reverse_iteratorIT_EERKNS4_IT0_EE
FNA:6,164,_ZNSt3__1neB8ne180100IPN7testing14TestPartResultES3_EEbRKNS_16reverse_iteratorIT_EERKNS4_IT0_EE
FNA:6,0,_ZNSt3__1neB8ne180100IPN7testing8internal13edit_distance8EditTypeES5_EEbRKNS_16reverse_iteratorIT_EERKNS6_IT0_EE
FNA:6,0,_ZNSt3__1neB8ne180100IPN7testing8internal9TraceInfoES4_EEbRKNS_16reverse_iteratorIT_EERKNS5_IT0_EE
FNA:6,3502,_ZNSt3__1neB8ne180100IPN8nlohmann16json_abi_v3_11_310basic_jsonINS_3mapENS_6vectorENS_12basic_stringIcNS_11char_traitsIcEENS_9allocatorIcEEEEbxydS9_NS2_14adl_serializerENS5_IhNS9_IhEEEEvEESG_EEbRKNS_16reverse_iteratorIT_EERKNSH_IT0_EE
FNA:6,181,_ZNSt3__1neB8ne180100IPNS_12basic_stringIcNS_11char_traitsIcEENS_9allocatorIcEEEES7_EEbRKNS_16reverse_iteratorIT_EERKNS8_IT0_EE
FNA:6,0,_ZNSt3__1neB8ne180100IPNS_4pairIN7pyfolio8DateTimeEdEES5_EEbRKNS_16reverse_iteratorIT_EERKNS6_IT0_EE
FNA:6,20,_ZNSt3__1neB8ne180100IPNS_6threadES2_EEbRKNS_16reverse_iteratorIT_EERKNS3_IT0_EE
FNA:6,20,_ZNSt3__1neB8ne180100IPNS_6vectorIdNS_9allocatorIdEEEES5_EEbRKNS_16reverse_iteratorIT_EERKNS6_IT0_EE
FNA:6,0,_ZNSt3__1neB8ne180100IPPN7testing11EnvironmentES4_EEbRKNS_16reverse_iteratorIT_EERKNS5_IT0_EE
FNA:6,12,_ZNSt3__1neB8ne180100IPPN7testing17TestEventListenerES4_EEbRKNS_16reverse_iteratorIT_EERKNS5_IT0_EE
FNA:6,231,_ZNSt3__1neB8ne180100IPPN7testing8TestInfoES4_EEbRKNS_16reverse_iteratorIT_EERKNS5_IT0_EE
FNA:6,11,_ZNSt3__1neB8ne180100IPPN7testing9TestSuiteES4_EEbRKNS_16reverse_iteratorIT_EERKNS5_IT0_EE
FNA:6,0,_ZNSt3__1neB8ne180100IPPcS2_EEbRKNS_16reverse_iteratorIT_EERKNS3_IT0_EE
FNA:6,62836,_ZNSt3__1neB8ne180100IPdS1_EEbRKNS_16reverse_iteratorIT_EERKNS2_IT0_EE
FNA:6,242,_ZNSt3__1neB8ne180100IPiS1_EEbRKNS_16reverse_iteratorIT_EERKNS2_IT0_EE
FNA:6,0,_ZNSt3__1neB8ne180100IPmS1_EEbRKNS_16reverse_iteratorIT_EERKNS2_IT0_EE
FNL:7,97,97
FNA:7,0,_ZNSt3__116reverse_iteratorINS0_IPN7pyfolio10TimeSeriesIdEEEEEC1B8ne180100ES5_
FNA:7,0,_ZNSt3__116reverse_iteratorINS0_IPN7pyfolio10TimeSeriesIdEEEEEC2B8ne180100ES5_
FNA:7,0,_ZNSt3__116reverse_iteratorINS0_IPN7pyfolio11attribution17SectorAttributionEEEEC1B8ne180100ES5_
FNA:7,0,_ZNSt3__116reverse_iteratorINS0_IPN7pyfolio11attribution17SectorAttributionEEEEC2B8ne180100ES5_
FNA:7,0,_ZNSt3__116reverse_iteratorINS0_IPN7pyfolio13visualization8PlotDataEEEEC1B8ne180100ES5_
FNA:7,0,_ZNSt3__116reverse_iteratorINS0_IPN7pyfolio13visualization8PlotDataEEEEC2B8ne180100ES5_
FNA:7,0,_ZNSt3__116reverse_iteratorINS0_IPN7testing12TestPropertyEEEEC1B8ne180100ES4_
FNA:7,0,_ZNSt3__116reverse_iteratorINS0_IPN7testing12TestPropertyEEEEC2B8ne180100ES4_
FNA:7,0,_ZNSt3__116reverse_iteratorINS0_IPN7testing14TestPartResultEEEEC1B8ne180100ES4_
FNA:7,0,_ZNSt3__116reverse_iteratorINS0_IPN7testing14TestPartResultEEEEC2B8ne180100ES4_
FNA:7,0,_ZNSt3__116reverse_iteratorINS0_IPN7testing8internal9TraceInfoEEEEC1B8ne180100ES5_
FNA:7,0,_ZNSt3__116reverse_iteratorINS0_IPN7testing8internal9TraceInfoEEEEC2B8ne180100ES5_
FNA:7,0,_ZNSt3__116reverse_iteratorINS0_IPN8nlohmann16json_abi_v3_11_310basic_jsonINS_3mapENS_6vectorENS_12basic_stringIcNS_11char_traitsIcEENS_9allocatorIcEEEEbxydS9_NS2_14adl_serializerENS5_IhNS9_IhEEEEvEEEEEC1B8ne180100ESH_
FNA:7,0,_ZNSt3__116reverse_iteratorINS0_IPN8nlohmann16json_abi_v3_11_310basic_jsonINS_3mapENS_6vectorENS_12basic_stringIcNS_11char_traitsIcEENS_9allocatorIcEEEEbxydS9_NS2_14adl_serializerENS5_IhNS9_IhEEEEvEEEEEC2B8ne180100ESH_
FNA:7,0,_ZNSt3__116reverse_iteratorINS0_IPNS_12basic_stringIcNS_11char_traitsIcEENS_9allocatorIcEEEEEEEC1B8ne180100ES8_
FNA:7,0,_ZNSt3__116reverse_iteratorINS0_IPNS_12basic_stringIcNS_11char_traitsIcEENS_9allocatorIcEEEEEEEC2B8ne180100ES8_
FNA:7,0,_ZNSt3__116reverse_iteratorINS0_IPNS_4pairIN7pyfolio8DateTimeEdEEEEEC1B8ne180100ES6_
FNA:7,0,_ZNSt3__116reverse_iteratorINS0_IPNS_4pairIN7pyfolio8DateTimeEdEEEEEC2B8ne180100ES6_
FNA:7,0,_ZNSt3__116reverse_iteratorINS0_IPNS_6threadEEEEC1B8ne180100ES3_
FNA:7,0,_ZNSt3__116reverse_iteratorINS0_IPNS_6threadEEEEC2B8ne180100ES3_
FNA:7,0,_ZNSt3__116reverse_iteratorINS0_IPNS_6vectorIdNS_9allocatorIdEEEEEEEC1B8ne180100ES6_
FNA:7,0,_ZNSt3__116reverse_iteratorINS0_IPNS_6vectorIdNS_9allocatorIdEEEEEEEC2B8ne180100ES6_
FNA:7,22,_ZNSt3__116reverse_iteratorINS_11__wrap_iterIPPN7testing11EnvironmentEEEEC1B8ne180100ES6_
FNA:7,22,_ZNSt3__116reverse_iteratorINS_11__wrap_iterIPPN7testing11EnvironmentEEEEC2B8ne180100ES6_
FNA:7,396,_ZNSt3__116reverse_iteratorINS_11__wrap_iterIPPN7testing9TestSuiteEEEEC1B8ne180100ES6_
FNA:7,396,_ZNSt3__116reverse_iteratorINS_11__wrap_iterIPPN7testing9TestSuiteEEEEC2B8ne180100ES6_
FNA:7,60,_ZNSt3__116reverse_iteratorIPN7pyfolio10TimeSeriesIdEEEC1B8ne180100ES4_
FNA:7,60,_ZNSt3__116reverse_iteratorIPN7pyfolio10TimeSeriesIdEEEC2B8ne180100ES4_
FNA:7,18,_ZNSt3__116reverse_iteratorIPN7pyfolio11attribution17SectorAttributionEEC1B8ne180100ES4_
FNA:7,18,_ZNSt3__116reverse_iteratorIPN7pyfolio11attribution17SectorAttributionEEC2B8ne180100ES4_
FNA:7,27,_ZNSt3__116reverse_iteratorIPN7pyfolio13visualization8PlotDataEEC1B8ne180100ES4_
FNA:7,27,_ZNSt3__116reverse_iteratorIPN7pyfolio13visualization8PlotDataEEC2B8ne180100ES4_
FNA:7,2790,_ZNSt3__116reverse_iteratorIPN7pyfolio8DateTimeEEC1B8ne180100ES3_
FNA:7,2790,_ZNSt3__116reverse_iteratorIPN7pyfolio8DateTimeEEC2B8ne180100ES3_
FNA:7,0,_ZNSt3__116reverse_iteratorIPN7testing12TestPropertyEEC1B8ne180100ES3_
FNA:7,0,_ZNSt3__116reverse_iteratorIPN7testing12TestPropertyEEC2B8ne180100ES3_
FNA:7,78,_ZNSt3__116reverse_iteratorIPN7testing14TestPartResultEEC1B8ne180100ES3_
FNA:7,78,_ZNSt3__116reverse_iteratorIPN7testing14TestPartResultEEC2B8ne180100ES3_
FNA:7,0,_ZNSt3__116reverse_iteratorIPN7testing8internal13edit_distance8EditTypeEEC1B8ne180100ES5_
FNA:7,0,_ZNSt3__116reverse_iteratorIPN7testing8internal13edit_distance8EditTypeEEC2B8ne180100ES5_
FNA:7,0,_ZNSt3__116reverse_iteratorIPN7testing8internal9TraceInfoEEC1B8ne180100ES4_
FNA:7,0,_ZNSt3__116reverse_iteratorIPN7testing8internal9TraceInfoEEC2B8ne180100ES4_
FNA:7,2715,_ZNSt3__116reverse_iteratorIPN8nlohmann16json_abi_v3_11_310basic_jsonINS_3mapENS_6vectorENS_12basic_stringIcNS_11char_traitsIcEENS_9allocatorIcEEEEbxydS9_NS2_14adl_serializerENS5_IhNS9_IhEEEEvEEEC1B8ne180100ESG_
FNA:7,2715,_ZNSt3__116reverse_iteratorIPN8nlohmann16json_abi_v3_11_310basic_jsonINS_3mapENS_6vectorENS_12basic_stringIcNS_11char_traitsIcEENS_9allocatorIcEEEEbxydS9_NS2_14adl_serializerENS5_IhNS9_IhEEEEvEEEC2B8ne180100ESG_
FNA:7,423,_ZNSt3__116reverse_iteratorIPNS_12basic_stringIcNS_11char_traitsIcEENS_9allocatorIcEEEEEC1B8ne180100ES7_
FNA:7,423,_ZNSt3__116reverse_iteratorIPNS_12basic_stringIcNS_11char_traitsIcEENS_9allocatorIcEEEEEC2B8ne180100ES7_
FNA:7,0,_ZNSt3__116reverse_iteratorIPNS_4pairIN7pyfolio8DateTimeEdEEEC1B8ne180100ES5_
FNA:7,0,_ZNSt3__116reverse_iteratorIPNS_4pairIN7pyfolio8DateTimeEdEEEC2B8ne180100ES5_
FNA:7,15,_ZNSt3__116reverse_iteratorIPNS_6threadEEC1B8ne180100ES2_
FNA:7,15,_ZNSt3__116reverse_iteratorIPNS_6threadEEC2B8ne180100ES2_
FNA:7,15,_ZNSt3__116reverse_iteratorIPNS_6vectorIdNS_9allocatorIdEEEEEC1B8ne180100ES5_
FNA:7,15,_ZNSt3__116reverse_iteratorIPNS_6vectorIdNS_9allocatorIdEEEEEC2B8ne180100ES5_
FNA:7,0,_ZNSt3__116reverse_iteratorIPPN7testing11EnvironmentEEC1B8ne180100ES4_
FNA:7,0,_ZNSt3__116reverse_iteratorIPPN7testing11EnvironmentEEC2B8ne180100ES4_
FNA:7,36,_ZNSt3__116reverse_iteratorIPPN7testing17TestEventListenerEEC1B8ne180100ES4_
FNA:7,36,_ZNSt3__116reverse_iteratorIPPN7testing17TestEventListenerEEC2B8ne180100ES4_
FNA:7,162,_ZNSt3__116reverse_iteratorIPPN7testing8TestInfoEEC1B8ne180100ES4_
FNA:7,162,_ZNSt3__116reverse_iteratorIPPN7testing8TestInfoEEC2B8ne180100ES4_
FNA:7,33,_ZNSt3__116reverse_iteratorIPPN7testing9TestSuiteEEC1B8ne180100ES4_
FNA:7,33,_ZNSt3__116reverse_iteratorIPPN7testing9TestSuiteEEC2B8ne180100ES4_
FNA:7,0,_ZNSt3__116reverse_iteratorIPPcEC1B8ne180100ES2_
FNA:7,0,_ZNSt3__116reverse_iteratorIPPcEC2B8ne180100ES2_
FNA:7,7107,_ZNSt3__116reverse_iteratorIPdEC1B8ne180100ES1_
FNA:7,7107,_ZNSt3__116reverse_iteratorIPdEC2B8ne180100ES1_
FNA:7,195,_ZNSt3__116reverse_iteratorIPiEC1B8ne180100ES1_
FNA:7,195,_ZNSt3__116reverse_iteratorIPiEC2B8ne180100ES1_
FNA:7,0,_ZNSt3__116reverse_iteratorIPmEC1B8ne180100ES1_
FNA:7,0,_ZNSt3__116reverse_iteratorIPmEC2B8ne180100ES1_
FNF:8
FNH:6
DA:97,28184
DA:129,177950
DA:130,161121
DA:131,161121
DA:132,161121
DA:136,2847
DA:140,2847
DA:142,0
DA:149,163726
DA:150,163726
DA:151,163726
DA:158,0
DA:159,0
DA:160,0
DA:170,0
DA:171,0
DA:172,0
DA:231,86696
DA:238,86696
LF:19
LH:12
end_of_record
TN:
SF:/Library/Developer/CommandLineTools/SDKs/MacOSX.sdk/usr/include/c++/v1/__iterator/wrap_iter.h
FNL:0,108,109
FNA:0,0,_ZNSt3__1eqB8ne180100IPKN7pyfolio8DateTimeEEEbRKNS_11__wrap_iterIT_EES9_
FNA:0,913,_ZNSt3__1eqB8ne180100IPKN7testing14TestPartResultEEEbRKNS_11__wrap_iterIT_EES9_
FNA:0,0,_ZNSt3__1eqB8ne180100IPKN7testing8internal13edit_distance8EditTypeEEEbRKNS_11__wrap_iterIT_EESB_
FNA:0,1220,_ZNSt3__1eqB8ne180100IPKN8nlohmann16json_abi_v3_11_310basic_jsonINS_3mapENS_6vectorENS_12basic_stringIcNS_11char_traitsIcEENS_9allocatorIcEEEEbxydS9_NS2_14adl_serializerENS5_IhNS9_IhEEEEvEEEEbRKNS_11__wrap_iterIT_EESM_
FNA:0,1089,_ZNSt3__1eqB8ne180100IPKNS_12basic_stringIcNS_11char_traitsIcEENS_9allocatorIcEEEEEEbRKNS_11__wrap_iterIT_EESD_
FNA:0,12,_ZNSt3__1eqB8ne180100IPKPN7testing11EnvironmentEEEbRKNS_11__wrap_iterIT_EESA_
FNA:0,2,_ZNSt3__1eqB8ne180100IPKPN7testing17TestEventListenerEEEbRKNS_11__wrap_iterIT_EESA_
FNA:0,1566,_ZNSt3__1eqB8ne180100IPKPN7testing8TestInfoEEEbRKNS_11__wrap_iterIT_EESA_
FNA:0,116,_ZNSt3__1eqB8ne180100IPKPN7testing9TestSuiteEEEbRKNS_11__wrap_iterIT_EESA_
FNA:0,2753,_ZNSt3__1eqB8ne180100IPKcEEbRKNS_11__wrap_iterIT_EES7_
FNA:0,106634,_ZNSt3__1eqB8ne180100IPKdEEbRKNS_11__wrap_iterIT_EES7_
FNA:0,0,_ZNSt3__1eqB8ne180100IPKhEEbRKNS_11__wrap_iterIT_EES7_
FNA:0,15,_ZNSt3__1eqB8ne180100IPN7pyfolio11attribution17SectorAttributionEEEbRKNS_11__wrap_iterIT_EES9_
FNA:0,0,_ZNSt3__1eqB8ne180100IPN7testing12TestPropertyEEEbRKNS_11__wrap_iterIT_EES8_
FNA:0,0,_ZNSt3__1eqB8ne180100IPN7testing8internal13edit_distance8EditTypeEEEbRKNS_11__wrap_iterIT_EESA_
FNA:0,0,_ZNSt3__1eqB8ne180100IPN8nlohmann16json_abi_v3_11_310basic_jsonINS_3mapENS_6vectorENS_12basic_stringIcNS_11char_traitsIcEENS_9allocatorIcEEEEbxydS9_NS2_14adl_serializerENS5_IhNS9_IhEEEEvEEEEbRKNS_11__wrap_iterIT_EESL_
FNA:0,93,_ZNSt3__1eqB8ne180100IPNS_12basic_stringIcNS_11char_traitsIcEENS_9allocatorIcEEEEEEbRKNS_11__wrap_iterIT_EESC_
FNA:0,11,_ZNSt3__1eqB8ne180100IPNS_6threadEEEbRKNS_11__wrap_iterIT_EES7_
FNA:0,11,_ZNSt3__1eqB8ne180100IPPN7testing11EnvironmentEEEbRKNS_11__wrap_iterIT_EES9_
FNA:0,13,_ZNSt3__1eqB8ne180100IPPN7testing8internal30ParameterizedTestSuiteInfoBaseEEEbRKNS_11__wrap_iterIT_EESA_
FNA:0,287,_ZNSt3__1eqB8ne180100IPPN7testing9TestSuiteEEEbRKNS_11__wrap_iterIT_EES9_
FNA:0,0,_ZNSt3__1eqB8ne180100IPPcEEbRKNS_11__wrap_iterIT_EES7_
FNA:0,68,_ZNSt3__1eqB8ne180100IPcEEbRKNS_11__wrap_iterIT_EES6_
FNA:0,3522,_ZNSt3__1eqB8ne180100IPdEEbRKNS_11__wrap_iterIT_EES6_
FNA:0,5,_ZNSt3__1eqB8ne180100IPmEEbRKNS_11__wrap_iterIT_EES6_
FNL:1,114,115
FNA:1,0,_ZNSt3__1eqB8ne180100IPKNS_12basic_stringIcNS_11char_traitsIcEENS_9allocatorIcEEEEPS6_EEbRKNS_11__wrap_iterIT_EERKNSA_IT0_EE
FNA:1,628,_ZNSt3__1eqB8ne180100IPKcPcEEbRKNS_11__wrap_iterIT_EERKNS4_IT0_EE
FNL:2,120,121
FNA:2,0,_ZNSt3__1ltB8ne180100IPN7testing8internal13edit_distance8EditTypeEEEbRKNS_11__wrap_iterIT_EESA_
FNL:3,132,133
FNA:3,0,_ZNSt3__1neB8ne180100IPKN7pyfolio8DateTimeEEEbRKNS_11__wrap_iterIT_EES9_
FNA:3,913,_ZNSt3__1neB8ne180100IPKN7testing14TestPartResultEEEbRKNS_11__wrap_iterIT_EES9_
FNA:3,0,_ZNSt3__1neB8ne180100IPKN7testing8internal13edit_distance8EditTypeEEEbRKNS_11__wrap_iterIT_EESB_
FNA:3,1220,_ZNSt3__1neB8ne180100IPKN8nlohmann16json_abi_v3_11_310basic_jsonINS_3mapENS_6vectorENS_12basic_stringIcNS_11char_traitsIcEENS_9allocatorIcEEEEbxydS9_NS2_14adl_serializerENS5_IhNS9_IhEEEEvEEEEbRKNS_11__wrap_iterIT_EESM_
FNA:3,1089,_ZNSt3__1neB8ne180100IPKNS_12basic_stringIcNS_11char_traitsIcEENS_9allocatorIcEEEEEEbRKNS_11__wrap_iterIT_EESD_
FNA:3,12,_ZNSt3__1neB8ne180100IPKPN7testing11EnvironmentEEEbRKNS_11__wrap_iterIT_EESA_
FNA:3,2,_ZNSt3__1neB8ne180100IPKPN7testing17TestEventListenerEEEbRKNS_11__wrap_iterIT_EESA_
FNA:3,1566,_ZNSt3__1neB8ne180100IPKPN7testing8TestInfoEEEbRKNS_11__wrap_iterIT_EESA_
FNA:3,116,_ZNSt3__1neB8ne180100IPKPN7testing9TestSuiteEEEbRKNS_11__wrap_iterIT_EESA_
FNA:3,2753,_ZNSt3__1neB8ne180100IPKcEEbRKNS_11__wrap_iterIT_EES7_
FNA:3,106633,_ZNSt3__1neB8ne180100IPKdEEbRKNS_11__wrap_iterIT_EES7_
FNA:3,0,_ZNSt3__1neB8ne180100IPKhEEbRKNS_11__wrap_iterIT_EES7_
FNA:3,15,_ZNSt3__1neB8ne180100IPN7pyfolio11attribution17SectorAttributionEEEbRKNS_11__wrap_iterIT_EES9_
FNA:3,0,_ZNSt3__1neB8ne180100IPN7testing12TestPropertyEEEbRKNS_11__wrap_iterIT_EES8_
FNA:3,0,_ZNSt3__1neB8ne180100IPN7testing8internal13edit_distance8EditTypeEEEbRKNS_11__wrap_iterIT_EESA_
FNA:3,0,_ZNSt3__1neB8ne180100IPN8nlohmann16json_abi_v3_11_310basic_jsonINS_3mapENS_6vectorENS_12basic_stringIcNS_11char_traitsIcEENS_9allocatorIcEEEEbxydS9_NS2_14adl_serializerENS5_IhNS9_IhEEEEvEEEEbRKNS_11__wrap_iterIT_EESL_
FNA:3,11,_ZNSt3__1neB8ne180100IPNS_6threadEEEbRKNS_11__wrap_iterIT_EES7_
FNA:3,11,_ZNSt3__1neB8ne180100IPPN7testing11EnvironmentEEEbRKNS_11__wrap_iterIT_EES9_
FNA:3,13,_ZNSt3__1neB8ne180100IPPN7testing8internal30ParameterizedTestSuiteInfoBaseEEEbRKNS_11__wrap_iterIT_EESA_
FNA:3,287,_ZNSt3__1neB8ne180100IPPN7testing9TestSuiteEEEbRKNS_11__wrap_iterIT_EES9_
FNA:3,0,_ZNSt3__1neB8ne180100IPPcEEbRKNS_11__wrap_iterIT_EES7_
FNA:3,0,_ZNSt3__1neB8ne180100IPcEEbRKNS_11__wrap_iterIT_EES6_
FNA:3,3514,_ZNSt3__1neB8ne180100IPdEEbRKNS_11__wrap_iterIT_EES6_
FNA:3,5,_ZNSt3__1neB8ne180100IPmEEbRKNS_11__wrap_iterIT_EES6_
FNL:4,138,139
FNA:4,0,_ZNSt3__1neB8ne180100IPKNS_12basic_stringIcNS_11char_traitsIcEENS_9allocatorIcEEEEPS6_EEbRKNS_11__wrap_iterIT_EERKNSA_IT0_EE
FNA:4,628,_ZNSt3__1neB8ne180100IPKcPcEEbRKNS_11__wrap_iterIT_EERKNS4_IT0_EE
FNL:5,182,189
FNA:5,0,_ZNSt3__1miB8ne180100IPKN7pyfolio8DateTimeES4_EEDTmicldtfp_4baseEcldtfp0_4baseEERKNS_11__wrap_iterIT_EERKNS6_IT0_EE
FNA:5,0,_ZNSt3__1miB8ne180100IPKN7testing8internal13edit_distance8EditTypeES6_EEDTmicldtfp_4baseEcldtfp0_4baseEERKNS_11__wrap_iterIT_EERKNS8_IT0_EE
FNA:5,58,_ZNSt3__1miB8ne180100IPKNS_12basic_stringIcNS_11char_traitsIcEENS_9allocatorIcEEEEPS6_EEDTmicldtfp_4baseEcldtfp0_4baseEERKNS_11__wrap_iterIT_EERKNSB_IT0_EE
FNA:5,9,_ZNSt3__1miB8ne180100IPKNS_12basic_stringIcNS_11char_traitsIcEENS_9allocatorIcEEEES8_EEDTmicldtfp_4baseEcldtfp0_4baseEERKNS_11__wrap_iterIT_EERKNSA_IT0_EE
FNA:5,3,_ZNSt3__1miB8ne180100IPKNS_6vectorIdNS_9allocatorIdEEEES6_EEDTmicldtfp_4baseEcldtfp0_4baseEERKNS_11__wrap_iterIT_EERKNS8_IT0_EE
FNA:5,0,_ZNSt3__1miB8ne180100IPKPN7testing17TestEventListenerES5_EEDTmicldtfp_4baseEcldtfp0_4baseEERKNS_11__wrap_iterIT_EERKNS7_IT0_EE
FNA:5,0,_ZNSt3__1miB8ne180100IPKPN7testing9TestSuiteEPS3_EEDTmicldtfp_4baseEcldtfp0_4baseEERKNS_11__wrap_iterIT_EERKNS8_IT0_EE
FNA:5,0,_ZNSt3__1miB8ne180100IPKPcPS1_EEDTmicldtfp_4baseEcldtfp0_4baseEERKNS_11__wrap_iterIT_EERKNS6_IT0_EE
FNA:5,11,_ZNSt3__1miB8ne180100IPKcPcEEDTmicldtfp_4baseEcldtfp0_4baseEERKNS_11__wrap_iterIT_EERKNS5_IT0_EE
FNA:5,143,_ZNSt3__1miB8ne180100IPKcS2_EEDTmicldtfp_4baseEcldtfp0_4baseEERKNS_11__wrap_iterIT_EERKNS4_IT0_EE
FNA:5,42,_ZNSt3__1miB8ne180100IPKdS2_EEDTmicldtfp_4baseEcldtfp0_4baseEERKNS_11__wrap_iterIT_EERKNS4_IT0_EE
FNA:5,35,_ZNSt3__1miB8ne180100IPNS_12basic_stringIcNS_11char_traitsIcEENS_9allocatorIcEEEES7_EEDTmicldtfp_4baseEcldtfp0_4baseEERKNS_11__wrap_iterIT_EERKNS9_IT0_EE
FNL:6,210,211
FNA:6,0,_ZNSt3__114pointer_traitsINS_11__wrap_iterIPKN7pyfolio8DateTimeEEEE10to_addressB8ne180100ES6_
FNA:6,18,_ZNSt3__114pointer_traitsINS_11__wrap_iterIPKNS_12basic_stringIcNS_11char_traitsIcEENS_9allocatorIcEEEEEEE10to_addressB8ne180100ESA_
FNA:6,6,_ZNSt3__114pointer_traitsINS_11__wrap_iterIPKNS_6vectorIdNS_9allocatorIdEEEEEEE10to_addressB8ne180100ES8_
FNA:6,84,_ZNSt3__114pointer_traitsINS_11__wrap_iterIPKdEEE10to_addressB8ne180100ES4_
FNA:6,2559,_ZNSt3__114pointer_traitsINS_11__wrap_iterIPN8nlohmann16json_abi_v3_11_310basic_jsonINS_3mapENS_6vectorENS_12basic_stringIcNS_11char_traitsIcEENS_9allocatorIcEEEEbxydSA_NS3_14adl_serializerENS6_IhNSA_IhEEEEvEEEEE10to_addressB8ne180100ESI_
FNA:6,210,_ZNSt3__114pointer_traitsINS_11__wrap_iterIPNS_12basic_stringIcNS_11char_traitsIcEENS_9allocatorIcEEEEEEE10to_addressB8ne180100ES9_
FNA:6,0,_ZNSt3__114pointer_traitsINS_11__wrap_iterIPNS_4pairIN7pyfolio8DateTimeEdEEEEE10to_addressB8ne180100ES7_
FNA:6,92,_ZNSt3__114pointer_traitsINS_11__wrap_iterIPdEEE10to_addressB8ne180100ES3_
FNL:7,44,44
FNA:7,0,_ZNSt3__111__wrap_iterIPN8nlohmann16json_abi_v3_11_310basic_jsonINS_3mapENS_6vectorENS_12basic_stringIcNS_11char_traitsIcEENS_9allocatorIcEEEEbxydS9_NS2_14adl_serializerENS5_IhNS9_IhEEEEvEEEC1B8ne180100Ev
FNA:7,0,_ZNSt3__111__wrap_iterIPN8nlohmann16json_abi_v3_11_310basic_jsonINS_3mapENS_6vectorENS_12basic_stringIcNS_11char_traitsIcEENS_9allocatorIcEEEEbxydS9_NS2_14adl_serializerENS5_IhNS9_IhEEEEvEEEC2B8ne180100Ev
FNL:8,46,47
FNA:8,58,_ZNSt3__111__wrap_iterIPKNS_12basic_stringIcNS_11char_traitsIcEENS_9allocatorIcEEEEEC1B8ne180100IPS6_Li0EEERKNS0_IT_EE
FNA:8,58,_ZNSt3__111__wrap_iterIPKNS_12basic_stringIcNS_11char_traitsIcEENS_9allocatorIcEEEEEC2B8ne180100IPS6_Li0EEERKNS0_IT_EE
FNA:8,0,_ZNSt3__111__wrap_iterIPKPN7testing17TestEventListenerEEC1B8ne180100IPS3_Li0EEERKNS0_IT_EE
FNA:8,0,_ZNSt3__111__wrap_iterIPKPN7testing17TestEventListenerEEC2B8ne180100IPS3_Li0EEERKNS0_IT_EE
FNA:8,0,_ZNSt3__111__wrap_iterIPKPN7testing9TestSuiteEEC1B8ne180100IPS3_Li0EEERKNS0_IT_EE
FNA:8,0,_ZNSt3__111__wrap_iterIPKPN7testing9TestSuiteEEC2B8ne180100IPS3_Li0EEERKNS0_IT_EE
FNA:8,0,_ZNSt3__111__wrap_iterIPKPcEC1B8ne180100IPS1_Li0EEERKNS0_IT_EE
FNA:8,0,_ZNSt3__111__wrap_iterIPKPcEC2B8ne180100IPS1_Li0EEERKNS0_IT_EE
FNA:8,22,_ZNSt3__111__wrap_iterIPKcEC1B8ne180100IPcLi0EEERKNS0_IT_EE
FNA:8,22,_ZNSt3__111__wrap_iterIPKcEC2B8ne180100IPcLi0EEERKNS0_IT_EE
FNL:9,48,48
FNA:9,0,_ZNKSt3__111__wrap_iterIPKN7pyfolio8DateTimeEEdeB8ne180100Ev
FNA:9,0,_ZNKSt3__111__wrap_iterIPKN7testing14TestPartResultEEdeB8ne180100Ev
FNA:9,0,_ZNKSt3__111__wrap_iterIPKN7testing8internal13edit_distance8EditTypeEEdeB8ne180100Ev
FNA:9,1150,_ZNKSt3__111__wrap_iterIPKN8nlohmann16json_abi_v3_11_310basic_jsonINS_3mapENS_6vectorENS_12basic_stringIcNS_11char_traitsIcEENS_9allocatorIcEEEEbxydS9_NS2_14adl_serializerENS5_IhNS9_IhEEEEvEEEdeB8ne180100Ev
FNA:9,682,_ZNKSt3__111__wrap_iterIPKNS_12basic_stringIcNS_11char_traitsIcEENS_9allocatorIcEEEEEdeB8ne180100Ev
FNA:9,0,_ZNKSt3__111__wrap_iterIPKPN7testing11EnvironmentEEdeB8ne180100Ev
FNA:9,1,_ZNKSt3__111__wrap_iterIPKPN7testing17TestEventListenerEEdeB8ne180100Ev
FNA:9,1444,_ZNKSt3__111__wrap_iterIPKPN7testing8TestInfoEEdeB8ne180100Ev
FNA:9,55,_ZNKSt3__111__wrap_iterIPKPN7testing9TestSuiteEEdeB8ne180100Ev
FNA:9,3238,_ZNKSt3__111__wrap_iterIPKcEdeB8ne180100Ev
FNA:9,105180,_ZNKSt3__111__wrap_iterIPKdEdeB8ne180100Ev
FNA:9,0,_ZNKSt3__111__wrap_iterIPKhEdeB8ne180100Ev
FNA:9,12,_ZNKSt3__111__wrap_iterIPN7pyfolio11attribution17SectorAttributionEEdeB8ne180100Ev
FNA:9,0,_ZNKSt3__111__wrap_iterIPN7testing12TestPropertyEEdeB8ne180100Ev
FNA:9,0,_ZNKSt3__111__wrap_iterIPN7testing8internal13edit_distance8EditTypeEEdeB8ne180100Ev
FNA:9,0,_ZNKSt3__111__wrap_iterIPN8nlohmann16json_abi_v3_11_310basic_jsonINS_3mapENS_6vectorENS_12basic_stringIcNS_11char_traitsIcEENS_9allocatorIcEEEEbxydS9_NS2_14adl_serializerENS5_IhNS9_IhEEEEvEEEdeB8ne180100Ev
FNA:9,58,_ZNKSt3__111__wrap_iterIPNS_12basic_stringIcNS_11char_traitsIcEENS_9allocatorIcEEEEEdeB8ne180100Ev
FNA:9,10,_ZNKSt3__111__wrap_iterIPNS_6threadEEdeB8ne180100Ev
FNA:9,0,_ZNKSt3__111__wrap_iterIPPN7testing11EnvironmentEEdeB8ne180100Ev
FNA:9,0,_ZNKSt3__111__wrap_iterIPPN7testing8internal30ParameterizedTestSuiteInfoBaseEEdeB8ne180100Ev
FNA:9,253,_ZNKSt3__111__wrap_iterIPPN7testing9TestSuiteEEdeB8ne180100Ev
FNA:9,0,_ZNKSt3__111__wrap_iterIPPcEdeB8ne180100Ev
FNA:9,674,_ZNKSt3__111__wrap_iterIPcEdeB8ne180100Ev
FNA:9,3923,_ZNKSt3__111__wrap_iterIPdEdeB8ne180100Ev
FNA:9,4,_ZNKSt3__111__wrap_iterIPmEdeB8ne180100Ev
FNL:10,49,50
FNA:10,0,_ZNKSt3__111__wrap_iterIPKNS_12basic_stringIcNS_11char_traitsIcEENS_9allocatorIcEEEEEptB8ne180100Ev
FNA:10,0,_ZNKSt3__111__wrap_iterIPN7testing12TestPropertyEEptB8ne180100Ev
FNL:11,52,54
FNA:11,0,_ZNSt3__111__wrap_iterIPKN7pyfolio8DateTimeEEppB8ne180100Ev
FNA:11,0,_ZNSt3__111__wrap_iterIPKN7testing14TestPartResultEEppB8ne180100Ev
FNA:11,0,_ZNSt3__111__wrap_iterIPKN7testing8internal13edit_distance8EditTypeEEppB8ne180100Ev
FNA:11,1150,_ZNSt3__111__wrap_iterIPKN8nlohmann16json_abi_v3_11_310basic_jsonINS_3mapENS_6vectorENS_12basic_stringIcNS_11char_traitsIcEENS_9allocatorIcEEEEbxydS9_NS2_14adl_serializerENS5_IhNS9_IhEEEEvEEEppB8ne180100Ev
FNA:11,550,_ZNSt3__111__wrap_iterIPKNS_12basic_stringIcNS_11char_traitsIcEENS_9allocatorIcEEEEEppB8ne180100Ev
FNA:11,0,_ZNSt3__111__wrap_iterIPKPN7testing11EnvironmentEEppB8ne180100Ev
FNA:11,1,_ZNSt3__111__wrap_iterIPKPN7testing17TestEventListenerEEppB8ne180100Ev
FNA:11,1444,_ZNSt3__111__wrap_iterIPKPN7testing8TestInfoEEppB8ne180100Ev
FNA:11,55,_ZNSt3__111__wrap_iterIPKPN7testing9TestSuiteEEppB8ne180100Ev
FNA:11,3180,_ZNSt3__111__wrap_iterIPKcEppB8ne180100Ev
FNA:11,104678,_ZNSt3__111__wrap_iterIPKdEppB8ne180100Ev
FNA:11,0,_ZNSt3__111__wrap_iterIPKhEppB8ne180100Ev
FNA:11,12,_ZNSt3__111__wrap_iterIPN7pyfolio11attribution17SectorAttributionEEppB8ne180100Ev
FNA:11,0,_ZNSt3__111__wrap_iterIPN7testing12TestPropertyEEppB8ne180100Ev
FNA:11,0,_ZNSt3__111__wrap_iterIPN7testing8internal13edit_distance8EditTypeEEppB8ne180100Ev
FNA:11,116,_ZNSt3__111__wrap_iterIPNS_12basic_stringIcNS_11char_traitsIcEENS_9allocatorIcEEEEEppB8ne180100Ev
FNA:11,10,_ZNSt3__111__wrap_iterIPNS_6threadEEppB8ne180100Ev
FNA:11,0,_ZNSt3__111__wrap_iterIPPN7testing8internal30ParameterizedTestSuiteInfoBaseEEppB8ne180100Ev
FNA:11,11,_ZNSt3__111__wrap_iterIPPN7testing9TestSuiteEEppB8ne180100Ev
FNA:11,0,_ZNSt3__111__wrap_iterIPPcEppB8ne180100Ev
FNA:11,617,_ZNSt3__111__wrap_iterIPcEppB8ne180100Ev
FNA:11,3406,_ZNSt3__111__wrap_iterIPdEppB8ne180100Ev
FNA:11,4,_ZNSt3__111__wrap_iterIPmEppB8ne180100Ev
FNL:12,56,59
FNA:12,617,_ZNSt3__111__wrap_iterIPcEppB8ne180100Ei
FNL:13,62,64
FNA:13,0,_ZNSt3__111__wrap_iterIPN7testing8internal13edit_distance8EditTypeEEmmB8ne180100Ev
FNA:13,0,_ZNSt3__111__wrap_iterIPNS_12basic_stringIcNS_11char_traitsIcEENS_9allocatorIcEEEEEmmB8ne180100Ev
FNA:13,0,_ZNSt3__111__wrap_iterIPPN7testing11EnvironmentEEmmB8ne180100Ev
FNA:13,242,_ZNSt3__111__wrap_iterIPPN7testing9TestSuiteEEmmB8ne180100Ev
FNA:13,0,_ZNSt3__111__wrap_iterIPcEmmB8ne180100Ev
FNL:14,71,74
FNA:14,0,_ZNKSt3__111__wrap_iterIPKN7pyfolio8DateTimeEEplB8ne180100El
FNA:14,0,_ZNKSt3__111__wrap_iterIPKN7testing8internal13edit_distance8EditTypeEEplB8ne180100El
FNA:14,1220,_ZNKSt3__111__wrap_iterIPKN8nlohmann16json_abi_v3_11_310basic_jsonINS_3mapENS_6vectorENS_12basic_stringIcNS_11char_traitsIcEENS_9allocatorIcEEEEbxydS9_NS2_14adl_serializerENS5_IhNS9_IhEEEEvEEEplB8ne180100El
FNA:14,0,_ZNKSt3__111__wrap_iterIPKNS_12basic_stringIcNS_11char_traitsIcEENS_9allocatorIcEEEEEplB8ne180100El
FNA:14,0,_ZNKSt3__111__wrap_iterIPKdEplB8ne180100El
FNA:14,0,_ZNKSt3__111__wrap_iterIPKhEplB8ne180100El
FNA:14,853,_ZNKSt3__111__wrap_iterIPN8nlohmann16json_abi_v3_11_310basic_jsonINS_3mapENS_6vectorENS_12basic_stringIcNS_11char_traitsIcEENS_9allocatorIcEEEEbxydS9_NS2_14adl_serializerENS5_IhNS9_IhEEEEvEEEplB8ne180100El
FNA:14,70,_ZNKSt3__111__wrap_iterIPNS_12basic_stringIcNS_11char_traitsIcEENS_9allocatorIcEEEEEplB8ne180100El
FNA:14,0,_ZNKSt3__111__wrap_iterIPPN7testing17TestEventListenerEEplB8ne180100El
FNA:14,0,_ZNKSt3__111__wrap_iterIPPN7testing9TestSuiteEEplB8ne180100El
FNA:14,0,_ZNKSt3__111__wrap_iterIPPcEplB8ne180100El
FNA:14,11,_ZNKSt3__111__wrap_iterIPcEplB8ne180100El
FNL:15,76,78
FNA:15,0,_ZNSt3__111__wrap_iterIPKN7pyfolio8DateTimeEEpLB8ne180100El
FNA:15,0,_ZNSt3__111__wrap_iterIPKN7testing8internal13edit_distance8EditTypeEEpLB8ne180100El
FNA:15,1220,_ZNSt3__111__wrap_iterIPKN8nlohmann16json_abi_v3_11_310basic_jsonINS_3mapENS_6vectorENS_12basic_stringIcNS_11char_traitsIcEENS_9allocatorIcEEEEbxydS9_NS2_14adl_serializerENS5_IhNS9_IhEEEEvEEEpLB8ne180100El
FNA:15,0,_ZNSt3__111__wrap_iterIPKNS_12basic_stringIcNS_11char_traitsIcEENS_9allocatorIcEEEEEpLB8ne180100El
FNA:15,0,_ZNSt3__111__wrap_iterIPKdEpLB8ne180100El
FNA:15,0,_ZNSt3__111__wrap_iterIPKhEpLB8ne180100El
FNA:15,853,_ZNSt3__111__wrap_iterIPN8nlohmann16json_abi_v3_11_310basic_jsonINS_3mapENS_6vectorENS_12basic_stringIcNS_11char_traitsIcEENS_9allocatorIcEEEEbxydS9_NS2_14adl_serializerENS5_IhNS9_IhEEEEvEEEpLB8ne180100El
FNA:15,70,_ZNSt3__111__wrap_iterIPNS_12basic_stringIcNS_11char_traitsIcEENS_9allocatorIcEEEEEpLB8ne180100El
FNA:15,0,_ZNSt3__111__wrap_iterIPPN7testing17TestEventListenerEEpLB8ne180100El
FNA:15,0,_ZNSt3__111__wrap_iterIPPN7testing9TestSuiteEEpLB8ne180100El
FNA:15,0,_ZNSt3__111__wrap_iterIPPcEpLB8ne180100El
FNA:15,68,_ZNSt3__111__wrap_iterIPcEpLB8ne180100El
FNL:16,80,81
FNA:16,1220,_ZNKSt3__111__wrap_iterIPKN8nlohmann16json_abi_v3_11_310basic_jsonINS_3mapENS_6vectorENS_12basic_stringIcNS_11char_traitsIcEENS_9allocatorIcEEEEbxydS9_NS2_14adl_serializerENS5_IhNS9_IhEEEEvEEEmiB8ne180100El
FNA:16,0,_ZNKSt3__111__wrap_iterIPKhEmiB8ne180100El
FNA:16,0,_ZNKSt3__111__wrap_iterIPPcEmiB8ne180100El
FNL:17,91,91
FNA:17,0,_ZNKSt3__111__wrap_iterIPKN7pyfolio8DateTimeEE4baseB8ne180100Ev
FNA:17,1826,_ZNKSt3__111__wrap_iterIPKN7testing14TestPartResultEE4baseB8ne180100Ev
FNA:17,0,_ZNKSt3__111__wrap_iterIPKN7testing8internal13edit_distance8EditTypeEE4baseB8ne180100Ev
FNA:17,2440,_ZNKSt3__111__wrap_iterIPKN8nlohmann16json_abi_v3_11_310basic_jsonINS_3mapENS_6vectorENS_12basic_stringIcNS_11char_traitsIcEENS_9allocatorIcEEEEbxydS9_NS2_14adl_serializerENS5_IhNS9_IhEEEEvEEE4baseB8ne180100Ev
FNA:17,2272,_ZNKSt3__111__wrap_iterIPKNS_12basic_stringIcNS_11char_traitsIcEENS_9allocatorIcEEEEE4baseB8ne180100Ev
FNA:17,12,_ZNKSt3__111__wrap_iterIPKNS_6vectorIdNS_9allocatorIdEEEEE4baseB8ne180100Ev
FNA:17,24,_ZNKSt3__111__wrap_iterIPKPN7testing11EnvironmentEE4baseB8ne180100Ev
FNA:17,4,_ZNKSt3__111__wrap_iterIPKPN7testing17TestEventListenerEE4baseB8ne180100Ev
FNA:17,3132,_ZNKSt3__111__wrap_iterIPKPN7testing8TestInfoEE4baseB8ne180100Ev
FNA:17,232,_ZNKSt3__111__wrap_iterIPKPN7testing9TestSuiteEE4baseB8ne180100Ev
FNA:17,0,_ZNKSt3__111__wrap_iterIPKPcE4baseB8ne180100Ev
FNA:17,6431,_ZNKSt3__111__wrap_iterIPKcE4baseB8ne180100Ev
FNA:17,213436,_ZNKSt3__111__wrap_iterIPKdE4baseB8ne180100Ev
FNA:17,0,_ZNKSt3__111__wrap_iterIPKhE4baseB8ne180100Ev
FNA:17,30,_ZNKSt3__111__wrap_iterIPN7pyfolio11attribution17SectorAttributionEE4baseB8ne180100Ev
FNA:17,0,_ZNKSt3__111__wrap_iterIPN7testing12TestPropertyEE4baseB8ne180100Ev
FNA:17,0,_ZNKSt3__111__wrap_iterIPN7testing8internal13edit_distance8EditTypeEE4baseB8ne180100Ev
FNA:17,2559,_ZNKSt3__111__wrap_iterIPN8nlohmann16json_abi_v3_11_310basic_jsonINS_3mapENS_6vectorENS_12basic_stringIcNS_11char_traitsIcEENS_9allocatorIcEEEEbxydS9_NS2_14adl_serializerENS5_IhNS9_IhEEEEvEEE4baseB8ne180100Ev
FNA:17,582,_ZNKSt3__111__wrap_iterIPNS_12basic_stringIcNS_11char_traitsIcEENS_9allocatorIcEEEEE4baseB8ne180100Ev
FNA:17,0,_ZNKSt3__111__wrap_iterIPNS_4pairIN7pyfolio8DateTimeEdEEE4baseB8ne180100Ev
FNA:17,22,_ZNKSt3__111__wrap_iterIPNS_6threadEE4baseB8ne180100Ev
FNA:17,22,_ZNKSt3__111__wrap_iterIPPN7testing11EnvironmentEE4baseB8ne180100Ev
FNA:17,0,_ZNKSt3__111__wrap_iterIPPN7testing17TestEventListenerEE4baseB8ne180100Ev
FNA:17,26,_ZNKSt3__111__wrap_iterIPPN7testing8internal30ParameterizedTestSuiteInfoBaseEE4baseB8ne180100Ev
FNA:17,574,_ZNKSt3__111__wrap_iterIPPN7testing9TestSuiteEE4baseB8ne180100Ev
FNA:17,0,_ZNKSt3__111__wrap_iterIPPcE4baseB8ne180100Ev
FNA:17,797,_ZNKSt3__111__wrap_iterIPcE4baseB8ne180100Ev
FNA:17,7136,_ZNKSt3__111__wrap_iterIPdE4baseB8ne180100Ev
FNA:17,10,_ZNKSt3__111__wrap_iterIPmE4baseB8ne180100Ev
FNL:18,94,94
FNA:18,0,_ZNSt3__111__wrap_iterIPKN7pyfolio8DateTimeEEC1B8ne180100ES4_
FNA:18,0,_ZNSt3__111__wrap_iterIPKN7pyfolio8DateTimeEEC2B8ne180100ES4_
FNA:18,1826,_ZNSt3__111__wrap_iterIPKN7testing14TestPartResultEEC1B8ne180100ES4_
FNA:18,1826,_ZNSt3__111__wrap_iterIPKN7testing14TestPartResultEEC2B8ne180100ES4_
FNA:18,0,_ZNSt3__111__wrap_iterIPKN7testing8internal13edit_distance8EditTypeEEC1B8ne180100ES6_
FNA:18,0,_ZNSt3__111__wrap_iterIPKN7testing8internal13edit_distance8EditTypeEEC2B8ne180100ES6_
FNA:18,1290,_ZNSt3__111__wrap_iterIPKN8nlohmann16json_abi_v3_11_310basic_jsonINS_3mapENS_6vectorENS_12basic_stringIcNS_11char_traitsIcEENS_9allocatorIcEEEEbxydS9_NS2_14adl_serializerENS5_IhNS9_IhEEEEvEEEC1B8ne180100ESH_
FNA:18,1290,_ZNSt3__111__wrap_iterIPKN8nlohmann16json_abi_v3_11_310basic_jsonINS_3mapENS_6vectorENS_12basic_stringIcNS_11char_traitsIcEENS_9allocatorIcEEEEbxydS9_NS2_14adl_serializerENS5_IhNS9_IhEEEEvEEEC2B8ne180100ESH_
FNA:18,1096,_ZNSt3__111__wrap_iterIPKNS_12basic_stringIcNS_11char_traitsIcEENS_9allocatorIcEEEEEC1B8ne180100ES8_
FNA:18,1096,_ZNSt3__111__wrap_iterIPKNS_12basic_stringIcNS_11char_traitsIcEENS_9allocatorIcEEEEEC2B8ne180100ES8_
FNA:18,6,_ZNSt3__111__wrap_iterIPKNS_6vectorIdNS_9allocatorIdEEEEEC1B8ne180100ES6_
FNA:18,6,_ZNSt3__111__wrap_iterIPKNS_6vectorIdNS_9allocatorIdEEEEEC2B8ne180100ES6_
FNA:18,24,_ZNSt3__111__wrap_iterIPKPN7testing11EnvironmentEEC1B8ne180100ES5_
FNA:18,24,_ZNSt3__111__wrap_iterIPKPN7testing11EnvironmentEEC2B8ne180100ES5_
FNA:18,2,_ZNSt3__111__wrap_iterIPKPN7testing17TestEventListenerEEC1B8ne180100ES5_
FNA:18,2,_ZNSt3__111__wrap_iterIPKPN7testing17TestEventListenerEEC2B8ne180100ES5_
FNA:18,1556,_ZNSt3__111__wrap_iterIPKPN7testing8TestInfoEEC1B8ne180100ES5_
FNA:18,1556,_ZNSt3__111__wrap_iterIPKPN7testing8TestInfoEEC2B8ne180100ES5_
FNA:18,166,_ZNSt3__111__wrap_iterIPKPN7testing9TestSuiteEEC1B8ne180100ES5_
FNA:18,166,_ZNSt3__111__wrap_iterIPKPN7testing9TestSuiteEEC2B8ne180100ES5_
FNA:18,391,_ZNSt3__111__wrap_iterIPKcEC1B8ne180100ES2_
FNA:18,391,_ZNSt3__111__wrap_iterIPKcEC2B8ne180100ES2_
FNA:18,4599,_ZNSt3__111__wrap_iterIPKdEC1B8ne180100ES2_
FNA:18,4599,_ZNSt3__111__wrap_iterIPKdEC2B8ne180100ES2_
FNA:18,0,_ZNSt3__111__wrap_iterIPKhEC1B8ne180100ES2_
FNA:18,0,_ZNSt3__111__wrap_iterIPKhEC2B8ne180100ES2_
FNA:18,6,_ZNSt3__111__wrap_iterIPN7pyfolio11attribution17SectorAttributionEEC1B8ne180100ES4_
FNA:18,6,_ZNSt3__111__wrap_iterIPN7pyfolio11attribution17SectorAttributionEEC2B8ne180100ES4_
FNA:18,0,_ZNSt3__111__wrap_iterIPN7testing12TestPropertyEEC1B8ne180100ES3_
FNA:18,0,_ZNSt3__111__wrap_iterIPN7testing12TestPropertyEEC2B8ne180100ES3_
FNA:18,0,_ZNSt3__111__wrap_iterIPN7testing8internal13edit_distance8EditTypeEEC1B8ne180100ES5_
FNA:18,0,_ZNSt3__111__wrap_iterIPN7testing8internal13edit_distance8EditTypeEEC2B8ne180100ES5_
FNA:18,1706,_ZNSt3__111__wrap_iterIPN8nlohmann16json_abi_v3_11_310basic_jsonINS_3mapENS_6vectorENS_12basic_stringIcNS_11char_traitsIcEENS_9allocatorIcEEEEbxydS9_NS2_14adl_serializerENS5_IhNS9_IhEEEEvEEEC1B8ne180100ESG_
FNA:18,1706,_ZNSt3__111__wrap_iterIPN8nlohmann16json_abi_v3_11_310basic_jsonINS_3mapENS_6vectorENS_12basic_stringIcNS_11char_traitsIcEENS_9allocatorIcEEEEbxydS9_NS2_14adl_serializerENS5_IhNS9_IhEEEEvEEEC2B8ne180100ESG_
FNA:18,326,_ZNSt3__111__wrap_iterIPNS_12basic_stringIcNS_11char_traitsIcEENS_9allocatorIcEEEEEC1B8ne180100ES7_
FNA:18,326,_ZNSt3__111__wrap_iterIPNS_12basic_stringIcNS_11char_traitsIcEENS_9allocatorIcEEEEEC2B8ne180100ES7_
FNA:18,0,_ZNSt3__111__wrap_iterIPNS_4pairIN7pyfolio8DateTimeEdEEEC1B8ne180100ES5_
FNA:18,0,_ZNSt3__111__wrap_iterIPNS_4pairIN7pyfolio8DateTimeEdEEEC2B8ne180100ES5_
FNA:18,2,_ZNSt3__111__wrap_iterIPNS_6threadEEC1B8ne180100ES2_
FNA:18,2,_ZNSt3__111__wrap_iterIPNS_6threadEEC2B8ne180100ES2_
FNA:18,22,_ZNSt3__111__wrap_iterIPPN7testing11EnvironmentEEC1B8ne180100ES4_
FNA:18,22,_ZNSt3__111__wrap_iterIPPN7testing11EnvironmentEEC2B8ne180100ES4_
FNA:18,0,_ZNSt3__111__wrap_iterIPPN7testing17TestEventListenerEEC1B8ne180100ES4_
FNA:18,0,_ZNSt3__111__wrap_iterIPPN7testing17TestEventListenerEEC2B8ne180100ES4_
FNA:18,26,_ZNSt3__111__wrap_iterIPPN7testing8internal30ParameterizedTestSuiteInfoBaseEEC1B8ne180100ES5_
FNA:18,26,_ZNSt3__111__wrap_iterIPPN7testing8internal30ParameterizedTestSuiteInfoBaseEEC2B8ne180100ES5_
FNA:18,420,_ZNSt3__111__wrap_iterIPPN7testing9TestSuiteEEC1B8ne180100ES4_
FNA:18,420,_ZNSt3__111__wrap_iterIPPN7testing9TestSuiteEEC2B8ne180100ES4_
FNA:18,0,_ZNSt3__111__wrap_iterIPPcEC1B8ne180100ES2_
FNA:18,0,_ZNSt3__111__wrap_iterIPPcEC2B8ne180100ES2_
FNA:18,729,_ZNSt3__111__wrap_iterIPcEC1B8ne180100ES1_
FNA:18,729,_ZNSt3__111__wrap_iterIPcEC2B8ne180100ES1_
FNA:18,278,_ZNSt3__111__wrap_iterIPdEC1B8ne180100ES1_
FNA:18,278,_ZNSt3__111__wrap_iterIPdEC2B8ne180100ES1_
FNA:18,2,_ZNSt3__111__wrap_iterIPmEC1B8ne180100ES1_
FNA:18,2,_ZNSt3__111__wrap_iterIPmEC2B8ne180100ES1_
FNF:19
FNH:16
DA:44,0
DA:46,160
DA:47,160
DA:48,116684
DA:49,0
DA:50,0
DA:52,115234
DA:53,115234
DA:54,115234
DA:56,617
DA:57,617
DA:58,617
DA:59,617
DA:62,242
DA:63,242
DA:64,242
DA:71,2154
DA:72,2154
DA:73,2154
DA:74,2154
DA:76,2211
DA:77,2211
DA:78,2211
DA:80,1220
DA:81,1220
DA:91,241567
DA:94,28946
DA:108,118330
DA:109,118330
DA:114,628
DA:115,628
DA:120,0
DA:121,0
DA:132,118160
DA:133,118160
DA:138,628
DA:139,628
DA:182,301
DA:189,301
DA:210,2969
DA:211,2969
LF:41
LH:36
end_of_record
TN:
SF:/Library/Developer/CommandLineTools/SDKs/MacOSX.sdk/usr/include/c++/v1/__locale
FNL:0,189
FNA:0,1764,_ZNSt3__19use_facetB8ne180100INS_5ctypeIcEEEERKT_RKNS_6localeE
FNL:1,587
FNA:1,1764,_ZNKSt3__15ctypeIcE5widenB8ne180100Ec
FNF:2
FNH:2
DA:189,1764
DA:190,1764
DA:587,1764
LF:3
LH:3
end_of_record
TN:
SF:/Library/Developer/CommandLineTools/SDKs/MacOSX.sdk/usr/include/c++/v1/__math/roots.h
FNL:0,36,37
FNA:0,1,_ZNSt3__16__math4sqrtB8ne180100IiLi0EEEdT_
FNF:1
FNH:1
DA:36,1
DA:37,1
LF:2
LH:2
end_of_record
TN:
SF:/Library/Developer/CommandLineTools/SDKs/MacOSX.sdk/usr/include/c++/v1/__math/rounding_functions.h
FNL:0,29,29
FNA:0,2,_ZNSt3__16__math4ceilB8ne180100Ef
FNF:1
FNH:1
DA:29,2
LF:1
LH:1
end_of_record
TN:
SF:/Library/Developer/CommandLineTools/SDKs/MacOSX.sdk/usr/include/c++/v1/__math/traits.h
FNL:0,103,104
FNA:0,6,_ZNSt3__16__math5isnanB8ne180100EUa9enable_ifIXLb1EEEd
FNL:1,32,33
FNA:1,666,_ZNSt3__16__math7signbitB8ne180100IdLi0EEEbT_
FNL:2,49,50
FNA:2,2637,_ZNSt3__16__math8isfiniteB8ne180100IdLi0EEEbT_
FNF:3
FNH:3
DA:32,666
DA:33,666
DA:49,2637
DA:50,2637
DA:103,6
DA:104,6
LF:6
LH:6
end_of_record
TN:
SF:/Library/Developer/CommandLineTools/SDKs/MacOSX.sdk/usr/include/c++/v1/__memory/allocate_at_least.h
FNL:0,54,55
FNA:0,24,_ZNSt3__119__allocate_at_leastB8ne180100INS_9allocatorIN7pyfolio10TimeSeriesIdEEEEEENS_19__allocation_resultINS_16allocator_traitsIT_E7pointerEEERS8_m
FNA:0,10,_ZNSt3__119__allocate_at_leastB8ne180100INS_9allocatorIN7pyfolio11attribution17SectorAttributionEEEEENS_19__allocation_resultINS_16allocator_traitsIT_E7pointerEEERS8_m
FNA:0,12,_ZNSt3__119__allocate_at_leastB8ne180100INS_9allocatorIN7pyfolio13visualization8PlotDataEEEEENS_19__allocation_resultINS_16allocator_traitsIT_E7pointerEEERS8_m
FNA:0,1084,_ZNSt3__119__allocate_at_leastB8ne180100INS_9allocatorIN7pyfolio8DateTimeEEEEENS_19__allocation_resultINS_16allocator_traitsIT_E7pointerEEERS7_m
FNA:0,0,_ZNSt3__119__allocate_at_leastB8ne180100INS_9allocatorIN7testing12TestPropertyEEEEENS_19__allocation_resultINS_16allocator_traitsIT_E7pointerEEERS7_m
FNA:0,26,_ZNSt3__119__allocate_at_leastB8ne180100INS_9allocatorIN7testing14TestPartResultEEEEENS_19__allocation_resultINS_16allocator_traitsIT_E7pointerEEERS7_m
FNA:0,0,_ZNSt3__119__allocate_at_leastB8ne180100INS_9allocatorIN7testing8internal13edit_distance8EditTypeEEEEENS_19__allocation_resultINS_16allocator_traitsIT_E7pointerEEERS9_m
FNA:0,0,_ZNSt3__119__allocate_at_leastB8ne180100INS_9allocatorIN7testing8internal9TraceInfoEEEEENS_19__allocation_resultINS_16allocator_traitsIT_E7pointerEEERS8_m
FNA:0,1603,_ZNSt3__119__allocate_at_leastB8ne180100INS_9allocatorIN8nlohmann16json_abi_v3_11_310basic_jsonINS_3mapENS_6vectorENS_12basic_stringIcNS_11char_traitsIcEENS1_IcEEEEbxydS1_NS3_14adl_serializerENS6_IhNS1_IhEEEEvEEEEEENS_19__allocation_resultINS_16allocator_traitsIT_E7pointerEEERSJ_m
FNA:0,221,_ZNSt3__119__allocate_at_leastB8ne180100INS_9allocatorINS_12basic_stringIcNS_11char_traitsIcEENS1_IcEEEEEEEENS_19__allocation_resultINS_16allocator_traitsIT_E7pointerEEERSA_m
FNA:0,0,_ZNSt3__119__allocate_at_leastB8ne180100INS_9allocatorINS_4pairIN7pyfolio8DateTimeEdEEEEEENS_19__allocation_resultINS_16allocator_traitsIT_E7pointerEEERS9_m
FNA:0,5,_ZNSt3__119__allocate_at_leastB8ne180100INS_9allocatorINS_6threadEEEEENS_19__allocation_resultINS_16allocator_traitsIT_E7pointerEEERS6_m
FNA:0,0,_ZNSt3__119__allocate_at_leastB8ne180100INS_9allocatorINS_6vectorIN7testing8internal13edit_distance8EditTypeENS1_IS6_EEEEEEEENS_19__allocation_resultINS_16allocator_traitsIT_E7pointerEEERSC_m
FNA:0,7,_ZNSt3__119__allocate_at_leastB8ne180100INS_9allocatorINS_6vectorIdNS1_IdEEEEEEEENS_19__allocation_resultINS_16allocator_traitsIT_E7pointerEEERS8_m
FNA:0,0,_ZNSt3__119__allocate_at_leastB8ne180100INS_9allocatorIPN7testing11EnvironmentEEEEENS_19__allocation_resultINS_16allocator_traitsIT_E7pointerEEERS8_m
FNA:0,12,_ZNSt3__119__allocate_at_leastB8ne180100INS_9allocatorIPN7testing17TestEventListenerEEEEENS_19__allocation_resultINS_16allocator_traitsIT_E7pointerEEERS8_m
FNA:0,54,_ZNSt3__119__allocate_at_leastB8ne180100INS_9allocatorIPN7testing8TestInfoEEEEENS_19__allocation_resultINS_16allocator_traitsIT_E7pointerEEERS8_m
FNA:0,11,_ZNSt3__119__allocate_at_leastB8ne180100INS_9allocatorIPN7testing9TestSuiteEEEEENS_19__allocation_resultINS_16allocator_traitsIT_E7pointerEEERS8_m
FNA:0,0,_ZNSt3__119__allocate_at_leastB8ne180100INS_9allocatorIPcEEEENS_19__allocation_resultINS_16allocator_traitsIT_E7pointerEEERS6_m
FNA:0,30,_ZNSt3__119__allocate_at_leastB8ne180100INS_9allocatorIcEEEENS_19__allocation_resultINS_16allocator_traitsIT_E7pointerEEERS5_m
FNA:0,2611,_ZNSt3__119__allocate_at_leastB8ne180100INS_9allocatorIdEEEENS_19__allocation_resultINS_16allocator_traitsIT_E7pointerEEERS5_m
FNA:0,0,_ZNSt3__119__allocate_at_leastB8ne180100INS_9allocatorIhEEEENS_19__allocation_resultINS_16allocator_traitsIT_E7pointerEEERS5_m
FNA:0,66,_ZNSt3__119__allocate_at_leastB8ne180100INS_9allocatorIiEEEENS_19__allocation_resultINS_16allocator_traitsIT_E7pointerEEERS5_m
FNA:0,1,_ZNSt3__119__allocate_at_leastB8ne180100INS_9allocatorImEEEENS_19__allocation_resultINS_16allocator_traitsIT_E7pointerEEERS5_m
FNF:1
FNH:1
DA:54,5777
DA:55,5777
LF:2
LH:2
end_of_record
TN:
SF:/Library/Developer/CommandLineTools/SDKs/MacOSX.sdk/usr/include/c++/v1/__memory/allocation_guard.h
FNL:0,53,57
FNA:0,0,_ZNSt3__118__allocation_guardINS_9allocatorINS_11__list_nodeINS_4pairIcPKcEEPvEEEEEC1B8ne180100IS9_EET_m
FNA:0,0,_ZNSt3__118__allocation_guardINS_9allocatorINS_11__list_nodeINS_4pairIcPKcEEPvEEEEEC2B8ne180100IS9_EET_m
FNA:0,35,_ZNSt3__118__allocation_guardINS_9allocatorINS_20__shared_ptr_emplaceIN8nlohmann16json_abi_v3_11_36detail21output_string_adapterIcNS_12basic_stringIcNS_11char_traitsIcEENS1_IcEEEEEENS1_ISC_EEEEEEEC1B8ne180100ISD_EET_m
FNA:0,35,_ZNSt3__118__allocation_guardINS_9allocatorINS_20__shared_ptr_emplaceIN8nlohmann16json_abi_v3_11_36detail21output_string_adapterIcNS_12basic_stringIcNS_11char_traitsIcEENS1_IcEEEEEENS1_ISC_EEEEEEEC2B8ne180100ISD_EET_m
FNL:1,59,59
FNA:1,0,_ZNSt3__118__allocation_guardINS_9allocatorINS_11__list_nodeINS_4pairIcPKcEEPvEEEEED1B8ne180100Ev
FNA:1,0,_ZNSt3__118__allocation_guardINS_9allocatorINS_11__list_nodeINS_4pairIcPKcEEPvEEEEED2B8ne180100Ev
FNA:1,35,_ZNSt3__118__allocation_guardINS_9allocatorINS_20__shared_ptr_emplaceIN8nlohmann16json_abi_v3_11_36detail21output_string_adapterIcNS_12basic_stringIcNS_11char_traitsIcEENS1_IcEEEEEENS1_ISC_EEEEEEED1B8ne180100Ev
FNA:1,35,_ZNSt3__118__allocation_guardINS_9allocatorINS_20__shared_ptr_emplaceIN8nlohmann16json_abi_v3_11_36detail21output_string_adapterIcNS_12basic_stringIcNS_11char_traitsIcEENS1_IcEEEEEENS1_ISC_EEEEEEED2B8ne180100Ev
FNL:2,84,87
FNA:2,0,_ZNSt3__118__allocation_guardINS_9allocatorINS_11__list_nodeINS_4pairIcPKcEEPvEEEEE13__release_ptrB8ne180100Ev
FNA:2,35,_ZNSt3__118__allocation_guardINS_9allocatorINS_20__shared_ptr_emplaceIN8nlohmann16json_abi_v3_11_36detail21output_string_adapterIcNS_12basic_stringIcNS_11char_traitsIcEENS1_IcEEEEEENS1_ISC_EEEEEEE13__release_ptrB8ne180100Ev
FNL:3,90,90
FNA:3,0,_ZNKSt3__118__allocation_guardINS_9allocatorINS_11__list_nodeINS_4pairIcPKcEEPvEEEEE5__getB8ne180100Ev
FNA:3,35,_ZNKSt3__118__allocation_guardINS_9allocatorINS_20__shared_ptr_emplaceIN8nlohmann16json_abi_v3_11_36detail21output_string_adapterIcNS_12basic_stringIcNS_11char_traitsIcEENS1_IcEEEEEENS1_ISC_EEEEEEE5__getB8ne180100Ev
FNL:4,93,97
FNA:4,0,_ZNSt3__118__allocation_guardINS_9allocatorINS_11__list_nodeINS_4pairIcPKcEEPvEEEEE9__destroyB8ne180100Ev
FNA:4,35,_ZNSt3__118__allocation_guardINS_9allocatorINS_20__shared_ptr_emplaceIN8nlohmann16json_abi_v3_11_36detail21output_string_adapterIcNS_12basic_stringIcNS_11char_traitsIcEENS1_IcEEEEEENS1_ISC_EEEEEEE9__destroyB8ne180100Ev
FNF:5
FNH:5
DA:53,70
DA:54,35
DA:55,35
DA:56,35
DA:57,70
DA:59,70
DA:84,35
DA:85,35
DA:86,35
DA:87,35
DA:90,35
DA:93,35
DA:94,35
DA:95,0
DA:96,0
DA:97,35
LF:16
LH:14
end_of_record
TN:
SF:/Library/Developer/CommandLineTools/SDKs/MacOSX.sdk/usr/include/c++/v1/__memory/allocator.h
FNL:0,114,114
FNA:0,10,_ZNSt3__19allocatorIN7pyfolio10TimeSeriesIdEEEC2B8ne180100Ev
FNA:0,2,_ZNSt3__19allocatorIN7pyfolio11attribution17SectorAttributionEEC2B8ne180100Ev
FNA:0,12,_ZNSt3__19allocatorIN7pyfolio13visualization8PlotDataEEC2B8ne180100Ev
FNA:0,218,_ZNSt3__19allocatorIN7pyfolio8DateTimeEEC2B8ne180100Ev
FNA:0,155,_ZNSt3__19allocatorIN7testing12TestPropertyEEC2B8ne180100Ev
FNA:0,155,_ZNSt3__19allocatorIN7testing14TestPartResultEEC2B8ne180100Ev
FNA:0,0,_ZNSt3__19allocatorIN7testing8internal13edit_distance8EditTypeEEC2B8ne180100Ev
FNA:0,6,_ZNSt3__19allocatorIN7testing8internal9TraceInfoEEC2B8ne180100Ev
FNA:0,1700,_ZNSt3__19allocatorIN8nlohmann16json_abi_v3_11_310basic_jsonINS_3mapENS_6vectorENS_12basic_stringIcNS_11char_traitsIcEENS0_IcEEEEbxydS0_NS2_14adl_serializerENS5_IhNS0_IhEEEEvEEEC2B8ne180100Ev
FNA:0,0,_ZNSt3__19allocatorIN8nlohmann16json_abi_v3_11_327byte_container_with_subtypeINS_6vectorIhNS0_IhEEEEEEEC1B8ne180100Ev
FNA:0,0,_ZNSt3__19allocatorIN8nlohmann16json_abi_v3_11_327byte_container_with_subtypeINS_6vectorIhNS0_IhEEEEEEEC2B8ne180100Ev
FNA:0,35,_ZNSt3__19allocatorIN8nlohmann16json_abi_v3_11_36detail21output_string_adapterIcNS_12basic_stringIcNS_11char_traitsIcEENS0_IcEEEEEEEC1B8ne180100Ev
FNA:0,35,_ZNSt3__19allocatorIN8nlohmann16json_abi_v3_11_36detail21output_string_adapterIcNS_12basic_stringIcNS_11char_traitsIcEENS0_IcEEEEEEEC2B8ne180100Ev
FNA:0,59,_ZNSt3__19allocatorINS_11__hash_nodeINS_12basic_stringIcNS_11char_traitsIcEENS0_IcEEEEPvEEEC2B8ne180100Ev
FNA:0,2,_ZNSt3__19allocatorINS_11__hash_nodeINS_17__hash_value_typeIiNS_6vectorIdNS0_IdEEEEEEPvEEEC2B8ne180100Ev
FNA:0,0,_ZNSt3__19allocatorINS_11__list_nodeINS_4pairIcPKcEEPvEEEC2B8ne180100Ev
FNA:0,0,_ZNSt3__19allocatorINS_11__tree_nodeINS_12__value_typeIN7pyfolio8DateTimeENS_6vectorIdNS0_IdEEEEEEPvEEEC2B8ne180100Ev
FNA:0,13,_ZNSt3__19allocatorINS_11__tree_nodeINS_12__value_typeINS_12basic_stringIcNS_11char_traitsIcEENS0_IcEEEEN7pyfolio9positions7HoldingEEEPvEEEC2B8ne180100Ev
FNA:0,12,_ZNSt3__19allocatorINS_11__tree_nodeINS_12__value_typeINS_12basic_stringIcNS_11char_traitsIcEENS0_IcEEEEN7testing8internal34TypeParameterizedTestSuiteRegistry30TypeParameterizedTestSuiteInfoEEEPvEEEC2B8ne180100Ev
FNA:0,217,_ZNSt3__19allocatorINS_11__tree_nodeINS_12__value_typeINS_12basic_stringIcNS_11char_traitsIcEENS0_IcEEEEN8nlohmann16json_abi_v3_11_310basic_jsonINS_3mapENS_6vectorES7_bxydS0_NS9_14adl_serializerENSC_IhNS0_IhEEEEvEEEEPvEEEC2B8ne180100Ev
FNA:0,14,_ZNSt3__19allocatorINS_11__tree_nodeINS_12__value_typeINS_12basic_stringIcNS_11char_traitsIcEENS0_IcEEEEdEEPvEEEC2B8ne180100Ev
FNA:0,0,_ZNSt3__19allocatorINS_11__tree_nodeINS_12__value_typeINS_12basic_stringIcNS_11char_traitsIcEENS0_IcEEEEmEEPvEEEC2B8ne180100Ev
FNA:0,14,_ZNSt3__19allocatorINS_11__tree_nodeINS_12basic_stringIcNS_11char_traitsIcEENS0_IcEEEEPvEEEC2B8ne180100Ev
FNA:0,13,_ZNSt3__19allocatorINS_11__tree_nodeINS_6chrono14year_month_dayEPvEEEC2B8ne180100Ev
FNA:0,3828,_ZNSt3__19allocatorINS_12basic_stringIcNS_11char_traitsIcEENS0_IcEEEEEC1B8ne180100Ev
FNA:0,4056,_ZNSt3__19allocatorINS_12basic_stringIcNS_11char_traitsIcEENS0_IcEEEEEC2B8ne180100Ev
FNA:0,552,_ZNSt3__19allocatorINS_3mapINS_12basic_stringIcNS_11char_traitsIcEENS0_IcEEEEN8nlohmann16json_abi_v3_11_310basic_jsonIS1_NS_6vectorES6_bxydS0_NS8_14adl_serializerENSA_IhNS0_IhEEEEvEENS_4lessIvEENS0_INS_4pairIKS6_SE_EEEEEEEC1B8ne180100Ev
FNA:0,552,_ZNSt3__19allocatorINS_3mapINS_12basic_stringIcNS_11char_traitsIcEENS0_IcEEEEN8nlohmann16json_abi_v3_11_310basic_jsonIS1_NS_6vectorES6_bxydS0_NS8_14adl_serializerENSA_IhNS0_IhEEEEvEENS_4lessIvEENS0_INS_4pairIKS6_SE_EEEEEEEC2B8ne180100Ev
FNA:0,0,_ZNSt3__19allocatorINS_4pairIN7pyfolio8DateTimeEdEEEC2B8ne180100Ev
FNA:0,1,_ZNSt3__19allocatorINS_6threadEEC2B8ne180100Ev
FNA:0,0,_ZNSt3__19allocatorINS_6vectorIN7testing8internal13edit_distance8EditTypeENS0_IS5_EEEEEC2B8ne180100Ev
FNA:0,1472,_ZNSt3__19allocatorINS_6vectorIN8nlohmann16json_abi_v3_11_310basic_jsonINS_3mapES1_NS_12basic_stringIcNS_11char_traitsIcEENS0_IcEEEEbxydS0_NS3_14adl_serializerENS1_IhNS0_IhEEEEvEENS0_ISE_EEEEEC1B8ne180100Ev
FNA:0,1472,_ZNSt3__19allocatorINS_6vectorIN8nlohmann16json_abi_v3_11_310basic_jsonINS_3mapES1_NS_12basic_stringIcNS_11char_traitsIcEENS0_IcEEEEbxydS0_NS3_14adl_serializerENS1_IhNS0_IhEEEEvEENS0_ISE_EEEEEC2B8ne180100Ev
FNA:0,4,_ZNSt3__19allocatorINS_6vectorIdNS0_IdEEEEEC2B8ne180100Ev
FNA:0,12,_ZNSt3__19allocatorIPN7testing11EnvironmentEEC2B8ne180100Ev
FNA:0,12,_ZNSt3__19allocatorIPN7testing17TestEventListenerEEC2B8ne180100Ev
FNA:0,11,_ZNSt3__19allocatorIPN7testing8TestInfoEEC2B8ne180100Ev
FNA:0,12,_ZNSt3__19allocatorIPN7testing8internal30ParameterizedTestSuiteInfoBaseEEC2B8ne180100Ev
FNA:0,12,_ZNSt3__19allocatorIPN7testing9TestSuiteEEC2B8ne180100Ev
FNA:0,59,_ZNSt3__19allocatorIPNS_16__hash_node_baseIPNS_11__hash_nodeINS_12basic_stringIcNS_11char_traitsIcEENS0_IcEEEEPvEEEEEC2B8ne180100Ev
FNA:0,2,_ZNSt3__19allocatorIPNS_16__hash_node_baseIPNS_11__hash_nodeINS_17__hash_value_typeIiNS_6vectorIdNS0_IdEEEEEEPvEEEEEC2B8ne180100Ev
FNA:0,0,_ZNSt3__19allocatorIPcEC2B8ne180100Ev
FNA:0,0,_ZNSt3__19allocatorIZNK7pyfolio10TimeSeriesIdE8resampleENS1_9FrequencyEEUlRKNS_6vectorIdNS0_IdEEEEE_EC1B8ne180100Ev
FNA:0,0,_ZNSt3__19allocatorIZNK7pyfolio10TimeSeriesIdE8resampleENS1_9FrequencyEEUlRKNS_6vectorIdNS0_IdEEEEE_EC2B8ne180100Ev
FNA:0,589,_ZNSt3__19allocatorIcEC1B8ne180100Ev
FNA:0,13665,_ZNSt3__19allocatorIcEC2B8ne180100Ev
FNA:0,1308,_ZNSt3__19allocatorIdEC2B8ne180100Ev
FNA:0,0,_ZNSt3__19allocatorIhEC2B8ne180100Ev
FNA:0,24,_ZNSt3__19allocatorIiEC2B8ne180100Ev
FNA:0,1,_ZNSt3__19allocatorImEC2B8ne180100Ev
FNA:0,0,_ZNSt3__19allocatorIwEC2B8ne180100Ev
FNL:1,117,117
FNA:1,0,_ZNSt3__19allocatorINS_10__function6__funcIZNK7pyfolio10TimeSeriesIdE8resampleENS3_9FrequencyEEUlRKNS_6vectorIdNS0_IdEEEEE_NS0_ISC_EEFdSB_EEEEC1B8ne180100ISC_EERKNS0_IT_EE
FNA:1,0,_ZNSt3__19allocatorINS_10__function6__funcIZNK7pyfolio10TimeSeriesIdE8resampleENS3_9FrequencyEEUlRKNS_6vectorIdNS0_IdEEEEE_NS0_ISC_EEFdSB_EEEEC2B8ne180100ISC_EERKNS0_IT_EE
FNA:1,70,_ZNSt3__19allocatorINS_20__shared_ptr_emplaceIN8nlohmann16json_abi_v3_11_36detail21output_string_adapterIcNS_12basic_stringIcNS_11char_traitsIcEENS0_IcEEEEEENS0_ISB_EEEEEC1B8ne180100ISB_EERKNS0_IT_EE
FNA:1,70,_ZNSt3__19allocatorINS_20__shared_ptr_emplaceIN8nlohmann16json_abi_v3_11_36detail21output_string_adapterIcNS_12basic_stringIcNS_11char_traitsIcEENS0_IcEEEEEENS0_ISB_EEEEEC2B8ne180100ISB_EERKNS0_IT_EE
FNA:1,0,_ZNSt3__19allocatorIZNK7pyfolio10TimeSeriesIdE8resampleENS1_9FrequencyEEUlRKNS_6vectorIdNS0_IdEEEEE_EC1B8ne180100INS_10__function6__funcISA_SB_FdS9_EEEEERKNS0_IT_EE
FNA:1,0,_ZNSt3__19allocatorIZNK7pyfolio10TimeSeriesIdE8resampleENS1_9FrequencyEEUlRKNS_6vectorIdNS0_IdEEEEE_EC2B8ne180100INS_10__function6__funcISA_SB_FdS9_EEEEERKNS0_IT_EE
FNL:2,119,125
FNA:2,24,_ZNSt3__19allocatorIN7pyfolio10TimeSeriesIdEEE8allocateB8ne180100Em
FNA:2,10,_ZNSt3__19allocatorIN7pyfolio11attribution17SectorAttributionEE8allocateB8ne180100Em
FNA:2,12,_ZNSt3__19allocatorIN7pyfolio13visualization8PlotDataEE8allocateB8ne180100Em
FNA:2,1084,_ZNSt3__19allocatorIN7pyfolio8DateTimeEE8allocateB8ne180100Em
FNA:2,0,_ZNSt3__19allocatorIN7testing12TestPropertyEE8allocateB8ne180100Em
FNA:2,26,_ZNSt3__19allocatorIN7testing14TestPartResultEE8allocateB8ne180100Em
FNA:2,0,_ZNSt3__19allocatorIN7testing8internal13edit_distance8EditTypeEE8allocateB8ne180100Em
FNA:2,0,_ZNSt3__19allocatorIN7testing8internal9TraceInfoEE8allocateB8ne180100Em
FNA:2,1603,_ZNSt3__19allocatorIN8nlohmann16json_abi_v3_11_310basic_jsonINS_3mapENS_6vectorENS_12basic_stringIcNS_11char_traitsIcEENS0_IcEEEEbxydS0_NS2_14adl_serializerENS5_IhNS0_IhEEEEvEEE8allocateB8ne180100Em
FNA:2,0,_ZNSt3__19allocatorIN8nlohmann16json_abi_v3_11_327byte_container_with_subtypeINS_6vectorIhNS0_IhEEEEEEE8allocateB8ne180100Em
FNA:2,0,_ZNSt3__19allocatorINS_10__function6__funcIZNK7pyfolio10TimeSeriesIdE8resampleENS3_9FrequencyEEUlRKNS_6vectorIdNS0_IdEEEEE_NS0_ISC_EEFdSB_EEEE8allocateB8ne180100Em
FNA:2,0,_ZNSt3__19allocatorINS_11__hash_nodeINS_12basic_stringIcNS_11char_traitsIcEENS0_IcEEEEPvEEE8allocateB8ne180100Em
FNA:2,2,_ZNSt3__19allocatorINS_11__hash_nodeINS_17__hash_value_typeIiNS_6vectorIdNS0_IdEEEEEEPvEEE8allocateB8ne180100Em
FNA:2,0,_ZNSt3__19allocatorINS_11__list_nodeINS_4pairIcPKcEEPvEEE8allocateB8ne180100Em
FNA:2,0,_ZNSt3__19allocatorINS_11__tree_nodeINS_12__value_typeIN7pyfolio8DateTimeENS_6vectorIdNS0_IdEEEEEEPvEEE8allocateB8ne180100Em
FNA:2,39,_ZNSt3__19allocatorINS_11__tree_nodeINS_12__value_typeINS_12basic_stringIcNS_11char_traitsIcEENS0_IcEEEEN7pyfolio9positions7HoldingEEEPvEEE8allocateB8ne180100Em
FNA:2,0,_ZNSt3__19allocatorINS_11__tree_nodeINS_12__value_typeINS_12basic_stringIcNS_11char_traitsIcEENS0_IcEEEEN7testing8internal34TypeParameterizedTestSuiteRegistry30TypeParameterizedTestSuiteInfoEEEPvEEE8allocateB8ne180100Em
FNA:2,846,_ZNSt3__19allocatorINS_11__tree_nodeINS_12__value_typeINS_12basic_stringIcNS_11char_traitsIcEENS0_IcEEEEN8nlohmann16json_abi_v3_11_310basic_jsonINS_3mapENS_6vectorES7_bxydS0_NS9_14adl_serializerENSC_IhNS0_IhEEEEvEEEEPvEEE8allocateB8ne180100Em
FNA:2,53,_ZNSt3__19allocatorINS_11__tree_nodeINS_12__value_typeINS_12basic_stringIcNS_11char_traitsIcEENS0_IcEEEEdEEPvEEE8allocateB8ne180100Em
FNA:2,0,_ZNSt3__19allocatorINS_11__tree_nodeINS_12__value_typeINS_12basic_stringIcNS_11char_traitsIcEENS0_IcEEEEmEEPvEEE8allocateB8ne180100Em
FNA:2,8,_ZNSt3__19allocatorINS_11__tree_nodeINS_12basic_stringIcNS_11char_traitsIcEENS0_IcEEEEPvEEE8allocateB8ne180100Em
FNA:2,78,_ZNSt3__19allocatorINS_11__tree_nodeINS_6chrono14year_month_dayEPvEEE8allocateB8ne180100Em
FNA:2,2135,_ZNSt3__19allocatorINS_12basic_stringIcNS_11char_traitsIcEENS0_IcEEEEE8allocateB8ne180100Em
FNA:2,35,_ZNSt3__19allocatorINS_20__shared_ptr_emplaceIN8nlohmann16json_abi_v3_11_36detail21output_string_adapterIcNS_12basic_stringIcNS_11char_traitsIcEENS0_IcEEEEEENS0_ISB_EEEEE8allocateB8ne180100Em
FNA:2,276,_ZNSt3__19allocatorINS_3mapINS_12basic_stringIcNS_11char_traitsIcEENS0_IcEEEEN8nlohmann16json_abi_v3_11_310basic_jsonIS1_NS_6vectorES6_bxydS0_NS8_14adl_serializerENSA_IhNS0_IhEEEEvEENS_4lessIvEENS0_INS_4pairIKS6_SE_EEEEEEE8allocateB8ne180100Em
FNA:2,0,_ZNSt3__19allocatorINS_4pairIN7pyfolio8DateTimeEdEEE8allocateB8ne180100Em
FNA:2,5,_ZNSt3__19allocatorINS_6threadEE8allocateB8ne180100Em
FNA:2,0,_ZNSt3__19allocatorINS_6vectorIN7testing8internal13edit_distance8EditTypeENS0_IS5_EEEEE8allocateB8ne180100Em
FNA:2,736,_ZNSt3__19allocatorINS_6vectorIN8nlohmann16json_abi_v3_11_310basic_jsonINS_3mapES1_NS_12basic_stringIcNS_11char_traitsIcEENS0_IcEEEEbxydS0_NS3_14adl_serializerENS1_IhNS0_IhEEEEvEENS0_ISE_EEEEE8allocateB8ne180100Em
FNA:2,7,_ZNSt3__19allocatorINS_6vectorIdNS0_IdEEEEE8allocateB8ne180100Em
FNA:2,0,_ZNSt3__19allocatorIPN7testing11EnvironmentEE8allocateB8ne180100Em
FNA:2,12,_ZNSt3__19allocatorIPN7testing17TestEventListenerEE8allocateB8ne180100Em
FNA:2,54,_ZNSt3__19allocatorIPN7testing8TestInfoEE8allocateB8ne180100Em
FNA:2,11,_ZNSt3__19allocatorIPN7testing9TestSuiteEE8allocateB8ne180100Em
FNA:2,0,_ZNSt3__19allocatorIPNS_16__hash_node_baseIPNS_11__hash_nodeINS_12basic_stringIcNS_11char_traitsIcEENS0_IcEEEEPvEEEEE8allocateB8ne180100Em
FNA:2,2,_ZNSt3__19allocatorIPNS_16__hash_node_baseIPNS_11__hash_nodeINS_17__hash_value_typeIiNS_6vectorIdNS0_IdEEEEEEPvEEEEE8allocateB8ne180100Em
FNA:2,0,_ZNSt3__19allocatorIPcE8allocateB8ne180100Em
FNA:2,143,_ZNSt3__19allocatorIcE8allocateB8ne180100Em
FNA:2,2611,_ZNSt3__19allocatorIdE8allocateB8ne180100Em
FNA:2,0,_ZNSt3__19allocatorIhE8allocateB8ne180100Em
FNA:2,66,_ZNSt3__19allocatorIiE8allocateB8ne180100Em
FNA:2,1,_ZNSt3__19allocatorImE8allocateB8ne180100Em
FNL:3,135,141
FNA:3,24,_ZNSt3__19allocatorIN7pyfolio10TimeSeriesIdEEE10deallocateB8ne180100EPS3_m
FNA:3,10,_ZNSt3__19allocatorIN7pyfolio11attribution17SectorAttributionEE10deallocateB8ne180100EPS3_m
FNA:3,12,_ZNSt3__19allocatorIN7pyfolio13visualization8PlotDataEE10deallocateB8ne180100EPS3_m
FNA:3,1084,_ZNSt3__19allocatorIN7pyfolio8DateTimeEE10deallocateB8ne180100EPS2_m
FNA:3,0,_ZNSt3__19allocatorIN7testing12TestPropertyEE10deallocateB8ne180100EPS2_m
FNA:3,15,_ZNSt3__19allocatorIN7testing14TestPartResultEE10deallocateB8ne180100EPS2_m
FNA:3,0,_ZNSt3__19allocatorIN7testing8internal13edit_distance8EditTypeEE10deallocateB8ne180100EPS4_m
FNA:3,0,_ZNSt3__19allocatorIN7testing8internal9TraceInfoEE10deallocateB8ne180100EPS3_m
FNA:3,1603,_ZNSt3__19allocatorIN8nlohmann16json_abi_v3_11_310basic_jsonINS_3mapENS_6vectorENS_12basic_stringIcNS_11char_traitsIcEENS0_IcEEEEbxydS0_NS2_14adl_serializerENS5_IhNS0_IhEEEEvEEE10deallocateB8ne180100EPSE_m
FNA:3,0,_ZNSt3__19allocatorIN8nlohmann16json_abi_v3_11_327byte_container_with_subtypeINS_6vectorIhNS0_IhEEEEEEE10deallocateB8ne180100EPS7_m
FNA:3,0,_ZNSt3__19allocatorINS_10__function6__funcIZNK7pyfolio10TimeSeriesIdE8resampleENS3_9FrequencyEEUlRKNS_6vectorIdNS0_IdEEEEE_NS0_ISC_EEFdSB_EEEE10deallocateB8ne180100EPSF_m
FNA:3,0,_ZNSt3__19allocatorINS_11__hash_nodeINS_12basic_stringIcNS_11char_traitsIcEENS0_IcEEEEPvEEE10deallocateB8ne180100EPS8_m
FNA:3,2,_ZNSt3__19allocatorINS_11__hash_nodeINS_17__hash_value_typeIiNS_6vectorIdNS0_IdEEEEEEPvEEE10deallocateB8ne180100EPS8_m
FNA:3,0,_ZNSt3__19allocatorINS_11__list_nodeINS_4pairIcPKcEEPvEEE10deallocateB8ne180100EPS7_m
FNA:3,0,_ZNSt3__19allocatorINS_11__tree_nodeINS_12__value_typeIN7pyfolio8DateTimeENS_6vectorIdNS0_IdEEEEEEPvEEE10deallocateB8ne180100EPSA_m
FNA:3,39,_ZNSt3__19allocatorINS_11__tree_nodeINS_12__value_typeINS_12basic_stringIcNS_11char_traitsIcEENS0_IcEEEEN7pyfolio9positions7HoldingEEEPvEEE10deallocateB8ne180100EPSD_m
FNA:3,0,_ZNSt3__19allocatorINS_11__tree_nodeINS_12__value_typeINS_12basic_stringIcNS_11char_traitsIcEENS0_IcEEEEN7testing8internal34TypeParameterizedTestSuiteRegistry30TypeParameterizedTestSuiteInfoEEEPvEEE10deallocateB8ne180100EPSE_m
FNA:3,846,_ZNSt3__19allocatorINS_11__tree_nodeINS_12__value_typeINS_12basic_stringIcNS_11char_traitsIcEENS0_IcEEEEN8nlohmann16json_abi_v3_11_310basic_jsonINS_3mapENS_6vectorES7_bxydS0_NS9_14adl_serializerENSC_IhNS0_IhEEEEvEEEEPvEEE10deallocateB8ne180100EPSJ_m
FNA:3,53,_ZNSt3__19allocatorINS_11__tree_nodeINS_12__value_typeINS_12basic_stringIcNS_11char_traitsIcEENS0_IcEEEEdEEPvEEE10deallocateB8ne180100EPSA_m
FNA:3,0,_ZNSt3__19allocatorINS_11__tree_nodeINS_12__value_typeINS_12basic_stringIcNS_11char_traitsIcEENS0_IcEEEEmEEPvEEE10deallocateB8ne180100EPSA_m
FNA:3,8,_ZNSt3__19allocatorINS_11__tree_nodeINS_12basic_stringIcNS_11char_traitsIcEENS0_IcEEEEPvEEE10deallocateB8ne180100EPS8_m
FNA:3,24,_ZNSt3__19allocatorINS_11__tree_nodeINS_6chrono14year_month_dayEPvEEE10deallocateB8ne180100EPS5_m
FNA:3,2123,_ZNSt3__19allocatorINS_12basic_stringIcNS_11char_traitsIcEENS0_IcEEEEE10deallocateB8ne180100EPS5_m
FNA:3,35,_ZNSt3__19allocatorINS_20__shared_ptr_emplaceIN8nlohmann16json_abi_v3_11_36detail21output_string_adapterIcNS_12basic_stringIcNS_11char_traitsIcEENS0_IcEEEEEENS0_ISB_EEEEE10deallocateB8ne180100EPSD_m
FNA:3,276,_ZNSt3__19allocatorINS_3mapINS_12basic_stringIcNS_11char_traitsIcEENS0_IcEEEEN8nlohmann16json_abi_v3_11_310basic_jsonIS1_NS_6vectorES6_bxydS0_NS8_14adl_serializerENSA_IhNS0_IhEEEEvEENS_4lessIvEENS0_INS_4pairIKS6_SE_EEEEEEE10deallocateB8ne180100EPSL_m
FNA:3,0,_ZNSt3__19allocatorINS_4pairIN7pyfolio8DateTimeEdEEE10deallocateB8ne180100EPS4_m
FNA:3,5,_ZNSt3__19allocatorINS_6threadEE10deallocateB8ne180100EPS1_m
FNA:3,0,_ZNSt3__19allocatorINS_6vectorIN7testing8internal13edit_distance8EditTypeENS0_IS5_EEEEE10deallocateB8ne180100EPS7_m
FNA:3,736,_ZNSt3__19allocatorINS_6vectorIN8nlohmann16json_abi_v3_11_310basic_jsonINS_3mapES1_NS_12basic_stringIcNS_11char_traitsIcEENS0_IcEEEEbxydS0_NS3_14adl_serializerENS1_IhNS0_IhEEEEvEENS0_ISE_EEEEE10deallocateB8ne180100EPSG_m
FNA:3,7,_ZNSt3__19allocatorINS_6vectorIdNS0_IdEEEEE10deallocateB8ne180100EPS3_m
FNA:3,0,_ZNSt3__19allocatorIPN7testing11EnvironmentEE10deallocateB8ne180100EPS3_m
FNA:3,1,_ZNSt3__19allocatorIPN7testing17TestEventListenerEE10deallocateB8ne180100EPS3_m
FNA:3,43,_ZNSt3__19allocatorIPN7testing8TestInfoEE10deallocateB8ne180100EPS3_m
FNA:3,0,_ZNSt3__19allocatorIPN7testing8internal30ParameterizedTestSuiteInfoBaseEE10deallocateB8ne180100EPS4_m
FNA:3,0,_ZNSt3__19allocatorIPN7testing9TestSuiteEE10deallocateB8ne180100EPS3_m
FNA:3,0,_ZNSt3__19allocatorIPNS_16__hash_node_baseIPNS_11__hash_nodeINS_12basic_stringIcNS_11char_traitsIcEENS0_IcEEEEPvEEEEE10deallocateB8ne180100EPSC_m
FNA:3,2,_ZNSt3__19allocatorIPNS_16__hash_node_baseIPNS_11__hash_nodeINS_17__hash_value_typeIiNS_6vectorIdNS0_IdEEEEEEPvEEEEE10deallocateB8ne180100EPSC_m
FNA:3,0,_ZNSt3__19allocatorIPcE10deallocateB8ne180100EPS1_m
FNA:3,1,_ZNSt3__19allocatorIcE10deallocateB8ne180100EPcm
FNA:3,2611,_ZNSt3__19allocatorIdE10deallocateB8ne180100EPdm
FNA:3,0,_ZNSt3__19allocatorIhE10deallocateB8ne180100EPhm
FNA:3,44,_ZNSt3__19allocatorIiE10deallocateB8ne180100EPim
FNA:3,1,_ZNSt3__19allocatorImE10deallocateB8ne180100EPmm
FNL:4,93,93
FNA:4,10,_ZNSt3__116__non_trivial_ifILb1ENS_9allocatorIN7pyfolio10TimeSeriesIdEEEEEC2B8ne180100Ev
FNA:4,2,_ZNSt3__116__non_trivial_ifILb1ENS_9allocatorIN7pyfolio11attribution17SectorAttributionEEEEC2B8ne180100Ev
FNA:4,12,_ZNSt3__116__non_trivial_ifILb1ENS_9allocatorIN7pyfolio13visualization8PlotDataEEEEC2B8ne180100Ev
FNA:4,218,_ZNSt3__116__non_trivial_ifILb1ENS_9allocatorIN7pyfolio8DateTimeEEEEC2B8ne180100Ev
FNA:4,155,_ZNSt3__116__non_trivial_ifILb1ENS_9allocatorIN7testing12TestPropertyEEEEC2B8ne180100Ev
FNA:4,155,_ZNSt3__116__non_trivial_ifILb1ENS_9allocatorIN7testing14TestPartResultEEEEC2B8ne180100Ev
FNA:4,0,_ZNSt3__116__non_trivial_ifILb1ENS_9allocatorIN7testing8internal13edit_distance8EditTypeEEEEC2B8ne180100Ev
FNA:4,6,_ZNSt3__116__non_trivial_ifILb1ENS_9allocatorIN7testing8internal9TraceInfoEEEEC2B8ne180100Ev
FNA:4,1700,_ZNSt3__116__non_trivial_ifILb1ENS_9allocatorIN8nlohmann16json_abi_v3_11_310basic_jsonINS_3mapENS_6vectorENS_12basic_stringIcNS_11char_traitsIcEENS1_IcEEEEbxydS1_NS3_14adl_serializerENS6_IhNS1_IhEEEEvEEEEEC2B8ne180100Ev
FNA:4,0,_ZNSt3__116__non_trivial_ifILb1ENS_9allocatorIN8nlohmann16json_abi_v3_11_327byte_container_with_subtypeINS_6vectorIhNS1_IhEEEEEEEEEC2B8ne180100Ev
FNA:4,35,_ZNSt3__116__non_trivial_ifILb1ENS_9allocatorIN8nlohmann16json_abi_v3_11_36detail21output_string_adapterIcNS_12basic_stringIcNS_11char_traitsIcEENS1_IcEEEEEEEEEC2B8ne180100Ev
FNA:4,0,_ZNSt3__116__non_trivial_ifILb1ENS_9allocatorINS_10__function6__funcIZNK7pyfolio10TimeSeriesIdE8resampleENS4_9FrequencyEEUlRKNS_6vectorIdNS1_IdEEEEE_NS1_ISD_EEFdSC_EEEEEEC2B8ne180100Ev
FNA:4,59,_ZNSt3__116__non_trivial_ifILb1ENS_9allocatorINS_11__hash_nodeINS_12basic_stringIcNS_11char_traitsIcEENS1_IcEEEEPvEEEEEC2B8ne180100Ev
FNA:4,2,_ZNSt3__116__non_trivial_ifILb1ENS_9allocatorINS_11__hash_nodeINS_17__hash_value_typeIiNS_6vectorIdNS1_IdEEEEEEPvEEEEEC2B8ne180100Ev
FNA:4,0,_ZNSt3__116__non_trivial_ifILb1ENS_9allocatorINS_11__list_nodeINS_4pairIcPKcEEPvEEEEEC2B8ne180100Ev
FNA:4,0,_ZNSt3__116__non_trivial_ifILb1ENS_9allocatorINS_11__tree_nodeINS_12__value_typeIN7pyfolio8DateTimeENS_6vectorIdNS1_IdEEEEEEPvEEEEEC2B8ne180100Ev
FNA:4,13,_ZNSt3__116__non_trivial_ifILb1ENS_9allocatorINS_11__tree_nodeINS_12__value_typeINS_12basic_stringIcNS_11char_traitsIcEENS1_IcEEEEN7pyfolio9positions7HoldingEEEPvEEEEEC2B8ne180100Ev
FNA:4,12,_ZNSt3__116__non_trivial_ifILb1ENS_9allocatorINS_11__tree_nodeINS_12__value_typeINS_12basic_stringIcNS_11char_traitsIcEENS1_IcEEEEN7testing8internal34TypeParameterizedTestSuiteRegistry30TypeParameterizedTestSuiteInfoEEEPvEEEEEC2B8ne180100Ev
FNA:4,217,_ZNSt3__116__non_trivial_ifILb1ENS_9allocatorINS_11__tree_nodeINS_12__value_typeINS_12basic_stringIcNS_11char_traitsIcEENS1_IcEEEEN8nlohmann16json_abi_v3_11_310basic_jsonINS_3mapENS_6vectorES8_bxydS1_NSA_14adl_serializerENSD_IhNS1_IhEEEEvEEEEPvEEEEEC2B8ne180100Ev
FNA:4,14,_ZNSt3__116__non_trivial_ifILb1ENS_9allocatorINS_11__tree_nodeINS_12__value_typeINS_12basic_stringIcNS_11char_traitsIcEENS1_IcEEEEdEEPvEEEEEC2B8ne180100Ev
FNA:4,0,_ZNSt3__116__non_trivial_ifILb1ENS_9allocatorINS_11__tree_nodeINS_12__value_typeINS_12basic_stringIcNS_11char_traitsIcEENS1_IcEEEEmEEPvEEEEEC2B8ne180100Ev
FNA:4,14,_ZNSt3__116__non_trivial_ifILb1ENS_9allocatorINS_11__tree_nodeINS_12basic_stringIcNS_11char_traitsIcEENS1_IcEEEEPvEEEEEC2B8ne180100Ev
FNA:4,13,_ZNSt3__116__non_trivial_ifILb1ENS_9allocatorINS_11__tree_nodeINS_6chrono14year_month_dayEPvEEEEEC2B8ne180100Ev
FNA:4,4056,_ZNSt3__116__non_trivial_ifILb1ENS_9allocatorINS_12basic_stringIcNS_11char_traitsIcEENS1_IcEEEEEEEC2B8ne180100Ev
FNA:4,70,_ZNSt3__116__non_trivial_ifILb1ENS_9allocatorINS_20__shared_ptr_emplaceIN8nlohmann16json_abi_v3_11_36detail21output_string_adapterIcNS_12basic_stringIcNS_11char_traitsIcEENS1_IcEEEEEENS1_ISC_EEEEEEEC2B8ne180100Ev
FNA:4,552,_ZNSt3__116__non_trivial_ifILb1ENS_9allocatorINS_3mapINS_12basic_stringIcNS_11char_traitsIcEENS1_IcEEEEN8nlohmann16json_abi_v3_11_310basic_jsonIS2_NS_6vectorES7_bxydS1_NS9_14adl_serializerENSB_IhNS1_IhEEEEvEENS_4lessIvEENS1_INS_4pairIKS7_SF_EEEEEEEEEC2B8ne180100Ev
FNA:4,0,_ZNSt3__116__non_trivial_ifILb1ENS_9allocatorINS_4pairIN7pyfolio8DateTimeEdEEEEEC2B8ne180100Ev
FNA:4,1,_ZNSt3__116__non_trivial_ifILb1ENS_9allocatorINS_6threadEEEEC2B8ne180100Ev
FNA:4,0,_ZNSt3__116__non_trivial_ifILb1ENS_9allocatorINS_6vectorIN7testing8internal13edit_distance8EditTypeENS1_IS6_EEEEEEEC2B8ne180100Ev
FNA:4,1472,_ZNSt3__116__non_trivial_ifILb1ENS_9allocatorINS_6vectorIN8nlohmann16json_abi_v3_11_310basic_jsonINS_3mapES2_NS_12basic_stringIcNS_11char_traitsIcEENS1_IcEEEEbxydS1_NS4_14adl_serializerENS2_IhNS1_IhEEEEvEENS1_ISF_EEEEEEEC2B8ne180100Ev
FNA:4,4,_ZNSt3__116__non_trivial_ifILb1ENS_9allocatorINS_6vectorIdNS1_IdEEEEEEEC2B8ne180100Ev
FNA:4,12,_ZNSt3__116__non_trivial_ifILb1ENS_9allocatorIPN7testing11EnvironmentEEEEC2B8ne180100Ev
FNA:4,12,_ZNSt3__116__non_trivial_ifILb1ENS_9allocatorIPN7testing17TestEventListenerEEEEC2B8ne180100Ev
FNA:4,11,_ZNSt3__116__non_trivial_ifILb1ENS_9allocatorIPN7testing8TestInfoEEEEC2B8ne180100Ev
FNA:4,12,_ZNSt3__116__non_trivial_ifILb1ENS_9allocatorIPN7testing8internal30ParameterizedTestSuiteInfoBaseEEEEC2B8ne180100Ev
FNA:4,12,_ZNSt3__116__non_trivial_ifILb1ENS_9allocatorIPN7testing9TestSuiteEEEEC2B8ne180100Ev
FNA:4,59,_ZNSt3__116__non_trivial_ifILb1ENS_9allocatorIPNS_16__hash_node_baseIPNS_11__hash_nodeINS_12basic_stringIcNS_11char_traitsIcEENS1_IcEEEEPvEEEEEEEC2B8ne180100Ev
FNA:4,2,_ZNSt3__116__non_trivial_ifILb1ENS_9allocatorIPNS_16__hash_node_baseIPNS_11__hash_nodeINS_17__hash_value_typeIiNS_6vectorIdNS1_IdEEEEEEPvEEEEEEEC2B8ne180100Ev
FNA:4,0,_ZNSt3__116__non_trivial_ifILb1ENS_9allocatorIPcEEEC2B8ne180100Ev
FNA:4,0,_ZNSt3__116__non_trivial_ifILb1ENS_9allocatorIZNK7pyfolio10TimeSeriesIdE8resampleENS2_9FrequencyEEUlRKNS_6vectorIdNS1_IdEEEEE_EEEC2B8ne180100Ev
FNA:4,13665,_ZNSt3__116__non_trivial_ifILb1ENS_9allocatorIcEEEC2B8ne180100Ev
FNA:4,1308,_ZNSt3__116__non_trivial_ifILb1ENS_9allocatorIdEEEC2B8ne180100Ev
FNA:4,0,_ZNSt3__116__non_trivial_ifILb1ENS_9allocatorIhEEEC2B8ne180100Ev
FNA:4,24,_ZNSt3__116__non_trivial_ifILb1ENS_9allocatorIiEEEC2B8ne180100Ev
FNA:4,1,_ZNSt3__116__non_trivial_ifILb1ENS_9allocatorImEEEC2B8ne180100Ev
FNA:4,0,_ZNSt3__116__non_trivial_ifILb1ENS_9allocatorIwEEEC2B8ne180100Ev
FNF:5
FNH:5
DA:93,23910
DA:114,30316
DA:117,140
DA:119,9879
DA:120,9879
DA:121,0
DA:125,9879
DA:135,9605
DA:139,9605
DA:141,9605
LF:10
LH:9
end_of_record
TN:
SF:/Library/Developer/CommandLineTools/SDKs/MacOSX.sdk/usr/include/c++/v1/__memory/allocator_destructor.h
FNL:0,34,34
FNA:0,0,_ZNSt3__122__allocator_destructorINS_9allocatorINS_10__function6__funcIZNK7pyfolio10TimeSeriesIdE8resampleENS4_9FrequencyEEUlRKNS_6vectorIdNS1_IdEEEEE_NS1_ISD_EEFdSC_EEEEEEC1B8ne180100ERSH_m
FNA:0,0,_ZNSt3__122__allocator_destructorINS_9allocatorINS_10__function6__funcIZNK7pyfolio10TimeSeriesIdE8resampleENS4_9FrequencyEEUlRKNS_6vectorIdNS1_IdEEEEE_NS1_ISD_EEFdSC_EEEEEEC2B8ne180100ERSH_m
FNL:1,35,35
FNA:1,0,_ZNSt3__122__allocator_destructorINS_9allocatorINS_10__function6__funcIZNK7pyfolio10TimeSeriesIdE8resampleENS4_9FrequencyEEUlRKNS_6vectorIdNS1_IdEEEEE_NS1_ISD_EEFdSC_EEEEEEclB8ne180100EPSG_
FNF:2
FNH:0
DA:34,0
DA:35,0
LF:2
LH:0
end_of_record
TN:
SF:/Library/Developer/CommandLineTools/SDKs/MacOSX.sdk/usr/include/c++/v1/__memory/allocator_traits.h
FNL:0,268,269
FNA:0,0,_ZNSt3__116allocator_traitsINS_9allocatorIN8nlohmann16json_abi_v3_11_327byte_container_with_subtypeINS_6vectorIhNS1_IhEEEEEEEEE8allocateB8ne180100ERS9_m
FNA:0,0,_ZNSt3__116allocator_traitsINS_9allocatorINS_11__hash_nodeINS_12basic_stringIcNS_11char_traitsIcEENS1_IcEEEEPvEEEEE8allocateB8ne180100ERSA_m
FNA:0,2,_ZNSt3__116allocator_traitsINS_9allocatorINS_11__hash_nodeINS_17__hash_value_typeIiNS_6vectorIdNS1_IdEEEEEEPvEEEEE8allocateB8ne180100ERSA_m
FNA:0,0,_ZNSt3__116allocator_traitsINS_9allocatorINS_11__list_nodeINS_4pairIcPKcEEPvEEEEE8allocateB8ne180100ERS9_m
FNA:0,0,_ZNSt3__116allocator_traitsINS_9allocatorINS_11__tree_nodeINS_12__value_typeIN7pyfolio8DateTimeENS_6vectorIdNS1_IdEEEEEEPvEEEEE8allocateB8ne180100ERSC_m
FNA:0,39,_ZNSt3__116allocator_traitsINS_9allocatorINS_11__tree_nodeINS_12__value_typeINS_12basic_stringIcNS_11char_traitsIcEENS1_IcEEEEN7pyfolio9positions7HoldingEEEPvEEEEE8allocateB8ne180100ERSF_m
FNA:0,0,_ZNSt3__116allocator_traitsINS_9allocatorINS_11__tree_nodeINS_12__value_typeINS_12basic_stringIcNS_11char_traitsIcEENS1_IcEEEEN7testing8internal34TypeParameterizedTestSuiteRegistry30TypeParameterizedTestSuiteInfoEEEPvEEEEE8allocateB8ne180100ERSG_m
FNA:0,846,_ZNSt3__116allocator_traitsINS_9allocatorINS_11__tree_nodeINS_12__value_typeINS_12basic_stringIcNS_11char_traitsIcEENS1_IcEEEEN8nlohmann16json_abi_v3_11_310basic_jsonINS_3mapENS_6vectorES8_bxydS1_NSA_14adl_serializerENSD_IhNS1_IhEEEEvEEEEPvEEEEE8allocateB8ne180100ERSL_m
FNA:0,53,_ZNSt3__116allocator_traitsINS_9allocatorINS_11__tree_nodeINS_12__value_typeINS_12basic_stringIcNS_11char_traitsIcEENS1_IcEEEEdEEPvEEEEE8allocateB8ne180100ERSC_m
FNA:0,0,_ZNSt3__116allocator_traitsINS_9allocatorINS_11__tree_nodeINS_12__value_typeINS_12basic_stringIcNS_11char_traitsIcEENS1_IcEEEEmEEPvEEEEE8allocateB8ne180100ERSC_m
FNA:0,8,_ZNSt3__116allocator_traitsINS_9allocatorINS_11__tree_nodeINS_12basic_stringIcNS_11char_traitsIcEENS1_IcEEEEPvEEEEE8allocateB8ne180100ERSA_m
FNA:0,78,_ZNSt3__116allocator_traitsINS_9allocatorINS_11__tree_nodeINS_6chrono14year_month_dayEPvEEEEE8allocateB8ne180100ERS7_m
FNA:0,1914,_ZNSt3__116allocator_traitsINS_9allocatorINS_12basic_stringIcNS_11char_traitsIcEENS1_IcEEEEEEE8allocateB8ne180100ERS7_m
FNA:0,35,_ZNSt3__116allocator_traitsINS_9allocatorINS_20__shared_ptr_emplaceIN8nlohmann16json_abi_v3_11_36detail21output_string_adapterIcNS_12basic_stringIcNS_11char_traitsIcEENS1_IcEEEEEENS1_ISC_EEEEEEE8allocateB8ne180100ERSF_m
FNA:0,276,_ZNSt3__116allocator_traitsINS_9allocatorINS_3mapINS_12basic_stringIcNS_11char_traitsIcEENS1_IcEEEEN8nlohmann16json_abi_v3_11_310basic_jsonIS2_NS_6vectorES7_bxydS1_NS9_14adl_serializerENSB_IhNS1_IhEEEEvEENS_4lessIvEENS1_INS_4pairIKS7_SF_EEEEEEEEE8allocateB8ne180100ERSN_m
FNA:0,736,_ZNSt3__116allocator_traitsINS_9allocatorINS_6vectorIN8nlohmann16json_abi_v3_11_310basic_jsonINS_3mapES2_NS_12basic_stringIcNS_11char_traitsIcEENS1_IcEEEEbxydS1_NS4_14adl_serializerENS2_IhNS1_IhEEEEvEENS1_ISF_EEEEEEE8allocateB8ne180100ERSI_m
FNA:0,0,_ZNSt3__116allocator_traitsINS_9allocatorIPNS_16__hash_node_baseIPNS_11__hash_nodeINS_12basic_stringIcNS_11char_traitsIcEENS1_IcEEEEPvEEEEEEE8allocateB8ne180100ERSE_m
FNA:0,2,_ZNSt3__116allocator_traitsINS_9allocatorIPNS_16__hash_node_baseIPNS_11__hash_nodeINS_17__hash_value_typeIiNS_6vectorIdNS1_IdEEEEEEPvEEEEEEE8allocateB8ne180100ERSE_m
FNA:0,116,_ZNSt3__116allocator_traitsINS_9allocatorIcEEE8allocateB8ne180100ERS2_m
FNL:1,288,290
FNA:1,24,_ZNSt3__116allocator_traitsINS_9allocatorIN7pyfolio10TimeSeriesIdEEEEE10deallocateB8ne180100ERS5_PS4_m
FNA:1,10,_ZNSt3__116allocator_traitsINS_9allocatorIN7pyfolio11attribution17SectorAttributionEEEE10deallocateB8ne180100ERS5_PS4_m
FNA:1,12,_ZNSt3__116allocator_traitsINS_9allocatorIN7pyfolio13visualization8PlotDataEEEE10deallocateB8ne180100ERS5_PS4_m
FNA:1,1084,_ZNSt3__116allocator_traitsINS_9allocatorIN7pyfolio8DateTimeEEEE10deallocateB8ne180100ERS4_PS3_m
FNA:1,0,_ZNSt3__116allocator_traitsINS_9allocatorIN7testing12TestPropertyEEEE10deallocateB8ne180100ERS4_PS3_m
FNA:1,15,_ZNSt3__116allocator_traitsINS_9allocatorIN7testing14TestPartResultEEEE10deallocateB8ne180100ERS4_PS3_m
FNA:1,0,_ZNSt3__116allocator_traitsINS_9allocatorIN7testing8internal13edit_distance8EditTypeEEEE10deallocateB8ne180100ERS6_PS5_m
FNA:1,0,_ZNSt3__116allocator_traitsINS_9allocatorIN7testing8internal9TraceInfoEEEE10deallocateB8ne180100ERS5_PS4_m
FNA:1,1603,_ZNSt3__116allocator_traitsINS_9allocatorIN8nlohmann16json_abi_v3_11_310basic_jsonINS_3mapENS_6vectorENS_12basic_stringIcNS_11char_traitsIcEENS1_IcEEEEbxydS1_NS3_14adl_serializerENS6_IhNS1_IhEEEEvEEEEE10deallocateB8ne180100ERSG_PSF_m
FNA:1,0,_ZNSt3__116allocator_traitsINS_9allocatorIN8nlohmann16json_abi_v3_11_327byte_container_with_subtypeINS_6vectorIhNS1_IhEEEEEEEEE10deallocateB8ne180100ERS9_PS8_m
FNA:1,0,_ZNSt3__116allocator_traitsINS_9allocatorINS_10__function6__funcIZNK7pyfolio10TimeSeriesIdE8resampleENS4_9FrequencyEEUlRKNS_6vectorIdNS1_IdEEEEE_NS1_ISD_EEFdSC_EEEEEE10deallocateB8ne180100ERSH_PSG_m
FNA:1,0,_ZNSt3__116allocator_traitsINS_9allocatorINS_11__hash_nodeINS_12basic_stringIcNS_11char_traitsIcEENS1_IcEEEEPvEEEEE10deallocateB8ne180100ERSA_PS9_m
FNA:1,2,_ZNSt3__116allocator_traitsINS_9allocatorINS_11__hash_nodeINS_17__hash_value_typeIiNS_6vectorIdNS1_IdEEEEEEPvEEEEE10deallocateB8ne180100ERSA_PS9_m
FNA:1,0,_ZNSt3__116allocator_traitsINS_9allocatorINS_11__list_nodeINS_4pairIcPKcEEPvEEEEE10deallocateB8ne180100ERS9_PS8_m
FNA:1,0,_ZNSt3__116allocator_traitsINS_9allocatorINS_11__tree_nodeINS_12__value_typeIN7pyfolio8DateTimeENS_6vectorIdNS1_IdEEEEEEPvEEEEE10deallocateB8ne180100ERSC_PSB_m
FNA:1,39,_ZNSt3__116allocator_traitsINS_9allocatorINS_11__tree_nodeINS_12__value_typeINS_12basic_stringIcNS_11char_traitsIcEENS1_IcEEEEN7pyfolio9positions7HoldingEEEPvEEEEE10deallocateB8ne180100ERSF_PSE_m
FNA:1,0,_ZNSt3__116allocator_traitsINS_9allocatorINS_11__tree_nodeINS_12__value_typeINS_12basic_stringIcNS_11char_traitsIcEENS1_IcEEEEN7testing8internal34TypeParameterizedTestSuiteRegistry30TypeParameterizedTestSuiteInfoEEEPvEEEEE10deallocateB8ne180100ERSG_PSF_m
FNA:1,846,_ZNSt3__116allocator_traitsINS_9allocatorINS_11__tree_nodeINS_12__value_typeINS_12basic_stringIcNS_11char_traitsIcEENS1_IcEEEEN8nlohmann16json_abi_v3_11_310basic_jsonINS_3mapENS_6vectorES8_bxydS1_NSA_14adl_serializerENSD_IhNS1_IhEEEEvEEEEPvEEEEE10deallocateB8ne180100ERSL_PSK_m
FNA:1,53,_ZNSt3__116allocator_traitsINS_9allocatorINS_11__tree_nodeINS_12__value_typeINS_12basic_stringIcNS_11char_traitsIcEENS1_IcEEEEdEEPvEEEEE10deallocateB8ne180100ERSC_PSB_m
FNA:1,0,_ZNSt3__116allocator_traitsINS_9allocatorINS_11__tree_nodeINS_12__value_typeINS_12basic_stringIcNS_11char_traitsIcEENS1_IcEEEEmEEPvEEEEE10deallocateB8ne180100ERSC_PSB_m
FNA:1,8,_ZNSt3__116allocator_traitsINS_9allocatorINS_11__tree_nodeINS_12basic_stringIcNS_11char_traitsIcEENS1_IcEEEEPvEEEEE10deallocateB8ne180100ERSA_PS9_m
FNA:1,24,_ZNSt3__116allocator_traitsINS_9allocatorINS_11__tree_nodeINS_6chrono14year_month_dayEPvEEEEE10deallocateB8ne180100ERS7_PS6_m
FNA:1,2123,_ZNSt3__116allocator_traitsINS_9allocatorINS_12basic_stringIcNS_11char_traitsIcEENS1_IcEEEEEEE10deallocateB8ne180100ERS7_PS6_m
FNA:1,35,_ZNSt3__116allocator_traitsINS_9allocatorINS_20__shared_ptr_emplaceIN8nlohmann16json_abi_v3_11_36detail21output_string_adapterIcNS_12basic_stringIcNS_11char_traitsIcEENS1_IcEEEEEENS1_ISC_EEEEEEE10deallocateB8ne180100ERSF_PSE_m
FNA:1,276,_ZNSt3__116allocator_traitsINS_9allocatorINS_3mapINS_12basic_stringIcNS_11char_traitsIcEENS1_IcEEEEN8nlohmann16json_abi_v3_11_310basic_jsonIS2_NS_6vectorES7_bxydS1_NS9_14adl_serializerENSB_IhNS1_IhEEEEvEENS_4lessIvEENS1_INS_4pairIKS7_SF_EEEEEEEEE10deallocateB8ne180100ERSN_PSM_m
FNA:1,0,_ZNSt3__116allocator_traitsINS_9allocatorINS_4pairIN7pyfolio8DateTimeEdEEEEE10deallocateB8ne180100ERS6_PS5_m
FNA:1,5,_ZNSt3__116allocator_traitsINS_9allocatorINS_6threadEEEE10deallocateB8ne180100ERS3_PS2_m
FNA:1,0,_ZNSt3__116allocator_traitsINS_9allocatorINS_6vectorIN7testing8internal13edit_distance8EditTypeENS1_IS6_EEEEEEE10deallocateB8ne180100ERS9_PS8_m
FNA:1,736,_ZNSt3__116allocator_traitsINS_9allocatorINS_6vectorIN8nlohmann16json_abi_v3_11_310basic_jsonINS_3mapES2_NS_12basic_stringIcNS_11char_traitsIcEENS1_IcEEEEbxydS1_NS4_14adl_serializerENS2_IhNS1_IhEEEEvEENS1_ISF_EEEEEEE10deallocateB8ne180100ERSI_PSH_m
FNA:1,7,_ZNSt3__116allocator_traitsINS_9allocatorINS_6vectorIdNS1_IdEEEEEEE10deallocateB8ne180100ERS5_PS4_m
FNA:1,0,_ZNSt3__116allocator_traitsINS_9allocatorIPN7testing11EnvironmentEEEE10deallocateB8ne180100ERS5_PS4_m
FNA:1,1,_ZNSt3__116allocator_traitsINS_9allocatorIPN7testing17TestEventListenerEEEE10deallocateB8ne180100ERS5_PS4_m
FNA:1,43,_ZNSt3__116allocator_traitsINS_9allocatorIPN7testing8TestInfoEEEE10deallocateB8ne180100ERS5_PS4_m
FNA:1,0,_ZNSt3__116allocator_traitsINS_9allocatorIPN7testing8internal30ParameterizedTestSuiteInfoBaseEEEE10deallocateB8ne180100ERS6_PS5_m
FNA:1,0,_ZNSt3__116allocator_traitsINS_9allocatorIPN7testing9TestSuiteEEEE10deallocateB8ne180100ERS5_PS4_m
FNA:1,0,_ZNSt3__116allocator_traitsINS_9allocatorIPNS_16__hash_node_baseIPNS_11__hash_nodeINS_12basic_stringIcNS_11char_traitsIcEENS1_IcEEEEPvEEEEEEE10deallocateB8ne180100ERSE_PSD_m
FNA:1,2,_ZNSt3__116allocator_traitsINS_9allocatorIPNS_16__hash_node_baseIPNS_11__hash_nodeINS_17__hash_value_typeIiNS_6vectorIdNS1_IdEEEEEEPvEEEEEEE10deallocateB8ne180100ERSE_PSD_m
FNA:1,0,_ZNSt3__116allocator_traitsINS_9allocatorIPcEEE10deallocateB8ne180100ERS3_PS2_m
FNA:1,1,_ZNSt3__116allocator_traitsINS_9allocatorIcEEE10deallocateB8ne180100ERS2_Pcm
FNA:1,2611,_ZNSt3__116allocator_traitsINS_9allocatorIdEEE10deallocateB8ne180100ERS2_Pdm
FNA:1,0,_ZNSt3__116allocator_traitsINS_9allocatorIhEEE10deallocateB8ne180100ERS2_Phm
FNA:1,44,_ZNSt3__116allocator_traitsINS_9allocatorIiEEE10deallocateB8ne180100ERS2_Pim
FNA:1,1,_ZNSt3__116allocator_traitsINS_9allocatorImEEE10deallocateB8ne180100ERS2_Pmm
FNL:2,304,306
FNA:2,4,_ZNSt3__116allocator_traitsINS_9allocatorIN7pyfolio10TimeSeriesIdEEEEE9constructB8ne180100IS4_JRKS4_EvvEEvRS5_PT_DpOT0_
FNA:2,60,_ZNSt3__116allocator_traitsINS_9allocatorIN7pyfolio10TimeSeriesIdEEEEE9constructB8ne180100IS4_JS4_EvvEEvRS5_PT_DpOT0_
FNA:2,8,_ZNSt3__116allocator_traitsINS_9allocatorIN7pyfolio11attribution17SectorAttributionEEEE9constructB8ne180100IS4_JRKS4_EvvEEvRS5_PT_DpOT0_
FNA:2,16,_ZNSt3__116allocator_traitsINS_9allocatorIN7pyfolio11attribution17SectorAttributionEEEE9constructB8ne180100IS4_JRS4_EvvEEvRS5_PT_DpOT0_
FNA:2,6,_ZNSt3__116allocator_traitsINS_9allocatorIN7pyfolio11attribution17SectorAttributionEEEE9constructB8ne180100IS4_JS4_EvvEEvRS5_PT_DpOT0_
FNA:2,12,_ZNSt3__116allocator_traitsINS_9allocatorIN7pyfolio13visualization8PlotDataEEEE9constructB8ne180100IS4_JRKS4_EvvEEvRS5_PT_DpOT0_
FNA:2,1,_ZNSt3__116allocator_traitsINS_9allocatorIN7pyfolio13visualization8PlotDataEEEE9constructB8ne180100IS4_JS4_EvvEEvRS5_PT_DpOT0_
FNA:2,14509,_ZNSt3__116allocator_traitsINS_9allocatorIN7pyfolio8DateTimeEEEE9constructB8ne180100IS3_JRKS3_EvvEEvRS4_PT_DpOT0_
FNA:2,1451,_ZNSt3__116allocator_traitsINS_9allocatorIN7pyfolio8DateTimeEEEE9constructB8ne180100IS3_JS3_EvvEEvRS4_PT_DpOT0_
FNA:2,0,_ZNSt3__116allocator_traitsINS_9allocatorIN7testing12TestPropertyEEEE9constructB8ne180100IS3_JRKS3_EvvEEvRS4_PT_DpOT0_
FNA:2,0,_ZNSt3__116allocator_traitsINS_9allocatorIN7testing12TestPropertyEEEE9constructB8ne180100IS3_JS3_EvvEEvRS4_PT_DpOT0_
FNA:2,118,_ZNSt3__116allocator_traitsINS_9allocatorIN7testing14TestPartResultEEEE9constructB8ne180100IS3_JRKS3_EvvEEvRS4_PT_DpOT0_
FNA:2,138,_ZNSt3__116allocator_traitsINS_9allocatorIN7testing14TestPartResultEEEE9constructB8ne180100IS3_JS3_EvvEEvRS4_PT_DpOT0_
FNA:2,0,_ZNSt3__116allocator_traitsINS_9allocatorIN7testing8internal13edit_distance8EditTypeEEEE9constructB8ne180100IS5_JEvvEEvRS6_PT_DpOT0_
FNA:2,0,_ZNSt3__116allocator_traitsINS_9allocatorIN7testing8internal13edit_distance8EditTypeEEEE9constructB8ne180100IS5_JRKS5_EvvEEvRS6_PT_DpOT0_
FNA:2,0,_ZNSt3__116allocator_traitsINS_9allocatorIN7testing8internal9TraceInfoEEEE9constructB8ne180100IS4_JRKS4_EvvEEvRS5_PT_DpOT0_
FNA:2,0,_ZNSt3__116allocator_traitsINS_9allocatorIN7testing8internal9TraceInfoEEEE9constructB8ne180100IS4_JS4_EvvEEvRS5_PT_DpOT0_
FNA:2,1264,_ZNSt3__116allocator_traitsINS_9allocatorIN8nlohmann16json_abi_v3_11_310basic_jsonINS_3mapENS_6vectorENS_12basic_stringIcNS_11char_traitsIcEENS1_IcEEEEbxydS1_NS3_14adl_serializerENS6_IhNS1_IhEEEEvEEEEE9constructB8ne180100ISF_JRKNS3_6detail8json_refISF_EEEvvEEvRSG_PT_DpOT0_
FNA:2,15,_ZNSt3__116allocator_traitsINS_9allocatorIN8nlohmann16json_abi_v3_11_310basic_jsonINS_3mapENS_6vectorENS_12basic_stringIcNS_11char_traitsIcEENS1_IcEEEEbxydS1_NS3_14adl_serializerENS6_IhNS1_IhEEEEvEEEEE9constructB8ne180100ISF_JRKNS6_IdNS1_IdEEEEEvvEEvRSG_PT_DpOT0_
FNA:2,44,_ZNSt3__116allocator_traitsINS_9allocatorIN8nlohmann16json_abi_v3_11_310basic_jsonINS_3mapENS_6vectorENS_12basic_stringIcNS_11char_traitsIcEENS1_IcEEEEbxydS1_NS3_14adl_serializerENS6_IhNS1_IhEEEEvEEEEE9constructB8ne180100ISF_JRKSB_EvvEEvRSG_PT_DpOT0_
FNA:2,13,_ZNSt3__116allocator_traitsINS_9allocatorIN8nlohmann16json_abi_v3_11_310basic_jsonINS_3mapENS_6vectorENS_12basic_stringIcNS_11char_traitsIcEENS1_IcEEEEbxydS1_NS3_14adl_serializerENS6_IhNS1_IhEEEEvEEEEE9constructB8ne180100ISF_JRKSF_EvvEEvRSG_PT_DpOT0_
FNA:2,158,_ZNSt3__116allocator_traitsINS_9allocatorIN8nlohmann16json_abi_v3_11_310basic_jsonINS_3mapENS_6vectorENS_12basic_stringIcNS_11char_traitsIcEENS1_IcEEEEbxydS1_NS3_14adl_serializerENS6_IhNS1_IhEEEEvEEEEE9constructB8ne180100ISF_JRKdEvvEEvRSG_PT_DpOT0_
FNA:2,1157,_ZNSt3__116allocator_traitsINS_9allocatorIN8nlohmann16json_abi_v3_11_310basic_jsonINS_3mapENS_6vectorENS_12basic_stringIcNS_11char_traitsIcEENS1_IcEEEEbxydS1_NS3_14adl_serializerENS6_IhNS1_IhEEEEvEEEEE9constructB8ne180100ISF_JRSF_EvvEEvRSG_PT_DpOT0_
FNA:2,7974,_ZNSt3__116allocator_traitsINS_9allocatorIN8nlohmann16json_abi_v3_11_310basic_jsonINS_3mapENS_6vectorENS_12basic_stringIcNS_11char_traitsIcEENS1_IcEEEEbxydS1_NS3_14adl_serializerENS6_IhNS1_IhEEEEvEEEEE9constructB8ne180100ISF_JSF_EvvEEvRSG_PT_DpOT0_
FNA:2,0,_ZNSt3__116allocator_traitsINS_9allocatorIN8nlohmann16json_abi_v3_11_327byte_container_with_subtypeINS_6vectorIhNS1_IhEEEEEEEEE9constructB8ne180100IS8_JEvvEEvRS9_PT_DpOT0_
FNA:2,0,_ZNSt3__116allocator_traitsINS_9allocatorIN8nlohmann16json_abi_v3_11_327byte_container_with_subtypeINS_6vectorIhNS1_IhEEEEEEEEE9constructB8ne180100IS8_JRKS8_EvvEEvRS9_PT_DpOT0_
FNA:2,35,_ZNSt3__116allocator_traitsINS_9allocatorIN8nlohmann16json_abi_v3_11_36detail21output_string_adapterIcNS_12basic_stringIcNS_11char_traitsIcEENS1_IcEEEEEEEEE9constructB8ne180100ISB_JRSA_EvvEEvRSC_PT_DpOT0_
FNA:2,0,_ZNSt3__116allocator_traitsINS_9allocatorINS_11__hash_nodeINS_12basic_stringIcNS_11char_traitsIcEENS1_IcEEEEPvEEEEE9constructB8ne180100IS7_JS7_EvvEEvRSA_PT_DpOT0_
FNA:2,1,_ZNSt3__116allocator_traitsINS_9allocatorINS_11__hash_nodeINS_17__hash_value_typeIiNS_6vectorIdNS1_IdEEEEEEPvEEEEE9constructB8ne180100INS_4pairIKiS6_EEJRKNS_21piecewise_construct_tENS_5tupleIJOiEEENSJ_IJEEEEvvEEvRSA_PT_DpOT0_
FNA:2,1,_ZNSt3__116allocator_traitsINS_9allocatorINS_11__hash_nodeINS_17__hash_value_typeIiNS_6vectorIdNS1_IdEEEEEEPvEEEEE9constructB8ne180100INS_4pairIKiS6_EEJRKNS_21piecewise_construct_tENS_5tupleIJRSE_EEENSJ_IJEEEEvvEEvRSA_PT_DpOT0_
FNA:2,0,_ZNSt3__116allocator_traitsINS_9allocatorINS_11__list_nodeINS_4pairIcPKcEEPvEEEEE9constructB8ne180100IS6_JS6_EvvEEvRS9_PT_DpOT0_
FNA:2,0,_ZNSt3__116allocator_traitsINS_9allocatorINS_11__tree_nodeINS_12__value_typeIN7pyfolio8DateTimeENS_6vectorIdNS1_IdEEEEEEPvEEEEE9constructB8ne180100INS_4pairIKS5_S8_EEJRKNS_21piecewise_construct_tENS_5tupleIJRSG_EEENSL_IJEEEEvvEEvRSC_PT_DpOT0_
FNA:2,39,_ZNSt3__116allocator_traitsINS_9allocatorINS_11__tree_nodeINS_12__value_typeINS_12basic_stringIcNS_11char_traitsIcEENS1_IcEEEEN7pyfolio9positions7HoldingEEEPvEEEEE9constructB8ne180100INS_4pairIKS8_SB_EEJRKNS_21piecewise_construct_tENS_5tupleIJRSJ_EEENSO_IJEEEEvvEEvRSF_PT_DpOT0_
FNA:2,0,_ZNSt3__116allocator_traitsINS_9allocatorINS_11__tree_nodeINS_12__value_typeINS_12basic_stringIcNS_11char_traitsIcEENS1_IcEEEEN7testing8internal34TypeParameterizedTestSuiteRegistry30TypeParameterizedTestSuiteInfoEEEPvEEEEE9constructB8ne180100INS_4pairIKS8_SC_EEJS8_SC_EvvEEvRSG_PT_DpOT0_
FNA:2,0,_ZNSt3__116allocator_traitsINS_9allocatorINS_11__tree_nodeINS_12__value_typeINS_12basic_stringIcNS_11char_traitsIcEENS1_IcEEEEN8nlohmann16json_abi_v3_11_310basic_jsonINS_3mapENS_6vectorES8_bxydS1_NSA_14adl_serializerENSD_IhNS1_IhEEEEvEEEEPvEEEEE9constructB8ne180100INS_4pairIKS8_SH_EEJRKNS_21piecewise_construct_tENS_5tupleIJRSP_EEENSU_IJEEEEvvEEvRSL_PT_DpOT0_
FNA:2,177,_ZNSt3__116allocator_traitsINS_9allocatorINS_11__tree_nodeINS_12__value_typeINS_12basic_stringIcNS_11char_traitsIcEENS1_IcEEEEN8nlohmann16json_abi_v3_11_310basic_jsonINS_3mapENS_6vectorES8_bxydS1_NSA_14adl_serializerENSD_IhNS1_IhEEEEvEEEEPvEEEEE9constructB8ne180100INS_4pairIKS8_SH_EEJRKSQ_EvvEEvRSL_PT_DpOT0_
FNA:2,62,_ZNSt3__116allocator_traitsINS_9allocatorINS_11__tree_nodeINS_12__value_typeINS_12basic_stringIcNS_11char_traitsIcEENS1_IcEEEEN8nlohmann16json_abi_v3_11_310basic_jsonINS_3mapENS_6vectorES8_bxydS1_NSA_14adl_serializerENSD_IhNS1_IhEEEEvEEEEPvEEEEE9constructB8ne180100INS_4pairIKS8_SH_EEJS8_DnEvvEEvRSL_PT_DpOT0_
FNA:2,607,_ZNSt3__116allocator_traitsINS_9allocatorINS_11__tree_nodeINS_12__value_typeINS_12basic_stringIcNS_11char_traitsIcEENS1_IcEEEEN8nlohmann16json_abi_v3_11_310basic_jsonINS_3mapENS_6vectorES8_bxydS1_NSA_14adl_serializerENSD_IhNS1_IhEEEEvEEEEPvEEEEE9constructB8ne180100INS_4pairIKS8_SH_EEJS8_SH_EvvEEvRSL_PT_DpOT0_
FNA:2,53,_ZNSt3__116allocator_traitsINS_9allocatorINS_11__tree_nodeINS_12__value_typeINS_12basic_stringIcNS_11char_traitsIcEENS1_IcEEEEdEEPvEEEEE9constructB8ne180100INS_4pairIKS8_dEEJRKSH_EvvEEvRSC_PT_DpOT0_
FNA:2,0,_ZNSt3__116allocator_traitsINS_9allocatorINS_11__tree_nodeINS_12__value_typeINS_12basic_stringIcNS_11char_traitsIcEENS1_IcEEEEmEEPvEEEEE9constructB8ne180100INS_4pairIKS8_mEEJRKNS_21piecewise_construct_tENS_5tupleIJRSG_EEENSL_IJEEEEvvEEvRSC_PT_DpOT0_
FNA:2,8,_ZNSt3__116allocator_traitsINS_9allocatorINS_11__tree_nodeINS_12basic_stringIcNS_11char_traitsIcEENS1_IcEEEEPvEEEEE9constructB8ne180100IS7_JRKS7_EvvEEvRSA_PT_DpOT0_
FNA:2,0,_ZNSt3__116allocator_traitsINS_9allocatorINS_11__tree_nodeINS_12basic_stringIcNS_11char_traitsIcEENS1_IcEEEEPvEEEEE9constructB8ne180100IS7_JS7_EvvEEvRSA_PT_DpOT0_
FNA:2,0,_ZNSt3__116allocator_traitsINS_9allocatorINS_11__tree_nodeINS_6chrono14year_month_dayEPvEEEEE9constructB8ne180100IS4_JRKS4_EvvEEvRS7_PT_DpOT0_
FNA:2,78,_ZNSt3__116allocator_traitsINS_9allocatorINS_11__tree_nodeINS_6chrono14year_month_dayEPvEEEEE9constructB8ne180100IS4_JS4_EvvEEvRS7_PT_DpOT0_
FNA:2,18,_ZNSt3__116allocator_traitsINS_9allocatorINS_12basic_stringIcNS_11char_traitsIcEENS1_IcEEEEEEE9constructB8ne180100IS6_JRA10_KcEvvEEvRS7_PT_DpOT0_
FNA:2,25,_ZNSt3__116allocator_traitsINS_9allocatorINS_12basic_stringIcNS_11char_traitsIcEENS1_IcEEEEEEE9constructB8ne180100IS6_JRA11_KcEvvEEvRS7_PT_DpOT0_
FNA:2,24,_ZNSt3__116allocator_traitsINS_9allocatorINS_12basic_stringIcNS_11char_traitsIcEENS1_IcEEEEEEE9constructB8ne180100IS6_JRA12_KcEvvEEvRS7_PT_DpOT0_
FNA:2,7,_ZNSt3__116allocator_traitsINS_9allocatorINS_12basic_stringIcNS_11char_traitsIcEENS1_IcEEEEEEE9constructB8ne180100IS6_JRA14_KcEvvEEvRS7_PT_DpOT0_
FNA:2,11,_ZNSt3__116allocator_traitsINS_9allocatorINS_12basic_stringIcNS_11char_traitsIcEENS1_IcEEEEEEE9constructB8ne180100IS6_JRA15_KcEvvEEvRS7_PT_DpOT0_
FNA:2,4,_ZNSt3__116allocator_traitsINS_9allocatorINS_12basic_stringIcNS_11char_traitsIcEENS1_IcEEEEEEE9constructB8ne180100IS6_JRA1_KcEvvEEvRS7_PT_DpOT0_
FNA:2,1,_ZNSt3__116allocator_traitsINS_9allocatorINS_12basic_stringIcNS_11char_traitsIcEENS1_IcEEEEEEE9constructB8ne180100IS6_JRA20_KcEvvEEvRS7_PT_DpOT0_
FNA:2,1,_ZNSt3__116allocator_traitsINS_9allocatorINS_12basic_stringIcNS_11char_traitsIcEENS1_IcEEEEEEE9constructB8ne180100IS6_JRA22_KcEvvEEvRS7_PT_DpOT0_
FNA:2,12,_ZNSt3__116allocator_traitsINS_9allocatorINS_12basic_stringIcNS_11char_traitsIcEENS1_IcEEEEEEE9constructB8ne180100IS6_JRA23_KcEvvEEvRS7_PT_DpOT0_
FNA:2,1,_ZNSt3__116allocator_traitsINS_9allocatorINS_12basic_stringIcNS_11char_traitsIcEENS1_IcEEEEEEE9constructB8ne180100IS6_JRA27_KcEvvEEvRS7_PT_DpOT0_
FNA:2,154,_ZNSt3__116allocator_traitsINS_9allocatorINS_12basic_stringIcNS_11char_traitsIcEENS1_IcEEEEEEE9constructB8ne180100IS6_JRA2_KcEvvEEvRS7_PT_DpOT0_
FNA:2,2,_ZNSt3__116allocator_traitsINS_9allocatorINS_12basic_stringIcNS_11char_traitsIcEENS1_IcEEEEEEE9constructB8ne180100IS6_JRA35_KcEvvEEvRS7_PT_DpOT0_
FNA:2,41,_ZNSt3__116allocator_traitsINS_9allocatorINS_12basic_stringIcNS_11char_traitsIcEENS1_IcEEEEEEE9constructB8ne180100IS6_JRA3_KcEvvEEvRS7_PT_DpOT0_
FNA:2,2,_ZNSt3__116allocator_traitsINS_9allocatorINS_12basic_stringIcNS_11char_traitsIcEENS1_IcEEEEEEE9constructB8ne180100IS6_JRA45_KcEvvEEvRS7_PT_DpOT0_
FNA:2,42,_ZNSt3__116allocator_traitsINS_9allocatorINS_12basic_stringIcNS_11char_traitsIcEENS1_IcEEEEEEE9constructB8ne180100IS6_JRA4_KcEvvEEvRS7_PT_DpOT0_
FNA:2,2,_ZNSt3__116allocator_traitsINS_9allocatorINS_12basic_stringIcNS_11char_traitsIcEENS1_IcEEEEEEE9constructB8ne180100IS6_JRA53_KcEvvEEvRS7_PT_DpOT0_
FNA:2,150,_ZNSt3__116allocator_traitsINS_9allocatorINS_12basic_stringIcNS_11char_traitsIcEENS1_IcEEEEEEE9constructB8ne180100IS6_JRA5_KcEvvEEvRS7_PT_DpOT0_
FNA:2,124,_ZNSt3__116allocator_traitsINS_9allocatorINS_12basic_stringIcNS_11char_traitsIcEENS1_IcEEEEEEE9constructB8ne180100IS6_JRA6_KcEvvEEvRS7_PT_DpOT0_
FNA:2,1,_ZNSt3__116allocator_traitsINS_9allocatorINS_12basic_stringIcNS_11char_traitsIcEENS1_IcEEEEEEE9constructB8ne180100IS6_JRA72_KcEvvEEvRS7_PT_DpOT0_
FNA:2,52,_ZNSt3__116allocator_traitsINS_9allocatorINS_12basic_stringIcNS_11char_traitsIcEENS1_IcEEEEEEE9constructB8ne180100IS6_JRA7_KcEvvEEvRS7_PT_DpOT0_
FNA:2,54,_ZNSt3__116allocator_traitsINS_9allocatorINS_12basic_stringIcNS_11char_traitsIcEENS1_IcEEEEEEE9constructB8ne180100IS6_JRA8_KcEvvEEvRS7_PT_DpOT0_
FNA:2,97,_ZNSt3__116allocator_traitsINS_9allocatorINS_12basic_stringIcNS_11char_traitsIcEENS1_IcEEEEEEE9constructB8ne180100IS6_JRA9_KcEvvEEvRS7_PT_DpOT0_
FNA:2,0,_ZNSt3__116allocator_traitsINS_9allocatorINS_12basic_stringIcNS_11char_traitsIcEENS1_IcEEEEEEE9constructB8ne180100IS6_JRKPKcEvvEEvRS7_PT_DpOT0_
FNA:2,918,_ZNSt3__116allocator_traitsINS_9allocatorINS_12basic_stringIcNS_11char_traitsIcEENS1_IcEEEEEEE9constructB8ne180100IS6_JRKS6_EvvEEvRS7_PT_DpOT0_
FNA:2,58,_ZNSt3__116allocator_traitsINS_9allocatorINS_12basic_stringIcNS_11char_traitsIcEENS1_IcEEEEEEE9constructB8ne180100IS6_JRS6_EvvEEvRS7_PT_DpOT0_
FNA:2,655,_ZNSt3__116allocator_traitsINS_9allocatorINS_12basic_stringIcNS_11char_traitsIcEENS1_IcEEEEEEE9constructB8ne180100IS6_JS6_EvvEEvRS7_PT_DpOT0_
FNA:2,217,_ZNSt3__116allocator_traitsINS_9allocatorINS_3mapINS_12basic_stringIcNS_11char_traitsIcEENS1_IcEEEEN8nlohmann16json_abi_v3_11_310basic_jsonIS2_NS_6vectorES7_bxydS1_NS9_14adl_serializerENSB_IhNS1_IhEEEEvEENS_4lessIvEENS1_INS_4pairIKS7_SF_EEEEEEEEE9constructB8ne180100ISM_JEvvEEvRSN_PT_DpOT0_
FNA:2,59,_ZNSt3__116allocator_traitsINS_9allocatorINS_3mapINS_12basic_stringIcNS_11char_traitsIcEENS1_IcEEEEN8nlohmann16json_abi_v3_11_310basic_jsonIS2_NS_6vectorES7_bxydS1_NS9_14adl_serializerENSB_IhNS1_IhEEEEvEENS_4lessIvEENS1_INS_4pairIKS7_SF_EEEEEEEEE9constructB8ne180100ISM_JRKSM_EvvEEvRSN_PT_DpOT0_
FNA:2,0,_ZNSt3__116allocator_traitsINS_9allocatorINS_4pairIN7pyfolio8DateTimeEdEEEEE9constructB8ne180100IS5_JS4_dEvvEEvRS6_PT_DpOT0_
FNA:2,0,_ZNSt3__116allocator_traitsINS_9allocatorINS_4pairIN7pyfolio8DateTimeEdEEEEE9constructB8ne180100IS5_JS5_EvvEEvRS6_PT_DpOT0_
FNA:2,15,_ZNSt3__116allocator_traitsINS_9allocatorINS_6threadEEEE9constructB8ne180100IS2_JS2_EvvEEvRS3_PT_DpOT0_
FNA:2,10,_ZNSt3__116allocator_traitsINS_9allocatorINS_6threadEEEE9constructB8ne180100IS2_JZN36CoreTypesTest_BasicThreadSafety_Test8TestBodyEvE3$_0EvvEEvRS3_PT_DpOT0_
FNA:2,0,_ZNSt3__116allocator_traitsINS_9allocatorINS_6vectorIN7testing8internal13edit_distance8EditTypeENS1_IS6_EEEEEEE9constructB8ne180100IS8_JRKS8_EvvEEvRS9_PT_DpOT0_
FNA:2,0,_ZNSt3__116allocator_traitsINS_9allocatorINS_6vectorIN8nlohmann16json_abi_v3_11_310basic_jsonINS_3mapES2_NS_12basic_stringIcNS_11char_traitsIcEENS1_IcEEEEbxydS1_NS4_14adl_serializerENS2_IhNS1_IhEEEEvEENS1_ISF_EEEEEEE9constructB8ne180100ISH_JEvvEEvRSI_PT_DpOT0_
FNA:2,3,_ZNSt3__116allocator_traitsINS_9allocatorINS_6vectorIN8nlohmann16json_abi_v3_11_310basic_jsonINS_3mapES2_NS_12basic_stringIcNS_11char_traitsIcEENS1_IcEEEEbxydS1_NS4_14adl_serializerENS2_IhNS1_IhEEEEvEENS1_ISF_EEEEEEE9constructB8ne180100ISH_JNS_11__wrap_iterIPKNS2_IdNS1_IdEEEEEESQ_EvvEEvRSI_PT_DpOT0_
FNA:2,9,_ZNSt3__116allocator_traitsINS_9allocatorINS_6vectorIN8nlohmann16json_abi_v3_11_310basic_jsonINS_3mapES2_NS_12basic_stringIcNS_11char_traitsIcEENS1_IcEEEEbxydS1_NS4_14adl_serializerENS2_IhNS1_IhEEEEvEENS1_ISF_EEEEEEE9constructB8ne180100ISH_JNS_11__wrap_iterIPKSB_EESO_EvvEEvRSI_PT_DpOT0_
FNA:2,21,_ZNSt3__116allocator_traitsINS_9allocatorINS_6vectorIN8nlohmann16json_abi_v3_11_310basic_jsonINS_3mapES2_NS_12basic_stringIcNS_11char_traitsIcEENS1_IcEEEEbxydS1_NS4_14adl_serializerENS2_IhNS1_IhEEEEvEENS1_ISF_EEEEEEE9constructB8ne180100ISH_JNS_11__wrap_iterIPKdEESO_EvvEEvRSI_PT_DpOT0_
FNA:2,655,_ZNSt3__116allocator_traitsINS_9allocatorINS_6vectorIN8nlohmann16json_abi_v3_11_310basic_jsonINS_3mapES2_NS_12basic_stringIcNS_11char_traitsIcEENS1_IcEEEEbxydS1_NS4_14adl_serializerENS2_IhNS1_IhEEEEvEENS1_ISF_EEEEEEE9constructB8ne180100ISH_JPKNS4_6detail8json_refISF_EESP_EvvEEvRSI_PT_DpOT0_
FNA:2,48,_ZNSt3__116allocator_traitsINS_9allocatorINS_6vectorIN8nlohmann16json_abi_v3_11_310basic_jsonINS_3mapES2_NS_12basic_stringIcNS_11char_traitsIcEENS1_IcEEEEbxydS1_NS4_14adl_serializerENS2_IhNS1_IhEEEEvEENS1_ISF_EEEEEEE9constructB8ne180100ISH_JRKSH_EvvEEvRSI_PT_DpOT0_
FNA:2,15,_ZNSt3__116allocator_traitsINS_9allocatorINS_6vectorIdNS1_IdEEEEEEE9constructB8ne180100IS4_JRKS4_EvvEEvRS5_PT_DpOT0_
FNA:2,15,_ZNSt3__116allocator_traitsINS_9allocatorINS_6vectorIdNS1_IdEEEEEEE9constructB8ne180100IS4_JS4_EvvEEvRS5_PT_DpOT0_
FNA:2,0,_ZNSt3__116allocator_traitsINS_9allocatorIPN7testing11EnvironmentEEEE9constructB8ne180100IS4_JRKS4_EvvEEvRS5_PT_DpOT0_
FNA:2,12,_ZNSt3__116allocator_traitsINS_9allocatorIPN7testing17TestEventListenerEEEE9constructB8ne180100IS4_JRKS4_EvvEEvRS5_PT_DpOT0_
FNA:2,132,_ZNSt3__116allocator_traitsINS_9allocatorIPN7testing8TestInfoEEEE9constructB8ne180100IS4_JRKS4_EvvEEvRS5_PT_DpOT0_
FNA:2,11,_ZNSt3__116allocator_traitsINS_9allocatorIPN7testing9TestSuiteEEEE9constructB8ne180100IS4_JRKS4_EvvEEvRS5_PT_DpOT0_
FNA:2,0,_ZNSt3__116allocator_traitsINS_9allocatorIPN7testing9TestSuiteEEEE9constructB8ne180100IS4_JS4_EvvEEvRS5_PT_DpOT0_
FNA:2,0,_ZNSt3__116allocator_traitsINS_9allocatorIPcEEE9constructB8ne180100IS2_JS2_EvvEEvRS3_PT_DpOT0_
FNA:2,0,_ZNSt3__116allocator_traitsINS_9allocatorIdEEE9constructB8ne180100IdJEvvEEvRS2_PT_DpOT0_
FNA:2,24420,_ZNSt3__116allocator_traitsINS_9allocatorIdEEE9constructB8ne180100IdJRKdEvvEEvRS2_PT_DpOT0_
FNA:2,57095,_ZNSt3__116allocator_traitsINS_9allocatorIdEEE9constructB8ne180100IdJdEvvEEvRS2_PT_DpOT0_
FNA:2,30,_ZNSt3__116allocator_traitsINS_9allocatorIiEEE9constructB8ne180100IiJRKiEvvEEvRS2_PT_DpOT0_
FNA:2,143,_ZNSt3__116allocator_traitsINS_9allocatorIiEEE9constructB8ne180100IiJiEvvEEvRS2_PT_DpOT0_
FNA:2,0,_ZNSt3__116allocator_traitsINS_9allocatorImEEE9constructB8ne180100ImJmEvvEEvRS2_PT_DpOT0_
FNL:3,315,317
FNA:3,64,_ZNSt3__116allocator_traitsINS_9allocatorIN7pyfolio10TimeSeriesIdEEEEE7destroyB8ne180100IS4_vvEEvRS5_PT_
FNA:3,30,_ZNSt3__116allocator_traitsINS_9allocatorIN7pyfolio11attribution17SectorAttributionEEEE7destroyB8ne180100IS4_vvEEvRS5_PT_
FNA:3,13,_ZNSt3__116allocator_traitsINS_9allocatorIN7pyfolio13visualization8PlotDataEEEE7destroyB8ne180100IS4_vvEEvRS5_PT_
FNA:3,50895,_ZNSt3__116allocator_traitsINS_9allocatorIN7pyfolio8DateTimeEEEE7destroyB8ne180100IS3_vvEEvRS4_PT_
FNA:3,0,_ZNSt3__116allocator_traitsINS_9allocatorIN7testing12TestPropertyEEEE7destroyB8ne180100IS3_vvEEvRS4_PT_
FNA:3,138,_ZNSt3__116allocator_traitsINS_9allocatorIN7testing14TestPartResultEEEE7destroyB8ne180100IS3_vvEEvRS4_PT_
FNA:3,0,_ZNSt3__116allocator_traitsINS_9allocatorIN7testing8internal13edit_distance8EditTypeEEEE7destroyB8ne180100IS5_vvEEvRS6_PT_
FNA:3,0,_ZNSt3__116allocator_traitsINS_9allocatorIN7testing8internal9TraceInfoEEEE7destroyB8ne180100IS4_vvEEvRS5_PT_
FNA:3,10625,_ZNSt3__116allocator_traitsINS_9allocatorIN8nlohmann16json_abi_v3_11_310basic_jsonINS_3mapENS_6vectorENS_12basic_stringIcNS_11char_traitsIcEENS1_IcEEEEbxydS1_NS3_14adl_serializerENS6_IhNS1_IhEEEEvEEEEE7destroyB8ne180100ISF_vvEEvRSG_PT_
FNA:3,0,_ZNSt3__116allocator_traitsINS_9allocatorIN8nlohmann16json_abi_v3_11_327byte_container_with_subtypeINS_6vectorIhNS1_IhEEEEEEEEE7destroyB8ne180100IS8_vvEEvRS9_PT_
FNA:3,35,_ZNSt3__116allocator_traitsINS_9allocatorIN8nlohmann16json_abi_v3_11_36detail21output_string_adapterIcNS_12basic_stringIcNS_11char_traitsIcEENS1_IcEEEEEEEEE7destroyB8ne180100ISB_vvEEvRSC_PT_
FNA:3,0,_ZNSt3__116allocator_traitsINS_9allocatorINS_11__hash_nodeINS_12basic_stringIcNS_11char_traitsIcEENS1_IcEEEEPvEEEEE7destroyB8ne180100IS7_vvEEvRSA_PT_
FNA:3,2,_ZNSt3__116allocator_traitsINS_9allocatorINS_11__hash_nodeINS_17__hash_value_typeIiNS_6vectorIdNS1_IdEEEEEEPvEEEEE7destroyB8ne180100INS_4pairIKiS6_EEvvEEvRSA_PT_
FNA:3,0,_ZNSt3__116allocator_traitsINS_9allocatorINS_11__list_nodeINS_4pairIcPKcEEPvEEEEE7destroyB8ne180100IS6_vvEEvRS9_PT_
FNA:3,0,_ZNSt3__116allocator_traitsINS_9allocatorINS_11__tree_nodeINS_12__value_typeIN7pyfolio8DateTimeENS_6vectorIdNS1_IdEEEEEEPvEEEEE7destroyB8ne180100INS_4pairIKS5_S8_EEvvEEvRSC_PT_
FNA:3,39,_ZNSt3__116allocator_traitsINS_9allocatorINS_11__tree_nodeINS_12__value_typeINS_12basic_stringIcNS_11char_traitsIcEENS1_IcEEEEN7pyfolio9positions7HoldingEEEPvEEEEE7destroyB8ne180100INS_4pairIKS8_SB_EEvvEEvRSF_PT_
FNA:3,0,_ZNSt3__116allocator_traitsINS_9allocatorINS_11__tree_nodeINS_12__value_typeINS_12basic_stringIcNS_11char_traitsIcEENS1_IcEEEEN7testing8internal34TypeParameterizedTestSuiteRegistry30TypeParameterizedTestSuiteInfoEEEPvEEEEE7destroyB8ne180100INS_4pairIKS8_SC_EEvvEEvRSG_PT_
FNA:3,846,_ZNSt3__116allocator_traitsINS_9allocatorINS_11__tree_nodeINS_12__value_typeINS_12basic_stringIcNS_11char_traitsIcEENS1_IcEEEEN8nlohmann16json_abi_v3_11_310basic_jsonINS_3mapENS_6vectorES8_bxydS1_NSA_14adl_serializerENSD_IhNS1_IhEEEEvEEEEPvEEEEE7destroyB8ne180100INS_4pairIKS8_SH_EEvvEEvRSL_PT_
FNA:3,53,_ZNSt3__116allocator_traitsINS_9allocatorINS_11__tree_nodeINS_12__value_typeINS_12basic_stringIcNS_11char_traitsIcEENS1_IcEEEEdEEPvEEEEE7destroyB8ne180100INS_4pairIKS8_dEEvvEEvRSC_PT_
FNA:3,0,_ZNSt3__116allocator_traitsINS_9allocatorINS_11__tree_nodeINS_12__value_typeINS_12basic_stringIcNS_11char_traitsIcEENS1_IcEEEEmEEPvEEEEE7destroyB8ne180100INS_4pairIKS8_mEEvvEEvRSC_PT_
FNA:3,8,_ZNSt3__116allocator_traitsINS_9allocatorINS_11__tree_nodeINS_12basic_stringIcNS_11char_traitsIcEENS1_IcEEEEPvEEEEE7destroyB8ne180100IS7_vvEEvRSA_PT_
FNA:3,24,_ZNSt3__116allocator_traitsINS_9allocatorINS_11__tree_nodeINS_6chrono14year_month_dayEPvEEEEE7destroyB8ne180100IS4_vvEEvRS7_PT_
FNA:3,2444,_ZNSt3__116allocator_traitsINS_9allocatorINS_12basic_stringIcNS_11char_traitsIcEENS1_IcEEEEEEE7destroyB8ne180100IS6_vvEEvRS7_PT_
FNA:3,276,_ZNSt3__116allocator_traitsINS_9allocatorINS_3mapINS_12basic_stringIcNS_11char_traitsIcEENS1_IcEEEEN8nlohmann16json_abi_v3_11_310basic_jsonIS2_NS_6vectorES7_bxydS1_NS9_14adl_serializerENSB_IhNS1_IhEEEEvEENS_4lessIvEENS1_INS_4pairIKS7_SF_EEEEEEEEE7destroyB8ne180100ISM_vvEEvRSN_PT_
FNA:3,0,_ZNSt3__116allocator_traitsINS_9allocatorINS_4pairIN7pyfolio8DateTimeEdEEEEE7destroyB8ne180100IS5_vvEEvRS6_PT_
FNA:3,25,_ZNSt3__116allocator_traitsINS_9allocatorINS_6threadEEEE7destroyB8ne180100IS2_vvEEvRS3_PT_
FNA:3,0,_ZNSt3__116allocator_traitsINS_9allocatorINS_6vectorIN7testing8internal13edit_distance8EditTypeENS1_IS6_EEEEEEE7destroyB8ne180100IS8_vvEEvRS9_PT_
FNA:3,736,_ZNSt3__116allocator_traitsINS_9allocatorINS_6vectorIN8nlohmann16json_abi_v3_11_310basic_jsonINS_3mapES2_NS_12basic_stringIcNS_11char_traitsIcEENS1_IcEEEEbxydS1_NS4_14adl_serializerENS2_IhNS1_IhEEEEvEENS1_ISF_EEEEEEE7destroyB8ne180100ISH_vvEEvRSI_PT_
FNA:3,30,_ZNSt3__116allocator_traitsINS_9allocatorINS_6vectorIdNS1_IdEEEEEEE7destroyB8ne180100IS4_vvEEvRS5_PT_
FNA:3,0,_ZNSt3__116allocator_traitsINS_9allocatorIPN7testing11EnvironmentEEEE7destroyB8ne180100IS4_vvEEvRS5_PT_
FNA:3,1,_ZNSt3__116allocator_traitsINS_9allocatorIPN7testing17TestEventListenerEEEE7destroyB8ne180100IS4_vvEEvRS5_PT_
FNA:3,177,_ZNSt3__116allocator_traitsINS_9allocatorIPN7testing8TestInfoEEEE7destroyB8ne180100IS4_vvEEvRS5_PT_
FNA:3,0,_ZNSt3__116allocator_traitsINS_9allocatorIPN7testing8internal30ParameterizedTestSuiteInfoBaseEEEE7destroyB8ne180100IS5_vvEEvRS6_PT_
FNA:3,0,_ZNSt3__116allocator_traitsINS_9allocatorIPN7testing9TestSuiteEEEE7destroyB8ne180100IS4_vvEEvRS5_PT_
FNA:3,0,_ZNSt3__116allocator_traitsINS_9allocatorIPcEEE7destroyB8ne180100IS2_vvEEvRS3_PT_
FNA:3,201966,_ZNSt3__116allocator_traitsINS_9allocatorIdEEE7destroyB8ne180100IdvvEEvRS2_PT_
FNA:3,0,_ZNSt3__116allocator_traitsINS_9allocatorIhEEE7destroyB8ne180100IhvvEEvRS2_PT_
FNA:3,207,_ZNSt3__116allocator_traitsINS_9allocatorIiEEE7destroyB8ne180100IivvEEvRS2_PT_
FNA:3,4,_ZNSt3__116allocator_traitsINS_9allocatorImEEE7destroyB8ne180100ImvvEEvRS2_PT_
FNL:4,326,327
FNA:4,48,_ZNSt3__116allocator_traitsINS_9allocatorIN7pyfolio10TimeSeriesIdEEEEE8max_sizeB8ne180100IS5_vvEEmRKS5_
FNA:4,20,_ZNSt3__116allocator_traitsINS_9allocatorIN7pyfolio11attribution17SectorAttributionEEEE8max_sizeB8ne180100IS5_vvEEmRKS5_
FNA:4,24,_ZNSt3__116allocator_traitsINS_9allocatorIN7pyfolio13visualization8PlotDataEEEE8max_sizeB8ne180100IS5_vvEEmRKS5_
FNA:4,2221,_ZNSt3__116allocator_traitsINS_9allocatorIN7pyfolio8DateTimeEEEE8max_sizeB8ne180100IS4_vvEEmRKS4_
FNA:4,0,_ZNSt3__116allocator_traitsINS_9allocatorIN7testing12TestPropertyEEEE8max_sizeB8ne180100IS4_vvEEmRKS4_
FNA:4,52,_ZNSt3__116allocator_traitsINS_9allocatorIN7testing14TestPartResultEEEE8max_sizeB8ne180100IS4_vvEEmRKS4_
FNA:4,0,_ZNSt3__116allocator_traitsINS_9allocatorIN7testing8internal13edit_distance8EditTypeEEEE8max_sizeB8ne180100IS6_vvEEmRKS6_
FNA:4,0,_ZNSt3__116allocator_traitsINS_9allocatorIN7testing8internal9TraceInfoEEEE8max_sizeB8ne180100IS5_vvEEmRKS5_
FNA:4,3206,_ZNSt3__116allocator_traitsINS_9allocatorIN8nlohmann16json_abi_v3_11_310basic_jsonINS_3mapENS_6vectorENS_12basic_stringIcNS_11char_traitsIcEENS1_IcEEEEbxydS1_NS3_14adl_serializerENS6_IhNS1_IhEEEEvEEEEE8max_sizeB8ne180100ISG_vvEEmRKSG_
FNA:4,0,_ZNSt3__116allocator_traitsINS_9allocatorIN8nlohmann16json_abi_v3_11_327byte_container_with_subtypeINS_6vectorIhNS1_IhEEEEEEEEE8max_sizeB8ne180100IS9_vvEEmRKS9_
FNA:4,0,_ZNSt3__116allocator_traitsINS_9allocatorINS_10__function6__funcIZNK7pyfolio10TimeSeriesIdE8resampleENS4_9FrequencyEEUlRKNS_6vectorIdNS1_IdEEEEE_NS1_ISD_EEFdSC_EEEEEE8max_sizeB8ne180100ISH_vvEEmRKSH_
FNA:4,0,_ZNSt3__116allocator_traitsINS_9allocatorINS_11__hash_nodeINS_12basic_stringIcNS_11char_traitsIcEENS1_IcEEEEPvEEEEE8max_sizeB8ne180100ISA_vvEEmRKSA_
FNA:4,2,_ZNSt3__116allocator_traitsINS_9allocatorINS_11__hash_nodeINS_17__hash_value_typeIiNS_6vectorIdNS1_IdEEEEEEPvEEEEE8max_sizeB8ne180100ISA_vvEEmRKSA_
FNA:4,0,_ZNSt3__116allocator_traitsINS_9allocatorINS_11__list_nodeINS_4pairIcPKcEEPvEEEEE8max_sizeB8ne180100IS9_vvEEmRKS9_
FNA:4,0,_ZNSt3__116allocator_traitsINS_9allocatorINS_11__tree_nodeINS_12__value_typeIN7pyfolio8DateTimeENS_6vectorIdNS1_IdEEEEEEPvEEEEE8max_sizeB8ne180100ISC_vvEEmRKSC_
FNA:4,39,_ZNSt3__116allocator_traitsINS_9allocatorINS_11__tree_nodeINS_12__value_typeINS_12basic_stringIcNS_11char_traitsIcEENS1_IcEEEEN7pyfolio9positions7HoldingEEEPvEEEEE8max_sizeB8ne180100ISF_vvEEmRKSF_
FNA:4,0,_ZNSt3__116allocator_traitsINS_9allocatorINS_11__tree_nodeINS_12__value_typeINS_12basic_stringIcNS_11char_traitsIcEENS1_IcEEEEN7testing8internal34TypeParameterizedTestSuiteRegistry30TypeParameterizedTestSuiteInfoEEEPvEEEEE8max_sizeB8ne180100ISG_vvEEmRKSG_
FNA:4,846,_ZNSt3__116allocator_traitsINS_9allocatorINS_11__tree_nodeINS_12__value_typeINS_12basic_stringIcNS_11char_traitsIcEENS1_IcEEEEN8nlohmann16json_abi_v3_11_310basic_jsonINS_3mapENS_6vectorES8_bxydS1_NSA_14adl_serializerENSD_IhNS1_IhEEEEvEEEEPvEEEEE8max_sizeB8ne180100ISL_vvEEmRKSL_
FNA:4,53,_ZNSt3__116allocator_traitsINS_9allocatorINS_11__tree_nodeINS_12__value_typeINS_12basic_stringIcNS_11char_traitsIcEENS1_IcEEEEdEEPvEEEEE8max_sizeB8ne180100ISC_vvEEmRKSC_
FNA:4,0,_ZNSt3__116allocator_traitsINS_9allocatorINS_11__tree_nodeINS_12__value_typeINS_12basic_stringIcNS_11char_traitsIcEENS1_IcEEEEmEEPvEEEEE8max_sizeB8ne180100ISC_vvEEmRKSC_
FNA:4,8,_ZNSt3__116allocator_traitsINS_9allocatorINS_11__tree_nodeINS_12basic_stringIcNS_11char_traitsIcEENS1_IcEEEEPvEEEEE8max_sizeB8ne180100ISA_vvEEmRKSA_
FNA:4,78,_ZNSt3__116allocator_traitsINS_9allocatorINS_11__tree_nodeINS_6chrono14year_month_dayEPvEEEEE8max_sizeB8ne180100IS7_vvEEmRKS7_
FNA:4,2361,_ZNSt3__116allocator_traitsINS_9allocatorINS_12basic_stringIcNS_11char_traitsIcEENS1_IcEEEEEEE8max_sizeB8ne180100IS7_vvEEmRKS7_
FNA:4,35,_ZNSt3__116allocator_traitsINS_9allocatorINS_20__shared_ptr_emplaceIN8nlohmann16json_abi_v3_11_36detail21output_string_adapterIcNS_12basic_stringIcNS_11char_traitsIcEENS1_IcEEEEEENS1_ISC_EEEEEEE8max_sizeB8ne180100ISF_vvEEmRKSF_
FNA:4,276,_ZNSt3__116allocator_traitsINS_9allocatorINS_3mapINS_12basic_stringIcNS_11char_traitsIcEENS1_IcEEEEN8nlohmann16json_abi_v3_11_310basic_jsonIS2_NS_6vectorES7_bxydS1_NS9_14adl_serializerENSB_IhNS1_IhEEEEvEENS_4lessIvEENS1_INS_4pairIKS7_SF_EEEEEEEEE8max_sizeB8ne180100ISN_vvEEmRKSN_
FNA:4,0,_ZNSt3__116allocator_traitsINS_9allocatorINS_4pairIN7pyfolio8DateTimeEdEEEEE8max_sizeB8ne180100IS6_vvEEmRKS6_
FNA:4,10,_ZNSt3__116allocator_traitsINS_9allocatorINS_6threadEEEE8max_sizeB8ne180100IS3_vvEEmRKS3_
FNA:4,0,_ZNSt3__116allocator_traitsINS_9allocatorINS_6vectorIN7testing8internal13edit_distance8EditTypeENS1_IS6_EEEEEEE8max_sizeB8ne180100IS9_vvEEmRKS9_
FNA:4,736,_ZNSt3__116allocator_traitsINS_9allocatorINS_6vectorIN8nlohmann16json_abi_v3_11_310basic_jsonINS_3mapES2_NS_12basic_stringIcNS_11char_traitsIcEENS1_IcEEEEbxydS1_NS4_14adl_serializerENS2_IhNS1_IhEEEEvEENS1_ISF_EEEEEEE8max_sizeB8ne180100ISI_vvEEmRKSI_
FNA:4,14,_ZNSt3__116allocator_traitsINS_9allocatorINS_6vectorIdNS1_IdEEEEEEE8max_sizeB8ne180100IS5_vvEEmRKS5_
FNA:4,0,_ZNSt3__116allocator_traitsINS_9allocatorIPN7testing11EnvironmentEEEE8max_sizeB8ne180100IS5_vvEEmRKS5_
FNA:4,24,_ZNSt3__116allocator_traitsINS_9allocatorIPN7testing17TestEventListenerEEEE8max_sizeB8ne180100IS5_vvEEmRKS5_
FNA:4,108,_ZNSt3__116allocator_traitsINS_9allocatorIPN7testing8TestInfoEEEE8max_sizeB8ne180100IS5_vvEEmRKS5_
FNA:4,22,_ZNSt3__116allocator_traitsINS_9allocatorIPN7testing9TestSuiteEEEE8max_sizeB8ne180100IS5_vvEEmRKS5_
FNA:4,0,_ZNSt3__116allocator_traitsINS_9allocatorIPNS_16__hash_node_baseIPNS_11__hash_nodeINS_12basic_stringIcNS_11char_traitsIcEENS1_IcEEEEPvEEEEEEE8max_sizeB8ne180100ISE_vvEEmRKSE_
FNA:4,2,_ZNSt3__116allocator_traitsINS_9allocatorIPNS_16__hash_node_baseIPNS_11__hash_nodeINS_17__hash_value_typeIiNS_6vectorIdNS1_IdEEEEEEPvEEEEEEE8max_sizeB8ne180100ISE_vvEEmRKSE_
FNA:4,0,_ZNSt3__116allocator_traitsINS_9allocatorIPcEEE8max_sizeB8ne180100IS3_vvEEmRKS3_
FNA:4,458,_ZNSt3__116allocator_traitsINS_9allocatorIcEEE8max_sizeB8ne180100IS2_vvEEmRKS2_
FNA:4,5297,_ZNSt3__116allocator_traitsINS_9allocatorIdEEE8max_sizeB8ne180100IS2_vvEEmRKS2_
FNA:4,0,_ZNSt3__116allocator_traitsINS_9allocatorIhEEE8max_sizeB8ne180100IS2_vvEEmRKS2_
FNA:4,132,_ZNSt3__116allocator_traitsINS_9allocatorIiEEE8max_sizeB8ne180100IS2_vvEEmRKS2_
FNA:4,2,_ZNSt3__116allocator_traitsINS_9allocatorImEEE8max_sizeB8ne180100IS2_vvEEmRKS2_
FNL:5,339,340
FNA:5,4,_ZNSt3__116allocator_traitsINS_9allocatorIN7pyfolio11attribution17SectorAttributionEEEE37select_on_container_copy_constructionB8ne180100IS5_vvEES5_RKS5_
FNA:5,101,_ZNSt3__116allocator_traitsINS_9allocatorIN7pyfolio8DateTimeEEEE37select_on_container_copy_constructionB8ne180100IS4_vvEES4_RKS4_
FNA:5,0,_ZNSt3__116allocator_traitsINS_9allocatorIN7testing8internal13edit_distance8EditTypeEEEE37select_on_container_copy_constructionB8ne180100IS6_vvEES6_RKS6_
FNA:5,48,_ZNSt3__116allocator_traitsINS_9allocatorIN8nlohmann16json_abi_v3_11_310basic_jsonINS_3mapENS_6vectorENS_12basic_stringIcNS_11char_traitsIcEENS1_IcEEEEbxydS1_NS3_14adl_serializerENS6_IhNS1_IhEEEEvEEEEE37select_on_container_copy_constructionB8ne180100ISG_vvEESG_RKSG_
FNA:5,59,_ZNSt3__116allocator_traitsINS_9allocatorINS_11__tree_nodeINS_12__value_typeINS_12basic_stringIcNS_11char_traitsIcEENS1_IcEEEEN8nlohmann16json_abi_v3_11_310basic_jsonINS_3mapENS_6vectorES8_bxydS1_NSA_14adl_serializerENSD_IhNS1_IhEEEEvEEEEPvEEEEE37select_on_container_copy_constructionB8ne180100ISL_vvEESL_RKSL_
FNA:5,34,_ZNSt3__116allocator_traitsINS_9allocatorINS_12basic_stringIcNS_11char_traitsIcEENS1_IcEEEEEEE37select_on_container_copy_constructionB8ne180100IS7_vvEES7_RKS7_
FNA:5,219,_ZNSt3__116allocator_traitsINS_9allocatorIcEEE37select_on_container_copy_constructionB8ne180100IS2_vvEES2_RKS2_
FNA:5,137,_ZNSt3__116allocator_traitsINS_9allocatorIdEEE37select_on_container_copy_constructionB8ne180100IS2_vvEES2_RKS2_
FNA:5,0,_ZNSt3__116allocator_traitsINS_9allocatorIhEEE37select_on_container_copy_constructionB8ne180100IS2_vvEES2_RKS2_
FNF:6
FNH:6
DA:268,4105
DA:269,4105
DA:288,9605
DA:289,9605
DA:290,9605
DA:304,113375
DA:305,113375
DA:306,113375
DA:315,268638
DA:316,268638
DA:317,268638
DA:326,16074
DA:327,16074
DA:339,602
DA:340,602
LF:15
LH:15
end_of_record
TN:
SF:/Library/Developer/CommandLineTools/SDKs/MacOSX.sdk/usr/include/c++/v1/__memory/compressed_pair.h
FNL:0,114,115
FNA:0,0,_ZNSt3__117__compressed_pairINS_15__tree_end_nodeIPNS_16__tree_node_baseIPvEEEENS_9allocatorINS_11__tree_nodeINS_12__value_typeIN7pyfolio8DateTimeENS_6vectorIdNS7_IdEEEEEES3_EEEEEC1B8ne180100ILb1EvEEv
FNA:0,0,_ZNSt3__117__compressed_pairINS_15__tree_end_nodeIPNS_16__tree_node_baseIPvEEEENS_9allocatorINS_11__tree_nodeINS_12__value_typeIN7pyfolio8DateTimeENS_6vectorIdNS7_IdEEEEEES3_EEEEEC2B8ne180100ILb1EvEEv
FNA:0,13,_ZNSt3__117__compressed_pairINS_15__tree_end_nodeIPNS_16__tree_node_baseIPvEEEENS_9allocatorINS_11__tree_nodeINS_12__value_typeINS_12basic_stringIcNS_11char_traitsIcEENS7_IcEEEEN7pyfolio9positions7HoldingEEES3_EEEEEC1B8ne180100ILb1EvEEv
FNA:0,13,_ZNSt3__117__compressed_pairINS_15__tree_end_nodeIPNS_16__tree_node_baseIPvEEEENS_9allocatorINS_11__tree_nodeINS_12__value_typeINS_12basic_stringIcNS_11char_traitsIcEENS7_IcEEEEN7pyfolio9positions7HoldingEEES3_EEEEEC2B8ne180100ILb1EvEEv
FNA:0,12,_ZNSt3__117__compressed_pairINS_15__tree_end_nodeIPNS_16__tree_node_baseIPvEEEENS_9allocatorINS_11__tree_nodeINS_12__value_typeINS_12basic_stringIcNS_11char_traitsIcEENS7_IcEEEEN7testing8internal34TypeParameterizedTestSuiteRegistry30TypeParameterizedTestSuiteInfoEEES3_EEEEEC1B8ne180100ILb1EvEEv
FNA:0,12,_ZNSt3__117__compressed_pairINS_15__tree_end_nodeIPNS_16__tree_node_baseIPvEEEENS_9allocatorINS_11__tree_nodeINS_12__value_typeINS_12basic_stringIcNS_11char_traitsIcEENS7_IcEEEEN7testing8internal34TypeParameterizedTestSuiteRegistry30TypeParameterizedTestSuiteInfoEEES3_EEEEEC2B8ne180100ILb1EvEEv
FNA:0,217,_ZNSt3__117__compressed_pairINS_15__tree_end_nodeIPNS_16__tree_node_baseIPvEEEENS_9allocatorINS_11__tree_nodeINS_12__value_typeINS_12basic_stringIcNS_11char_traitsIcEENS7_IcEEEEN8nlohmann16json_abi_v3_11_310basic_jsonINS_3mapENS_6vectorESE_bxydS7_NSG_14adl_serializerENSJ_IhNS7_IhEEEEvEEEES3_EEEEEC1B8ne180100ILb1EvEEv
FNA:0,217,_ZNSt3__117__compressed_pairINS_15__tree_end_nodeIPNS_16__tree_node_baseIPvEEEENS_9allocatorINS_11__tree_nodeINS_12__value_typeINS_12basic_stringIcNS_11char_traitsIcEENS7_IcEEEEN8nlohmann16json_abi_v3_11_310basic_jsonINS_3mapENS_6vectorESE_bxydS7_NSG_14adl_serializerENSJ_IhNS7_IhEEEEvEEEES3_EEEEEC2B8ne180100ILb1EvEEv
FNA:0,14,_ZNSt3__117__compressed_pairINS_15__tree_end_nodeIPNS_16__tree_node_baseIPvEEEENS_9allocatorINS_11__tree_nodeINS_12__value_typeINS_12basic_stringIcNS_11char_traitsIcEENS7_IcEEEEdEES3_EEEEEC1B8ne180100ILb1EvEEv
FNA:0,14,_ZNSt3__117__compressed_pairINS_15__tree_end_nodeIPNS_16__tree_node_baseIPvEEEENS_9allocatorINS_11__tree_nodeINS_12__value_typeINS_12basic_stringIcNS_11char_traitsIcEENS7_IcEEEEdEES3_EEEEEC2B8ne180100ILb1EvEEv
FNA:0,0,_ZNSt3__117__compressed_pairINS_15__tree_end_nodeIPNS_16__tree_node_baseIPvEEEENS_9allocatorINS_11__tree_nodeINS_12__value_typeINS_12basic_stringIcNS_11char_traitsIcEENS7_IcEEEEmEES3_EEEEEC1B8ne180100ILb1EvEEv
FNA:0,0,_ZNSt3__117__compressed_pairINS_15__tree_end_nodeIPNS_16__tree_node_baseIPvEEEENS_9allocatorINS_11__tree_nodeINS_12__value_typeINS_12basic_stringIcNS_11char_traitsIcEENS7_IcEEEEmEES3_EEEEEC2B8ne180100ILb1EvEEv
FNA:0,14,_ZNSt3__117__compressed_pairINS_15__tree_end_nodeIPNS_16__tree_node_baseIPvEEEENS_9allocatorINS_11__tree_nodeINS_12basic_stringIcNS_11char_traitsIcEENS7_IcEEEES3_EEEEEC1B8ne180100ILb1EvEEv
FNA:0,14,_ZNSt3__117__compressed_pairINS_15__tree_end_nodeIPNS_16__tree_node_baseIPvEEEENS_9allocatorINS_11__tree_nodeINS_12basic_stringIcNS_11char_traitsIcEENS7_IcEEEES3_EEEEEC2B8ne180100ILb1EvEEv
FNA:0,13,_ZNSt3__117__compressed_pairINS_15__tree_end_nodeIPNS_16__tree_node_baseIPvEEEENS_9allocatorINS_11__tree_nodeINS_6chrono14year_month_dayES3_EEEEEC1B8ne180100ILb1EvEEv
FNA:0,13,_ZNSt3__117__compressed_pairINS_15__tree_end_nodeIPNS_16__tree_node_baseIPvEEEENS_9allocatorINS_11__tree_nodeINS_6chrono14year_month_dayES3_EEEEEC2B8ne180100ILb1EvEEv
FNA:0,59,_ZNSt3__117__compressed_pairINS_16__hash_node_baseIPNS_11__hash_nodeINS_12basic_stringIcNS_11char_traitsIcEENS_9allocatorIcEEEEPvEEEENS6_ISA_EEEC1B8ne180100ILb1EvEEv
FNA:0,59,_ZNSt3__117__compressed_pairINS_16__hash_node_baseIPNS_11__hash_nodeINS_12basic_stringIcNS_11char_traitsIcEENS_9allocatorIcEEEEPvEEEENS6_ISA_EEEC2B8ne180100ILb1EvEEv
FNA:0,2,_ZNSt3__117__compressed_pairINS_16__hash_node_baseIPNS_11__hash_nodeINS_17__hash_value_typeIiNS_6vectorIdNS_9allocatorIdEEEEEEPvEEEENS5_ISA_EEEC1B8ne180100ILb1EvEEv
FNA:0,2,_ZNSt3__117__compressed_pairINS_16__hash_node_baseIPNS_11__hash_nodeINS_17__hash_value_typeIiNS_6vectorIdNS_9allocatorIdEEEEEEPvEEEENS5_ISA_EEEC2B8ne180100ILb1EvEEv
FNL:1,118,119
FNA:1,7889,_ZNSt3__117__compressed_pairINS_12basic_stringIcNS_11char_traitsIcEENS_9allocatorIcEEE5__repES5_EC1B8ne180100INS_16__value_init_tagENS_18__default_init_tagEEEOT_OT0_
FNA:1,4903,_ZNSt3__117__compressed_pairINS_12basic_stringIcNS_11char_traitsIcEENS_9allocatorIcEEE5__repES5_EC1B8ne180100INS_18__default_init_tagERKS5_EEOT_OT0_
FNA:1,5187,_ZNSt3__117__compressed_pairINS_12basic_stringIcNS_11char_traitsIcEENS_9allocatorIcEEE5__repES5_EC1B8ne180100INS_18__default_init_tagESA_EEOT_OT0_
FNA:1,7889,_ZNSt3__117__compressed_pairINS_12basic_stringIcNS_11char_traitsIcEENS_9allocatorIcEEE5__repES5_EC2B8ne180100INS_16__value_init_tagENS_18__default_init_tagEEEOT_OT0_
FNA:1,4903,_ZNSt3__117__compressed_pairINS_12basic_stringIcNS_11char_traitsIcEENS_9allocatorIcEEE5__repES5_EC2B8ne180100INS_18__default_init_tagERKS5_EEOT_OT0_
FNA:1,5187,_ZNSt3__117__compressed_pairINS_12basic_stringIcNS_11char_traitsIcEENS_9allocatorIcEEE5__repES5_EC2B8ne180100INS_18__default_init_tagESA_EEOT_OT0_
FNA:1,0,_ZNSt3__117__compressed_pairINS_12basic_stringIwNS_11char_traitsIwEENS_9allocatorIwEEE5__repES5_EC1B8ne180100INS_18__default_init_tagESA_EEOT_OT0_
FNA:1,0,_ZNSt3__117__compressed_pairINS_12basic_stringIwNS_11char_traitsIwEENS_9allocatorIwEEE5__repES5_EC2B8ne180100INS_18__default_init_tagESA_EEOT_OT0_
FNA:1,59,_ZNSt3__117__compressed_pairINS_15__tree_end_nodeIPNS_16__tree_node_baseIPvEEEENS_9allocatorINS_11__tree_nodeINS_12__value_typeINS_12basic_stringIcNS_11char_traitsIcEENS7_IcEEEEN8nlohmann16json_abi_v3_11_310basic_jsonINS_3mapENS_6vectorESE_bxydS7_NSG_14adl_serializerENSJ_IhNS7_IhEEEEvEEEES3_EEEEEC1B8ne180100INS_18__default_init_tagESQ_EEOT_OT0_
FNA:1,59,_ZNSt3__117__compressed_pairINS_15__tree_end_nodeIPNS_16__tree_node_baseIPvEEEENS_9allocatorINS_11__tree_nodeINS_12__value_typeINS_12basic_stringIcNS_11char_traitsIcEENS7_IcEEEEN8nlohmann16json_abi_v3_11_310basic_jsonINS_3mapENS_6vectorESE_bxydS7_NSG_14adl_serializerENSJ_IhNS7_IhEEEEvEEEES3_EEEEEC2B8ne180100INS_18__default_init_tagESQ_EEOT_OT0_
FNA:1,275,_ZNSt3__117__compressed_pairIPKNS_12basic_stringIcNS_11char_traitsIcEENS_9allocatorIcEEEENS_14default_deleteIS7_EEEC1B8ne180100IRS8_NS_16__value_init_tagEEEOT_OT0_
FNA:1,275,_ZNSt3__117__compressed_pairIPKNS_12basic_stringIcNS_11char_traitsIcEENS_9allocatorIcEEEENS_14default_deleteIS7_EEEC2B8ne180100IRS8_NS_16__value_init_tagEEEOT_OT0_
FNA:1,10,_ZNSt3__117__compressed_pairIPN7pyfolio10TimeSeriesIdEENS_9allocatorIS3_EEEC1B8ne180100IDnNS_18__default_init_tagEEEOT_OT0_
FNA:1,10,_ZNSt3__117__compressed_pairIPN7pyfolio10TimeSeriesIdEENS_9allocatorIS3_EEEC2B8ne180100IDnNS_18__default_init_tagEEEOT_OT0_
FNA:1,20,_ZNSt3__117__compressed_pairIPN7pyfolio10TimeSeriesIdEERNS_9allocatorIS3_EEEC1B8ne180100IDnS7_EEOT_OT0_
FNA:1,20,_ZNSt3__117__compressed_pairIPN7pyfolio10TimeSeriesIdEERNS_9allocatorIS3_EEEC2B8ne180100IDnS7_EEOT_OT0_
FNA:1,2,_ZNSt3__117__compressed_pairIPN7pyfolio11attribution17SectorAttributionENS_9allocatorIS3_EEEC1B8ne180100IDnNS_18__default_init_tagEEEOT_OT0_
FNA:1,4,_ZNSt3__117__compressed_pairIPN7pyfolio11attribution17SectorAttributionENS_9allocatorIS3_EEEC1B8ne180100IDnS6_EEOT_OT0_
FNA:1,2,_ZNSt3__117__compressed_pairIPN7pyfolio11attribution17SectorAttributionENS_9allocatorIS3_EEEC2B8ne180100IDnNS_18__default_init_tagEEEOT_OT0_
FNA:1,4,_ZNSt3__117__compressed_pairIPN7pyfolio11attribution17SectorAttributionENS_9allocatorIS3_EEEC2B8ne180100IDnS6_EEOT_OT0_
FNA:1,6,_ZNSt3__117__compressed_pairIPN7pyfolio11attribution17SectorAttributionERNS_9allocatorIS3_EEEC1B8ne180100IDnS7_EEOT_OT0_
FNA:1,6,_ZNSt3__117__compressed_pairIPN7pyfolio11attribution17SectorAttributionERNS_9allocatorIS3_EEEC2B8ne180100IDnS7_EEOT_OT0_
FNA:1,12,_ZNSt3__117__compressed_pairIPN7pyfolio13visualization8PlotDataENS_9allocatorIS3_EEEC1B8ne180100IDnNS_18__default_init_tagEEEOT_OT0_
FNA:1,12,_ZNSt3__117__compressed_pairIPN7pyfolio13visualization8PlotDataENS_9allocatorIS3_EEEC2B8ne180100IDnNS_18__default_init_tagEEEOT_OT0_
FNA:1,9,_ZNSt3__117__compressed_pairIPN7pyfolio13visualization8PlotDataERNS_9allocatorIS3_EEEC1B8ne180100IDnS7_EEOT_OT0_
FNA:1,9,_ZNSt3__117__compressed_pairIPN7pyfolio13visualization8PlotDataERNS_9allocatorIS3_EEEC2B8ne180100IDnS7_EEOT_OT0_
FNA:1,218,_ZNSt3__117__compressed_pairIPN7pyfolio8DateTimeENS_9allocatorIS2_EEEC1B8ne180100IDnNS_18__default_init_tagEEEOT_OT0_
FNA:1,181,_ZNSt3__117__compressed_pairIPN7pyfolio8DateTimeENS_9allocatorIS2_EEEC1B8ne180100IDnS5_EEOT_OT0_
FNA:1,218,_ZNSt3__117__compressed_pairIPN7pyfolio8DateTimeENS_9allocatorIS2_EEEC2B8ne180100IDnNS_18__default_init_tagEEEOT_OT0_
FNA:1,181,_ZNSt3__117__compressed_pairIPN7pyfolio8DateTimeENS_9allocatorIS2_EEEC2B8ne180100IDnS5_EEOT_OT0_
FNA:1,930,_ZNSt3__117__compressed_pairIPN7pyfolio8DateTimeERNS_9allocatorIS2_EEEC1B8ne180100IDnS6_EEOT_OT0_
FNA:1,930,_ZNSt3__117__compressed_pairIPN7pyfolio8DateTimeERNS_9allocatorIS2_EEEC2B8ne180100IDnS6_EEOT_OT0_
FNA:1,13,_ZNSt3__117__compressed_pairIPN7pyfolio9positions17PortfolioHoldingsENS_14default_deleteIS3_EEEC1B8ne180100INS_16__value_init_tagES9_EEOT_OT0_
FNA:1,13,_ZNSt3__117__compressed_pairIPN7pyfolio9positions17PortfolioHoldingsENS_14default_deleteIS3_EEEC1B8ne180100IRS4_NS_16__value_init_tagEEEOT_OT0_
FNA:1,13,_ZNSt3__117__compressed_pairIPN7pyfolio9positions17PortfolioHoldingsENS_14default_deleteIS3_EEEC2B8ne180100INS_16__value_init_tagES9_EEOT_OT0_
FNA:1,13,_ZNSt3__117__compressed_pairIPN7pyfolio9positions17PortfolioHoldingsENS_14default_deleteIS3_EEEC2B8ne180100IRS4_NS_16__value_init_tagEEEOT_OT0_
FNA:1,155,_ZNSt3__117__compressed_pairIPN7testing12TestPropertyENS_9allocatorIS2_EEEC1B8ne180100IDnNS_18__default_init_tagEEEOT_OT0_
FNA:1,155,_ZNSt3__117__compressed_pairIPN7testing12TestPropertyENS_9allocatorIS2_EEEC2B8ne180100IDnNS_18__default_init_tagEEEOT_OT0_
FNA:1,0,_ZNSt3__117__compressed_pairIPN7testing12TestPropertyERNS_9allocatorIS2_EEEC1B8ne180100IDnS6_EEOT_OT0_
FNA:1,0,_ZNSt3__117__compressed_pairIPN7testing12TestPropertyERNS_9allocatorIS2_EEEC2B8ne180100IDnS6_EEOT_OT0_
FNA:1,155,_ZNSt3__117__compressed_pairIPN7testing14TestPartResultENS_9allocatorIS2_EEEC1B8ne180100IDnNS_18__default_init_tagEEEOT_OT0_
FNA:1,155,_ZNSt3__117__compressed_pairIPN7testing14TestPartResultENS_9allocatorIS2_EEEC2B8ne180100IDnNS_18__default_init_tagEEEOT_OT0_
FNA:1,26,_ZNSt3__117__compressed_pairIPN7testing14TestPartResultERNS_9allocatorIS2_EEEC1B8ne180100IDnS6_EEOT_OT0_
FNA:1,26,_ZNSt3__117__compressed_pairIPN7testing14TestPartResultERNS_9allocatorIS2_EEEC2B8ne180100IDnS6_EEOT_OT0_
FNA:1,12,_ZNSt3__117__compressed_pairIPN7testing8internal11ThreadLocalINS_6vectorINS2_9TraceInfoENS_9allocatorIS5_EEEEE18ValueHolderFactoryENS_14default_deleteISA_EEEC1B8ne180100IRSB_NS_16__value_init_tagEEEOT_OT0_
FNA:1,12,_ZNSt3__117__compressed_pairIPN7testing8internal11ThreadLocalINS_6vectorINS2_9TraceInfoENS_9allocatorIS5_EEEEE18ValueHolderFactoryENS_14default_deleteISA_EEEC2B8ne180100IRSB_NS_16__value_init_tagEEEOT_OT0_
FNA:1,12,_ZNSt3__117__compressed_pairIPN7testing8internal11ThreadLocalIPNS1_31TestPartResultReporterInterfaceEE18ValueHolderFactoryENS_14default_deleteIS7_EEEC1B8ne180100IRS8_NS_16__value_init_tagEEEOT_OT0_
FNA:1,12,_ZNSt3__117__compressed_pairIPN7testing8internal11ThreadLocalIPNS1_31TestPartResultReporterInterfaceEE18ValueHolderFactoryENS_14default_deleteIS7_EEEC2B8ne180100IRS8_NS_16__value_init_tagEEEOT_OT0_
FNA:1,0,_ZNSt3__117__compressed_pairIPN7testing8internal13edit_distance8EditTypeENS_9allocatorIS4_EEEC1B8ne180100IDnNS_18__default_init_tagEEEOT_OT0_
FNA:1,0,_ZNSt3__117__compressed_pairIPN7testing8internal13edit_distance8EditTypeENS_9allocatorIS4_EEEC1B8ne180100IDnS7_EEOT_OT0_
FNA:1,0,_ZNSt3__117__compressed_pairIPN7testing8internal13edit_distance8EditTypeENS_9allocatorIS4_EEEC2B8ne180100IDnNS_18__default_init_tagEEEOT_OT0_
FNA:1,0,_ZNSt3__117__compressed_pairIPN7testing8internal13edit_distance8EditTypeENS_9allocatorIS4_EEEC2B8ne180100IDnS7_EEOT_OT0_
FNA:1,0,_ZNSt3__117__compressed_pairIPN7testing8internal13edit_distance8EditTypeERNS_9allocatorIS4_EEEC1B8ne180100IDnS8_EEOT_OT0_
FNA:1,0,_ZNSt3__117__compressed_pairIPN7testing8internal13edit_distance8EditTypeERNS_9allocatorIS4_EEEC2B8ne180100IDnS8_EEOT_OT0_
FNA:1,132,_ZNSt3__117__compressed_pairIPN7testing8internal14GTestFlagSaverENS_14default_deleteIS3_EEEC1B8ne180100IRS4_NS_16__value_init_tagEEEOT_OT0_
FNA:1,132,_ZNSt3__117__compressed_pairIPN7testing8internal14GTestFlagSaverENS_14default_deleteIS3_EEEC2B8ne180100IRS4_NS_16__value_init_tagEEEOT_OT0_
FNA:1,12,_ZNSt3__117__compressed_pairIPN7testing8internal16DeathTestFactoryENS_14default_deleteIS3_EEEC1B8ne180100IRS4_NS_16__value_init_tagEEEOT_OT0_
FNA:1,12,_ZNSt3__117__compressed_pairIPN7testing8internal16DeathTestFactoryENS_14default_deleteIS3_EEEC2B8ne180100IRS4_NS_16__value_init_tagEEEOT_OT0_
FNA:1,12,_ZNSt3__117__compressed_pairIPN7testing8internal24InternalRunDeathTestFlagENS_14default_deleteIS3_EEEC1B8ne180100INS_16__value_init_tagES9_EEOT_OT0_
FNA:1,12,_ZNSt3__117__compressed_pairIPN7testing8internal24InternalRunDeathTestFlagENS_14default_deleteIS3_EEEC2B8ne180100INS_16__value_init_tagES9_EEOT_OT0_
FNA:1,6,_ZNSt3__117__compressed_pairIPN7testing8internal9TraceInfoENS_9allocatorIS3_EEEC1B8ne180100IDnNS_18__default_init_tagEEEOT_OT0_
FNA:1,6,_ZNSt3__117__compressed_pairIPN7testing8internal9TraceInfoENS_9allocatorIS3_EEEC2B8ne180100IDnNS_18__default_init_tagEEEOT_OT0_
FNA:1,0,_ZNSt3__117__compressed_pairIPN7testing8internal9TraceInfoERNS_9allocatorIS3_EEEC1B8ne180100IDnS7_EEOT_OT0_
FNA:1,0,_ZNSt3__117__compressed_pairIPN7testing8internal9TraceInfoERNS_9allocatorIS3_EEEC2B8ne180100IDnS7_EEOT_OT0_
FNA:1,1700,_ZNSt3__117__compressed_pairIPN8nlohmann16json_abi_v3_11_310basic_jsonINS_3mapENS_6vectorENS_12basic_stringIcNS_11char_traitsIcEENS_9allocatorIcEEEEbxydS9_NS2_14adl_serializerENS5_IhNS9_IhEEEEvEENS9_ISF_EEEC1B8ne180100IDnNS_18__default_init_tagEEEOT_OT0_
FNA:1,48,_ZNSt3__117__compressed_pairIPN8nlohmann16json_abi_v3_11_310basic_jsonINS_3mapENS_6vectorENS_12basic_stringIcNS_11char_traitsIcEENS_9allocatorIcEEEEbxydS9_NS2_14adl_serializerENS5_IhNS9_IhEEEEvEENS9_ISF_EEEC1B8ne180100IDnSH_EEOT_OT0_
FNA:1,1700,_ZNSt3__117__compressed_pairIPN8nlohmann16json_abi_v3_11_310basic_jsonINS_3mapENS_6vectorENS_12basic_stringIcNS_11char_traitsIcEENS_9allocatorIcEEEEbxydS9_NS2_14adl_serializerENS5_IhNS9_IhEEEEvEENS9_ISF_EEEC2B8ne180100IDnNS_18__default_init_tagEEEOT_OT0_
FNA:1,48,_ZNSt3__117__compressed_pairIPN8nlohmann16json_abi_v3_11_310basic_jsonINS_3mapENS_6vectorENS_12basic_stringIcNS_11char_traitsIcEENS_9allocatorIcEEEEbxydS9_NS2_14adl_serializerENS5_IhNS9_IhEEEEvEENS9_ISF_EEEC2B8ne180100IDnSH_EEOT_OT0_
FNA:1,905,_ZNSt3__117__compressed_pairIPN8nlohmann16json_abi_v3_11_310basic_jsonINS_3mapENS_6vectorENS_12basic_stringIcNS_11char_traitsIcEENS_9allocatorIcEEEEbxydS9_NS2_14adl_serializerENS5_IhNS9_IhEEEEvEERNS9_ISF_EEEC1B8ne180100IDnSI_EEOT_OT0_
FNA:1,905,_ZNSt3__117__compressed_pairIPN8nlohmann16json_abi_v3_11_310basic_jsonINS_3mapENS_6vectorENS_12basic_stringIcNS_11char_traitsIcEENS_9allocatorIcEEEEbxydS9_NS2_14adl_serializerENS5_IhNS9_IhEEEEvEERNS9_ISF_EEEC2B8ne180100IDnSI_EEOT_OT0_
FNA:1,0,_ZNSt3__117__compressed_pairIPN8nlohmann16json_abi_v3_11_327byte_container_with_subtypeINS_6vectorIhNS_9allocatorIhEEEEEEZNS2_10basic_jsonINS_3mapES4_NS_12basic_stringIcNS_11char_traitsIcEENS5_IcEEEEbxydS5_NS2_14adl_serializerES7_vE6createIS8_JEEEPT_DpOT0_EUlS9_E_EC1B8ne180100IRS9_RKSP_EEOSK_OT0_
FNA:1,0,_ZNSt3__117__compressed_pairIPN8nlohmann16json_abi_v3_11_327byte_container_with_subtypeINS_6vectorIhNS_9allocatorIhEEEEEEZNS2_10basic_jsonINS_3mapES4_NS_12basic_stringIcNS_11char_traitsIcEENS5_IcEEEEbxydS5_NS2_14adl_serializerES7_vE6createIS8_JEEEPT_DpOT0_EUlS9_E_EC2B8ne180100IRS9_RKSP_EEOSK_OT0_
FNA:1,0,_ZNSt3__117__compressed_pairIPN8nlohmann16json_abi_v3_11_327byte_container_with_subtypeINS_6vectorIhNS_9allocatorIhEEEEEEZNS2_10basic_jsonINS_3mapES4_NS_12basic_stringIcNS_11char_traitsIcEENS5_IcEEEEbxydS5_NS2_14adl_serializerES7_vE6createIS8_JRKS8_EEEPT_DpOT0_EUlS9_E_EC1B8ne180100IRS9_RKSR_EEOSM_OT0_
FNA:1,0,_ZNSt3__117__compressed_pairIPN8nlohmann16json_abi_v3_11_327byte_container_with_subtypeINS_6vectorIhNS_9allocatorIhEEEEEEZNS2_10basic_jsonINS_3mapES4_NS_12basic_stringIcNS_11char_traitsIcEENS5_IcEEEEbxydS5_NS2_14adl_serializerES7_vE6createIS8_JRKS8_EEEPT_DpOT0_EUlS9_E_EC2B8ne180100IRS9_RKSR_EEOSM_OT0_
FNA:1,0,_ZNSt3__117__compressed_pairIPNS_10__function6__funcIZNK7pyfolio10TimeSeriesIdE8resampleENS3_9FrequencyEEUlRKNS_6vectorIdNS_9allocatorIdEEEEE_NS8_ISD_EEFdSC_EEENS_22__allocator_destructorINS8_ISG_EEEEEC1B8ne180100IRSH_SK_EEOT_OT0_
FNA:1,0,_ZNSt3__117__compressed_pairIPNS_10__function6__funcIZNK7pyfolio10TimeSeriesIdE8resampleENS3_9FrequencyEEUlRKNS_6vectorIdNS_9allocatorIdEEEEE_NS8_ISD_EEFdSC_EEENS_22__allocator_destructorINS8_ISG_EEEEEC2B8ne180100IRSH_SK_EEOT_OT0_
FNA:1,0,_ZNSt3__117__compressed_pairIPNS_11__hash_nodeINS_12basic_stringIcNS_11char_traitsIcEENS_9allocatorIcEEEEPvEENS_22__hash_node_destructorINS5_IS9_EEEEEC1B8ne180100IRSA_SD_EEOT_OT0_
FNA:1,0,_ZNSt3__117__compressed_pairIPNS_11__hash_nodeINS_12basic_stringIcNS_11char_traitsIcEENS_9allocatorIcEEEEPvEENS_22__hash_node_destructorINS5_IS9_EEEEEC2B8ne180100IRSA_SD_EEOT_OT0_
FNA:1,2,_ZNSt3__117__compressed_pairIPNS_11__hash_nodeINS_17__hash_value_typeIiNS_6vectorIdNS_9allocatorIdEEEEEEPvEENS_22__hash_node_destructorINS4_IS9_EEEEEC1B8ne180100IRSA_SD_EEOT_OT0_
FNA:1,2,_ZNSt3__117__compressed_pairIPNS_11__hash_nodeINS_17__hash_value_typeIiNS_6vectorIdNS_9allocatorIdEEEEEEPvEENS_22__hash_node_destructorINS4_IS9_EEEEEC2B8ne180100IRSA_SD_EEOT_OT0_
FNA:1,0,_ZNSt3__117__compressed_pairIPNS_11__tree_nodeINS_12__value_typeIN7pyfolio8DateTimeENS_6vectorIdNS_9allocatorIdEEEEEEPvEENS_22__tree_node_destructorINS6_ISB_EEEEEC1B8ne180100IRSC_SF_EEOT_OT0_
FNA:1,0,_ZNSt3__117__compressed_pairIPNS_11__tree_nodeINS_12__value_typeIN7pyfolio8DateTimeENS_6vectorIdNS_9allocatorIdEEEEEEPvEENS_22__tree_node_destructorINS6_ISB_EEEEEC2B8ne180100IRSC_SF_EEOT_OT0_
FNA:1,39,_ZNSt3__117__compressed_pairIPNS_11__tree_nodeINS_12__value_typeINS_12basic_stringIcNS_11char_traitsIcEENS_9allocatorIcEEEEN7pyfolio9positions7HoldingEEEPvEENS_22__tree_node_destructorINS6_ISE_EEEEEC1B8ne180100IRSF_SI_EEOT_OT0_
FNA:1,39,_ZNSt3__117__compressed_pairIPNS_11__tree_nodeINS_12__value_typeINS_12basic_stringIcNS_11char_traitsIcEENS_9allocatorIcEEEEN7pyfolio9positions7HoldingEEEPvEENS_22__tree_node_destructorINS6_ISE_EEEEEC2B8ne180100IRSF_SI_EEOT_OT0_
FNA:1,0,_ZNSt3__117__compressed_pairIPNS_11__tree_nodeINS_12__value_typeINS_12basic_stringIcNS_11char_traitsIcEENS_9allocatorIcEEEEN7testing8internal34TypeParameterizedTestSuiteRegistry30TypeParameterizedTestSuiteInfoEEEPvEENS_22__tree_node_destructorINS6_ISF_EEEEEC1B8ne180100IRSG_SJ_EEOT_OT0_
FNA:1,0,_ZNSt3__117__compressed_pairIPNS_11__tree_nodeINS_12__value_typeINS_12basic_stringIcNS_11char_traitsIcEENS_9allocatorIcEEEEN7testing8internal34TypeParameterizedTestSuiteRegistry30TypeParameterizedTestSuiteInfoEEEPvEENS_22__tree_node_destructorINS6_ISF_EEEEEC2B8ne180100IRSG_SJ_EEOT_OT0_
FNA:1,846,_ZNSt3__117__compressed_pairIPNS_11__tree_nodeINS_12__value_typeINS_12basic_stringIcNS_11char_traitsIcEENS_9allocatorIcEEEEN8nlohmann16json_abi_v3_11_310basic_jsonINS_3mapENS_6vectorES8_bxydS6_NSA_14adl_serializerENSD_IhNS6_IhEEEEvEEEEPvEENS_22__tree_node_destructorINS6_ISK_EEEEEC1B8ne180100IRSL_SO_EEOT_OT0_
FNA:1,846,_ZNSt3__117__compressed_pairIPNS_11__tree_nodeINS_12__value_typeINS_12basic_stringIcNS_11char_traitsIcEENS_9allocatorIcEEEEN8nlohmann16json_abi_v3_11_310basic_jsonINS_3mapENS_6vectorES8_bxydS6_NSA_14adl_serializerENSD_IhNS6_IhEEEEvEEEEPvEENS_22__tree_node_destructorINS6_ISK_EEEEEC2B8ne180100IRSL_SO_EEOT_OT0_
FNA:1,53,_ZNSt3__117__compressed_pairIPNS_11__tree_nodeINS_12__value_typeINS_12basic_stringIcNS_11char_traitsIcEENS_9allocatorIcEEEEdEEPvEENS_22__tree_node_destructorINS6_ISB_EEEEEC1B8ne180100IRSC_SF_EEOT_OT0_
FNA:1,53,_ZNSt3__117__compressed_pairIPNS_11__tree_nodeINS_12__value_typeINS_12basic_stringIcNS_11char_traitsIcEENS_9allocatorIcEEEEdEEPvEENS_22__tree_node_destructorINS6_ISB_EEEEEC2B8ne180100IRSC_SF_EEOT_OT0_
FNA:1,0,_ZNSt3__117__compressed_pairIPNS_11__tree_nodeINS_12__value_typeINS_12basic_stringIcNS_11char_traitsIcEENS_9allocatorIcEEEEmEEPvEENS_22__tree_node_destructorINS6_ISB_EEEEEC1B8ne180100IRSC_SF_EEOT_OT0_
FNA:1,0,_ZNSt3__117__compressed_pairIPNS_11__tree_nodeINS_12__value_typeINS_12basic_stringIcNS_11char_traitsIcEENS_9allocatorIcEEEEmEEPvEENS_22__tree_node_destructorINS6_ISB_EEEEEC2B8ne180100IRSC_SF_EEOT_OT0_
FNA:1,8,_ZNSt3__117__compressed_pairIPNS_11__tree_nodeINS_12basic_stringIcNS_11char_traitsIcEENS_9allocatorIcEEEEPvEENS_22__tree_node_destructorINS5_IS9_EEEEEC1B8ne180100IRSA_SD_EEOT_OT0_
FNA:1,8,_ZNSt3__117__compressed_pairIPNS_11__tree_nodeINS_12basic_stringIcNS_11char_traitsIcEENS_9allocatorIcEEEEPvEENS_22__tree_node_destructorINS5_IS9_EEEEEC2B8ne180100IRSA_SD_EEOT_OT0_
FNA:1,78,_ZNSt3__117__compressed_pairIPNS_11__tree_nodeINS_6chrono14year_month_dayEPvEENS_22__tree_node_destructorINS_9allocatorIS5_EEEEEC1B8ne180100IRS6_SA_EEOT_OT0_
FNA:1,78,_ZNSt3__117__compressed_pairIPNS_11__tree_nodeINS_6chrono14year_month_dayEPvEENS_22__tree_node_destructorINS_9allocatorIS5_EEEEEC2B8ne180100IRS6_SA_EEOT_OT0_
FNA:1,228,_ZNSt3__117__compressed_pairIPNS_12basic_stringIcNS_11char_traitsIcEENS_9allocatorIcEEEENS4_IS6_EEEC1B8ne180100IDnNS_18__default_init_tagEEEOT_OT0_
FNA:1,34,_ZNSt3__117__compressed_pairIPNS_12basic_stringIcNS_11char_traitsIcEENS_9allocatorIcEEEENS4_IS6_EEEC1B8ne180100IDnS8_EEOT_OT0_
FNA:1,228,_ZNSt3__117__compressed_pairIPNS_12basic_stringIcNS_11char_traitsIcEENS_9allocatorIcEEEENS4_IS6_EEEC2B8ne180100IDnNS_18__default_init_tagEEEOT_OT0_
FNA:1,34,_ZNSt3__117__compressed_pairIPNS_12basic_stringIcNS_11char_traitsIcEENS_9allocatorIcEEEENS4_IS6_EEEC2B8ne180100IDnS8_EEOT_OT0_
FNA:1,3261,_ZNSt3__117__compressed_pairIPNS_12basic_stringIcNS_11char_traitsIcEENS_9allocatorIcEEEENS_14default_deleteIS6_EEEC1B8ne180100INS_16__value_init_tagESC_EEOT_OT0_
FNA:1,116,_ZNSt3__117__compressed_pairIPNS_12basic_stringIcNS_11char_traitsIcEENS_9allocatorIcEEEENS_14default_deleteIS6_EEEC1B8ne180100IRS7_NS_16__value_init_tagEEEOT_OT0_
FNA:1,3261,_ZNSt3__117__compressed_pairIPNS_12basic_stringIcNS_11char_traitsIcEENS_9allocatorIcEEEENS_14default_deleteIS6_EEEC2B8ne180100INS_16__value_init_tagESC_EEOT_OT0_
FNA:1,116,_ZNSt3__117__compressed_pairIPNS_12basic_stringIcNS_11char_traitsIcEENS_9allocatorIcEEEENS_14default_deleteIS6_EEEC2B8ne180100IRS7_NS_16__value_init_tagEEEOT_OT0_
FNA:1,141,_ZNSt3__117__compressed_pairIPNS_12basic_stringIcNS_11char_traitsIcEENS_9allocatorIcEEEERNS4_IS6_EEEC1B8ne180100IDnS9_EEOT_OT0_
FNA:1,141,_ZNSt3__117__compressed_pairIPNS_12basic_stringIcNS_11char_traitsIcEENS_9allocatorIcEEEERNS4_IS6_EEEC2B8ne180100IDnS9_EEOT_OT0_
FNA:1,18,_ZNSt3__117__compressed_pairIPNS_12basic_stringIcNS_11char_traitsIcEENS_9allocatorIcEEEEZN8nlohmann16json_abi_v3_11_310basic_jsonINS_3mapENS_6vectorES6_bxydS4_NS9_14adl_serializerENSC_IhNS4_IhEEEEvE6createIS6_JRA10_KcEEEPT_DpOT0_EUlS7_E_EC1B8ne180100IRS7_RKSQ_EEOSL_OT0_
FNA:1,18,_ZNSt3__117__compressed_pairIPNS_12basic_stringIcNS_11char_traitsIcEENS_9allocatorIcEEEEZN8nlohmann16json_abi_v3_11_310basic_jsonINS_3mapENS_6vectorES6_bxydS4_NS9_14adl_serializerENSC_IhNS4_IhEEEEvE6createIS6_JRA10_KcEEEPT_DpOT0_EUlS7_E_EC2B8ne180100IRS7_RKSQ_EEOSL_OT0_
FNA:1,25,_ZNSt3__117__compressed_pairIPNS_12basic_stringIcNS_11char_traitsIcEENS_9allocatorIcEEEEZN8nlohmann16json_abi_v3_11_310basic_jsonINS_3mapENS_6vectorES6_bxydS4_NS9_14adl_serializerENSC_IhNS4_IhEEEEvE6createIS6_JRA11_KcEEEPT_DpOT0_EUlS7_E_EC1B8ne180100IRS7_RKSQ_EEOSL_OT0_
FNA:1,25,_ZNSt3__117__compressed_pairIPNS_12basic_stringIcNS_11char_traitsIcEENS_9allocatorIcEEEEZN8nlohmann16json_abi_v3_11_310basic_jsonINS_3mapENS_6vectorES6_bxydS4_NS9_14adl_serializerENSC_IhNS4_IhEEEEvE6createIS6_JRA11_KcEEEPT_DpOT0_EUlS7_E_EC2B8ne180100IRS7_RKSQ_EEOSL_OT0_
FNA:1,24,_ZNSt3__117__compressed_pairIPNS_12basic_stringIcNS_11char_traitsIcEENS_9allocatorIcEEEEZN8nlohmann16json_abi_v3_11_310basic_jsonINS_3mapENS_6vectorES6_bxydS4_NS9_14adl_serializerENSC_IhNS4_IhEEEEvE6createIS6_JRA12_KcEEEPT_DpOT0_EUlS7_E_EC1B8ne180100IRS7_RKSQ_EEOSL_OT0_
FNA:1,24,_ZNSt3__117__compressed_pairIPNS_12basic_stringIcNS_11char_traitsIcEENS_9allocatorIcEEEEZN8nlohmann16json_abi_v3_11_310basic_jsonINS_3mapENS_6vectorES6_bxydS4_NS9_14adl_serializerENSC_IhNS4_IhEEEEvE6createIS6_JRA12_KcEEEPT_DpOT0_EUlS7_E_EC2B8ne180100IRS7_RKSQ_EEOSL_OT0_
FNA:1,7,_ZNSt3__117__compressed_pairIPNS_12basic_stringIcNS_11char_traitsIcEENS_9allocatorIcEEEEZN8nlohmann16json_abi_v3_11_310basic_jsonINS_3mapENS_6vectorES6_bxydS4_NS9_14adl_serializerENSC_IhNS4_IhEEEEvE6createIS6_JRA14_KcEEEPT_DpOT0_EUlS7_E_EC1B8ne180100IRS7_RKSQ_EEOSL_OT0_
FNA:1,7,_ZNSt3__117__compressed_pairIPNS_12basic_stringIcNS_11char_traitsIcEENS_9allocatorIcEEEEZN8nlohmann16json_abi_v3_11_310basic_jsonINS_3mapENS_6vectorES6_bxydS4_NS9_14adl_serializerENSC_IhNS4_IhEEEEvE6createIS6_JRA14_KcEEEPT_DpOT0_EUlS7_E_EC2B8ne180100IRS7_RKSQ_EEOSL_OT0_
FNA:1,11,_ZNSt3__117__compressed_pairIPNS_12basic_stringIcNS_11char_traitsIcEENS_9allocatorIcEEEEZN8nlohmann16json_abi_v3_11_310basic_jsonINS_3mapENS_6vectorES6_bxydS4_NS9_14adl_serializerENSC_IhNS4_IhEEEEvE6createIS6_JRA15_KcEEEPT_DpOT0_EUlS7_E_EC1B8ne180100IRS7_RKSQ_EEOSL_OT0_
FNA:1,11,_ZNSt3__117__compressed_pairIPNS_12basic_stringIcNS_11char_traitsIcEENS_9allocatorIcEEEEZN8nlohmann16json_abi_v3_11_310basic_jsonINS_3mapENS_6vectorES6_bxydS4_NS9_14adl_serializerENSC_IhNS4_IhEEEEvE6createIS6_JRA15_KcEEEPT_DpOT0_EUlS7_E_EC2B8ne180100IRS7_RKSQ_EEOSL_OT0_
FNA:1,4,_ZNSt3__117__compressed_pairIPNS_12basic_stringIcNS_11char_traitsIcEENS_9allocatorIcEEEEZN8nlohmann16json_abi_v3_11_310basic_jsonINS_3mapENS_6vectorES6_bxydS4_NS9_14adl_serializerENSC_IhNS4_IhEEEEvE6createIS6_JRA1_KcEEEPT_DpOT0_EUlS7_E_EC1B8ne180100IRS7_RKSQ_EEOSL_OT0_
FNA:1,4,_ZNSt3__117__compressed_pairIPNS_12basic_stringIcNS_11char_traitsIcEENS_9allocatorIcEEEEZN8nlohmann16json_abi_v3_11_310basic_jsonINS_3mapENS_6vectorES6_bxydS4_NS9_14adl_serializerENSC_IhNS4_IhEEEEvE6createIS6_JRA1_KcEEEPT_DpOT0_EUlS7_E_EC2B8ne180100IRS7_RKSQ_EEOSL_OT0_
FNA:1,1,_ZNSt3__117__compressed_pairIPNS_12basic_stringIcNS_11char_traitsIcEENS_9allocatorIcEEEEZN8nlohmann16json_abi_v3_11_310basic_jsonINS_3mapENS_6vectorES6_bxydS4_NS9_14adl_serializerENSC_IhNS4_IhEEEEvE6createIS6_JRA20_KcEEEPT_DpOT0_EUlS7_E_EC1B8ne180100IRS7_RKSQ_EEOSL_OT0_
FNA:1,1,_ZNSt3__117__compressed_pairIPNS_12basic_stringIcNS_11char_traitsIcEENS_9allocatorIcEEEEZN8nlohmann16json_abi_v3_11_310basic_jsonINS_3mapENS_6vectorES6_bxydS4_NS9_14adl_serializerENSC_IhNS4_IhEEEEvE6createIS6_JRA20_KcEEEPT_DpOT0_EUlS7_E_EC2B8ne180100IRS7_RKSQ_EEOSL_OT0_
FNA:1,1,_ZNSt3__117__compressed_pairIPNS_12basic_stringIcNS_11char_traitsIcEENS_9allocatorIcEEEEZN8nlohmann16json_abi_v3_11_310basic_jsonINS_3mapENS_6vectorES6_bxydS4_NS9_14adl_serializerENSC_IhNS4_IhEEEEvE6createIS6_JRA22_KcEEEPT_DpOT0_EUlS7_E_EC1B8ne180100IRS7_RKSQ_EEOSL_OT0_
FNA:1,1,_ZNSt3__117__compressed_pairIPNS_12basic_stringIcNS_11char_traitsIcEENS_9allocatorIcEEEEZN8nlohmann16json_abi_v3_11_310basic_jsonINS_3mapENS_6vectorES6_bxydS4_NS9_14adl_serializerENSC_IhNS4_IhEEEEvE6createIS6_JRA22_KcEEEPT_DpOT0_EUlS7_E_EC2B8ne180100IRS7_RKSQ_EEOSL_OT0_
FNA:1,12,_ZNSt3__117__compressed_pairIPNS_12basic_stringIcNS_11char_traitsIcEENS_9allocatorIcEEEEZN8nlohmann16json_abi_v3_11_310basic_jsonINS_3mapENS_6vectorES6_bxydS4_NS9_14adl_serializerENSC_IhNS4_IhEEEEvE6createIS6_JRA23_KcEEEPT_DpOT0_EUlS7_E_EC1B8ne180100IRS7_RKSQ_EEOSL_OT0_
FNA:1,12,_ZNSt3__117__compressed_pairIPNS_12basic_stringIcNS_11char_traitsIcEENS_9allocatorIcEEEEZN8nlohmann16json_abi_v3_11_310basic_jsonINS_3mapENS_6vectorES6_bxydS4_NS9_14adl_serializerENSC_IhNS4_IhEEEEvE6createIS6_JRA23_KcEEEPT_DpOT0_EUlS7_E_EC2B8ne180100IRS7_RKSQ_EEOSL_OT0_
FNA:1,1,_ZNSt3__117__compressed_pairIPNS_12basic_stringIcNS_11char_traitsIcEENS_9allocatorIcEEEEZN8nlohmann16json_abi_v3_11_310basic_jsonINS_3mapENS_6vectorES6_bxydS4_NS9_14adl_serializerENSC_IhNS4_IhEEEEvE6createIS6_JRA27_KcEEEPT_DpOT0_EUlS7_E_EC1B8ne180100IRS7_RKSQ_EEOSL_OT0_
FNA:1,1,_ZNSt3__117__compressed_pairIPNS_12basic_stringIcNS_11char_traitsIcEENS_9allocatorIcEEEEZN8nlohmann16json_abi_v3_11_310basic_jsonINS_3mapENS_6vectorES6_bxydS4_NS9_14adl_serializerENSC_IhNS4_IhEEEEvE6createIS6_JRA27_KcEEEPT_DpOT0_EUlS7_E_EC2B8ne180100IRS7_RKSQ_EEOSL_OT0_
FNA:1,154,_ZNSt3__117__compressed_pairIPNS_12basic_stringIcNS_11char_traitsIcEENS_9allocatorIcEEEEZN8nlohmann16json_abi_v3_11_310basic_jsonINS_3mapENS_6vectorES6_bxydS4_NS9_14adl_serializerENSC_IhNS4_IhEEEEvE6createIS6_JRA2_KcEEEPT_DpOT0_EUlS7_E_EC1B8ne180100IRS7_RKSQ_EEOSL_OT0_
FNA:1,154,_ZNSt3__117__compressed_pairIPNS_12basic_stringIcNS_11char_traitsIcEENS_9allocatorIcEEEEZN8nlohmann16json_abi_v3_11_310basic_jsonINS_3mapENS_6vectorES6_bxydS4_NS9_14adl_serializerENSC_IhNS4_IhEEEEvE6createIS6_JRA2_KcEEEPT_DpOT0_EUlS7_E_EC2B8ne180100IRS7_RKSQ_EEOSL_OT0_
FNA:1,2,_ZNSt3__117__compressed_pairIPNS_12basic_stringIcNS_11char_traitsIcEENS_9allocatorIcEEEEZN8nlohmann16json_abi_v3_11_310basic_jsonINS_3mapENS_6vectorES6_bxydS4_NS9_14adl_serializerENSC_IhNS4_IhEEEEvE6createIS6_JRA35_KcEEEPT_DpOT0_EUlS7_E_EC1B8ne180100IRS7_RKSQ_EEOSL_OT0_
FNA:1,2,_ZNSt3__117__compressed_pairIPNS_12basic_stringIcNS_11char_traitsIcEENS_9allocatorIcEEEEZN8nlohmann16json_abi_v3_11_310basic_jsonINS_3mapENS_6vectorES6_bxydS4_NS9_14adl_serializerENSC_IhNS4_IhEEEEvE6createIS6_JRA35_KcEEEPT_DpOT0_EUlS7_E_EC2B8ne180100IRS7_RKSQ_EEOSL_OT0_
FNA:1,41,_ZNSt3__117__compressed_pairIPNS_12basic_stringIcNS_11char_traitsIcEENS_9allocatorIcEEEEZN8nlohmann16json_abi_v3_11_310basic_jsonINS_3mapENS_6vectorES6_bxydS4_NS9_14adl_serializerENSC_IhNS4_IhEEEEvE6createIS6_JRA3_KcEEEPT_DpOT0_EUlS7_E_EC1B8ne180100IRS7_RKSQ_EEOSL_OT0_
FNA:1,41,_ZNSt3__117__compressed_pairIPNS_12basic_stringIcNS_11char_traitsIcEENS_9allocatorIcEEEEZN8nlohmann16json_abi_v3_11_310basic_jsonINS_3mapENS_6vectorES6_bxydS4_NS9_14adl_serializerENSC_IhNS4_IhEEEEvE6createIS6_JRA3_KcEEEPT_DpOT0_EUlS7_E_EC2B8ne180100IRS7_RKSQ_EEOSL_OT0_
FNA:1,2,_ZNSt3__117__compressed_pairIPNS_12basic_stringIcNS_11char_traitsIcEENS_9allocatorIcEEEEZN8nlohmann16json_abi_v3_11_310basic_jsonINS_3mapENS_6vectorES6_bxydS4_NS9_14adl_serializerENSC_IhNS4_IhEEEEvE6createIS6_JRA45_KcEEEPT_DpOT0_EUlS7_E_EC1B8ne180100IRS7_RKSQ_EEOSL_OT0_
FNA:1,2,_ZNSt3__117__compressed_pairIPNS_12basic_stringIcNS_11char_traitsIcEENS_9allocatorIcEEEEZN8nlohmann16json_abi_v3_11_310basic_jsonINS_3mapENS_6vectorES6_bxydS4_NS9_14adl_serializerENSC_IhNS4_IhEEEEvE6createIS6_JRA45_KcEEEPT_DpOT0_EUlS7_E_EC2B8ne180100IRS7_RKSQ_EEOSL_OT0_
FNA:1,42,_ZNSt3__117__compressed_pairIPNS_12basic_stringIcNS_11char_traitsIcEENS_9allocatorIcEEEEZN8nlohmann16json_abi_v3_11_310basic_jsonINS_3mapENS_6vectorES6_bxydS4_NS9_14adl_serializerENSC_IhNS4_IhEEEEvE6createIS6_JRA4_KcEEEPT_DpOT0_EUlS7_E_EC1B8ne180100IRS7_RKSQ_EEOSL_OT0_
FNA:1,42,_ZNSt3__117__compressed_pairIPNS_12basic_stringIcNS_11char_traitsIcEENS_9allocatorIcEEEEZN8nlohmann16json_abi_v3_11_310basic_jsonINS_3mapENS_6vectorES6_bxydS4_NS9_14adl_serializerENSC_IhNS4_IhEEEEvE6createIS6_JRA4_KcEEEPT_DpOT0_EUlS7_E_EC2B8ne180100IRS7_RKSQ_EEOSL_OT0_
FNA:1,2,_ZNSt3__117__compressed_pairIPNS_12basic_stringIcNS_11char_traitsIcEENS_9allocatorIcEEEEZN8nlohmann16json_abi_v3_11_310basic_jsonINS_3mapENS_6vectorES6_bxydS4_NS9_14adl_serializerENSC_IhNS4_IhEEEEvE6createIS6_JRA53_KcEEEPT_DpOT0_EUlS7_E_EC1B8ne180100IRS7_RKSQ_EEOSL_OT0_
FNA:1,2,_ZNSt3__117__compressed_pairIPNS_12basic_stringIcNS_11char_traitsIcEENS_9allocatorIcEEEEZN8nlohmann16json_abi_v3_11_310basic_jsonINS_3mapENS_6vectorES6_bxydS4_NS9_14adl_serializerENSC_IhNS4_IhEEEEvE6createIS6_JRA53_KcEEEPT_DpOT0_EUlS7_E_EC2B8ne180100IRS7_RKSQ_EEOSL_OT0_
FNA:1,150,_ZNSt3__117__compressed_pairIPNS_12basic_stringIcNS_11char_traitsIcEENS_9allocatorIcEEEEZN8nlohmann16json_abi_v3_11_310basic_jsonINS_3mapENS_6vectorES6_bxydS4_NS9_14adl_serializerENSC_IhNS4_IhEEEEvE6createIS6_JRA5_KcEEEPT_DpOT0_EUlS7_E_EC1B8ne180100IRS7_RKSQ_EEOSL_OT0_
FNA:1,150,_ZNSt3__117__compressed_pairIPNS_12basic_stringIcNS_11char_traitsIcEENS_9allocatorIcEEEEZN8nlohmann16json_abi_v3_11_310basic_jsonINS_3mapENS_6vectorES6_bxydS4_NS9_14adl_serializerENSC_IhNS4_IhEEEEvE6createIS6_JRA5_KcEEEPT_DpOT0_EUlS7_E_EC2B8ne180100IRS7_RKSQ_EEOSL_OT0_
FNA:1,124,_ZNSt3__117__compressed_pairIPNS_12basic_stringIcNS_11char_traitsIcEENS_9allocatorIcEEEEZN8nlohmann16json_abi_v3_11_310basic_jsonINS_3mapENS_6vectorES6_bxydS4_NS9_14adl_serializerENSC_IhNS4_IhEEEEvE6createIS6_JRA6_KcEEEPT_DpOT0_EUlS7_E_EC1B8ne180100IRS7_RKSQ_EEOSL_OT0_
FNA:1,124,_ZNSt3__117__compressed_pairIPNS_12basic_stringIcNS_11char_traitsIcEENS_9allocatorIcEEEEZN8nlohmann16json_abi_v3_11_310basic_jsonINS_3mapENS_6vectorES6_bxydS4_NS9_14adl_serializerENSC_IhNS4_IhEEEEvE6createIS6_JRA6_KcEEEPT_DpOT0_EUlS7_E_EC2B8ne180100IRS7_RKSQ_EEOSL_OT0_
FNA:1,1,_ZNSt3__117__compressed_pairIPNS_12basic_stringIcNS_11char_traitsIcEENS_9allocatorIcEEEEZN8nlohmann16json_abi_v3_11_310basic_jsonINS_3mapENS_6vectorES6_bxydS4_NS9_14adl_serializerENSC_IhNS4_IhEEEEvE6createIS6_JRA72_KcEEEPT_DpOT0_EUlS7_E_EC1B8ne180100IRS7_RKSQ_EEOSL_OT0_
FNA:1,1,_ZNSt3__117__compressed_pairIPNS_12basic_stringIcNS_11char_traitsIcEENS_9allocatorIcEEEEZN8nlohmann16json_abi_v3_11_310basic_jsonINS_3mapENS_6vectorES6_bxydS4_NS9_14adl_serializerENSC_IhNS4_IhEEEEvE6createIS6_JRA72_KcEEEPT_DpOT0_EUlS7_E_EC2B8ne180100IRS7_RKSQ_EEOSL_OT0_
FNA:1,52,_ZNSt3__117__compressed_pairIPNS_12basic_stringIcNS_11char_traitsIcEENS_9allocatorIcEEEEZN8nlohmann16json_abi_v3_11_310basic_jsonINS_3mapENS_6vectorES6_bxydS4_NS9_14adl_serializerENSC_IhNS4_IhEEEEvE6createIS6_JRA7_KcEEEPT_DpOT0_EUlS7_E_EC1B8ne180100IRS7_RKSQ_EEOSL_OT0_
FNA:1,52,_ZNSt3__117__compressed_pairIPNS_12basic_stringIcNS_11char_traitsIcEENS_9allocatorIcEEEEZN8nlohmann16json_abi_v3_11_310basic_jsonINS_3mapENS_6vectorES6_bxydS4_NS9_14adl_serializerENSC_IhNS4_IhEEEEvE6createIS6_JRA7_KcEEEPT_DpOT0_EUlS7_E_EC2B8ne180100IRS7_RKSQ_EEOSL_OT0_
FNA:1,54,_ZNSt3__117__compressed_pairIPNS_12basic_stringIcNS_11char_traitsIcEENS_9allocatorIcEEEEZN8nlohmann16json_abi_v3_11_310basic_jsonINS_3mapENS_6vectorES6_bxydS4_NS9_14adl_serializerENSC_IhNS4_IhEEEEvE6createIS6_JRA8_KcEEEPT_DpOT0_EUlS7_E_EC1B8ne180100IRS7_RKSQ_EEOSL_OT0_
FNA:1,54,_ZNSt3__117__compressed_pairIPNS_12basic_stringIcNS_11char_traitsIcEENS_9allocatorIcEEEEZN8nlohmann16json_abi_v3_11_310basic_jsonINS_3mapENS_6vectorES6_bxydS4_NS9_14adl_serializerENSC_IhNS4_IhEEEEvE6createIS6_JRA8_KcEEEPT_DpOT0_EUlS7_E_EC2B8ne180100IRS7_RKSQ_EEOSL_OT0_
FNA:1,97,_ZNSt3__117__compressed_pairIPNS_12basic_stringIcNS_11char_traitsIcEENS_9allocatorIcEEEEZN8nlohmann16json_abi_v3_11_310basic_jsonINS_3mapENS_6vectorES6_bxydS4_NS9_14adl_serializerENSC_IhNS4_IhEEEEvE6createIS6_JRA9_KcEEEPT_DpOT0_EUlS7_E_EC1B8ne180100IRS7_RKSQ_EEOSL_OT0_
FNA:1,97,_ZNSt3__117__compressed_pairIPNS_12basic_stringIcNS_11char_traitsIcEENS_9allocatorIcEEEEZN8nlohmann16json_abi_v3_11_310basic_jsonINS_3mapENS_6vectorES6_bxydS4_NS9_14adl_serializerENSC_IhNS4_IhEEEEvE6createIS6_JRA9_KcEEEPT_DpOT0_EUlS7_E_EC2B8ne180100IRS7_RKSQ_EEOSL_OT0_
FNA:1,635,_ZNSt3__117__compressed_pairIPNS_12basic_stringIcNS_11char_traitsIcEENS_9allocatorIcEEEEZN8nlohmann16json_abi_v3_11_310basic_jsonINS_3mapENS_6vectorES6_bxydS4_NS9_14adl_serializerENSC_IhNS4_IhEEEEvE6createIS6_JRKS6_EEEPT_DpOT0_EUlS7_E_EC1B8ne180100IRS7_RKSP_EEOSK_OT0_
FNA:1,635,_ZNSt3__117__compressed_pairIPNS_12basic_stringIcNS_11char_traitsIcEENS_9allocatorIcEEEEZN8nlohmann16json_abi_v3_11_310basic_jsonINS_3mapENS_6vectorES6_bxydS4_NS9_14adl_serializerENSC_IhNS4_IhEEEEvE6createIS6_JRKS6_EEEPT_DpOT0_EUlS7_E_EC2B8ne180100IRS7_RKSP_EEOSK_OT0_
FNA:1,454,_ZNSt3__117__compressed_pairIPNS_12basic_stringIcNS_11char_traitsIcEENS_9allocatorIcEEEEZN8nlohmann16json_abi_v3_11_310basic_jsonINS_3mapENS_6vectorES6_bxydS4_NS9_14adl_serializerENSC_IhNS4_IhEEEEvE6createIS6_JS6_EEEPT_DpOT0_EUlS7_E_EC1B8ne180100IRS7_RKSN_EEOSI_OT0_
FNA:1,454,_ZNSt3__117__compressed_pairIPNS_12basic_stringIcNS_11char_traitsIcEENS_9allocatorIcEEEEZN8nlohmann16json_abi_v3_11_310basic_jsonINS_3mapENS_6vectorES6_bxydS4_NS9_14adl_serializerENSC_IhNS4_IhEEEEvE6createIS6_JS6_EEEPT_DpOT0_EUlS7_E_EC2B8ne180100IRS7_RKSN_EEOSI_OT0_
FNA:1,10,_ZNSt3__117__compressed_pairIPNS_15__thread_structENS_14default_deleteIS1_EEEC1B8ne180100IRS2_NS_16__value_init_tagEEEOT_OT0_
FNA:1,10,_ZNSt3__117__compressed_pairIPNS_15__thread_structENS_14default_deleteIS1_EEEC1B8ne180100IS2_S4_EEOT_OT0_
FNA:1,10,_ZNSt3__117__compressed_pairIPNS_15__thread_structENS_14default_deleteIS1_EEEC2B8ne180100IRS2_NS_16__value_init_tagEEEOT_OT0_
FNA:1,10,_ZNSt3__117__compressed_pairIPNS_15__thread_structENS_14default_deleteIS1_EEEC2B8ne180100IS2_S4_EEOT_OT0_
FNA:1,2376,_ZNSt3__117__compressed_pairIPNS_18basic_stringstreamIcNS_11char_traitsIcEENS_9allocatorIcEEEENS_14default_deleteIS6_EEEC1B8ne180100IRS7_NS_16__value_init_tagEEEOT_OT0_
FNA:1,2376,_ZNSt3__117__compressed_pairIPNS_18basic_stringstreamIcNS_11char_traitsIcEENS_9allocatorIcEEEENS_14default_deleteIS6_EEEC2B8ne180100IRS7_NS_16__value_init_tagEEEOT_OT0_
FNA:1,217,_ZNSt3__117__compressed_pairIPNS_3mapINS_12basic_stringIcNS_11char_traitsIcEENS_9allocatorIcEEEEN8nlohmann16json_abi_v3_11_310basic_jsonIS1_NS_6vectorES7_bxydS5_NS9_14adl_serializerENSB_IhNS5_IhEEEEvEENS_4lessIvEENS5_INS_4pairIKS7_SF_EEEEEEZNSF_6createISM_JEEEPT_DpOT0_EUlSN_E_EC1B8ne180100IRSN_RKSU_EEOSP_OT0_
FNA:1,217,_ZNSt3__117__compressed_pairIPNS_3mapINS_12basic_stringIcNS_11char_traitsIcEENS_9allocatorIcEEEEN8nlohmann16json_abi_v3_11_310basic_jsonIS1_NS_6vectorES7_bxydS5_NS9_14adl_serializerENSB_IhNS5_IhEEEEvEENS_4lessIvEENS5_INS_4pairIKS7_SF_EEEEEEZNSF_6createISM_JEEEPT_DpOT0_EUlSN_E_EC2B8ne180100IRSN_RKSU_EEOSP_OT0_
FNA:1,59,_ZNSt3__117__compressed_pairIPNS_3mapINS_12basic_stringIcNS_11char_traitsIcEENS_9allocatorIcEEEEN8nlohmann16json_abi_v3_11_310basic_jsonIS1_NS_6vectorES7_bxydS5_NS9_14adl_serializerENSB_IhNS5_IhEEEEvEENS_4lessIvEENS5_INS_4pairIKS7_SF_EEEEEEZNSF_6createISM_JRKSM_EEEPT_DpOT0_EUlSN_E_EC1B8ne180100IRSN_RKSW_EEOSR_OT0_
FNA:1,59,_ZNSt3__117__compressed_pairIPNS_3mapINS_12basic_stringIcNS_11char_traitsIcEENS_9allocatorIcEEEEN8nlohmann16json_abi_v3_11_310basic_jsonIS1_NS_6vectorES7_bxydS5_NS9_14adl_serializerENSB_IhNS5_IhEEEEvEENS_4lessIvEENS5_INS_4pairIKS7_SF_EEEEEEZNSF_6createISM_JRKSM_EEEPT_DpOT0_EUlSN_E_EC2B8ne180100IRSN_RKSW_EEOSR_OT0_
FNA:1,0,_ZNSt3__117__compressed_pairIPNS_4pairIN7pyfolio8DateTimeEdEENS_9allocatorIS4_EEEC1B8ne180100IDnNS_18__default_init_tagEEEOT_OT0_
FNA:1,0,_ZNSt3__117__compressed_pairIPNS_4pairIN7pyfolio8DateTimeEdEENS_9allocatorIS4_EEEC2B8ne180100IDnNS_18__default_init_tagEEEOT_OT0_
FNA:1,0,_ZNSt3__117__compressed_pairIPNS_4pairIN7pyfolio8DateTimeEdEERNS_9allocatorIS4_EEEC1B8ne180100IDnS8_EEOT_OT0_
FNA:1,0,_ZNSt3__117__compressed_pairIPNS_4pairIN7pyfolio8DateTimeEdEERNS_9allocatorIS4_EEEC2B8ne180100IDnS8_EEOT_OT0_
FNA:1,20,_ZNSt3__117__compressed_pairIPNS_5tupleIJNS_10unique_ptrINS_15__thread_structENS_14default_deleteIS3_EEEEZN36CoreTypesTest_BasicThreadSafety_Test8TestBodyEvE3$_0EEENS4_IS9_EEEC1B8ne180100IRSA_NS_16__value_init_tagEEEOT_OT0_
FNA:1,20,_ZNSt3__117__compressed_pairIPNS_5tupleIJNS_10unique_ptrINS_15__thread_structENS_14default_deleteIS3_EEEEZN36CoreTypesTest_BasicThreadSafety_Test8TestBodyEvE3$_0EEENS4_IS9_EEEC2B8ne180100IRSA_NS_16__value_init_tagEEEOT_OT0_
FNA:1,1,_ZNSt3__117__compressed_pairIPNS_6threadENS_9allocatorIS1_EEEC1B8ne180100IDnNS_18__default_init_tagEEEOT_OT0_
FNA:1,1,_ZNSt3__117__compressed_pairIPNS_6threadENS_9allocatorIS1_EEEC2B8ne180100IDnNS_18__default_init_tagEEEOT_OT0_
FNA:1,5,_ZNSt3__117__compressed_pairIPNS_6threadERNS_9allocatorIS1_EEEC1B8ne180100IDnS5_EEOT_OT0_
FNA:1,5,_ZNSt3__117__compressed_pairIPNS_6threadERNS_9allocatorIS1_EEEC2B8ne180100IDnS5_EEOT_OT0_
FNA:1,0,_ZNSt3__117__compressed_pairIPNS_6vectorIN7testing8internal13edit_distance8EditTypeENS_9allocatorIS5_EEEENS6_IS8_EEEC1B8ne180100IDnNS_18__default_init_tagEEEOT_OT0_
FNA:1,0,_ZNSt3__117__compressed_pairIPNS_6vectorIN7testing8internal13edit_distance8EditTypeENS_9allocatorIS5_EEEENS6_IS8_EEEC2B8ne180100IDnNS_18__default_init_tagEEEOT_OT0_
FNA:1,0,_ZNSt3__117__compressed_pairIPNS_6vectorIN8nlohmann16json_abi_v3_11_310basic_jsonINS_3mapES1_NS_12basic_stringIcNS_11char_traitsIcEENS_9allocatorIcEEEEbxydS9_NS3_14adl_serializerENS1_IhNS9_IhEEEEvEENS9_ISF_EEEEZNSF_6createISH_JEEEPT_DpOT0_EUlSI_E_EC1B8ne180100IRSI_RKSP_EEOSK_OT0_
FNA:1,0,_ZNSt3__117__compressed_pairIPNS_6vectorIN8nlohmann16json_abi_v3_11_310basic_jsonINS_3mapES1_NS_12basic_stringIcNS_11char_traitsIcEENS_9allocatorIcEEEEbxydS9_NS3_14adl_serializerENS1_IhNS9_IhEEEEvEENS9_ISF_EEEEZNSF_6createISH_JEEEPT_DpOT0_EUlSI_E_EC2B8ne180100IRSI_RKSP_EEOSK_OT0_
FNA:1,3,_ZNSt3__117__compressed_pairIPNS_6vectorIN8nlohmann16json_abi_v3_11_310basic_jsonINS_3mapES1_NS_12basic_stringIcNS_11char_traitsIcEENS_9allocatorIcEEEEbxydS9_NS3_14adl_serializerENS1_IhNS9_IhEEEEvEENS9_ISF_EEEEZNSF_6createISH_JNS_11__wrap_iterIPKNS1_IdNS9_IdEEEEEESP_EEEPT_DpOT0_EUlSI_E_EC1B8ne180100IRSI_RKSV_EEOSQ_OT0_
FNA:1,3,_ZNSt3__117__compressed_pairIPNS_6vectorIN8nlohmann16json_abi_v3_11_310basic_jsonINS_3mapES1_NS_12basic_stringIcNS_11char_traitsIcEENS_9allocatorIcEEEEbxydS9_NS3_14adl_serializerENS1_IhNS9_IhEEEEvEENS9_ISF_EEEEZNSF_6createISH_JNS_11__wrap_iterIPKNS1_IdNS9_IdEEEEEESP_EEEPT_DpOT0_EUlSI_E_EC2B8ne180100IRSI_RKSV_EEOSQ_OT0_
FNA:1,9,_ZNSt3__117__compressed_pairIPNS_6vectorIN8nlohmann16json_abi_v3_11_310basic_jsonINS_3mapES1_NS_12basic_stringIcNS_11char_traitsIcEENS_9allocatorIcEEEEbxydS9_NS3_14adl_serializerENS1_IhNS9_IhEEEEvEENS9_ISF_EEEEZNSF_6createISH_JNS_11__wrap_iterIPKSB_EESN_EEEPT_DpOT0_EUlSI_E_EC1B8ne180100IRSI_RKST_EEOSO_OT0_
FNA:1,9,_ZNSt3__117__compressed_pairIPNS_6vectorIN8nlohmann16json_abi_v3_11_310basic_jsonINS_3mapES1_NS_12basic_stringIcNS_11char_traitsIcEENS_9allocatorIcEEEEbxydS9_NS3_14adl_serializerENS1_IhNS9_IhEEEEvEENS9_ISF_EEEEZNSF_6createISH_JNS_11__wrap_iterIPKSB_EESN_EEEPT_DpOT0_EUlSI_E_EC2B8ne180100IRSI_RKST_EEOSO_OT0_
FNA:1,21,_ZNSt3__117__compressed_pairIPNS_6vectorIN8nlohmann16json_abi_v3_11_310basic_jsonINS_3mapES1_NS_12basic_stringIcNS_11char_traitsIcEENS_9allocatorIcEEEEbxydS9_NS3_14adl_serializerENS1_IhNS9_IhEEEEvEENS9_ISF_EEEEZNSF_6createISH_JNS_11__wrap_iterIPKdEESN_EEEPT_DpOT0_EUlSI_E_EC1B8ne180100IRSI_RKST_EEOSO_OT0_
FNA:1,21,_ZNSt3__117__compressed_pairIPNS_6vectorIN8nlohmann16json_abi_v3_11_310basic_jsonINS_3mapES1_NS_12basic_stringIcNS_11char_traitsIcEENS_9allocatorIcEEEEbxydS9_NS3_14adl_serializerENS1_IhNS9_IhEEEEvEENS9_ISF_EEEEZNSF_6createISH_JNS_11__wrap_iterIPKdEESN_EEEPT_DpOT0_EUlSI_E_EC2B8ne180100IRSI_RKST_EEOSO_OT0_
FNA:1,655,_ZNSt3__117__compressed_pairIPNS_6vectorIN8nlohmann16json_abi_v3_11_310basic_jsonINS_3mapES1_NS_12basic_stringIcNS_11char_traitsIcEENS_9allocatorIcEEEEbxydS9_NS3_14adl_serializerENS1_IhNS9_IhEEEEvEENS9_ISF_EEEEZNSF_6createISH_JPKNS3_6detail8json_refISF_EESO_EEEPT_DpOT0_EUlSI_E_EC1B8ne180100IRSI_RKSU_EEOSP_OT0_
FNA:1,655,_ZNSt3__117__compressed_pairIPNS_6vectorIN8nlohmann16json_abi_v3_11_310basic_jsonINS_3mapES1_NS_12basic_stringIcNS_11char_traitsIcEENS_9allocatorIcEEEEbxydS9_NS3_14adl_serializerENS1_IhNS9_IhEEEEvEENS9_ISF_EEEEZNSF_6createISH_JPKNS3_6detail8json_refISF_EESO_EEEPT_DpOT0_EUlSI_E_EC2B8ne180100IRSI_RKSU_EEOSP_OT0_
FNA:1,48,_ZNSt3__117__compressed_pairIPNS_6vectorIN8nlohmann16json_abi_v3_11_310basic_jsonINS_3mapES1_NS_12basic_stringIcNS_11char_traitsIcEENS_9allocatorIcEEEEbxydS9_NS3_14adl_serializerENS1_IhNS9_IhEEEEvEENS9_ISF_EEEEZNSF_6createISH_JRKSH_EEEPT_DpOT0_EUlSI_E_EC1B8ne180100IRSI_RKSR_EEOSM_OT0_
FNA:1,48,_ZNSt3__117__compressed_pairIPNS_6vectorIN8nlohmann16json_abi_v3_11_310basic_jsonINS_3mapES1_NS_12basic_stringIcNS_11char_traitsIcEENS_9allocatorIcEEEEbxydS9_NS3_14adl_serializerENS1_IhNS9_IhEEEEvEENS9_ISF_EEEEZNSF_6createISH_JRKSH_EEEPT_DpOT0_EUlSI_E_EC2B8ne180100IRSI_RKSR_EEOSM_OT0_
FNA:1,4,_ZNSt3__117__compressed_pairIPNS_6vectorIdNS_9allocatorIdEEEENS2_IS4_EEEC1B8ne180100IDnNS_18__default_init_tagEEEOT_OT0_
FNA:1,4,_ZNSt3__117__compressed_pairIPNS_6vectorIdNS_9allocatorIdEEEENS2_IS4_EEEC2B8ne180100IDnNS_18__default_init_tagEEEOT_OT0_
FNA:1,5,_ZNSt3__117__compressed_pairIPNS_6vectorIdNS_9allocatorIdEEEERNS2_IS4_EEEC1B8ne180100IDnS7_EEOT_OT0_
FNA:1,5,_ZNSt3__117__compressed_pairIPNS_6vectorIdNS_9allocatorIdEEEERNS2_IS4_EEEC2B8ne180100IDnS7_EEOT_OT0_
FNA:1,12,_ZNSt3__117__compressed_pairIPPN7testing11EnvironmentENS_9allocatorIS3_EEEC1B8ne180100IDnNS_18__default_init_tagEEEOT_OT0_
FNA:1,12,_ZNSt3__117__compressed_pairIPPN7testing11EnvironmentENS_9allocatorIS3_EEEC2B8ne180100IDnNS_18__default_init_tagEEEOT_OT0_
FNA:1,0,_ZNSt3__117__compressed_pairIPPN7testing11EnvironmentERNS_9allocatorIS3_EEEC1B8ne180100IDnS7_EEOT_OT0_
FNA:1,0,_ZNSt3__117__compressed_pairIPPN7testing11EnvironmentERNS_9allocatorIS3_EEEC2B8ne180100IDnS7_EEOT_OT0_
FNA:1,12,_ZNSt3__117__compressed_pairIPPN7testing17TestEventListenerENS_9allocatorIS3_EEEC1B8ne180100IDnNS_18__default_init_tagEEEOT_OT0_
FNA:1,12,_ZNSt3__117__compressed_pairIPPN7testing17TestEventListenerENS_9allocatorIS3_EEEC2B8ne180100IDnNS_18__default_init_tagEEEOT_OT0_
FNA:1,12,_ZNSt3__117__compressed_pairIPPN7testing17TestEventListenerERNS_9allocatorIS3_EEEC1B8ne180100IDnS7_EEOT_OT0_
FNA:1,12,_ZNSt3__117__compressed_pairIPPN7testing17TestEventListenerERNS_9allocatorIS3_EEEC2B8ne180100IDnS7_EEOT_OT0_
FNA:1,11,_ZNSt3__117__compressed_pairIPPN7testing8TestInfoENS_9allocatorIS3_EEEC1B8ne180100IDnNS_18__default_init_tagEEEOT_OT0_
FNA:1,11,_ZNSt3__117__compressed_pairIPPN7testing8TestInfoENS_9allocatorIS3_EEEC2B8ne180100IDnNS_18__default_init_tagEEEOT_OT0_
FNA:1,54,_ZNSt3__117__compressed_pairIPPN7testing8TestInfoERNS_9allocatorIS3_EEEC1B8ne180100IDnS7_EEOT_OT0_
FNA:1,54,_ZNSt3__117__compressed_pairIPPN7testing8TestInfoERNS_9allocatorIS3_EEEC2B8ne180100IDnS7_EEOT_OT0_
FNA:1,12,_ZNSt3__117__compressed_pairIPPN7testing8internal30ParameterizedTestSuiteInfoBaseENS_9allocatorIS4_EEEC1B8ne180100IDnNS_18__default_init_tagEEEOT_OT0_
FNA:1,12,_ZNSt3__117__compressed_pairIPPN7testing8internal30ParameterizedTestSuiteInfoBaseENS_9allocatorIS4_EEEC2B8ne180100IDnNS_18__default_init_tagEEEOT_OT0_
FNA:1,12,_ZNSt3__117__compressed_pairIPPN7testing9TestSuiteENS_9allocatorIS3_EEEC1B8ne180100IDnNS_18__default_init_tagEEEOT_OT0_
FNA:1,12,_ZNSt3__117__compressed_pairIPPN7testing9TestSuiteENS_9allocatorIS3_EEEC2B8ne180100IDnNS_18__default_init_tagEEEOT_OT0_
FNA:1,11,_ZNSt3__117__compressed_pairIPPN7testing9TestSuiteERNS_9allocatorIS3_EEEC1B8ne180100IDnS7_EEOT_OT0_
FNA:1,11,_ZNSt3__117__compressed_pairIPPN7testing9TestSuiteERNS_9allocatorIS3_EEEC2B8ne180100IDnS7_EEOT_OT0_
FNA:1,59,_ZNSt3__117__compressed_pairIPPNS_16__hash_node_baseIPNS_11__hash_nodeINS_12basic_stringIcNS_11char_traitsIcEENS_9allocatorIcEEEEPvEEEENS_25__bucket_list_deallocatorINS6_ISD_EEEEEC1B8ne180100INS_16__value_init_tagESK_EEOT_OT0_
FNA:1,59,_ZNSt3__117__compressed_pairIPPNS_16__hash_node_baseIPNS_11__hash_nodeINS_12basic_stringIcNS_11char_traitsIcEENS_9allocatorIcEEEEPvEEEENS_25__bucket_list_deallocatorINS6_ISD_EEEEEC2B8ne180100INS_16__value_init_tagESK_EEOT_OT0_
FNA:1,2,_ZNSt3__117__compressed_pairIPPNS_16__hash_node_baseIPNS_11__hash_nodeINS_17__hash_value_typeIiNS_6vectorIdNS_9allocatorIdEEEEEEPvEEEENS_25__bucket_list_deallocatorINS5_ISD_EEEEEC1B8ne180100INS_16__value_init_tagESK_EEOT_OT0_
FNA:1,2,_ZNSt3__117__compressed_pairIPPNS_16__hash_node_baseIPNS_11__hash_nodeINS_17__hash_value_typeIiNS_6vectorIdNS_9allocatorIdEEEEEEPvEEEENS_25__bucket_list_deallocatorINS5_ISD_EEEEEC2B8ne180100INS_16__value_init_tagESK_EEOT_OT0_
FNA:1,0,_ZNSt3__117__compressed_pairIPPcNS_9allocatorIS1_EEEC1B8ne180100IDnNS_18__default_init_tagEEEOT_OT0_
FNA:1,0,_ZNSt3__117__compressed_pairIPPcNS_9allocatorIS1_EEEC2B8ne180100IDnNS_18__default_init_tagEEEOT_OT0_
FNA:1,0,_ZNSt3__117__compressed_pairIPPcRNS_9allocatorIS1_EEEC1B8ne180100IDnS5_EEOT_OT0_
FNA:1,0,_ZNSt3__117__compressed_pairIPPcRNS_9allocatorIS1_EEEC2B8ne180100IDnS5_EEOT_OT0_
FNA:1,1308,_ZNSt3__117__compressed_pairIPdNS_9allocatorIdEEEC1B8ne180100IDnNS_18__default_init_tagEEEOT_OT0_
FNA:1,232,_ZNSt3__117__compressed_pairIPdNS_9allocatorIdEEEC1B8ne180100IDnS3_EEOT_OT0_
FNA:1,1308,_ZNSt3__117__compressed_pairIPdNS_9allocatorIdEEEC2B8ne180100IDnNS_18__default_init_tagEEEOT_OT0_
FNA:1,232,_ZNSt3__117__compressed_pairIPdNS_9allocatorIdEEEC2B8ne180100IDnS3_EEOT_OT0_
FNA:1,2369,_ZNSt3__117__compressed_pairIPdRNS_9allocatorIdEEEC1B8ne180100IDnS4_EEOT_OT0_
FNA:1,2369,_ZNSt3__117__compressed_pairIPdRNS_9allocatorIdEEEC2B8ne180100IDnS4_EEOT_OT0_
FNA:1,0,_ZNSt3__117__compressed_pairIPhNS_9allocatorIhEEEC1B8ne180100IDnNS_18__default_init_tagEEEOT_OT0_
FNA:1,0,_ZNSt3__117__compressed_pairIPhNS_9allocatorIhEEEC1B8ne180100IDnS3_EEOT_OT0_
FNA:1,0,_ZNSt3__117__compressed_pairIPhNS_9allocatorIhEEEC2B8ne180100IDnNS_18__default_init_tagEEEOT_OT0_
FNA:1,0,_ZNSt3__117__compressed_pairIPhNS_9allocatorIhEEEC2B8ne180100IDnS3_EEOT_OT0_
FNA:1,24,_ZNSt3__117__compressed_pairIPiNS_9allocatorIiEEEC1B8ne180100IDnNS_18__default_init_tagEEEOT_OT0_
FNA:1,24,_ZNSt3__117__compressed_pairIPiNS_9allocatorIiEEEC2B8ne180100IDnNS_18__default_init_tagEEEOT_OT0_
FNA:1,65,_ZNSt3__117__compressed_pairIPiRNS_9allocatorIiEEEC1B8ne180100IDnS4_EEOT_OT0_
FNA:1,65,_ZNSt3__117__compressed_pairIPiRNS_9allocatorIiEEEC2B8ne180100IDnS4_EEOT_OT0_
FNA:1,1,_ZNSt3__117__compressed_pairIPmNS_9allocatorImEEEC1B8ne180100IDnNS_18__default_init_tagEEEOT_OT0_
FNA:1,1,_ZNSt3__117__compressed_pairIPmNS_9allocatorImEEEC2B8ne180100IDnNS_18__default_init_tagEEEOT_OT0_
FNA:1,0,_ZNSt3__117__compressed_pairIPmRNS_9allocatorImEEEC1B8ne180100IDnS4_EEOT_OT0_
FNA:1,0,_ZNSt3__117__compressed_pairIPmRNS_9allocatorImEEEC2B8ne180100IDnS4_EEOT_OT0_
FNA:1,2,_ZNSt3__117__compressed_pairIfNS_21__unordered_map_equalIiNS_17__hash_value_typeIiNS_6vectorIdNS_9allocatorIdEEEEEENS_8equal_toIiEENS_4hashIiEELb1EEEEC1B8ne180100IfNS_18__default_init_tagEEEOT_OT0_
FNA:1,2,_ZNSt3__117__compressed_pairIfNS_21__unordered_map_equalIiNS_17__hash_value_typeIiNS_6vectorIdNS_9allocatorIdEEEEEENS_8equal_toIiEENS_4hashIiEELb1EEEEC2B8ne180100IfNS_18__default_init_tagEEEOT_OT0_
FNA:1,59,_ZNSt3__117__compressed_pairIfNS_8equal_toINS_12basic_stringIcNS_11char_traitsIcEENS_9allocatorIcEEEEEEEC1B8ne180100IfNS_18__default_init_tagEEEOT_OT0_
FNA:1,59,_ZNSt3__117__compressed_pairIfNS_8equal_toINS_12basic_stringIcNS_11char_traitsIcEENS_9allocatorIcEEEEEEEC2B8ne180100IfNS_18__default_init_tagEEEOT_OT0_
FNA:1,0,_ZNSt3__117__compressed_pairImNS_19__map_value_compareIN7pyfolio8DateTimeENS_12__value_typeIS3_NS_6vectorIdNS_9allocatorIdEEEEEENS_4lessIS3_EELb1EEEEC1B8ne180100IiRKSC_EEOT_OT0_
FNA:1,0,_ZNSt3__117__compressed_pairImNS_19__map_value_compareIN7pyfolio8DateTimeENS_12__value_typeIS3_NS_6vectorIdNS_9allocatorIdEEEEEENS_4lessIS3_EELb1EEEEC2B8ne180100IiRKSC_EEOT_OT0_
FNA:1,13,_ZNSt3__117__compressed_pairImNS_19__map_value_compareINS_12basic_stringIcNS_11char_traitsIcEENS_9allocatorIcEEEENS_12__value_typeIS7_N7pyfolio9positions7HoldingEEENS_4lessIS7_EELb1EEEEC1B8ne180100IiRKSF_EEOT_OT0_
FNA:1,13,_ZNSt3__117__compressed_pairImNS_19__map_value_compareINS_12basic_stringIcNS_11char_traitsIcEENS_9allocatorIcEEEENS_12__value_typeIS7_N7pyfolio9positions7HoldingEEENS_4lessIS7_EELb1EEEEC2B8ne180100IiRKSF_EEOT_OT0_
FNA:1,12,_ZNSt3__117__compressed_pairImNS_19__map_value_compareINS_12basic_stringIcNS_11char_traitsIcEENS_9allocatorIcEEEENS_12__value_typeIS7_N7testing8internal34TypeParameterizedTestSuiteRegistry30TypeParameterizedTestSuiteInfoEEENS_4lessIS7_EELb1EEEEC1B8ne180100IiRKSG_EEOT_OT0_
FNA:1,12,_ZNSt3__117__compressed_pairImNS_19__map_value_compareINS_12basic_stringIcNS_11char_traitsIcEENS_9allocatorIcEEEENS_12__value_typeIS7_N7testing8internal34TypeParameterizedTestSuiteRegistry30TypeParameterizedTestSuiteInfoEEENS_4lessIS7_EELb1EEEEC2B8ne180100IiRKSG_EEOT_OT0_
FNA:1,276,_ZNSt3__117__compressed_pairImNS_19__map_value_compareINS_12basic_stringIcNS_11char_traitsIcEENS_9allocatorIcEEEENS_12__value_typeIS7_N8nlohmann16json_abi_v3_11_310basic_jsonINS_3mapENS_6vectorES7_bxydS5_NSA_14adl_serializerENSD_IhNS5_IhEEEEvEEEENS_4lessIvEELb1EEEEC1B8ne180100IiRKSL_EEOT_OT0_
FNA:1,276,_ZNSt3__117__compressed_pairImNS_19__map_value_compareINS_12basic_stringIcNS_11char_traitsIcEENS_9allocatorIcEEEENS_12__value_typeIS7_N8nlohmann16json_abi_v3_11_310basic_jsonINS_3mapENS_6vectorES7_bxydS5_NSA_14adl_serializerENSD_IhNS5_IhEEEEvEEEENS_4lessIvEELb1EEEEC2B8ne180100IiRKSL_EEOT_OT0_
FNA:1,14,_ZNSt3__117__compressed_pairImNS_19__map_value_compareINS_12basic_stringIcNS_11char_traitsIcEENS_9allocatorIcEEEENS_12__value_typeIS7_dEENS_4lessIS7_EELb1EEEEC1B8ne180100IiRKSC_EEOT_OT0_
FNA:1,14,_ZNSt3__117__compressed_pairImNS_19__map_value_compareINS_12basic_stringIcNS_11char_traitsIcEENS_9allocatorIcEEEENS_12__value_typeIS7_dEENS_4lessIS7_EELb1EEEEC2B8ne180100IiRKSC_EEOT_OT0_
FNA:1,0,_ZNSt3__117__compressed_pairImNS_19__map_value_compareINS_12basic_stringIcNS_11char_traitsIcEENS_9allocatorIcEEEENS_12__value_typeIS7_mEENS_4lessIS7_EELb1EEEEC1B8ne180100IiRKSC_EEOT_OT0_
FNA:1,0,_ZNSt3__117__compressed_pairImNS_19__map_value_compareINS_12basic_stringIcNS_11char_traitsIcEENS_9allocatorIcEEEENS_12__value_typeIS7_mEENS_4lessIS7_EELb1EEEEC2B8ne180100IiRKSC_EEOT_OT0_
FNA:1,2,_ZNSt3__117__compressed_pairImNS_22__unordered_map_hasherIiNS_17__hash_value_typeIiNS_6vectorIdNS_9allocatorIdEEEEEENS_4hashIiEENS_8equal_toIiEELb1EEEEC1B8ne180100IiNS_18__default_init_tagEEEOT_OT0_
FNA:1,2,_ZNSt3__117__compressed_pairImNS_22__unordered_map_hasherIiNS_17__hash_value_typeIiNS_6vectorIdNS_9allocatorIdEEEEEENS_4hashIiEENS_8equal_toIiEELb1EEEEC2B8ne180100IiNS_18__default_init_tagEEEOT_OT0_
FNA:1,59,_ZNSt3__117__compressed_pairImNS_4hashINS_12basic_stringIcNS_11char_traitsIcEENS_9allocatorIcEEEEEEEC1B8ne180100IiNS_18__default_init_tagEEEOT_OT0_
FNA:1,59,_ZNSt3__117__compressed_pairImNS_4hashINS_12basic_stringIcNS_11char_traitsIcEENS_9allocatorIcEEEEEEEC2B8ne180100IiNS_18__default_init_tagEEEOT_OT0_
FNA:1,14,_ZNSt3__117__compressed_pairImNS_4lessINS_12basic_stringIcNS_11char_traitsIcEENS_9allocatorIcEEEEEEEC1B8ne180100IiRKS8_EEOT_OT0_
FNA:1,14,_ZNSt3__117__compressed_pairImNS_4lessINS_12basic_stringIcNS_11char_traitsIcEENS_9allocatorIcEEEEEEEC2B8ne180100IiRKS8_EEOT_OT0_
FNA:1,13,_ZNSt3__117__compressed_pairImNS_4lessINS_6chrono14year_month_dayEEEEC1B8ne180100IiRKS4_EEOT_OT0_
FNA:1,13,_ZNSt3__117__compressed_pairImNS_4lessINS_6chrono14year_month_dayEEEEC2B8ne180100IiRKS4_EEOT_OT0_
FNA:1,0,_ZNSt3__117__compressed_pairImNS_9allocatorINS_11__list_nodeINS_4pairIcPKcEEPvEEEEEC1B8ne180100IiNS_18__default_init_tagEEEOT_OT0_
FNA:1,0,_ZNSt3__117__compressed_pairImNS_9allocatorINS_11__list_nodeINS_4pairIcPKcEEPvEEEEEC2B8ne180100IiNS_18__default_init_tagEEEOT_OT0_
FNA:1,59,_ZNSt3__117__compressed_pairImNS_9allocatorIPNS_16__hash_node_baseIPNS_11__hash_nodeINS_12basic_stringIcNS_11char_traitsIcEENS1_IcEEEEPvEEEEEEEC1B8ne180100IiNS_18__default_init_tagEEEOT_OT0_
FNA:1,59,_ZNSt3__117__compressed_pairImNS_9allocatorIPNS_16__hash_node_baseIPNS_11__hash_nodeINS_12basic_stringIcNS_11char_traitsIcEENS1_IcEEEEPvEEEEEEEC2B8ne180100IiNS_18__default_init_tagEEEOT_OT0_
FNA:1,2,_ZNSt3__117__compressed_pairImNS_9allocatorIPNS_16__hash_node_baseIPNS_11__hash_nodeINS_17__hash_value_typeIiNS_6vectorIdNS1_IdEEEEEEPvEEEEEEEC1B8ne180100IiNS_18__default_init_tagEEEOT_OT0_
FNA:1,2,_ZNSt3__117__compressed_pairImNS_9allocatorIPNS_16__hash_node_baseIPNS_11__hash_nodeINS_17__hash_value_typeIiNS_6vectorIdNS1_IdEEEEEEPvEEEEEEEC2B8ne180100IiNS_18__default_init_tagEEEOT_OT0_
FNL:2,123,126
FNA:2,0,_ZNSt3__117__compressed_pairIZNK7pyfolio10TimeSeriesIdE8resampleENS1_9FrequencyEEUlRKNS_6vectorIdNS_9allocatorIdEEEEE_NS6_ISB_EEEC1B8ne180100IJOSB_EJOSC_EEENS_21piecewise_construct_tENS_5tupleIJDpT_EEENSI_IJDpT0_EEE
FNA:2,0,_ZNSt3__117__compressed_pairIZNK7pyfolio10TimeSeriesIdE8resampleENS1_9FrequencyEEUlRKNS_6vectorIdNS_9allocatorIdEEEEE_NS6_ISB_EEEC1B8ne180100IJRKSB_EJOSC_EEENS_21piecewise_construct_tENS_5tupleIJDpT_EEENSJ_IJDpT0_EEE
FNA:2,0,_ZNSt3__117__compressed_pairIZNK7pyfolio10TimeSeriesIdE8resampleENS1_9FrequencyEEUlRKNS_6vectorIdNS_9allocatorIdEEEEE_NS6_ISB_EEEC1B8ne180100IJRKSB_EJRKSC_EEENS_21piecewise_construct_tENS_5tupleIJDpT_EEENSK_IJDpT0_EEE
FNA:2,0,_ZNSt3__117__compressed_pairIZNK7pyfolio10TimeSeriesIdE8resampleENS1_9FrequencyEEUlRKNS_6vectorIdNS_9allocatorIdEEEEE_NS6_ISB_EEEC2B8ne180100IJOSB_EJOSC_EEENS_21piecewise_construct_tENS_5tupleIJDpT_EEENSI_IJDpT0_EEE
FNA:2,0,_ZNSt3__117__compressed_pairIZNK7pyfolio10TimeSeriesIdE8resampleENS1_9FrequencyEEUlRKNS_6vectorIdNS_9allocatorIdEEEEE_NS6_ISB_EEEC2B8ne180100IJRKSB_EJOSC_EEENS_21piecewise_construct_tENS_5tupleIJDpT_EEENSJ_IJDpT0_EEE
FNA:2,0,_ZNSt3__117__compressed_pairIZNK7pyfolio10TimeSeriesIdE8resampleENS1_9FrequencyEEUlRKNS_6vectorIdNS_9allocatorIdEEEEE_NS6_ISB_EEEC2B8ne180100IJRKSB_EJRKSC_EEENS_21piecewise_construct_tENS_5tupleIJDpT_EEENSK_IJDpT0_EEE
FNL:3,129,130
FNA:3,8525,_ZNSt3__117__compressed_pairINS_12basic_stringIcNS_11char_traitsIcEENS_9allocatorIcEEE5__repES5_E5firstB8ne180100Ev
FNA:3,0,_ZNSt3__117__compressed_pairINS_15__tree_end_nodeIPNS_16__tree_node_baseIPvEEEENS_9allocatorINS_11__tree_nodeINS_12__value_typeIN7pyfolio8DateTimeENS_6vectorIdNS7_IdEEEEEES3_EEEEE5firstB8ne180100Ev
FNA:3,143,_ZNSt3__117__compressed_pairINS_15__tree_end_nodeIPNS_16__tree_node_baseIPvEEEENS_9allocatorINS_11__tree_nodeINS_12__value_typeINS_12basic_stringIcNS_11char_traitsIcEENS7_IcEEEEN7pyfolio9positions7HoldingEEES3_EEEEE5firstB8ne180100Ev
FNA:3,0,_ZNSt3__117__compressed_pairINS_15__tree_end_nodeIPNS_16__tree_node_baseIPvEEEENS_9allocatorINS_11__tree_nodeINS_12__value_typeINS_12basic_stringIcNS_11char_traitsIcEENS7_IcEEEEN7testing8internal12CodeLocationEEES3_EEEEE5firstB8ne180100Ev
FNA:3,24,_ZNSt3__117__compressed_pairINS_15__tree_end_nodeIPNS_16__tree_node_baseIPvEEEENS_9allocatorINS_11__tree_nodeINS_12__value_typeINS_12basic_stringIcNS_11char_traitsIcEENS7_IcEEEEN7testing8internal34TypeParameterizedTestSuiteRegistry30TypeParameterizedTestSuiteInfoEEES3_EEEEE5firstB8ne180100Ev
FNA:3,2418,_ZNSt3__117__compressed_pairINS_15__tree_end_nodeIPNS_16__tree_node_baseIPvEEEENS_9allocatorINS_11__tree_nodeINS_12__value_typeINS_12basic_stringIcNS_11char_traitsIcEENS7_IcEEEEN8nlohmann16json_abi_v3_11_310basic_jsonINS_3mapENS_6vectorESE_bxydS7_NSG_14adl_serializerENSJ_IhNS7_IhEEEEvEEEES3_EEEEE5firstB8ne180100Ev
FNA:3,85,_ZNSt3__117__compressed_pairINS_15__tree_end_nodeIPNS_16__tree_node_baseIPvEEEENS_9allocatorINS_11__tree_nodeINS_12__value_typeINS_12basic_stringIcNS_11char_traitsIcEENS7_IcEEEEdEES3_EEEEE5firstB8ne180100Ev
FNA:3,0,_ZNSt3__117__compressed_pairINS_15__tree_end_nodeIPNS_16__tree_node_baseIPvEEEENS_9allocatorINS_11__tree_nodeINS_12__value_typeINS_12basic_stringIcNS_11char_traitsIcEENS7_IcEEEEmEES3_EEEEE5firstB8ne180100Ev
FNA:3,26,_ZNSt3__117__compressed_pairINS_15__tree_end_nodeIPNS_16__tree_node_baseIPvEEEENS_9allocatorINS_11__tree_nodeINS_12basic_stringIcNS_11char_traitsIcEENS7_IcEEEES3_EEEEE5firstB8ne180100Ev
FNA:3,104,_ZNSt3__117__compressed_pairINS_15__tree_end_nodeIPNS_16__tree_node_baseIPvEEEENS_9allocatorINS_11__tree_nodeINS_6chrono14year_month_dayES3_EEEEE5firstB8ne180100Ev
FNA:3,118,_ZNSt3__117__compressed_pairINS_16__hash_node_baseIPNS_11__hash_nodeINS_12basic_stringIcNS_11char_traitsIcEENS_9allocatorIcEEEEPvEEEENS6_ISA_EEE5firstB8ne180100Ev
FNA:3,8,_ZNSt3__117__compressed_pairINS_16__hash_node_baseIPNS_11__hash_nodeINS_17__hash_value_typeIiNS_6vectorIdNS_9allocatorIdEEEEEEPvEEEENS5_ISA_EEE5firstB8ne180100Ev
FNA:3,0,_ZNSt3__117__compressed_pairIPKNS_12basic_stringIcNS_11char_traitsIcEENS_9allocatorIcEEEENS_14default_deleteIS7_EEE5firstB8ne180100Ev
FNA:3,49,_ZNSt3__117__compressed_pairIPN7pyfolio10TimeSeriesIdEENS_9allocatorIS3_EEE5firstB8ne180100Ev
FNA:3,40,_ZNSt3__117__compressed_pairIPN7pyfolio10TimeSeriesIdEERNS_9allocatorIS3_EEE5firstB8ne180100Ev
FNA:3,18,_ZNSt3__117__compressed_pairIPN7pyfolio11attribution17SectorAttributionENS_9allocatorIS3_EEE5firstB8ne180100Ev
FNA:3,12,_ZNSt3__117__compressed_pairIPN7pyfolio11attribution17SectorAttributionERNS_9allocatorIS3_EEE5firstB8ne180100Ev
FNA:3,21,_ZNSt3__117__compressed_pairIPN7pyfolio13visualization8PlotDataENS_9allocatorIS3_EEE5firstB8ne180100Ev
FNA:3,18,_ZNSt3__117__compressed_pairIPN7pyfolio13visualization8PlotDataERNS_9allocatorIS3_EEE5firstB8ne180100Ev
FNA:3,17401,_ZNSt3__117__compressed_pairIPN7pyfolio8DateTimeENS_9allocatorIS2_EEE5firstB8ne180100Ev
FNA:3,1860,_ZNSt3__117__compressed_pairIPN7pyfolio8DateTimeERNS_9allocatorIS2_EEE5firstB8ne180100Ev
FNA:3,104,_ZNSt3__117__compressed_pairIPN7pyfolio9positions17PortfolioHoldingsENS_14default_deleteIS3_EEE5firstB8ne180100Ev
FNA:3,0,_ZNSt3__117__compressed_pairIPN7testing12TestPropertyENS_9allocatorIS2_EEE5firstB8ne180100Ev
FNA:3,0,_ZNSt3__117__compressed_pairIPN7testing12TestPropertyERNS_9allocatorIS2_EEE5firstB8ne180100Ev
FNA:3,144,_ZNSt3__117__compressed_pairIPN7testing14TestPartResultENS_9allocatorIS2_EEE5firstB8ne180100Ev
FNA:3,52,_ZNSt3__117__compressed_pairIPN7testing14TestPartResultERNS_9allocatorIS2_EEE5firstB8ne180100Ev
FNA:3,2,_ZNSt3__117__compressed_pairIPN7testing8internal11ThreadLocalINS_6vectorINS2_9TraceInfoENS_9allocatorIS5_EEEEE18ValueHolderFactoryENS_14default_deleteISA_EEE5firstB8ne180100Ev
FNA:3,2,_ZNSt3__117__compressed_pairIPN7testing8internal11ThreadLocalIPNS1_31TestPartResultReporterInterfaceEE18ValueHolderFactoryENS_14default_deleteIS7_EEE5firstB8ne180100Ev
FNA:3,0,_ZNSt3__117__compressed_pairIPN7testing8internal13edit_distance8EditTypeENS_9allocatorIS4_EEE5firstB8ne180100Ev
FNA:3,0,_ZNSt3__117__compressed_pairIPN7testing8internal13edit_distance8EditTypeERNS_9allocatorIS4_EEE5firstB8ne180100Ev
FNA:3,264,_ZNSt3__117__compressed_pairIPN7testing8internal14GTestFlagSaverENS_14default_deleteIS3_EEE5firstB8ne180100Ev
FNA:3,2,_ZNSt3__117__compressed_pairIPN7testing8internal16DeathTestFactoryENS_14default_deleteIS3_EEE5firstB8ne180100Ev
FNA:3,26,_ZNSt3__117__compressed_pairIPN7testing8internal24InternalRunDeathTestFlagENS_14default_deleteIS3_EEE5firstB8ne180100Ev
FNA:3,0,_ZNSt3__117__compressed_pairIPN7testing8internal9TraceInfoENS_9allocatorIS3_EEE5firstB8ne180100Ev
FNA:3,0,_ZNSt3__117__compressed_pairIPN7testing8internal9TraceInfoERNS_9allocatorIS3_EEE5firstB8ne180100Ev
FNA:3,6993,_ZNSt3__117__compressed_pairIPN8nlohmann16json_abi_v3_11_310basic_jsonINS_3mapENS_6vectorENS_12basic_stringIcNS_11char_traitsIcEENS_9allocatorIcEEEEbxydS9_NS2_14adl_serializerENS5_IhNS9_IhEEEEvEENS9_ISF_EEE5firstB8ne180100Ev
FNA:3,1810,_ZNSt3__117__compressed_pairIPN8nlohmann16json_abi_v3_11_310basic_jsonINS_3mapENS_6vectorENS_12basic_stringIcNS_11char_traitsIcEENS_9allocatorIcEEEEbxydS9_NS2_14adl_serializerENS5_IhNS9_IhEEEEvEERNS9_ISF_EEE5firstB8ne180100Ev
FNA:3,0,_ZNSt3__117__compressed_pairIPN8nlohmann16json_abi_v3_11_327byte_container_with_subtypeINS_6vectorIhNS_9allocatorIhEEEEEEZNS2_10basic_jsonINS_3mapES4_NS_12basic_stringIcNS_11char_traitsIcEENS5_IcEEEEbxydS5_NS2_14adl_serializerES7_vE6createIS8_JEEEPT_DpOT0_EUlS9_E_E5firstB8ne180100Ev
FNA:3,0,_ZNSt3__117__compressed_pairIPN8nlohmann16json_abi_v3_11_327byte_container_with_subtypeINS_6vectorIhNS_9allocatorIhEEEEEEZNS2_10basic_jsonINS_3mapES4_NS_12basic_stringIcNS_11char_traitsIcEENS5_IcEEEEbxydS5_NS2_14adl_serializerES7_vE6createIS8_JRKS8_EEEPT_DpOT0_EUlS9_E_E5firstB8ne180100Ev
FNA:3,0,_ZNSt3__117__compressed_pairIPNS_10__function6__funcIZNK7pyfolio10TimeSeriesIdE8resampleENS3_9FrequencyEEUlRKNS_6vectorIdNS_9allocatorIdEEEEE_NS8_ISD_EEFdSC_EEENS_22__allocator_destructorINS8_ISG_EEEEE5firstB8ne180100Ev
FNA:3,0,_ZNSt3__117__compressed_pairIPNS_11__hash_nodeINS_12basic_stringIcNS_11char_traitsIcEENS_9allocatorIcEEEEPvEENS_22__hash_node_destructorINS5_IS9_EEEEE5firstB8ne180100Ev
FNA:3,8,_ZNSt3__117__compressed_pairIPNS_11__hash_nodeINS_17__hash_value_typeIiNS_6vectorIdNS_9allocatorIdEEEEEEPvEENS_22__hash_node_destructorINS4_IS9_EEEEE5firstB8ne180100Ev
FNA:3,0,_ZNSt3__117__compressed_pairIPNS_11__tree_nodeINS_12__value_typeIN7pyfolio8DateTimeENS_6vectorIdNS_9allocatorIdEEEEEEPvEENS_22__tree_node_destructorINS6_ISB_EEEEE5firstB8ne180100Ev
FNA:3,156,_ZNSt3__117__compressed_pairIPNS_11__tree_nodeINS_12__value_typeINS_12basic_stringIcNS_11char_traitsIcEENS_9allocatorIcEEEEN7pyfolio9positions7HoldingEEEPvEENS_22__tree_node_destructorINS6_ISE_EEEEE5firstB8ne180100Ev
FNA:3,0,_ZNSt3__117__compressed_pairIPNS_11__tree_nodeINS_12__value_typeINS_12basic_stringIcNS_11char_traitsIcEENS_9allocatorIcEEEEN7testing8internal34TypeParameterizedTestSuiteRegistry30TypeParameterizedTestSuiteInfoEEEPvEENS_22__tree_node_destructorINS6_ISF_EEEEE5firstB8ne180100Ev
FNA:3,3384,_ZNSt3__117__compressed_pairIPNS_11__tree_nodeINS_12__value_typeINS_12basic_stringIcNS_11char_traitsIcEENS_9allocatorIcEEEEN8nlohmann16json_abi_v3_11_310basic_jsonINS_3mapENS_6vectorES8_bxydS6_NSA_14adl_serializerENSD_IhNS6_IhEEEEvEEEEPvEENS_22__tree_node_destructorINS6_ISK_EEEEE5firstB8ne180100Ev
FNA:3,212,_ZNSt3__117__compressed_pairIPNS_11__tree_nodeINS_12__value_typeINS_12basic_stringIcNS_11char_traitsIcEENS_9allocatorIcEEEEdEEPvEENS_22__tree_node_destructorINS6_ISB_EEEEE5firstB8ne180100Ev
FNA:3,0,_ZNSt3__117__compressed_pairIPNS_11__tree_nodeINS_12__value_typeINS_12basic_stringIcNS_11char_traitsIcEENS_9allocatorIcEEEEmEEPvEENS_22__tree_node_destructorINS6_ISB_EEEEE5firstB8ne180100Ev
FNA:3,32,_ZNSt3__117__compressed_pairIPNS_11__tree_nodeINS_12basic_stringIcNS_11char_traitsIcEENS_9allocatorIcEEEEPvEENS_22__tree_node_destructorINS5_IS9_EEEEE5firstB8ne180100Ev
FNA:3,312,_ZNSt3__117__compressed_pairIPNS_11__tree_nodeINS_6chrono14year_month_dayEPvEENS_22__tree_node_destructorINS_9allocatorIS5_EEEEE5firstB8ne180100Ev
FNA:3,520,_ZNSt3__117__compressed_pairIPNS_12basic_stringIcNS_11char_traitsIcEENS_9allocatorIcEEEENS4_IS6_EEE5firstB8ne180100Ev
FNA:3,6962,_ZNSt3__117__compressed_pairIPNS_12basic_stringIcNS_11char_traitsIcEENS_9allocatorIcEEEENS_14default_deleteIS6_EEE5firstB8ne180100Ev
FNA:3,282,_ZNSt3__117__compressed_pairIPNS_12basic_stringIcNS_11char_traitsIcEENS_9allocatorIcEEEERNS4_IS6_EEE5firstB8ne180100Ev
FNA:3,72,_ZNSt3__117__compressed_pairIPNS_12basic_stringIcNS_11char_traitsIcEENS_9allocatorIcEEEEZN8nlohmann16json_abi_v3_11_310basic_jsonINS_3mapENS_6vectorES6_bxydS4_NS9_14adl_serializerENSC_IhNS4_IhEEEEvE6createIS6_JRA10_KcEEEPT_DpOT0_EUlS7_E_E5firstB8ne180100Ev
FNA:3,100,_ZNSt3__117__compressed_pairIPNS_12basic_stringIcNS_11char_traitsIcEENS_9allocatorIcEEEEZN8nlohmann16json_abi_v3_11_310basic_jsonINS_3mapENS_6vectorES6_bxydS4_NS9_14adl_serializerENSC_IhNS4_IhEEEEvE6createIS6_JRA11_KcEEEPT_DpOT0_EUlS7_E_E5firstB8ne180100Ev
FNA:3,96,_ZNSt3__117__compressed_pairIPNS_12basic_stringIcNS_11char_traitsIcEENS_9allocatorIcEEEEZN8nlohmann16json_abi_v3_11_310basic_jsonINS_3mapENS_6vectorES6_bxydS4_NS9_14adl_serializerENSC_IhNS4_IhEEEEvE6createIS6_JRA12_KcEEEPT_DpOT0_EUlS7_E_E5firstB8ne180100Ev
FNA:3,28,_ZNSt3__117__compressed_pairIPNS_12basic_stringIcNS_11char_traitsIcEENS_9allocatorIcEEEEZN8nlohmann16json_abi_v3_11_310basic_jsonINS_3mapENS_6vectorES6_bxydS4_NS9_14adl_serializerENSC_IhNS4_IhEEEEvE6createIS6_JRA14_KcEEEPT_DpOT0_EUlS7_E_E5firstB8ne180100Ev
FNA:3,44,_ZNSt3__117__compressed_pairIPNS_12basic_stringIcNS_11char_traitsIcEENS_9allocatorIcEEEEZN8nlohmann16json_abi_v3_11_310basic_jsonINS_3mapENS_6vectorES6_bxydS4_NS9_14adl_serializerENSC_IhNS4_IhEEEEvE6createIS6_JRA15_KcEEEPT_DpOT0_EUlS7_E_E5firstB8ne180100Ev
FNA:3,16,_ZNSt3__117__compressed_pairIPNS_12basic_stringIcNS_11char_traitsIcEENS_9allocatorIcEEEEZN8nlohmann16json_abi_v3_11_310basic_jsonINS_3mapENS_6vectorES6_bxydS4_NS9_14adl_serializerENSC_IhNS4_IhEEEEvE6createIS6_JRA1_KcEEEPT_DpOT0_EUlS7_E_E5firstB8ne180100Ev
FNA:3,4,_ZNSt3__117__compressed_pairIPNS_12basic_stringIcNS_11char_traitsIcEENS_9allocatorIcEEEEZN8nlohmann16json_abi_v3_11_310basic_jsonINS_3mapENS_6vectorES6_bxydS4_NS9_14adl_serializerENSC_IhNS4_IhEEEEvE6createIS6_JRA20_KcEEEPT_DpOT0_EUlS7_E_E5firstB8ne180100Ev
FNA:3,4,_ZNSt3__117__compressed_pairIPNS_12basic_stringIcNS_11char_traitsIcEENS_9allocatorIcEEEEZN8nlohmann16json_abi_v3_11_310basic_jsonINS_3mapENS_6vectorES6_bxydS4_NS9_14adl_serializerENSC_IhNS4_IhEEEEvE6createIS6_JRA22_KcEEEPT_DpOT0_EUlS7_E_E5firstB8ne180100Ev
FNA:3,48,_ZNSt3__117__compressed_pairIPNS_12basic_stringIcNS_11char_traitsIcEENS_9allocatorIcEEEEZN8nlohmann16json_abi_v3_11_310basic_jsonINS_3mapENS_6vectorES6_bxydS4_NS9_14adl_serializerENSC_IhNS4_IhEEEEvE6createIS6_JRA23_KcEEEPT_DpOT0_EUlS7_E_E5firstB8ne180100Ev
FNA:3,4,_ZNSt3__117__compressed_pairIPNS_12basic_stringIcNS_11char_traitsIcEENS_9allocatorIcEEEEZN8nlohmann16json_abi_v3_11_310basic_jsonINS_3mapENS_6vectorES6_bxydS4_NS9_14adl_serializerENSC_IhNS4_IhEEEEvE6createIS6_JRA27_KcEEEPT_DpOT0_EUlS7_E_E5firstB8ne180100Ev
FNA:3,616,_ZNSt3__117__compressed_pairIPNS_12basic_stringIcNS_11char_traitsIcEENS_9allocatorIcEEEEZN8nlohmann16json_abi_v3_11_310basic_jsonINS_3mapENS_6vectorES6_bxydS4_NS9_14adl_serializerENSC_IhNS4_IhEEEEvE6createIS6_JRA2_KcEEEPT_DpOT0_EUlS7_E_E5firstB8ne180100Ev
FNA:3,8,_ZNSt3__117__compressed_pairIPNS_12basic_stringIcNS_11char_traitsIcEENS_9allocatorIcEEEEZN8nlohmann16json_abi_v3_11_310basic_jsonINS_3mapENS_6vectorES6_bxydS4_NS9_14adl_serializerENSC_IhNS4_IhEEEEvE6createIS6_JRA35_KcEEEPT_DpOT0_EUlS7_E_E5firstB8ne180100Ev
FNA:3,164,_ZNSt3__117__compressed_pairIPNS_12basic_stringIcNS_11char_traitsIcEENS_9allocatorIcEEEEZN8nlohmann16json_abi_v3_11_310basic_jsonINS_3mapENS_6vectorES6_bxydS4_NS9_14adl_serializerENSC_IhNS4_IhEEEEvE6createIS6_JRA3_KcEEEPT_DpOT0_EUlS7_E_E5firstB8ne180100Ev
FNA:3,8,_ZNSt3__117__compressed_pairIPNS_12basic_stringIcNS_11char_traitsIcEENS_9allocatorIcEEEEZN8nlohmann16json_abi_v3_11_310basic_jsonINS_3mapENS_6vectorES6_bxydS4_NS9_14adl_serializerENSC_IhNS4_IhEEEEvE6createIS6_JRA45_KcEEEPT_DpOT0_EUlS7_E_E5firstB8ne180100Ev
FNA:3,168,_ZNSt3__117__compressed_pairIPNS_12basic_stringIcNS_11char_traitsIcEENS_9allocatorIcEEEEZN8nlohmann16json_abi_v3_11_310basic_jsonINS_3mapENS_6vectorES6_bxydS4_NS9_14adl_serializerENSC_IhNS4_IhEEEEvE6createIS6_JRA4_KcEEEPT_DpOT0_EUlS7_E_E5firstB8ne180100Ev
FNA:3,8,_ZNSt3__117__compressed_pairIPNS_12basic_stringIcNS_11char_traitsIcEENS_9allocatorIcEEEEZN8nlohmann16json_abi_v3_11_310basic_jsonINS_3mapENS_6vectorES6_bxydS4_NS9_14adl_serializerENSC_IhNS4_IhEEEEvE6createIS6_JRA53_KcEEEPT_DpOT0_EUlS7_E_E5firstB8ne180100Ev
FNA:3,600,_ZNSt3__117__compressed_pairIPNS_12basic_stringIcNS_11char_traitsIcEENS_9allocatorIcEEEEZN8nlohmann16json_abi_v3_11_310basic_jsonINS_3mapENS_6vectorES6_bxydS4_NS9_14adl_serializerENSC_IhNS4_IhEEEEvE6createIS6_JRA5_KcEEEPT_DpOT0_EUlS7_E_E5firstB8ne180100Ev
FNA:3,496,_ZNSt3__117__compressed_pairIPNS_12basic_stringIcNS_11char_traitsIcEENS_9allocatorIcEEEEZN8nlohmann16json_abi_v3_11_310basic_jsonINS_3mapENS_6vectorES6_bxydS4_NS9_14adl_serializerENSC_IhNS4_IhEEEEvE6createIS6_JRA6_KcEEEPT_DpOT0_EUlS7_E_E5firstB8ne180100Ev
FNA:3,4,_ZNSt3__117__compressed_pairIPNS_12basic_stringIcNS_11char_traitsIcEENS_9allocatorIcEEEEZN8nlohmann16json_abi_v3_11_310basic_jsonINS_3mapENS_6vectorES6_bxydS4_NS9_14adl_serializerENSC_IhNS4_IhEEEEvE6createIS6_JRA72_KcEEEPT_DpOT0_EUlS7_E_E5firstB8ne180100Ev
FNA:3,208,_ZNSt3__117__compressed_pairIPNS_12basic_stringIcNS_11char_traitsIcEENS_9allocatorIcEEEEZN8nlohmann16json_abi_v3_11_310basic_jsonINS_3mapENS_6vectorES6_bxydS4_NS9_14adl_serializerENSC_IhNS4_IhEEEEvE6createIS6_JRA7_KcEEEPT_DpOT0_EUlS7_E_E5firstB8ne180100Ev
FNA:3,216,_ZNSt3__117__compressed_pairIPNS_12basic_stringIcNS_11char_traitsIcEENS_9allocatorIcEEEEZN8nlohmann16json_abi_v3_11_310basic_jsonINS_3mapENS_6vectorES6_bxydS4_NS9_14adl_serializerENSC_IhNS4_IhEEEEvE6createIS6_JRA8_KcEEEPT_DpOT0_EUlS7_E_E5firstB8ne180100Ev
FNA:3,388,_ZNSt3__117__compressed_pairIPNS_12basic_stringIcNS_11char_traitsIcEENS_9allocatorIcEEEEZN8nlohmann16json_abi_v3_11_310basic_jsonINS_3mapENS_6vectorES6_bxydS4_NS9_14adl_serializerENSC_IhNS4_IhEEEEvE6createIS6_JRA9_KcEEEPT_DpOT0_EUlS7_E_E5firstB8ne180100Ev
FNA:3,2540,_ZNSt3__117__compressed_pairIPNS_12basic_stringIcNS_11char_traitsIcEENS_9allocatorIcEEEEZN8nlohmann16json_abi_v3_11_310basic_jsonINS_3mapENS_6vectorES6_bxydS4_NS9_14adl_serializerENSC_IhNS4_IhEEEEvE6createIS6_JRKS6_EEEPT_DpOT0_EUlS7_E_E5firstB8ne180100Ev
FNA:3,1816,_ZNSt3__117__compressed_pairIPNS_12basic_stringIcNS_11char_traitsIcEENS_9allocatorIcEEEEZN8nlohmann16json_abi_v3_11_310basic_jsonINS_3mapENS_6vectorES6_bxydS4_NS9_14adl_serializerENSC_IhNS4_IhEEEEvE6createIS6_JS6_EEEPT_DpOT0_EUlS7_E_E5firstB8ne180100Ev
FNA:3,80,_ZNSt3__117__compressed_pairIPNS_15__thread_structENS_14default_deleteIS1_EEE5firstB8ne180100Ev
FNA:3,4292,_ZNSt3__117__compressed_pairIPNS_18basic_stringstreamIcNS_11char_traitsIcEENS_9allocatorIcEEEENS_14default_deleteIS6_EEE5firstB8ne180100Ev
FNA:3,868,_ZNSt3__117__compressed_pairIPNS_3mapINS_12basic_stringIcNS_11char_traitsIcEENS_9allocatorIcEEEEN8nlohmann16json_abi_v3_11_310basic_jsonIS1_NS_6vectorES7_bxydS5_NS9_14adl_serializerENSB_IhNS5_IhEEEEvEENS_4lessIvEENS5_INS_4pairIKS7_SF_EEEEEEZNSF_6createISM_JEEEPT_DpOT0_EUlSN_E_E5firstB8ne180100Ev
FNA:3,236,_ZNSt3__117__compressed_pairIPNS_3mapINS_12basic_stringIcNS_11char_traitsIcEENS_9allocatorIcEEEEN8nlohmann16json_abi_v3_11_310basic_jsonIS1_NS_6vectorES7_bxydS5_NS9_14adl_serializerENSB_IhNS5_IhEEEEvEENS_4lessIvEENS5_INS_4pairIKS7_SF_EEEEEEZNSF_6createISM_JRKSM_EEEPT_DpOT0_EUlSN_E_E5firstB8ne180100Ev
FNA:3,0,_ZNSt3__117__compressed_pairIPNS_4pairIN7pyfolio8DateTimeEdEENS_9allocatorIS4_EEE5firstB8ne180100Ev
FNA:3,0,_ZNSt3__117__compressed_pairIPNS_4pairIN7pyfolio8DateTimeEdEERNS_9allocatorIS4_EEE5firstB8ne180100Ev
FNA:3,60,_ZNSt3__117__compressed_pairIPNS_5tupleIJNS_10unique_ptrINS_15__thread_structENS_14default_deleteIS3_EEEEZN36CoreTypesTest_BasicThreadSafety_Test8TestBodyEvE3$_0EEENS4_IS9_EEE5firstB8ne180100Ev
FNA:3,15,_ZNSt3__117__compressed_pairIPNS_6threadENS_9allocatorIS1_EEE5firstB8ne180100Ev
FNA:3,10,_ZNSt3__117__compressed_pairIPNS_6threadERNS_9allocatorIS1_EEE5firstB8ne180100Ev
FNA:3,0,_ZNSt3__117__compressed_pairIPNS_6vectorIN7testing8internal13edit_distance8EditTypeENS_9allocatorIS5_EEEENS6_IS8_EEE5firstB8ne180100Ev
FNA:3,0,_ZNSt3__117__compressed_pairIPNS_6vectorIN8nlohmann16json_abi_v3_11_310basic_jsonINS_3mapES1_NS_12basic_stringIcNS_11char_traitsIcEENS_9allocatorIcEEEEbxydS9_NS3_14adl_serializerENS1_IhNS9_IhEEEEvEENS9_ISF_EEEEZNSF_6createISH_JEEEPT_DpOT0_EUlSI_E_E5firstB8ne180100Ev
FNA:3,12,_ZNSt3__117__compressed_pairIPNS_6vectorIN8nlohmann16json_abi_v3_11_310basic_jsonINS_3mapES1_NS_12basic_stringIcNS_11char_traitsIcEENS_9allocatorIcEEEEbxydS9_NS3_14adl_serializerENS1_IhNS9_IhEEEEvEENS9_ISF_EEEEZNSF_6createISH_JNS_11__wrap_iterIPKNS1_IdNS9_IdEEEEEESP_EEEPT_DpOT0_EUlSI_E_E5firstB8ne180100Ev
FNA:3,36,_ZNSt3__117__compressed_pairIPNS_6vectorIN8nlohmann16json_abi_v3_11_310basic_jsonINS_3mapES1_NS_12basic_stringIcNS_11char_traitsIcEENS_9allocatorIcEEEEbxydS9_NS3_14adl_serializerENS1_IhNS9_IhEEEEvEENS9_ISF_EEEEZNSF_6createISH_JNS_11__wrap_iterIPKSB_EESN_EEEPT_DpOT0_EUlSI_E_E5firstB8ne180100Ev
FNA:3,84,_ZNSt3__117__compressed_pairIPNS_6vectorIN8nlohmann16json_abi_v3_11_310basic_jsonINS_3mapES1_NS_12basic_stringIcNS_11char_traitsIcEENS_9allocatorIcEEEEbxydS9_NS3_14adl_serializerENS1_IhNS9_IhEEEEvEENS9_ISF_EEEEZNSF_6createISH_JNS_11__wrap_iterIPKdEESN_EEEPT_DpOT0_EUlSI_E_E5firstB8ne180100Ev
FNA:3,2620,_ZNSt3__117__compressed_pairIPNS_6vectorIN8nlohmann16json_abi_v3_11_310basic_jsonINS_3mapES1_NS_12basic_stringIcNS_11char_traitsIcEENS_9allocatorIcEEEEbxydS9_NS3_14adl_serializerENS1_IhNS9_IhEEEEvEENS9_ISF_EEEEZNSF_6createISH_JPKNS3_6detail8json_refISF_EESO_EEEPT_DpOT0_EUlSI_E_E5firstB8ne180100Ev
FNA:3,192,_ZNSt3__117__compressed_pairIPNS_6vectorIN8nlohmann16json_abi_v3_11_310basic_jsonINS_3mapES1_NS_12basic_stringIcNS_11char_traitsIcEENS_9allocatorIcEEEEbxydS9_NS3_14adl_serializerENS1_IhNS9_IhEEEEvEENS9_ISF_EEEEZNSF_6createISH_JRKSH_EEEPT_DpOT0_EUlSI_E_E5firstB8ne180100Ev
FNA:3,17,_ZNSt3__117__compressed_pairIPNS_6vectorIdNS_9allocatorIdEEEENS2_IS4_EEE5firstB8ne180100Ev
FNA:3,10,_ZNSt3__117__compressed_pairIPNS_6vectorIdNS_9allocatorIdEEEERNS2_IS4_EEE5firstB8ne180100Ev
FNA:3,0,_ZNSt3__117__compressed_pairIPPN7testing11EnvironmentENS_9allocatorIS3_EEE5firstB8ne180100Ev
FNA:3,0,_ZNSt3__117__compressed_pairIPPN7testing11EnvironmentERNS_9allocatorIS3_EEE5firstB8ne180100Ev
FNA:3,24,_ZNSt3__117__compressed_pairIPPN7testing17TestEventListenerENS_9allocatorIS3_EEE5firstB8ne180100Ev
FNA:3,24,_ZNSt3__117__compressed_pairIPPN7testing17TestEventListenerERNS_9allocatorIS3_EEE5firstB8ne180100Ev
FNA:3,186,_ZNSt3__117__compressed_pairIPPN7testing8TestInfoENS_9allocatorIS3_EEE5firstB8ne180100Ev
FNA:3,108,_ZNSt3__117__compressed_pairIPPN7testing8TestInfoERNS_9allocatorIS3_EEE5firstB8ne180100Ev
FNA:3,22,_ZNSt3__117__compressed_pairIPPN7testing9TestSuiteENS_9allocatorIS3_EEE5firstB8ne180100Ev
FNA:3,22,_ZNSt3__117__compressed_pairIPPN7testing9TestSuiteERNS_9allocatorIS3_EEE5firstB8ne180100Ev
FNA:3,166,_ZNSt3__117__compressed_pairIPPNS_16__hash_node_baseIPNS_11__hash_nodeINS_12basic_stringIcNS_11char_traitsIcEENS_9allocatorIcEEEEPvEEEENS_25__bucket_list_deallocatorINS6_ISD_EEEEE5firstB8ne180100Ev
FNA:3,8,_ZNSt3__117__compressed_pairIPPNS_16__hash_node_baseIPNS_11__hash_nodeINS_17__hash_value_typeIiNS_6vectorIdNS_9allocatorIdEEEEEEPvEEEENS_25__bucket_list_deallocatorINS5_ISD_EEEEE5firstB8ne180100Ev
FNA:3,0,_ZNSt3__117__compressed_pairIPPcNS_9allocatorIS1_EEE5firstB8ne180100Ev
FNA:3,0,_ZNSt3__117__compressed_pairIPPcRNS_9allocatorIS1_EEE5firstB8ne180100Ev
FNA:3,84551,_ZNSt3__117__compressed_pairIPdNS_9allocatorIdEEE5firstB8ne180100Ev
FNA:3,4738,_ZNSt3__117__compressed_pairIPdRNS_9allocatorIdEEE5firstB8ne180100Ev
FNA:3,0,_ZNSt3__117__compressed_pairIPhNS_9allocatorIhEEE5firstB8ne180100Ev
FNA:3,209,_ZNSt3__117__compressed_pairIPiNS_9allocatorIiEEE5firstB8ne180100Ev
FNA:3,130,_ZNSt3__117__compressed_pairIPiRNS_9allocatorIiEEE5firstB8ne180100Ev
FNA:3,1,_ZNSt3__117__compressed_pairIPmNS_9allocatorImEEE5firstB8ne180100Ev
FNA:3,0,_ZNSt3__117__compressed_pairIPmRNS_9allocatorImEEE5firstB8ne180100Ev
FNA:3,0,_ZNSt3__117__compressed_pairIZNK7pyfolio10TimeSeriesIdE8resampleENS1_9FrequencyEEUlRKNS_6vectorIdNS_9allocatorIdEEEEE_NS6_ISB_EEE5firstB8ne180100Ev
FNA:3,4,_ZNSt3__117__compressed_pairIfNS_21__unordered_map_equalIiNS_17__hash_value_typeIiNS_6vectorIdNS_9allocatorIdEEEEEENS_8equal_toIiEENS_4hashIiEELb1EEEE5firstB8ne180100Ev
FNA:3,24,_ZNSt3__117__compressed_pairIfNS_8equal_toINS_12basic_stringIcNS_11char_traitsIcEENS_9allocatorIcEEEEEEE5firstB8ne180100Ev
FNA:3,0,_ZNSt3__117__compressed_pairImNS_19__map_value_compareIN7pyfolio8DateTimeENS_12__value_typeIS3_NS_6vectorIdNS_9allocatorIdEEEEEENS_4lessIS3_EELb1EEEE5firstB8ne180100Ev
FNA:3,39,_ZNSt3__117__compressed_pairImNS_19__map_value_compareINS_12basic_stringIcNS_11char_traitsIcEENS_9allocatorIcEEEENS_12__value_typeIS7_N7pyfolio9positions7HoldingEEENS_4lessIS7_EELb1EEEE5firstB8ne180100Ev
FNA:3,0,_ZNSt3__117__compressed_pairImNS_19__map_value_compareINS_12basic_stringIcNS_11char_traitsIcEENS_9allocatorIcEEEENS_12__value_typeIS7_N7testing8internal34TypeParameterizedTestSuiteRegistry30TypeParameterizedTestSuiteInfoEEENS_4lessIS7_EELb1EEEE5firstB8ne180100Ev
FNA:3,1055,_ZNSt3__117__compressed_pairImNS_19__map_value_compareINS_12basic_stringIcNS_11char_traitsIcEENS_9allocatorIcEEEENS_12__value_typeIS7_N8nlohmann16json_abi_v3_11_310basic_jsonINS_3mapENS_6vectorES7_bxydS5_NSA_14adl_serializerENSD_IhNS5_IhEEEEvEEEENS_4lessIvEELb1EEEE5firstB8ne180100Ev
FNA:3,65,_ZNSt3__117__compressed_pairImNS_19__map_value_compareINS_12basic_stringIcNS_11char_traitsIcEENS_9allocatorIcEEEENS_12__value_typeIS7_dEENS_4lessIS7_EELb1EEEE5firstB8ne180100Ev
FNA:3,0,_ZNSt3__117__compressed_pairImNS_19__map_value_compareINS_12basic_stringIcNS_11char_traitsIcEENS_9allocatorIcEEEENS_12__value_typeIS7_mEENS_4lessIS7_EELb1EEEE5firstB8ne180100Ev
FNA:3,6,_ZNSt3__117__compressed_pairImNS_22__unordered_map_hasherIiNS_17__hash_value_typeIiNS_6vectorIdNS_9allocatorIdEEEEEENS_4hashIiEENS_8equal_toIiEELb1EEEE5firstB8ne180100Ev
FNA:3,48,_ZNSt3__117__compressed_pairImNS_4hashINS_12basic_stringIcNS_11char_traitsIcEENS_9allocatorIcEEEEEEE5firstB8ne180100Ev
FNA:3,8,_ZNSt3__117__compressed_pairImNS_4lessINS_12basic_stringIcNS_11char_traitsIcEENS_9allocatorIcEEEEEEE5firstB8ne180100Ev
FNA:3,78,_ZNSt3__117__compressed_pairImNS_4lessINS_6chrono14year_month_dayEEEE5firstB8ne180100Ev
FNA:3,0,_ZNSt3__117__compressed_pairImNS_9allocatorINS_11__list_nodeINS_4pairIcPKcEEPvEEEEE5firstB8ne180100Ev
FNA:3,36,_ZNSt3__117__compressed_pairImNS_9allocatorIPNS_16__hash_node_baseIPNS_11__hash_nodeINS_12basic_stringIcNS_11char_traitsIcEENS1_IcEEEEPvEEEEEEE5firstB8ne180100Ev
FNA:3,4,_ZNSt3__117__compressed_pairImNS_9allocatorIPNS_16__hash_node_baseIPNS_11__hash_nodeINS_17__hash_value_typeIiNS_6vectorIdNS1_IdEEEEEEPvEEEEEEE5firstB8ne180100Ev
FNL:4,133,134
FNA:4,0,_ZNKSt3__117__compressed_pairINS_12basic_stringIDiNS_11char_traitsIDiEENS_9allocatorIDiEEE5__repES5_E5firstB8ne180100Ev
FNA:4,0,_ZNKSt3__117__compressed_pairINS_12basic_stringIDsNS_11char_traitsIDsEENS_9allocatorIDsEEE5__repES5_E5firstB8ne180100Ev
FNA:4,0,_ZNKSt3__117__compressed_pairINS_12basic_stringIDuNS_11char_traitsIDuEENS_9allocatorIDuEEE5__repES5_E5firstB8ne180100Ev
FNA:4,208024,_ZNKSt3__117__compressed_pairINS_12basic_stringIcNS_11char_traitsIcEENS_9allocatorIcEEE5__repES5_E5firstB8ne180100Ev
FNA:4,0,_ZNKSt3__117__compressed_pairINS_12basic_stringIwNS_11char_traitsIwEENS_9allocatorIwEEE5__repES5_E5firstB8ne180100Ev
FNA:4,0,_ZNKSt3__117__compressed_pairINS_15__tree_end_nodeIPNS_16__tree_node_baseIPvEEEENS_9allocatorINS_11__tree_nodeINS_12__value_typeIN7pyfolio8DateTimeENS_6vectorIdNS7_IdEEEEEES3_EEEEE5firstB8ne180100Ev
FNA:4,93,_ZNKSt3__117__compressed_pairINS_15__tree_end_nodeIPNS_16__tree_node_baseIPvEEEENS_9allocatorINS_11__tree_nodeINS_12__value_typeINS_12basic_stringIcNS_11char_traitsIcEENS7_IcEEEEN7pyfolio9positions7HoldingEEES3_EEEEE5firstB8ne180100Ev
FNA:4,0,_ZNKSt3__117__compressed_pairINS_15__tree_end_nodeIPNS_16__tree_node_baseIPvEEEENS_9allocatorINS_11__tree_nodeINS_12__value_typeINS_12basic_stringIcNS_11char_traitsIcEENS7_IcEEEEN7testing8internal12CodeLocationEEES3_EEEEE5firstB8ne180100Ev
FNA:4,1,_ZNKSt3__117__compressed_pairINS_15__tree_end_nodeIPNS_16__tree_node_baseIPvEEEENS_9allocatorINS_11__tree_nodeINS_12__value_typeINS_12basic_stringIcNS_11char_traitsIcEENS7_IcEEEEN7testing8internal34TypeParameterizedTestSuiteRegistry30TypeParameterizedTestSuiteInfoEEES3_EEEEE5firstB8ne180100Ev
FNA:4,4253,_ZNKSt3__117__compressed_pairINS_15__tree_end_nodeIPNS_16__tree_node_baseIPvEEEENS_9allocatorINS_11__tree_nodeINS_12__value_typeINS_12basic_stringIcNS_11char_traitsIcEENS7_IcEEEEN8nlohmann16json_abi_v3_11_310basic_jsonINS_3mapENS_6vectorESE_bxydS7_NSG_14adl_serializerENSJ_IhNS7_IhEEEEvEEEES3_EEEEE5firstB8ne180100Ev
FNA:4,232,_ZNKSt3__117__compressed_pairINS_15__tree_end_nodeIPNS_16__tree_node_baseIPvEEEENS_9allocatorINS_11__tree_nodeINS_12__value_typeINS_12basic_stringIcNS_11char_traitsIcEENS7_IcEEEEdEES3_EEEEE5firstB8ne180100Ev
FNA:4,0,_ZNKSt3__117__compressed_pairINS_15__tree_end_nodeIPNS_16__tree_node_baseIPvEEEENS_9allocatorINS_11__tree_nodeINS_12__value_typeINS_12basic_stringIcNS_11char_traitsIcEENS7_IcEEEEmEES3_EEEEE5firstB8ne180100Ev
FNA:4,35,_ZNKSt3__117__compressed_pairINS_15__tree_end_nodeIPNS_16__tree_node_baseIPvEEEENS_9allocatorINS_11__tree_nodeINS_12basic_stringIcNS_11char_traitsIcEENS7_IcEEEES3_EEEEE5firstB8ne180100Ev
FNA:4,235,_ZNKSt3__117__compressed_pairINS_15__tree_end_nodeIPNS_16__tree_node_baseIPvEEEENS_9allocatorINS_11__tree_nodeINS_6chrono14year_month_dayES3_EEEEE5firstB8ne180100Ev
FNA:4,187,_ZNKSt3__117__compressed_pairIPKNS_12basic_stringIcNS_11char_traitsIcEENS_9allocatorIcEEEENS_14default_deleteIS7_EEE5firstB8ne180100Ev
FNA:4,29,_ZNKSt3__117__compressed_pairIPN7pyfolio10TimeSeriesIdEENS_9allocatorIS3_EEE5firstB8ne180100Ev
FNA:4,15,_ZNKSt3__117__compressed_pairIPN7pyfolio10TimeSeriesIdEERNS_9allocatorIS3_EEE5firstB8ne180100Ev
FNA:4,12,_ZNKSt3__117__compressed_pairIPN7pyfolio11attribution17SectorAttributionENS_9allocatorIS3_EEE5firstB8ne180100Ev
FNA:4,4,_ZNKSt3__117__compressed_pairIPN7pyfolio11attribution17SectorAttributionERNS_9allocatorIS3_EEE5firstB8ne180100Ev
FNA:4,20,_ZNKSt3__117__compressed_pairIPN7pyfolio13visualization8PlotDataENS_9allocatorIS3_EEE5firstB8ne180100Ev
FNA:4,1,_ZNKSt3__117__compressed_pairIPN7pyfolio13visualization8PlotDataERNS_9allocatorIS3_EEE5firstB8ne180100Ev
FNA:4,1308,_ZNKSt3__117__compressed_pairIPN7pyfolio8DateTimeENS_9allocatorIS2_EEE5firstB8ne180100Ev
FNA:4,814,_ZNKSt3__117__compressed_pairIPN7pyfolio8DateTimeERNS_9allocatorIS2_EEE5firstB8ne180100Ev
FNA:4,40,_ZNKSt3__117__compressed_pairIPN7pyfolio9positions17PortfolioHoldingsENS_14default_deleteIS3_EEE5firstB8ne180100Ev
FNA:4,0,_ZNKSt3__117__compressed_pairIPN7testing12TestPropertyENS_9allocatorIS2_EEE5firstB8ne180100Ev
FNA:4,0,_ZNKSt3__117__compressed_pairIPN7testing12TestPropertyERNS_9allocatorIS2_EEE5firstB8ne180100Ev
FNA:4,26,_ZNKSt3__117__compressed_pairIPN7testing14TestPartResultENS_9allocatorIS2_EEE5firstB8ne180100Ev
FNA:4,15,_ZNKSt3__117__compressed_pairIPN7testing14TestPartResultERNS_9allocatorIS2_EEE5firstB8ne180100Ev
FNA:4,6,_ZNKSt3__117__compressed_pairIPN7testing8internal11ThreadLocalINS_6vectorINS2_9TraceInfoENS_9allocatorIS5_EEEEE18ValueHolderFactoryENS_14default_deleteISA_EEE5firstB8ne180100Ev
FNA:4,6,_ZNKSt3__117__compressed_pairIPN7testing8internal11ThreadLocalIPNS1_31TestPartResultReporterInterfaceEE18ValueHolderFactoryENS_14default_deleteIS7_EEE5firstB8ne180100Ev
FNA:4,0,_ZNKSt3__117__compressed_pairIPN7testing8internal13edit_distance8EditTypeENS_9allocatorIS4_EEE5firstB8ne180100Ev
FNA:4,0,_ZNKSt3__117__compressed_pairIPN7testing8internal13edit_distance8EditTypeERNS_9allocatorIS4_EEE5firstB8ne180100Ev
FNA:4,0,_ZNKSt3__117__compressed_pairIPN7testing8internal16DeathTestFactoryENS_14default_deleteIS3_EEE5firstB8ne180100Ev
FNA:4,24,_ZNKSt3__117__compressed_pairIPN7testing8internal24InternalRunDeathTestFlagENS_14default_deleteIS3_EEE5firstB8ne180100Ev
FNA:4,0,_ZNKSt3__117__compressed_pairIPN7testing8internal9TraceInfoENS_9allocatorIS3_EEE5firstB8ne180100Ev
FNA:4,0,_ZNKSt3__117__compressed_pairIPN7testing8internal9TraceInfoERNS_9allocatorIS3_EEE5firstB8ne180100Ev
FNA:4,3595,_ZNKSt3__117__compressed_pairIPN8nlohmann16json_abi_v3_11_310basic_jsonINS_3mapENS_6vectorENS_12basic_stringIcNS_11char_traitsIcEENS_9allocatorIcEEEEbxydS9_NS2_14adl_serializerENS5_IhNS9_IhEEEEvEENS9_ISF_EEE5firstB8ne180100Ev
FNA:4,193,_ZNKSt3__117__compressed_pairIPN8nlohmann16json_abi_v3_11_310basic_jsonINS_3mapENS_6vectorENS_12basic_stringIcNS_11char_traitsIcEENS_9allocatorIcEEEEbxydS9_NS2_14adl_serializerENS5_IhNS9_IhEEEEvEERNS9_ISF_EEE5firstB8ne180100Ev
FNA:4,0,_ZNKSt3__117__compressed_pairIPN8nlohmann16json_abi_v3_11_327byte_container_with_subtypeINS_6vectorIhNS_9allocatorIhEEEEEEZNS2_10basic_jsonINS_3mapES4_NS_12basic_stringIcNS_11char_traitsIcEENS5_IcEEEEbxydS5_NS2_14adl_serializerES7_vE6createIS8_JEEEPT_DpOT0_EUlS9_E_E5firstB8ne180100Ev
FNA:4,0,_ZNKSt3__117__compressed_pairIPN8nlohmann16json_abi_v3_11_327byte_container_with_subtypeINS_6vectorIhNS_9allocatorIhEEEEEEZNS2_10basic_jsonINS_3mapES4_NS_12basic_stringIcNS_11char_traitsIcEENS5_IcEEEEbxydS5_NS2_14adl_serializerES7_vE6createIS8_JRKS8_EEEPT_DpOT0_EUlS9_E_E5firstB8ne180100Ev
FNA:4,0,_ZNKSt3__117__compressed_pairIPNS_10__function6__funcIZNK7pyfolio10TimeSeriesIdE8resampleENS3_9FrequencyEEUlRKNS_6vectorIdNS_9allocatorIdEEEEE_NS8_ISD_EEFdSC_EEENS_22__allocator_destructorINS8_ISG_EEEEE5firstB8ne180100Ev
FNA:4,0,_ZNKSt3__117__compressed_pairIPNS_11__hash_nodeINS_12basic_stringIcNS_11char_traitsIcEENS_9allocatorIcEEEEPvEENS_22__hash_node_destructorINS5_IS9_EEEEE5firstB8ne180100Ev
FNA:4,10,_ZNKSt3__117__compressed_pairIPNS_11__hash_nodeINS_17__hash_value_typeIiNS_6vectorIdNS_9allocatorIdEEEEEEPvEENS_22__hash_node_destructorINS4_IS9_EEEEE5firstB8ne180100Ev
FNA:4,0,_ZNKSt3__117__compressed_pairIPNS_11__tree_nodeINS_12__value_typeIN7pyfolio8DateTimeENS_6vectorIdNS_9allocatorIdEEEEEEPvEENS_22__tree_node_destructorINS6_ISB_EEEEE5firstB8ne180100Ev
FNA:4,78,_ZNKSt3__117__compressed_pairIPNS_11__tree_nodeINS_12__value_typeINS_12basic_stringIcNS_11char_traitsIcEENS_9allocatorIcEEEEN7pyfolio9positions7HoldingEEEPvEENS_22__tree_node_destructorINS6_ISE_EEEEE5firstB8ne180100Ev
FNA:4,0,_ZNKSt3__117__compressed_pairIPNS_11__tree_nodeINS_12__value_typeINS_12basic_stringIcNS_11char_traitsIcEENS_9allocatorIcEEEEN7testing8internal34TypeParameterizedTestSuiteRegistry30TypeParameterizedTestSuiteInfoEEEPvEENS_22__tree_node_destructorINS6_ISF_EEEEE5firstB8ne180100Ev
FNA:4,1692,_ZNKSt3__117__compressed_pairIPNS_11__tree_nodeINS_12__value_typeINS_12basic_stringIcNS_11char_traitsIcEENS_9allocatorIcEEEEN8nlohmann16json_abi_v3_11_310basic_jsonINS_3mapENS_6vectorES8_bxydS6_NSA_14adl_serializerENSD_IhNS6_IhEEEEvEEEEPvEENS_22__tree_node_destructorINS6_ISK_EEEEE5firstB8ne180100Ev
FNA:4,106,_ZNKSt3__117__compressed_pairIPNS_11__tree_nodeINS_12__value_typeINS_12basic_stringIcNS_11char_traitsIcEENS_9allocatorIcEEEEdEEPvEENS_22__tree_node_destructorINS6_ISB_EEEEE5firstB8ne180100Ev
FNA:4,0,_ZNKSt3__117__compressed_pairIPNS_11__tree_nodeINS_12__value_typeINS_12basic_stringIcNS_11char_traitsIcEENS_9allocatorIcEEEEmEEPvEENS_22__tree_node_destructorINS6_ISB_EEEEE5firstB8ne180100Ev
FNA:4,16,_ZNKSt3__117__compressed_pairIPNS_11__tree_nodeINS_12basic_stringIcNS_11char_traitsIcEENS_9allocatorIcEEEEPvEENS_22__tree_node_destructorINS5_IS9_EEEEE5firstB8ne180100Ev
FNA:4,156,_ZNKSt3__117__compressed_pairIPNS_11__tree_nodeINS_6chrono14year_month_dayEPvEENS_22__tree_node_destructorINS_9allocatorIS5_EEEEE5firstB8ne180100Ev
FNA:4,329,_ZNKSt3__117__compressed_pairIPNS_12basic_stringIcNS_11char_traitsIcEENS_9allocatorIcEEEENS4_IS6_EEE5firstB8ne180100Ev
FNA:4,2707,_ZNKSt3__117__compressed_pairIPNS_12basic_stringIcNS_11char_traitsIcEENS_9allocatorIcEEEENS_14default_deleteIS6_EEE5firstB8ne180100Ev
FNA:4,31,_ZNKSt3__117__compressed_pairIPNS_12basic_stringIcNS_11char_traitsIcEENS_9allocatorIcEEEERNS4_IS6_EEE5firstB8ne180100Ev
FNA:4,36,_ZNKSt3__117__compressed_pairIPNS_12basic_stringIcNS_11char_traitsIcEENS_9allocatorIcEEEEZN8nlohmann16json_abi_v3_11_310basic_jsonINS_3mapENS_6vectorES6_bxydS4_NS9_14adl_serializerENSC_IhNS4_IhEEEEvE6createIS6_JRA10_KcEEEPT_DpOT0_EUlS7_E_E5firstB8ne180100Ev
FNA:4,50,_ZNKSt3__117__compressed_pairIPNS_12basic_stringIcNS_11char_traitsIcEENS_9allocatorIcEEEEZN8nlohmann16json_abi_v3_11_310basic_jsonINS_3mapENS_6vectorES6_bxydS4_NS9_14adl_serializerENSC_IhNS4_IhEEEEvE6createIS6_JRA11_KcEEEPT_DpOT0_EUlS7_E_E5firstB8ne180100Ev
FNA:4,48,_ZNKSt3__117__compressed_pairIPNS_12basic_stringIcNS_11char_traitsIcEENS_9allocatorIcEEEEZN8nlohmann16json_abi_v3_11_310basic_jsonINS_3mapENS_6vectorES6_bxydS4_NS9_14adl_serializerENSC_IhNS4_IhEEEEvE6createIS6_JRA12_KcEEEPT_DpOT0_EUlS7_E_E5firstB8ne180100Ev
FNA:4,14,_ZNKSt3__117__compressed_pairIPNS_12basic_stringIcNS_11char_traitsIcEENS_9allocatorIcEEEEZN8nlohmann16json_abi_v3_11_310basic_jsonINS_3mapENS_6vectorES6_bxydS4_NS9_14adl_serializerENSC_IhNS4_IhEEEEvE6createIS6_JRA14_KcEEEPT_DpOT0_EUlS7_E_E5firstB8ne180100Ev
FNA:4,22,_ZNKSt3__117__compressed_pairIPNS_12basic_stringIcNS_11char_traitsIcEENS_9allocatorIcEEEEZN8nlohmann16json_abi_v3_11_310basic_jsonINS_3mapENS_6vectorES6_bxydS4_NS9_14adl_serializerENSC_IhNS4_IhEEEEvE6createIS6_JRA15_KcEEEPT_DpOT0_EUlS7_E_E5firstB8ne180100Ev
FNA:4,8,_ZNKSt3__117__compressed_pairIPNS_12basic_stringIcNS_11char_traitsIcEENS_9allocatorIcEEEEZN8nlohmann16json_abi_v3_11_310basic_jsonINS_3mapENS_6vectorES6_bxydS4_NS9_14adl_serializerENSC_IhNS4_IhEEEEvE6createIS6_JRA1_KcEEEPT_DpOT0_EUlS7_E_E5firstB8ne180100Ev
FNA:4,2,_ZNKSt3__117__compressed_pairIPNS_12basic_stringIcNS_11char_traitsIcEENS_9allocatorIcEEEEZN8nlohmann16json_abi_v3_11_310basic_jsonINS_3mapENS_6vectorES6_bxydS4_NS9_14adl_serializerENSC_IhNS4_IhEEEEvE6createIS6_JRA20_KcEEEPT_DpOT0_EUlS7_E_E5firstB8ne180100Ev
FNA:4,2,_ZNKSt3__117__compressed_pairIPNS_12basic_stringIcNS_11char_traitsIcEENS_9allocatorIcEEEEZN8nlohmann16json_abi_v3_11_310basic_jsonINS_3mapENS_6vectorES6_bxydS4_NS9_14adl_serializerENSC_IhNS4_IhEEEEvE6createIS6_JRA22_KcEEEPT_DpOT0_EUlS7_E_E5firstB8ne180100Ev
FNA:4,24,_ZNKSt3__117__compressed_pairIPNS_12basic_stringIcNS_11char_traitsIcEENS_9allocatorIcEEEEZN8nlohmann16json_abi_v3_11_310basic_jsonINS_3mapENS_6vectorES6_bxydS4_NS9_14adl_serializerENSC_IhNS4_IhEEEEvE6createIS6_JRA23_KcEEEPT_DpOT0_EUlS7_E_E5firstB8ne180100Ev
FNA:4,2,_ZNKSt3__117__compressed_pairIPNS_12basic_stringIcNS_11char_traitsIcEENS_9allocatorIcEEEEZN8nlohmann16json_abi_v3_11_310basic_jsonINS_3mapENS_6vectorES6_bxydS4_NS9_14adl_serializerENSC_IhNS4_IhEEEEvE6createIS6_JRA27_KcEEEPT_DpOT0_EUlS7_E_E5firstB8ne180100Ev
FNA:4,308,_ZNKSt3__117__compressed_pairIPNS_12basic_stringIcNS_11char_traitsIcEENS_9allocatorIcEEEEZN8nlohmann16json_abi_v3_11_310basic_jsonINS_3mapENS_6vectorES6_bxydS4_NS9_14adl_serializerENSC_IhNS4_IhEEEEvE6createIS6_JRA2_KcEEEPT_DpOT0_EUlS7_E_E5firstB8ne180100Ev
FNA:4,4,_ZNKSt3__117__compressed_pairIPNS_12basic_stringIcNS_11char_traitsIcEENS_9allocatorIcEEEEZN8nlohmann16json_abi_v3_11_310basic_jsonINS_3mapENS_6vectorES6_bxydS4_NS9_14adl_serializerENSC_IhNS4_IhEEEEvE6createIS6_JRA35_KcEEEPT_DpOT0_EUlS7_E_E5firstB8ne180100Ev
FNA:4,82,_ZNKSt3__117__compressed_pairIPNS_12basic_stringIcNS_11char_traitsIcEENS_9allocatorIcEEEEZN8nlohmann16json_abi_v3_11_310basic_jsonINS_3mapENS_6vectorES6_bxydS4_NS9_14adl_serializerENSC_IhNS4_IhEEEEvE6createIS6_JRA3_KcEEEPT_DpOT0_EUlS7_E_E5firstB8ne180100Ev
FNA:4,4,_ZNKSt3__117__compressed_pairIPNS_12basic_stringIcNS_11char_traitsIcEENS_9allocatorIcEEEEZN8nlohmann16json_abi_v3_11_310basic_jsonINS_3mapENS_6vectorES6_bxydS4_NS9_14adl_serializerENSC_IhNS4_IhEEEEvE6createIS6_JRA45_KcEEEPT_DpOT0_EUlS7_E_E5firstB8ne180100Ev
FNA:4,84,_ZNKSt3__117__compressed_pairIPNS_12basic_stringIcNS_11char_traitsIcEENS_9allocatorIcEEEEZN8nlohmann16json_abi_v3_11_310basic_jsonINS_3mapENS_6vectorES6_bxydS4_NS9_14adl_serializerENSC_IhNS4_IhEEEEvE6createIS6_JRA4_KcEEEPT_DpOT0_EUlS7_E_E5firstB8ne180100Ev
FNA:4,4,_ZNKSt3__117__compressed_pairIPNS_12basic_stringIcNS_11char_traitsIcEENS_9allocatorIcEEEEZN8nlohmann16json_abi_v3_11_310basic_jsonINS_3mapENS_6vectorES6_bxydS4_NS9_14adl_serializerENSC_IhNS4_IhEEEEvE6createIS6_JRA53_KcEEEPT_DpOT0_EUlS7_E_E5firstB8ne180100Ev
FNA:4,300,_ZNKSt3__117__compressed_pairIPNS_12basic_stringIcNS_11char_traitsIcEENS_9allocatorIcEEEEZN8nlohmann16json_abi_v3_11_310basic_jsonINS_3mapENS_6vectorES6_bxydS4_NS9_14adl_serializerENSC_IhNS4_IhEEEEvE6createIS6_JRA5_KcEEEPT_DpOT0_EUlS7_E_E5firstB8ne180100Ev
FNA:4,248,_ZNKSt3__117__compressed_pairIPNS_12basic_stringIcNS_11char_traitsIcEENS_9allocatorIcEEEEZN8nlohmann16json_abi_v3_11_310basic_jsonINS_3mapENS_6vectorES6_bxydS4_NS9_14adl_serializerENSC_IhNS4_IhEEEEvE6createIS6_JRA6_KcEEEPT_DpOT0_EUlS7_E_E5firstB8ne180100Ev
FNA:4,2,_ZNKSt3__117__compressed_pairIPNS_12basic_stringIcNS_11char_traitsIcEENS_9allocatorIcEEEEZN8nlohmann16json_abi_v3_11_310basic_jsonINS_3mapENS_6vectorES6_bxydS4_NS9_14adl_serializerENSC_IhNS4_IhEEEEvE6createIS6_JRA72_KcEEEPT_DpOT0_EUlS7_E_E5firstB8ne180100Ev
FNA:4,104,_ZNKSt3__117__compressed_pairIPNS_12basic_stringIcNS_11char_traitsIcEENS_9allocatorIcEEEEZN8nlohmann16json_abi_v3_11_310basic_jsonINS_3mapENS_6vectorES6_bxydS4_NS9_14adl_serializerENSC_IhNS4_IhEEEEvE6createIS6_JRA7_KcEEEPT_DpOT0_EUlS7_E_E5firstB8ne180100Ev
FNA:4,108,_ZNKSt3__117__compressed_pairIPNS_12basic_stringIcNS_11char_traitsIcEENS_9allocatorIcEEEEZN8nlohmann16json_abi_v3_11_310basic_jsonINS_3mapENS_6vectorES6_bxydS4_NS9_14adl_serializerENSC_IhNS4_IhEEEEvE6createIS6_JRA8_KcEEEPT_DpOT0_EUlS7_E_E5firstB8ne180100Ev
FNA:4,194,_ZNKSt3__117__compressed_pairIPNS_12basic_stringIcNS_11char_traitsIcEENS_9allocatorIcEEEEZN8nlohmann16json_abi_v3_11_310basic_jsonINS_3mapENS_6vectorES6_bxydS4_NS9_14adl_serializerENSC_IhNS4_IhEEEEvE6createIS6_JRA9_KcEEEPT_DpOT0_EUlS7_E_E5firstB8ne180100Ev
FNA:4,1270,_ZNKSt3__117__compressed_pairIPNS_12basic_stringIcNS_11char_traitsIcEENS_9allocatorIcEEEEZN8nlohmann16json_abi_v3_11_310basic_jsonINS_3mapENS_6vectorES6_bxydS4_NS9_14adl_serializerENSC_IhNS4_IhEEEEvE6createIS6_JRKS6_EEEPT_DpOT0_EUlS7_E_E5firstB8ne180100Ev
FNA:4,908,_ZNKSt3__117__compressed_pairIPNS_12basic_stringIcNS_11char_traitsIcEENS_9allocatorIcEEEEZN8nlohmann16json_abi_v3_11_310basic_jsonINS_3mapENS_6vectorES6_bxydS4_NS9_14adl_serializerENSC_IhNS4_IhEEEEvE6createIS6_JS6_EEEPT_DpOT0_EUlS7_E_E5firstB8ne180100Ev
FNA:4,10399,_ZNKSt3__117__compressed_pairIPNS_18basic_stringstreamIcNS_11char_traitsIcEENS_9allocatorIcEEEENS_14default_deleteIS6_EEE5firstB8ne180100Ev
FNA:4,434,_ZNKSt3__117__compressed_pairIPNS_3mapINS_12basic_stringIcNS_11char_traitsIcEENS_9allocatorIcEEEEN8nlohmann16json_abi_v3_11_310basic_jsonIS1_NS_6vectorES7_bxydS5_NS9_14adl_serializerENSB_IhNS5_IhEEEEvEENS_4lessIvEENS5_INS_4pairIKS7_SF_EEEEEEZNSF_6createISM_JEEEPT_DpOT0_EUlSN_E_E5firstB8ne180100Ev
FNA:4,118,_ZNKSt3__117__compressed_pairIPNS_3mapINS_12basic_stringIcNS_11char_traitsIcEENS_9allocatorIcEEEEN8nlohmann16json_abi_v3_11_310basic_jsonIS1_NS_6vectorES7_bxydS5_NS9_14adl_serializerENSB_IhNS5_IhEEEEvEENS_4lessIvEENS5_INS_4pairIKS7_SF_EEEEEEZNSF_6createISM_JRKSM_EEEPT_DpOT0_EUlSN_E_E5firstB8ne180100Ev
FNA:4,0,_ZNKSt3__117__compressed_pairIPNS_4pairIN7pyfolio8DateTimeEdEENS_9allocatorIS4_EEE5firstB8ne180100Ev
FNA:4,0,_ZNKSt3__117__compressed_pairIPNS_4pairIN7pyfolio8DateTimeEdEERNS_9allocatorIS4_EEE5firstB8ne180100Ev
FNA:4,30,_ZNKSt3__117__compressed_pairIPNS_5tupleIJNS_10unique_ptrINS_15__thread_structENS_14default_deleteIS3_EEEEZN36CoreTypesTest_BasicThreadSafety_Test8TestBodyEvE3$_0EEENS4_IS9_EEE5firstB8ne180100Ev
FNA:4,6,_ZNKSt3__117__compressed_pairIPNS_6threadENS_9allocatorIS1_EEE5firstB8ne180100Ev
FNA:4,4,_ZNKSt3__117__compressed_pairIPNS_6threadERNS_9allocatorIS1_EEE5firstB8ne180100Ev
FNA:4,0,_ZNKSt3__117__compressed_pairIPNS_6vectorIN7testing8internal13edit_distance8EditTypeENS_9allocatorIS5_EEEENS6_IS8_EEE5firstB8ne180100Ev
FNA:4,0,_ZNKSt3__117__compressed_pairIPNS_6vectorIN8nlohmann16json_abi_v3_11_310basic_jsonINS_3mapES1_NS_12basic_stringIcNS_11char_traitsIcEENS_9allocatorIcEEEEbxydS9_NS3_14adl_serializerENS1_IhNS9_IhEEEEvEENS9_ISF_EEEEZNSF_6createISH_JEEEPT_DpOT0_EUlSI_E_E5firstB8ne180100Ev
FNA:4,6,_ZNKSt3__117__compressed_pairIPNS_6vectorIN8nlohmann16json_abi_v3_11_310basic_jsonINS_3mapES1_NS_12basic_stringIcNS_11char_traitsIcEENS_9allocatorIcEEEEbxydS9_NS3_14adl_serializerENS1_IhNS9_IhEEEEvEENS9_ISF_EEEEZNSF_6createISH_JNS_11__wrap_iterIPKNS1_IdNS9_IdEEEEEESP_EEEPT_DpOT0_EUlSI_E_E5firstB8ne180100Ev
FNA:4,18,_ZNKSt3__117__compressed_pairIPNS_6vectorIN8nlohmann16json_abi_v3_11_310basic_jsonINS_3mapES1_NS_12basic_stringIcNS_11char_traitsIcEENS_9allocatorIcEEEEbxydS9_NS3_14adl_serializerENS1_IhNS9_IhEEEEvEENS9_ISF_EEEEZNSF_6createISH_JNS_11__wrap_iterIPKSB_EESN_EEEPT_DpOT0_EUlSI_E_E5firstB8ne180100Ev
FNA:4,42,_ZNKSt3__117__compressed_pairIPNS_6vectorIN8nlohmann16json_abi_v3_11_310basic_jsonINS_3mapES1_NS_12basic_stringIcNS_11char_traitsIcEENS_9allocatorIcEEEEbxydS9_NS3_14adl_serializerENS1_IhNS9_IhEEEEvEENS9_ISF_EEEEZNSF_6createISH_JNS_11__wrap_iterIPKdEESN_EEEPT_DpOT0_EUlSI_E_E5firstB8ne180100Ev
FNA:4,1310,_ZNKSt3__117__compressed_pairIPNS_6vectorIN8nlohmann16json_abi_v3_11_310basic_jsonINS_3mapES1_NS_12basic_stringIcNS_11char_traitsIcEENS_9allocatorIcEEEEbxydS9_NS3_14adl_serializerENS1_IhNS9_IhEEEEvEENS9_ISF_EEEEZNSF_6createISH_JPKNS3_6detail8json_refISF_EESO_EEEPT_DpOT0_EUlSI_E_E5firstB8ne180100Ev
FNA:4,96,_ZNKSt3__117__compressed_pairIPNS_6vectorIN8nlohmann16json_abi_v3_11_310basic_jsonINS_3mapES1_NS_12basic_stringIcNS_11char_traitsIcEENS_9allocatorIcEEEEbxydS9_NS3_14adl_serializerENS1_IhNS9_IhEEEEvEENS9_ISF_EEEEZNSF_6createISH_JRKSH_EEEPT_DpOT0_EUlSI_E_E5firstB8ne180100Ev
FNA:4,8,_ZNKSt3__117__compressed_pairIPNS_6vectorIdNS_9allocatorIdEEEENS2_IS4_EEE5firstB8ne180100Ev
FNA:4,4,_ZNKSt3__117__compressed_pairIPNS_6vectorIdNS_9allocatorIdEEEERNS2_IS4_EEE5firstB8ne180100Ev
FNA:4,0,_ZNKSt3__117__compressed_pairIPPN7testing11EnvironmentENS_9allocatorIS3_EEE5firstB8ne180100Ev
FNA:4,0,_ZNKSt3__117__compressed_pairIPPN7testing11EnvironmentERNS_9allocatorIS3_EEE5firstB8ne180100Ev
FNA:4,13,_ZNKSt3__117__compressed_pairIPPN7testing17TestEventListenerENS_9allocatorIS3_EEE5firstB8ne180100Ev
FNA:4,0,_ZNKSt3__117__compressed_pairIPPN7testing17TestEventListenerERNS_9allocatorIS3_EEE5firstB8ne180100Ev
FNA:4,54,_ZNKSt3__117__compressed_pairIPPN7testing8TestInfoENS_9allocatorIS3_EEE5firstB8ne180100Ev
FNA:4,43,_ZNKSt3__117__compressed_pairIPPN7testing8TestInfoERNS_9allocatorIS3_EEE5firstB8ne180100Ev
FNA:4,0,_ZNKSt3__117__compressed_pairIPPN7testing8internal30ParameterizedTestSuiteInfoBaseENS_9allocatorIS4_EEE5firstB8ne180100Ev
FNA:4,11,_ZNKSt3__117__compressed_pairIPPN7testing9TestSuiteENS_9allocatorIS3_EEE5firstB8ne180100Ev
FNA:4,0,_ZNKSt3__117__compressed_pairIPPN7testing9TestSuiteERNS_9allocatorIS3_EEE5firstB8ne180100Ev
FNA:4,0,_ZNKSt3__117__compressed_pairIPPNS_16__hash_node_baseIPNS_11__hash_nodeINS_12basic_stringIcNS_11char_traitsIcEENS_9allocatorIcEEEEPvEEEENS_25__bucket_list_deallocatorINS6_ISD_EEEEE5firstB8ne180100Ev
FNA:4,510,_ZNKSt3__117__compressed_pairIPPNS_16__hash_node_baseIPNS_11__hash_nodeINS_17__hash_value_typeIiNS_6vectorIdNS_9allocatorIdEEEEEEPvEEEENS_25__bucket_list_deallocatorINS5_ISD_EEEEE5firstB8ne180100Ev
FNA:4,0,_ZNKSt3__117__compressed_pairIPPcNS_9allocatorIS1_EEE5firstB8ne180100Ev
FNA:4,0,_ZNKSt3__117__compressed_pairIPPcRNS_9allocatorIS1_EEE5firstB8ne180100Ev
FNA:4,3911,_ZNKSt3__117__compressed_pairIPdNS_9allocatorIdEEE5firstB8ne180100Ev
FNA:4,1221,_ZNKSt3__117__compressed_pairIPdRNS_9allocatorIdEEE5firstB8ne180100Ev
FNA:4,0,_ZNKSt3__117__compressed_pairIPhNS_9allocatorIhEEE5firstB8ne180100Ev
FNA:4,66,_ZNKSt3__117__compressed_pairIPiNS_9allocatorIiEEE5firstB8ne180100Ev
FNA:4,43,_ZNKSt3__117__compressed_pairIPiRNS_9allocatorIiEEE5firstB8ne180100Ev
FNA:4,1,_ZNKSt3__117__compressed_pairIPmNS_9allocatorImEEE5firstB8ne180100Ev
FNA:4,0,_ZNKSt3__117__compressed_pairIPmRNS_9allocatorImEEE5firstB8ne180100Ev
FNA:4,0,_ZNKSt3__117__compressed_pairIZNK7pyfolio10TimeSeriesIdE8resampleENS1_9FrequencyEEUlRKNS_6vectorIdNS_9allocatorIdEEEEE_NS6_ISB_EEE5firstB8ne180100Ev
FNA:4,1,_ZNKSt3__117__compressed_pairImNS_19__map_value_compareINS_12basic_stringIcNS_11char_traitsIcEENS_9allocatorIcEEEENS_12__value_typeIS7_N7pyfolio9positions7HoldingEEENS_4lessIS7_EELb1EEEE5firstB8ne180100Ev
FNA:4,1069,_ZNKSt3__117__compressed_pairImNS_19__map_value_compareINS_12basic_stringIcNS_11char_traitsIcEENS_9allocatorIcEEEENS_12__value_typeIS7_N8nlohmann16json_abi_v3_11_310basic_jsonINS_3mapENS_6vectorES7_bxydS5_NSA_14adl_serializerENSD_IhNS5_IhEEEEvEEEENS_4lessIvEELb1EEEE5firstB8ne180100Ev
FNA:4,3,_ZNKSt3__117__compressed_pairImNS_19__map_value_compareINS_12basic_stringIcNS_11char_traitsIcEENS_9allocatorIcEEEENS_12__value_typeIS7_dEENS_4lessIS7_EELb1EEEE5firstB8ne180100Ev
FNA:4,0,_ZNKSt3__117__compressed_pairImNS_19__map_value_compareINS_12basic_stringIcNS_11char_traitsIcEENS_9allocatorIcEEEENS_12__value_typeIS7_mEENS_4lessIS7_EELb1EEEE5firstB8ne180100Ev
FNA:4,0,_ZNKSt3__117__compressed_pairImNS_9allocatorINS_11__list_nodeINS_4pairIcPKcEEPvEEEEE5firstB8ne180100Ev
FNA:4,539,_ZNKSt3__117__compressed_pairImNS_9allocatorIPNS_16__hash_node_baseIPNS_11__hash_nodeINS_12basic_stringIcNS_11char_traitsIcEENS1_IcEEEEPvEEEEEEE5firstB8ne180100Ev
FNA:4,508,_ZNKSt3__117__compressed_pairImNS_9allocatorIPNS_16__hash_node_baseIPNS_11__hash_nodeINS_17__hash_value_typeIiNS_6vectorIdNS1_IdEEEEEEPvEEEEEEE5firstB8ne180100Ev
FNL:5,137,138
FNA:5,282,_ZNSt3__117__compressed_pairINS_12basic_stringIcNS_11char_traitsIcEENS_9allocatorIcEEE5__repES5_E6secondB8ne180100Ev
FNA:5,0,_ZNSt3__117__compressed_pairINS_15__tree_end_nodeIPNS_16__tree_node_baseIPvEEEENS_9allocatorINS_11__tree_nodeINS_12__value_typeIN7pyfolio8DateTimeENS_6vectorIdNS7_IdEEEEEES3_EEEEE6secondB8ne180100Ev
FNA:5,78,_ZNSt3__117__compressed_pairINS_15__tree_end_nodeIPNS_16__tree_node_baseIPvEEEENS_9allocatorINS_11__tree_nodeINS_12__value_typeINS_12basic_stringIcNS_11char_traitsIcEENS7_IcEEEEN7pyfolio9positions7HoldingEEES3_EEEEE6secondB8ne180100Ev
FNA:5,0,_ZNSt3__117__compressed_pairINS_15__tree_end_nodeIPNS_16__tree_node_baseIPvEEEENS_9allocatorINS_11__tree_nodeINS_12__value_typeINS_12basic_stringIcNS_11char_traitsIcEENS7_IcEEEEN7testing8internal34TypeParameterizedTestSuiteRegistry30TypeParameterizedTestSuiteInfoEEES3_EEEEE6secondB8ne180100Ev
FNA:5,1692,_ZNSt3__117__compressed_pairINS_15__tree_end_nodeIPNS_16__tree_node_baseIPvEEEENS_9allocatorINS_11__tree_nodeINS_12__value_typeINS_12basic_stringIcNS_11char_traitsIcEENS7_IcEEEEN8nlohmann16json_abi_v3_11_310basic_jsonINS_3mapENS_6vectorESE_bxydS7_NSG_14adl_serializerENSJ_IhNS7_IhEEEEvEEEES3_EEEEE6secondB8ne180100Ev
FNA:5,106,_ZNSt3__117__compressed_pairINS_15__tree_end_nodeIPNS_16__tree_node_baseIPvEEEENS_9allocatorINS_11__tree_nodeINS_12__value_typeINS_12basic_stringIcNS_11char_traitsIcEENS7_IcEEEEdEES3_EEEEE6secondB8ne180100Ev
FNA:5,0,_ZNSt3__117__compressed_pairINS_15__tree_end_nodeIPNS_16__tree_node_baseIPvEEEENS_9allocatorINS_11__tree_nodeINS_12__value_typeINS_12basic_stringIcNS_11char_traitsIcEENS7_IcEEEEmEES3_EEEEE6secondB8ne180100Ev
FNA:5,16,_ZNSt3__117__compressed_pairINS_15__tree_end_nodeIPNS_16__tree_node_baseIPvEEEENS_9allocatorINS_11__tree_nodeINS_12basic_stringIcNS_11char_traitsIcEENS7_IcEEEES3_EEEEE6secondB8ne180100Ev
FNA:5,102,_ZNSt3__117__compressed_pairINS_15__tree_end_nodeIPNS_16__tree_node_baseIPvEEEENS_9allocatorINS_11__tree_nodeINS_6chrono14year_month_dayES3_EEEEE6secondB8ne180100Ev
FNA:5,83,_ZNSt3__117__compressed_pairINS_16__hash_node_baseIPNS_11__hash_nodeINS_12basic_stringIcNS_11char_traitsIcEENS_9allocatorIcEEEEPvEEEENS6_ISA_EEE6secondB8ne180100Ev
FNA:5,4,_ZNSt3__117__compressed_pairINS_16__hash_node_baseIPNS_11__hash_nodeINS_17__hash_value_typeIiNS_6vectorIdNS_9allocatorIdEEEEEEPvEEEENS5_ISA_EEE6secondB8ne180100Ev
FNA:5,0,_ZNSt3__117__compressed_pairIPKNS_12basic_stringIcNS_11char_traitsIcEENS_9allocatorIcEEEENS_14default_deleteIS7_EEE6secondB8ne180100Ev
FNA:5,91,_ZNSt3__117__compressed_pairIPN7pyfolio10TimeSeriesIdEENS_9allocatorIS3_EEE6secondB8ne180100Ev
FNA:5,70,_ZNSt3__117__compressed_pairIPN7pyfolio10TimeSeriesIdEERNS_9allocatorIS3_EEE6secondB8ne180100Ev
FNA:5,52,_ZNSt3__117__compressed_pairIPN7pyfolio11attribution17SectorAttributionENS_9allocatorIS3_EEE6secondB8ne180100Ev
FNA:5,16,_ZNSt3__117__compressed_pairIPN7pyfolio11attribution17SectorAttributionERNS_9allocatorIS3_EEE6secondB8ne180100Ev
FNA:5,47,_ZNSt3__117__compressed_pairIPN7pyfolio13visualization8PlotDataENS_9allocatorIS3_EEE6secondB8ne180100Ev
FNA:5,11,_ZNSt3__117__compressed_pairIPN7pyfolio13visualization8PlotDataERNS_9allocatorIS3_EEE6secondB8ne180100Ev
FNA:5,50326,_ZNSt3__117__compressed_pairIPN7pyfolio8DateTimeENS_9allocatorIS2_EEE6secondB8ne180100Ev
FNA:5,19939,_ZNSt3__117__compressed_pairIPN7pyfolio8DateTimeERNS_9allocatorIS2_EEE6secondB8ne180100Ev
FNA:5,39,_ZNSt3__117__compressed_pairIPN7pyfolio9positions17PortfolioHoldingsENS_14default_deleteIS3_EEE6secondB8ne180100Ev
FNA:5,0,_ZNSt3__117__compressed_pairIPN7testing12TestPropertyENS_9allocatorIS2_EEE6secondB8ne180100Ev
FNA:5,0,_ZNSt3__117__compressed_pairIPN7testing12TestPropertyERNS_9allocatorIS2_EEE6secondB8ne180100Ev
FNA:5,144,_ZNSt3__117__compressed_pairIPN7testing14TestPartResultENS_9allocatorIS2_EEE6secondB8ne180100Ev
FNA:5,179,_ZNSt3__117__compressed_pairIPN7testing14TestPartResultERNS_9allocatorIS2_EEE6secondB8ne180100Ev
FNA:5,1,_ZNSt3__117__compressed_pairIPN7testing8internal11ThreadLocalINS_6vectorINS2_9TraceInfoENS_9allocatorIS5_EEEEE18ValueHolderFactoryENS_14default_deleteISA_EEE6secondB8ne180100Ev
FNA:5,1,_ZNSt3__117__compressed_pairIPN7testing8internal11ThreadLocalIPNS1_31TestPartResultReporterInterfaceEE18ValueHolderFactoryENS_14default_deleteIS7_EEE6secondB8ne180100Ev
FNA:5,0,_ZNSt3__117__compressed_pairIPN7testing8internal13edit_distance8EditTypeENS_9allocatorIS4_EEE6secondB8ne180100Ev
FNA:5,0,_ZNSt3__117__compressed_pairIPN7testing8internal13edit_distance8EditTypeERNS_9allocatorIS4_EEE6secondB8ne180100Ev
FNA:5,132,_ZNSt3__117__compressed_pairIPN7testing8internal14GTestFlagSaverENS_14default_deleteIS3_EEE6secondB8ne180100Ev
FNA:5,1,_ZNSt3__117__compressed_pairIPN7testing8internal16DeathTestFactoryENS_14default_deleteIS3_EEE6secondB8ne180100Ev
FNA:5,0,_ZNSt3__117__compressed_pairIPN7testing8internal24InternalRunDeathTestFlagENS_14default_deleteIS3_EEE6secondB8ne180100Ev
FNA:5,0,_ZNSt3__117__compressed_pairIPN7testing8internal9TraceInfoENS_9allocatorIS3_EEE6secondB8ne180100Ev
FNA:5,0,_ZNSt3__117__compressed_pairIPN7testing8internal9TraceInfoERNS_9allocatorIS3_EEE6secondB8ne180100Ev
FNA:5,17814,_ZNSt3__117__compressed_pairIPN8nlohmann16json_abi_v3_11_310basic_jsonINS_3mapENS_6vectorENS_12basic_stringIcNS_11char_traitsIcEENS_9allocatorIcEEEEbxydS9_NS2_14adl_serializerENS5_IhNS9_IhEEEEvEENS9_ISF_EEE6secondB8ne180100Ev
FNA:5,3695,_ZNSt3__117__compressed_pairIPN8nlohmann16json_abi_v3_11_310basic_jsonINS_3mapENS_6vectorENS_12basic_stringIcNS_11char_traitsIcEENS_9allocatorIcEEEEbxydS9_NS2_14adl_serializerENS5_IhNS9_IhEEEEvEERNS9_ISF_EEE6secondB8ne180100Ev
FNA:5,0,_ZNSt3__117__compressed_pairIPN8nlohmann16json_abi_v3_11_327byte_container_with_subtypeINS_6vectorIhNS_9allocatorIhEEEEEEZNS2_10basic_jsonINS_3mapES4_NS_12basic_stringIcNS_11char_traitsIcEENS5_IcEEEEbxydS5_NS2_14adl_serializerES7_vE6createIS8_JEEEPT_DpOT0_EUlS9_E_E6secondB8ne180100Ev
FNA:5,0,_ZNSt3__117__compressed_pairIPN8nlohmann16json_abi_v3_11_327byte_container_with_subtypeINS_6vectorIhNS_9allocatorIhEEEEEEZNS2_10basic_jsonINS_3mapES4_NS_12basic_stringIcNS_11char_traitsIcEENS5_IcEEEEbxydS5_NS2_14adl_serializerES7_vE6createIS8_JRKS8_EEEPT_DpOT0_EUlS9_E_E6secondB8ne180100Ev
FNA:5,0,_ZNSt3__117__compressed_pairIPNS_10__function6__funcIZNK7pyfolio10TimeSeriesIdE8resampleENS3_9FrequencyEEUlRKNS_6vectorIdNS_9allocatorIdEEEEE_NS8_ISD_EEFdSC_EEENS_22__allocator_destructorINS8_ISG_EEEEE6secondB8ne180100Ev
FNA:5,0,_ZNSt3__117__compressed_pairIPNS_11__hash_nodeINS_12basic_stringIcNS_11char_traitsIcEENS_9allocatorIcEEEEPvEENS_22__hash_node_destructorINS5_IS9_EEEEE6secondB8ne180100Ev
FNA:5,2,_ZNSt3__117__compressed_pairIPNS_11__hash_nodeINS_17__hash_value_typeIiNS_6vectorIdNS_9allocatorIdEEEEEEPvEENS_22__hash_node_destructorINS4_IS9_EEEEE6secondB8ne180100Ev
FNA:5,0,_ZNSt3__117__compressed_pairIPNS_11__tree_nodeINS_12__value_typeIN7pyfolio8DateTimeENS_6vectorIdNS_9allocatorIdEEEEEEPvEENS_22__tree_node_destructorINS6_ISB_EEEEE6secondB8ne180100Ev
FNA:5,39,_ZNSt3__117__compressed_pairIPNS_11__tree_nodeINS_12__value_typeINS_12basic_stringIcNS_11char_traitsIcEENS_9allocatorIcEEEEN7pyfolio9positions7HoldingEEEPvEENS_22__tree_node_destructorINS6_ISE_EEEEE6secondB8ne180100Ev
FNA:5,0,_ZNSt3__117__compressed_pairIPNS_11__tree_nodeINS_12__value_typeINS_12basic_stringIcNS_11char_traitsIcEENS_9allocatorIcEEEEN7testing8internal34TypeParameterizedTestSuiteRegistry30TypeParameterizedTestSuiteInfoEEEPvEENS_22__tree_node_destructorINS6_ISF_EEEEE6secondB8ne180100Ev
FNA:5,846,_ZNSt3__117__compressed_pairIPNS_11__tree_nodeINS_12__value_typeINS_12basic_stringIcNS_11char_traitsIcEENS_9allocatorIcEEEEN8nlohmann16json_abi_v3_11_310basic_jsonINS_3mapENS_6vectorES8_bxydS6_NSA_14adl_serializerENSD_IhNS6_IhEEEEvEEEEPvEENS_22__tree_node_destructorINS6_ISK_EEEEE6secondB8ne180100Ev
FNA:5,53,_ZNSt3__117__compressed_pairIPNS_11__tree_nodeINS_12__value_typeINS_12basic_stringIcNS_11char_traitsIcEENS_9allocatorIcEEEEdEEPvEENS_22__tree_node_destructorINS6_ISB_EEEEE6secondB8ne180100Ev
FNA:5,0,_ZNSt3__117__compressed_pairIPNS_11__tree_nodeINS_12__value_typeINS_12basic_stringIcNS_11char_traitsIcEENS_9allocatorIcEEEEmEEPvEENS_22__tree_node_destructorINS6_ISB_EEEEE6secondB8ne180100Ev
FNA:5,8,_ZNSt3__117__compressed_pairIPNS_11__tree_nodeINS_12basic_stringIcNS_11char_traitsIcEENS_9allocatorIcEEEEPvEENS_22__tree_node_destructorINS5_IS9_EEEEE6secondB8ne180100Ev
FNA:5,78,_ZNSt3__117__compressed_pairIPNS_11__tree_nodeINS_6chrono14year_month_dayEPvEENS_22__tree_node_destructorINS_9allocatorIS5_EEEEE6secondB8ne180100Ev
FNA:5,1291,_ZNSt3__117__compressed_pairIPNS_12basic_stringIcNS_11char_traitsIcEENS_9allocatorIcEEEENS4_IS6_EEE6secondB8ne180100Ev
FNA:5,220,_ZNSt3__117__compressed_pairIPNS_12basic_stringIcNS_11char_traitsIcEENS_9allocatorIcEEEENS_14default_deleteIS6_EEE6secondB8ne180100Ev
FNA:5,212,_ZNSt3__117__compressed_pairIPNS_12basic_stringIcNS_11char_traitsIcEENS_9allocatorIcEEEERNS4_IS6_EEE6secondB8ne180100Ev
FNA:5,0,_ZNSt3__117__compressed_pairIPNS_12basic_stringIcNS_11char_traitsIcEENS_9allocatorIcEEEEZN8nlohmann16json_abi_v3_11_310basic_jsonINS_3mapENS_6vectorES6_bxydS4_NS9_14adl_serializerENSC_IhNS4_IhEEEEvE6createIS6_JRA10_KcEEEPT_DpOT0_EUlS7_E_E6secondB8ne180100Ev
FNA:5,0,_ZNSt3__117__compressed_pairIPNS_12basic_stringIcNS_11char_traitsIcEENS_9allocatorIcEEEEZN8nlohmann16json_abi_v3_11_310basic_jsonINS_3mapENS_6vectorES6_bxydS4_NS9_14adl_serializerENSC_IhNS4_IhEEEEvE6createIS6_JRA11_KcEEEPT_DpOT0_EUlS7_E_E6secondB8ne180100Ev
FNA:5,0,_ZNSt3__117__compressed_pairIPNS_12basic_stringIcNS_11char_traitsIcEENS_9allocatorIcEEEEZN8nlohmann16json_abi_v3_11_310basic_jsonINS_3mapENS_6vectorES6_bxydS4_NS9_14adl_serializerENSC_IhNS4_IhEEEEvE6createIS6_JRA12_KcEEEPT_DpOT0_EUlS7_E_E6secondB8ne180100Ev
FNA:5,0,_ZNSt3__117__compressed_pairIPNS_12basic_stringIcNS_11char_traitsIcEENS_9allocatorIcEEEEZN8nlohmann16json_abi_v3_11_310basic_jsonINS_3mapENS_6vectorES6_bxydS4_NS9_14adl_serializerENSC_IhNS4_IhEEEEvE6createIS6_JRA14_KcEEEPT_DpOT0_EUlS7_E_E6secondB8ne180100Ev
FNA:5,0,_ZNSt3__117__compressed_pairIPNS_12basic_stringIcNS_11char_traitsIcEENS_9allocatorIcEEEEZN8nlohmann16json_abi_v3_11_310basic_jsonINS_3mapENS_6vectorES6_bxydS4_NS9_14adl_serializerENSC_IhNS4_IhEEEEvE6createIS6_JRA15_KcEEEPT_DpOT0_EUlS7_E_E6secondB8ne180100Ev
FNA:5,0,_ZNSt3__117__compressed_pairIPNS_12basic_stringIcNS_11char_traitsIcEENS_9allocatorIcEEEEZN8nlohmann16json_abi_v3_11_310basic_jsonINS_3mapENS_6vectorES6_bxydS4_NS9_14adl_serializerENSC_IhNS4_IhEEEEvE6createIS6_JRA1_KcEEEPT_DpOT0_EUlS7_E_E6secondB8ne180100Ev
FNA:5,0,_ZNSt3__117__compressed_pairIPNS_12basic_stringIcNS_11char_traitsIcEENS_9allocatorIcEEEEZN8nlohmann16json_abi_v3_11_310basic_jsonINS_3mapENS_6vectorES6_bxydS4_NS9_14adl_serializerENSC_IhNS4_IhEEEEvE6createIS6_JRA20_KcEEEPT_DpOT0_EUlS7_E_E6secondB8ne180100Ev
FNA:5,0,_ZNSt3__117__compressed_pairIPNS_12basic_stringIcNS_11char_traitsIcEENS_9allocatorIcEEEEZN8nlohmann16json_abi_v3_11_310basic_jsonINS_3mapENS_6vectorES6_bxydS4_NS9_14adl_serializerENSC_IhNS4_IhEEEEvE6createIS6_JRA22_KcEEEPT_DpOT0_EUlS7_E_E6secondB8ne180100Ev
FNA:5,0,_ZNSt3__117__compressed_pairIPNS_12basic_stringIcNS_11char_traitsIcEENS_9allocatorIcEEEEZN8nlohmann16json_abi_v3_11_310basic_jsonINS_3mapENS_6vectorES6_bxydS4_NS9_14adl_serializerENSC_IhNS4_IhEEEEvE6createIS6_JRA23_KcEEEPT_DpOT0_EUlS7_E_E6secondB8ne180100Ev
FNA:5,0,_ZNSt3__117__compressed_pairIPNS_12basic_stringIcNS_11char_traitsIcEENS_9allocatorIcEEEEZN8nlohmann16json_abi_v3_11_310basic_jsonINS_3mapENS_6vectorES6_bxydS4_NS9_14adl_serializerENSC_IhNS4_IhEEEEvE6createIS6_JRA27_KcEEEPT_DpOT0_EUlS7_E_E6secondB8ne180100Ev
FNA:5,0,_ZNSt3__117__compressed_pairIPNS_12basic_stringIcNS_11char_traitsIcEENS_9allocatorIcEEEEZN8nlohmann16json_abi_v3_11_310basic_jsonINS_3mapENS_6vectorES6_bxydS4_NS9_14adl_serializerENSC_IhNS4_IhEEEEvE6createIS6_JRA2_KcEEEPT_DpOT0_EUlS7_E_E6secondB8ne180100Ev
FNA:5,0,_ZNSt3__117__compressed_pairIPNS_12basic_stringIcNS_11char_traitsIcEENS_9allocatorIcEEEEZN8nlohmann16json_abi_v3_11_310basic_jsonINS_3mapENS_6vectorES6_bxydS4_NS9_14adl_serializerENSC_IhNS4_IhEEEEvE6createIS6_JRA35_KcEEEPT_DpOT0_EUlS7_E_E6secondB8ne180100Ev
FNA:5,0,_ZNSt3__117__compressed_pairIPNS_12basic_stringIcNS_11char_traitsIcEENS_9allocatorIcEEEEZN8nlohmann16json_abi_v3_11_310basic_jsonINS_3mapENS_6vectorES6_bxydS4_NS9_14adl_serializerENSC_IhNS4_IhEEEEvE6createIS6_JRA3_KcEEEPT_DpOT0_EUlS7_E_E6secondB8ne180100Ev
FNA:5,0,_ZNSt3__117__compressed_pairIPNS_12basic_stringIcNS_11char_traitsIcEENS_9allocatorIcEEEEZN8nlohmann16json_abi_v3_11_310basic_jsonINS_3mapENS_6vectorES6_bxydS4_NS9_14adl_serializerENSC_IhNS4_IhEEEEvE6createIS6_JRA45_KcEEEPT_DpOT0_EUlS7_E_E6secondB8ne180100Ev
FNA:5,0,_ZNSt3__117__compressed_pairIPNS_12basic_stringIcNS_11char_traitsIcEENS_9allocatorIcEEEEZN8nlohmann16json_abi_v3_11_310basic_jsonINS_3mapENS_6vectorES6_bxydS4_NS9_14adl_serializerENSC_IhNS4_IhEEEEvE6createIS6_JRA4_KcEEEPT_DpOT0_EUlS7_E_E6secondB8ne180100Ev
FNA:5,0,_ZNSt3__117__compressed_pairIPNS_12basic_stringIcNS_11char_traitsIcEENS_9allocatorIcEEEEZN8nlohmann16json_abi_v3_11_310basic_jsonINS_3mapENS_6vectorES6_bxydS4_NS9_14adl_serializerENSC_IhNS4_IhEEEEvE6createIS6_JRA53_KcEEEPT_DpOT0_EUlS7_E_E6secondB8ne180100Ev
FNA:5,0,_ZNSt3__117__compressed_pairIPNS_12basic_stringIcNS_11char_traitsIcEENS_9allocatorIcEEEEZN8nlohmann16json_abi_v3_11_310basic_jsonINS_3mapENS_6vectorES6_bxydS4_NS9_14adl_serializerENSC_IhNS4_IhEEEEvE6createIS6_JRA5_KcEEEPT_DpOT0_EUlS7_E_E6secondB8ne180100Ev
FNA:5,0,_ZNSt3__117__compressed_pairIPNS_12basic_stringIcNS_11char_traitsIcEENS_9allocatorIcEEEEZN8nlohmann16json_abi_v3_11_310basic_jsonINS_3mapENS_6vectorES6_bxydS4_NS9_14adl_serializerENSC_IhNS4_IhEEEEvE6createIS6_JRA6_KcEEEPT_DpOT0_EUlS7_E_E6secondB8ne180100Ev
FNA:5,0,_ZNSt3__117__compressed_pairIPNS_12basic_stringIcNS_11char_traitsIcEENS_9allocatorIcEEEEZN8nlohmann16json_abi_v3_11_310basic_jsonINS_3mapENS_6vectorES6_bxydS4_NS9_14adl_serializerENSC_IhNS4_IhEEEEvE6createIS6_JRA72_KcEEEPT_DpOT0_EUlS7_E_E6secondB8ne180100Ev
FNA:5,0,_ZNSt3__117__compressed_pairIPNS_12basic_stringIcNS_11char_traitsIcEENS_9allocatorIcEEEEZN8nlohmann16json_abi_v3_11_310basic_jsonINS_3mapENS_6vectorES6_bxydS4_NS9_14adl_serializerENSC_IhNS4_IhEEEEvE6createIS6_JRA7_KcEEEPT_DpOT0_EUlS7_E_E6secondB8ne180100Ev
FNA:5,0,_ZNSt3__117__compressed_pairIPNS_12basic_stringIcNS_11char_traitsIcEENS_9allocatorIcEEEEZN8nlohmann16json_abi_v3_11_310basic_jsonINS_3mapENS_6vectorES6_bxydS4_NS9_14adl_serializerENSC_IhNS4_IhEEEEvE6createIS6_JRA8_KcEEEPT_DpOT0_EUlS7_E_E6secondB8ne180100Ev
FNA:5,0,_ZNSt3__117__compressed_pairIPNS_12basic_stringIcNS_11char_traitsIcEENS_9allocatorIcEEEEZN8nlohmann16json_abi_v3_11_310basic_jsonINS_3mapENS_6vectorES6_bxydS4_NS9_14adl_serializerENSC_IhNS4_IhEEEEvE6createIS6_JRA9_KcEEEPT_DpOT0_EUlS7_E_E6secondB8ne180100Ev
FNA:5,0,_ZNSt3__117__compressed_pairIPNS_12basic_stringIcNS_11char_traitsIcEENS_9allocatorIcEEEEZN8nlohmann16json_abi_v3_11_310basic_jsonINS_3mapENS_6vectorES6_bxydS4_NS9_14adl_serializerENSC_IhNS4_IhEEEEvE6createIS6_JRKS6_EEEPT_DpOT0_EUlS7_E_E6secondB8ne180100Ev
FNA:5,0,_ZNSt3__117__compressed_pairIPNS_12basic_stringIcNS_11char_traitsIcEENS_9allocatorIcEEEEZN8nlohmann16json_abi_v3_11_310basic_jsonINS_3mapENS_6vectorES6_bxydS4_NS9_14adl_serializerENSC_IhNS4_IhEEEEvE6createIS6_JS6_EEEPT_DpOT0_EUlS7_E_E6secondB8ne180100Ev
FNA:5,10,_ZNSt3__117__compressed_pairIPNS_15__thread_structENS_14default_deleteIS1_EEE6secondB8ne180100Ev
FNA:5,2146,_ZNSt3__117__compressed_pairIPNS_18basic_stringstreamIcNS_11char_traitsIcEENS_9allocatorIcEEEENS_14default_deleteIS6_EEE6secondB8ne180100Ev
FNA:5,0,_ZNSt3__117__compressed_pairIPNS_3mapINS_12basic_stringIcNS_11char_traitsIcEENS_9allocatorIcEEEEN8nlohmann16json_abi_v3_11_310basic_jsonIS1_NS_6vectorES7_bxydS5_NS9_14adl_serializerENSB_IhNS5_IhEEEEvEENS_4lessIvEENS5_INS_4pairIKS7_SF_EEEEEEZNSF_6createISM_JEEEPT_DpOT0_EUlSN_E_E6secondB8ne180100Ev
FNA:5,0,_ZNSt3__117__compressed_pairIPNS_3mapINS_12basic_stringIcNS_11char_traitsIcEENS_9allocatorIcEEEEN8nlohmann16json_abi_v3_11_310basic_jsonIS1_NS_6vectorES7_bxydS5_NS9_14adl_serializerENSB_IhNS5_IhEEEEvEENS_4lessIvEENS5_INS_4pairIKS7_SF_EEEEEEZNSF_6createISM_JRKSM_EEEPT_DpOT0_EUlSN_E_E6secondB8ne180100Ev
FNA:5,0,_ZNSt3__117__compressed_pairIPNS_4pairIN7pyfolio8DateTimeEdEENS_9allocatorIS4_EEE6secondB8ne180100Ev
FNA:5,0,_ZNSt3__117__compressed_pairIPNS_4pairIN7pyfolio8DateTimeEdEERNS_9allocatorIS4_EEE6secondB8ne180100Ev
FNA:5,10,_ZNSt3__117__compressed_pairIPNS_5tupleIJNS_10unique_ptrINS_15__thread_structENS_14default_deleteIS3_EEEEZN36CoreTypesTest_BasicThreadSafety_Test8TestBodyEvE3$_0EEENS4_IS9_EEE6secondB8ne180100Ev
FNA:5,26,_ZNSt3__117__compressed_pairIPNS_6threadENS_9allocatorIS1_EEE6secondB8ne180100Ev
FNA:5,24,_ZNSt3__117__compressed_pairIPNS_6threadERNS_9allocatorIS1_EEE6secondB8ne180100Ev
FNA:5,0,_ZNSt3__117__compressed_pairIPNS_6vectorIN7testing8internal13edit_distance8EditTypeENS_9allocatorIS5_EEEENS6_IS8_EEE6secondB8ne180100Ev
FNA:5,0,_ZNSt3__117__compressed_pairIPNS_6vectorIN8nlohmann16json_abi_v3_11_310basic_jsonINS_3mapES1_NS_12basic_stringIcNS_11char_traitsIcEENS_9allocatorIcEEEEbxydS9_NS3_14adl_serializerENS1_IhNS9_IhEEEEvEENS9_ISF_EEEEZNSF_6createISH_JEEEPT_DpOT0_EUlSI_E_E6secondB8ne180100Ev
FNA:5,0,_ZNSt3__117__compressed_pairIPNS_6vectorIN8nlohmann16json_abi_v3_11_310basic_jsonINS_3mapES1_NS_12basic_stringIcNS_11char_traitsIcEENS_9allocatorIcEEEEbxydS9_NS3_14adl_serializerENS1_IhNS9_IhEEEEvEENS9_ISF_EEEEZNSF_6createISH_JNS_11__wrap_iterIPKNS1_IdNS9_IdEEEEEESP_EEEPT_DpOT0_EUlSI_E_E6secondB8ne180100Ev
FNA:5,0,_ZNSt3__117__compressed_pairIPNS_6vectorIN8nlohmann16json_abi_v3_11_310basic_jsonINS_3mapES1_NS_12basic_stringIcNS_11char_traitsIcEENS_9allocatorIcEEEEbxydS9_NS3_14adl_serializerENS1_IhNS9_IhEEEEvEENS9_ISF_EEEEZNSF_6createISH_JNS_11__wrap_iterIPKSB_EESN_EEEPT_DpOT0_EUlSI_E_E6secondB8ne180100Ev
FNA:5,0,_ZNSt3__117__compressed_pairIPNS_6vectorIN8nlohmann16json_abi_v3_11_310basic_jsonINS_3mapES1_NS_12basic_stringIcNS_11char_traitsIcEENS_9allocatorIcEEEEbxydS9_NS3_14adl_serializerENS1_IhNS9_IhEEEEvEENS9_ISF_EEEEZNSF_6createISH_JNS_11__wrap_iterIPKdEESN_EEEPT_DpOT0_EUlSI_E_E6secondB8ne180100Ev
FNA:5,0,_ZNSt3__117__compressed_pairIPNS_6vectorIN8nlohmann16json_abi_v3_11_310basic_jsonINS_3mapES1_NS_12basic_stringIcNS_11char_traitsIcEENS_9allocatorIcEEEEbxydS9_NS3_14adl_serializerENS1_IhNS9_IhEEEEvEENS9_ISF_EEEEZNSF_6createISH_JPKNS3_6detail8json_refISF_EESO_EEEPT_DpOT0_EUlSI_E_E6secondB8ne180100Ev
FNA:5,0,_ZNSt3__117__compressed_pairIPNS_6vectorIN8nlohmann16json_abi_v3_11_310basic_jsonINS_3mapES1_NS_12basic_stringIcNS_11char_traitsIcEENS_9allocatorIcEEEEbxydS9_NS3_14adl_serializerENS1_IhNS9_IhEEEEvEENS9_ISF_EEEEZNSF_6createISH_JRKSH_EEEPT_DpOT0_EUlSI_E_E6secondB8ne180100Ev
FNA:5,37,_ZNSt3__117__compressed_pairIPNS_6vectorIdNS_9allocatorIdEEEENS2_IS4_EEE6secondB8ne180100Ev
FNA:5,24,_ZNSt3__117__compressed_pairIPNS_6vectorIdNS_9allocatorIdEEEERNS2_IS4_EEE6secondB8ne180100Ev
FNA:5,0,_ZNSt3__117__compressed_pairIPPN7testing11EnvironmentENS_9allocatorIS3_EEE6secondB8ne180100Ev
FNA:5,0,_ZNSt3__117__compressed_pairIPPN7testing11EnvironmentERNS_9allocatorIS3_EEE6secondB8ne180100Ev
FNA:5,26,_ZNSt3__117__compressed_pairIPPN7testing17TestEventListenerENS_9allocatorIS3_EEE6secondB8ne180100Ev
FNA:5,12,_ZNSt3__117__compressed_pairIPPN7testing17TestEventListenerERNS_9allocatorIS3_EEE6secondB8ne180100Ev
FNA:5,186,_ZNSt3__117__compressed_pairIPPN7testing8TestInfoENS_9allocatorIS3_EEE6secondB8ne180100Ev
FNA:5,274,_ZNSt3__117__compressed_pairIPPN7testing8TestInfoERNS_9allocatorIS3_EEE6secondB8ne180100Ev
FNA:5,0,_ZNSt3__117__compressed_pairIPPN7testing8internal30ParameterizedTestSuiteInfoBaseENS_9allocatorIS4_EEE6secondB8ne180100Ev
FNA:5,22,_ZNSt3__117__compressed_pairIPPN7testing9TestSuiteENS_9allocatorIS3_EEE6secondB8ne180100Ev
FNA:5,11,_ZNSt3__117__compressed_pairIPPN7testing9TestSuiteERNS_9allocatorIS3_EEE6secondB8ne180100Ev
FNA:5,60,_ZNSt3__117__compressed_pairIPPNS_16__hash_node_baseIPNS_11__hash_nodeINS_12basic_stringIcNS_11char_traitsIcEENS_9allocatorIcEEEEPvEEEENS_25__bucket_list_deallocatorINS6_ISD_EEEEE6secondB8ne180100Ev
FNA:5,6,_ZNSt3__117__compressed_pairIPPNS_16__hash_node_baseIPNS_11__hash_nodeINS_17__hash_value_typeIiNS_6vectorIdNS_9allocatorIdEEEEEEPvEEEENS_25__bucket_list_deallocatorINS5_ISD_EEEEE6secondB8ne180100Ev
FNA:5,0,_ZNSt3__117__compressed_pairIPPcNS_9allocatorIS1_EEE6secondB8ne180100Ev
FNA:5,0,_ZNSt3__117__compressed_pairIPPcRNS_9allocatorIS1_EEE6secondB8ne180100Ev
FNA:5,228412,_ZNSt3__117__compressed_pairIPdNS_9allocatorIdEEE6secondB8ne180100Ev
FNA:5,64057,_ZNSt3__117__compressed_pairIPdRNS_9allocatorIdEEE6secondB8ne180100Ev
FNA:5,0,_ZNSt3__117__compressed_pairIPhNS_9allocatorIhEEE6secondB8ne180100Ev
FNA:5,270,_ZNSt3__117__compressed_pairIPiNS_9allocatorIiEEE6secondB8ne180100Ev
FNA:5,285,_ZNSt3__117__compressed_pairIPiRNS_9allocatorIiEEE6secondB8ne180100Ev
FNA:5,7,_ZNSt3__117__compressed_pairIPmNS_9allocatorImEEE6secondB8ne180100Ev
FNA:5,0,_ZNSt3__117__compressed_pairIPmRNS_9allocatorImEEE6secondB8ne180100Ev
FNA:5,502,_ZNSt3__117__compressed_pairIfNS_21__unordered_map_equalIiNS_17__hash_value_typeIiNS_6vectorIdNS_9allocatorIdEEEEEENS_8equal_toIiEENS_4hashIiEELb1EEEE6secondB8ne180100Ev
FNA:5,24,_ZNSt3__117__compressed_pairIfNS_8equal_toINS_12basic_stringIcNS_11char_traitsIcEENS_9allocatorIcEEEEEEE6secondB8ne180100Ev
FNA:5,0,_ZNSt3__117__compressed_pairImNS_19__map_value_compareIN7pyfolio8DateTimeENS_12__value_typeIS3_NS_6vectorIdNS_9allocatorIdEEEEEENS_4lessIS3_EELb1EEEE6secondB8ne180100Ev
FNA:5,78,_ZNSt3__117__compressed_pairImNS_19__map_value_compareINS_12basic_stringIcNS_11char_traitsIcEENS_9allocatorIcEEEENS_12__value_typeIS7_N7pyfolio9positions7HoldingEEENS_4lessIS7_EELb1EEEE6secondB8ne180100Ev
FNA:5,0,_ZNSt3__117__compressed_pairImNS_19__map_value_compareINS_12basic_stringIcNS_11char_traitsIcEENS_9allocatorIcEEEENS_12__value_typeIS7_N7testing8internal34TypeParameterizedTestSuiteRegistry30TypeParameterizedTestSuiteInfoEEENS_4lessIS7_EELb1EEEE6secondB8ne180100Ev
FNA:5,6325,_ZNSt3__117__compressed_pairImNS_19__map_value_compareINS_12basic_stringIcNS_11char_traitsIcEENS_9allocatorIcEEEENS_12__value_typeIS7_N8nlohmann16json_abi_v3_11_310basic_jsonINS_3mapENS_6vectorES7_bxydS5_NSA_14adl_serializerENSD_IhNS5_IhEEEEvEEEENS_4lessIvEELb1EEEE6secondB8ne180100Ev
FNA:5,96,_ZNSt3__117__compressed_pairImNS_19__map_value_compareINS_12basic_stringIcNS_11char_traitsIcEENS_9allocatorIcEEEENS_12__value_typeIS7_dEENS_4lessIS7_EELb1EEEE6secondB8ne180100Ev
FNA:5,0,_ZNSt3__117__compressed_pairImNS_19__map_value_compareINS_12basic_stringIcNS_11char_traitsIcEENS_9allocatorIcEEEENS_12__value_typeIS7_mEENS_4lessIS7_EELb1EEEE6secondB8ne180100Ev
FNA:5,504,_ZNSt3__117__compressed_pairImNS_22__unordered_map_hasherIiNS_17__hash_value_typeIiNS_6vectorIdNS_9allocatorIdEEEEEENS_4hashIiEENS_8equal_toIiEELb1EEEE6secondB8ne180100Ev
FNA:5,24,_ZNSt3__117__compressed_pairImNS_4hashINS_12basic_stringIcNS_11char_traitsIcEENS_9allocatorIcEEEEEEE6secondB8ne180100Ev
FNA:5,50,_ZNSt3__117__compressed_pairImNS_4lessINS_12basic_stringIcNS_11char_traitsIcEENS_9allocatorIcEEEEEEE6secondB8ne180100Ev
FNA:5,238,_ZNSt3__117__compressed_pairImNS_4lessINS_6chrono14year_month_dayEEEE6secondB8ne180100Ev
FNA:5,0,_ZNSt3__117__compressed_pairImNS_9allocatorINS_11__list_nodeINS_4pairIcPKcEEPvEEEEE6secondB8ne180100Ev
FNA:5,24,_ZNSt3__117__compressed_pairImNS_9allocatorIPNS_16__hash_node_baseIPNS_11__hash_nodeINS_12basic_stringIcNS_11char_traitsIcEENS1_IcEEEEPvEEEEEEE6secondB8ne180100Ev
FNA:5,4,_ZNSt3__117__compressed_pairImNS_9allocatorIPNS_16__hash_node_baseIPNS_11__hash_nodeINS_17__hash_value_typeIiNS_6vectorIdNS1_IdEEEEEEPvEEEEEEE6secondB8ne180100Ev
FNL:6,141,142
FNA:6,5218,_ZNKSt3__117__compressed_pairINS_12basic_stringIcNS_11char_traitsIcEENS_9allocatorIcEEE5__repES5_E6secondB8ne180100Ev
FNA:6,59,_ZNKSt3__117__compressed_pairINS_15__tree_end_nodeIPNS_16__tree_node_baseIPvEEEENS_9allocatorINS_11__tree_nodeINS_12__value_typeINS_12basic_stringIcNS_11char_traitsIcEENS7_IcEEEEN8nlohmann16json_abi_v3_11_310basic_jsonINS_3mapENS_6vectorESE_bxydS7_NSG_14adl_serializerENSJ_IhNS7_IhEEEEvEEEES3_EEEEE6secondB8ne180100Ev
FNA:6,24,_ZNKSt3__117__compressed_pairIPN7pyfolio10TimeSeriesIdEENS_9allocatorIS3_EEE6secondB8ne180100Ev
FNA:6,14,_ZNKSt3__117__compressed_pairIPN7pyfolio11attribution17SectorAttributionENS_9allocatorIS3_EEE6secondB8ne180100Ev
FNA:6,12,_ZNKSt3__117__compressed_pairIPN7pyfolio13visualization8PlotDataENS_9allocatorIS3_EEE6secondB8ne180100Ev
FNA:6,1238,_ZNKSt3__117__compressed_pairIPN7pyfolio8DateTimeENS_9allocatorIS2_EEE6secondB8ne180100Ev
FNA:6,0,_ZNKSt3__117__compressed_pairIPN7testing12TestPropertyENS_9allocatorIS2_EEE6secondB8ne180100Ev
FNA:6,26,_ZNKSt3__117__compressed_pairIPN7testing14TestPartResultENS_9allocatorIS2_EEE6secondB8ne180100Ev
FNA:6,0,_ZNKSt3__117__compressed_pairIPN7testing8internal13edit_distance8EditTypeENS_9allocatorIS4_EEE6secondB8ne180100Ev
FNA:6,0,_ZNKSt3__117__compressed_pairIPN7testing8internal9TraceInfoENS_9allocatorIS3_EEE6secondB8ne180100Ev
FNA:6,1651,_ZNKSt3__117__compressed_pairIPN8nlohmann16json_abi_v3_11_310basic_jsonINS_3mapENS_6vectorENS_12basic_stringIcNS_11char_traitsIcEENS_9allocatorIcEEEEbxydS9_NS2_14adl_serializerENS5_IhNS9_IhEEEEvEENS9_ISF_EEE6secondB8ne180100Ev
FNA:6,260,_ZNKSt3__117__compressed_pairIPNS_12basic_stringIcNS_11char_traitsIcEENS_9allocatorIcEEEENS4_IS6_EEE6secondB8ne180100Ev
FNA:6,0,_ZNKSt3__117__compressed_pairIPNS_4pairIN7pyfolio8DateTimeEdEENS_9allocatorIS4_EEE6secondB8ne180100Ev
FNA:6,5,_ZNKSt3__117__compressed_pairIPNS_6threadENS_9allocatorIS1_EEE6secondB8ne180100Ev
FNA:6,0,_ZNKSt3__117__compressed_pairIPNS_6vectorIN7testing8internal13edit_distance8EditTypeENS_9allocatorIS5_EEEENS6_IS8_EEE6secondB8ne180100Ev
FNA:6,7,_ZNKSt3__117__compressed_pairIPNS_6vectorIdNS_9allocatorIdEEEENS2_IS4_EEE6secondB8ne180100Ev
FNA:6,0,_ZNKSt3__117__compressed_pairIPPN7testing11EnvironmentENS_9allocatorIS3_EEE6secondB8ne180100Ev
FNA:6,12,_ZNKSt3__117__compressed_pairIPPN7testing17TestEventListenerENS_9allocatorIS3_EEE6secondB8ne180100Ev
FNA:6,54,_ZNKSt3__117__compressed_pairIPPN7testing8TestInfoENS_9allocatorIS3_EEE6secondB8ne180100Ev
FNA:6,11,_ZNKSt3__117__compressed_pairIPPN7testing9TestSuiteENS_9allocatorIS3_EEE6secondB8ne180100Ev
FNA:6,539,_ZNKSt3__117__compressed_pairIPPNS_16__hash_node_baseIPNS_11__hash_nodeINS_12basic_stringIcNS_11char_traitsIcEENS_9allocatorIcEEEEPvEEEENS_25__bucket_list_deallocatorINS6_ISD_EEEEE6secondB8ne180100Ev
FNA:6,508,_ZNKSt3__117__compressed_pairIPPNS_16__hash_node_baseIPNS_11__hash_nodeINS_17__hash_value_typeIiNS_6vectorIdNS_9allocatorIdEEEEEEPvEEEENS_25__bucket_list_deallocatorINS5_ISD_EEEEE6secondB8ne180100Ev
FNA:6,0,_ZNKSt3__117__compressed_pairIPPcNS_9allocatorIS1_EEE6secondB8ne180100Ev
FNA:6,2823,_ZNKSt3__117__compressed_pairIPdNS_9allocatorIdEEE6secondB8ne180100Ev
FNA:6,0,_ZNKSt3__117__compressed_pairIPhNS_9allocatorIhEEE6secondB8ne180100Ev
FNA:6,66,_ZNKSt3__117__compressed_pairIPiNS_9allocatorIiEEE6secondB8ne180100Ev
FNA:6,1,_ZNKSt3__117__compressed_pairIPmNS_9allocatorImEEE6secondB8ne180100Ev
FNA:6,0,_ZNKSt3__117__compressed_pairIZNK7pyfolio10TimeSeriesIdE8resampleENS1_9FrequencyEEUlRKNS_6vectorIdNS_9allocatorIdEEEEE_NS6_ISB_EEE6secondB8ne180100Ev
FNA:6,0,_ZNKSt3__117__compressed_pairIfNS_8equal_toINS_12basic_stringIcNS_11char_traitsIcEENS_9allocatorIcEEEEEEE6secondB8ne180100Ev
FNA:6,0,_ZNKSt3__117__compressed_pairImNS_19__map_value_compareINS_12basic_stringIcNS_11char_traitsIcEENS_9allocatorIcEEEENS_12__value_typeIS7_N7testing8internal12CodeLocationEEENS_4lessIvEELb1EEEE6secondB8ne180100Ev
FNA:6,59,_ZNKSt3__117__compressed_pairImNS_19__map_value_compareINS_12basic_stringIcNS_11char_traitsIcEENS_9allocatorIcEEEENS_12__value_typeIS7_N8nlohmann16json_abi_v3_11_310basic_jsonINS_3mapENS_6vectorES7_bxydS5_NSA_14adl_serializerENSD_IhNS5_IhEEEEvEEEENS_4lessIvEELb1EEEE6secondB8ne180100Ev
FNA:6,84,_ZNKSt3__117__compressed_pairImNS_19__map_value_compareINS_12basic_stringIcNS_11char_traitsIcEENS_9allocatorIcEEEENS_12__value_typeIS7_dEENS_4lessIS7_EELb1EEEE6secondB8ne180100Ev
FNA:6,539,_ZNKSt3__117__compressed_pairImNS_4hashINS_12basic_stringIcNS_11char_traitsIcEENS_9allocatorIcEEEEEEE6secondB8ne180100Ev
FNA:6,0,_ZNKSt3__117__compressed_pairImNS_4lessINS_12basic_stringIcNS_11char_traitsIcEENS_9allocatorIcEEEEEEE6secondB8ne180100Ev
FNA:6,45,_ZNKSt3__117__compressed_pairImNS_4lessINS_6chrono14year_month_dayEEEE6secondB8ne180100Ev
FNL:7,145,146
FNA:7,175,_ZNSt3__117__compressed_pairINS_9allocatorIN8nlohmann16json_abi_v3_11_36detail21output_string_adapterIcNS_12basic_stringIcNS_11char_traitsIcEENS1_IcEEEEEEEESB_E16__get_first_baseB8ne180100EPSD_
FNL:8,148,149
FNA:8,105,_ZNSt3__117__compressed_pairINS_9allocatorIN8nlohmann16json_abi_v3_11_36detail21output_string_adapterIcNS_12basic_stringIcNS_11char_traitsIcEENS1_IcEEEEEEEESB_E17__get_second_baseB8ne180100EPSD_
FNL:9,152,157
FNA:9,0,_ZNSt3__117__compressed_pairIPNS_12basic_stringIcNS_11char_traitsIcEENS_9allocatorIcEEEENS_14default_deleteIS6_EEE4swapB8ne180100ERSA_
FNL:10,49,49
FNA:10,10090,_ZNSt3__122__compressed_pair_elemINS_12basic_stringIcNS_11char_traitsIcEENS_9allocatorIcEEE5__repELi0ELb0EEC2B8ne180100ENS_18__default_init_tagE
FNA:10,0,_ZNSt3__122__compressed_pair_elemINS_12basic_stringIwNS_11char_traitsIwEENS_9allocatorIwEEE5__repELi0ELb0EEC2B8ne180100ENS_18__default_init_tagE
FNA:10,59,_ZNSt3__122__compressed_pair_elemINS_15__tree_end_nodeIPNS_16__tree_node_baseIPvEEEELi0ELb0EEC2B8ne180100ENS_18__default_init_tagE
FNL:11,50,50
FNA:11,7889,_ZNSt3__122__compressed_pair_elemINS_12basic_stringIcNS_11char_traitsIcEENS_9allocatorIcEEE5__repELi0ELb0EEC2B8ne180100ENS_16__value_init_tagE
FNA:11,277,_ZNSt3__122__compressed_pair_elemINS_15__tree_end_nodeIPNS_16__tree_node_baseIPvEEEELi0ELb0EEC2B8ne180100ENS_16__value_init_tagE
FNA:11,59,_ZNSt3__122__compressed_pair_elemINS_16__hash_node_baseIPNS_11__hash_nodeINS_12basic_stringIcNS_11char_traitsIcEENS_9allocatorIcEEEEPvEEEELi0ELb0EEC2B8ne180100ENS_16__value_init_tagE
FNA:11,2,_ZNSt3__122__compressed_pair_elemINS_16__hash_node_baseIPNS_11__hash_nodeINS_17__hash_value_typeIiNS_6vectorIdNS_9allocatorIdEEEEEEPvEEEELi0ELb0EEC2B8ne180100ENS_16__value_init_tagE
FNA:11,59,_ZNSt3__122__compressed_pair_elemINS_25__bucket_list_deallocatorINS_9allocatorIPNS_16__hash_node_baseIPNS_11__hash_nodeINS_12basic_stringIcNS_11char_traitsIcEENS2_IcEEEEPvEEEEEEEELi1ELb0EEC2B8ne180100ENS_16__value_init_tagE
FNA:11,2,_ZNSt3__122__compressed_pair_elemINS_25__bucket_list_deallocatorINS_9allocatorIPNS_16__hash_node_baseIPNS_11__hash_nodeINS_17__hash_value_typeIiNS_6vectorIdNS2_IdEEEEEEPvEEEEEEEELi1ELb0EEC2B8ne180100ENS_16__value_init_tagE
FNA:11,13,_ZNSt3__122__compressed_pair_elemIPN7pyfolio9positions17PortfolioHoldingsELi0ELb0EEC2B8ne180100ENS_16__value_init_tagE
FNA:11,12,_ZNSt3__122__compressed_pair_elemIPN7testing8internal24InternalRunDeathTestFlagELi0ELb0EEC2B8ne180100ENS_16__value_init_tagE
FNA:11,3261,_ZNSt3__122__compressed_pair_elemIPNS_12basic_stringIcNS_11char_traitsIcEENS_9allocatorIcEEEELi0ELb0EEC2B8ne180100ENS_16__value_init_tagE
FNA:11,59,_ZNSt3__122__compressed_pair_elemIPPNS_16__hash_node_baseIPNS_11__hash_nodeINS_12basic_stringIcNS_11char_traitsIcEENS_9allocatorIcEEEEPvEEEELi0ELb0EEC2B8ne180100ENS_16__value_init_tagE
FNA:11,2,_ZNSt3__122__compressed_pair_elemIPPNS_16__hash_node_baseIPNS_11__hash_nodeINS_17__hash_value_typeIiNS_6vectorIdNS_9allocatorIdEEEEEEPvEEEELi0ELb0EEC2B8ne180100ENS_16__value_init_tagE
FNL:12,53,54
FNA:12,0,_ZNSt3__122__compressed_pair_elemINS_22__allocator_destructorINS_9allocatorINS_10__function6__funcIZNK7pyfolio10TimeSeriesIdE8resampleENS5_9FrequencyEEUlRKNS_6vectorIdNS2_IdEEEEE_NS2_ISE_EEFdSD_EEEEEEELi1ELb0EEC2B8ne180100ISJ_vEEOT_
FNA:12,0,_ZNSt3__122__compressed_pair_elemINS_22__hash_node_destructorINS_9allocatorINS_11__hash_nodeINS_12basic_stringIcNS_11char_traitsIcEENS2_IcEEEEPvEEEEEELi1ELb0EEC2B8ne180100ISC_vEEOT_
FNA:12,2,_ZNSt3__122__compressed_pair_elemINS_22__hash_node_destructorINS_9allocatorINS_11__hash_nodeINS_17__hash_value_typeIiNS_6vectorIdNS2_IdEEEEEEPvEEEEEELi1ELb0EEC2B8ne180100ISC_vEEOT_
FNA:12,0,_ZNSt3__122__compressed_pair_elemINS_22__tree_node_destructorINS_9allocatorINS_11__tree_nodeINS_12__value_typeIN7pyfolio8DateTimeENS_6vectorIdNS2_IdEEEEEEPvEEEEEELi1ELb0EEC2B8ne180100ISE_vEEOT_
FNA:12,39,_ZNSt3__122__compressed_pair_elemINS_22__tree_node_destructorINS_9allocatorINS_11__tree_nodeINS_12__value_typeINS_12basic_stringIcNS_11char_traitsIcEENS2_IcEEEEN7pyfolio9positions7HoldingEEEPvEEEEEELi1ELb0EEC2B8ne180100ISH_vEEOT_
FNA:12,0,_ZNSt3__122__compressed_pair_elemINS_22__tree_node_destructorINS_9allocatorINS_11__tree_nodeINS_12__value_typeINS_12basic_stringIcNS_11char_traitsIcEENS2_IcEEEEN7testing8internal34TypeParameterizedTestSuiteRegistry30TypeParameterizedTestSuiteInfoEEEPvEEEEEELi1ELb0EEC2B8ne180100ISI_vEEOT_
FNA:12,846,_ZNSt3__122__compressed_pair_elemINS_22__tree_node_destructorINS_9allocatorINS_11__tree_nodeINS_12__value_typeINS_12basic_stringIcNS_11char_traitsIcEENS2_IcEEEEN8nlohmann16json_abi_v3_11_310basic_jsonINS_3mapENS_6vectorES9_bxydS2_NSB_14adl_serializerENSE_IhNS2_IhEEEEvEEEEPvEEEEEELi1ELb0EEC2B8ne180100ISN_vEEOT_
FNA:12,53,_ZNSt3__122__compressed_pair_elemINS_22__tree_node_destructorINS_9allocatorINS_11__tree_nodeINS_12__value_typeINS_12basic_stringIcNS_11char_traitsIcEENS2_IcEEEEdEEPvEEEEEELi1ELb0EEC2B8ne180100ISE_vEEOT_
FNA:12,0,_ZNSt3__122__compressed_pair_elemINS_22__tree_node_destructorINS_9allocatorINS_11__tree_nodeINS_12__value_typeINS_12basic_stringIcNS_11char_traitsIcEENS2_IcEEEEmEEPvEEEEEELi1ELb0EEC2B8ne180100ISE_vEEOT_
FNA:12,8,_ZNSt3__122__compressed_pair_elemINS_22__tree_node_destructorINS_9allocatorINS_11__tree_nodeINS_12basic_stringIcNS_11char_traitsIcEENS2_IcEEEEPvEEEEEELi1ELb0EEC2B8ne180100ISC_vEEOT_
FNA:12,78,_ZNSt3__122__compressed_pair_elemINS_22__tree_node_destructorINS_9allocatorINS_11__tree_nodeINS_6chrono14year_month_dayEPvEEEEEELi1ELb0EEC2B8ne180100IS9_vEEOT_
FNA:12,275,_ZNSt3__122__compressed_pair_elemIPKNS_12basic_stringIcNS_11char_traitsIcEENS_9allocatorIcEEEELi0ELb0EEC2B8ne180100IRS8_vEEOT_
FNA:12,30,_ZNSt3__122__compressed_pair_elemIPN7pyfolio10TimeSeriesIdEELi0ELb0EEC2B8ne180100IDnvEEOT_
FNA:12,12,_ZNSt3__122__compressed_pair_elemIPN7pyfolio11attribution17SectorAttributionELi0ELb0EEC2B8ne180100IDnvEEOT_
FNA:12,21,_ZNSt3__122__compressed_pair_elemIPN7pyfolio13visualization8PlotDataELi0ELb0EEC2B8ne180100IDnvEEOT_
FNA:12,1329,_ZNSt3__122__compressed_pair_elemIPN7pyfolio8DateTimeELi0ELb0EEC2B8ne180100IDnvEEOT_
FNA:12,13,_ZNSt3__122__compressed_pair_elemIPN7pyfolio9positions17PortfolioHoldingsELi0ELb0EEC2B8ne180100IRS4_vEEOT_
FNA:12,155,_ZNSt3__122__compressed_pair_elemIPN7testing12TestPropertyELi0ELb0EEC2B8ne180100IDnvEEOT_
FNA:12,181,_ZNSt3__122__compressed_pair_elemIPN7testing14TestPartResultELi0ELb0EEC2B8ne180100IDnvEEOT_
FNA:12,12,_ZNSt3__122__compressed_pair_elemIPN7testing8internal11ThreadLocalINS_6vectorINS2_9TraceInfoENS_9allocatorIS5_EEEEE18ValueHolderFactoryELi0ELb0EEC2B8ne180100IRSB_vEEOT_
FNA:12,12,_ZNSt3__122__compressed_pair_elemIPN7testing8internal11ThreadLocalIPNS1_31TestPartResultReporterInterfaceEE18ValueHolderFactoryELi0ELb0EEC2B8ne180100IRS8_vEEOT_
FNA:12,0,_ZNSt3__122__compressed_pair_elemIPN7testing8internal13edit_distance8EditTypeELi0ELb0EEC2B8ne180100IDnvEEOT_
FNA:12,132,_ZNSt3__122__compressed_pair_elemIPN7testing8internal14GTestFlagSaverELi0ELb0EEC2B8ne180100IRS4_vEEOT_
FNA:12,12,_ZNSt3__122__compressed_pair_elemIPN7testing8internal16DeathTestFactoryELi0ELb0EEC2B8ne180100IRS4_vEEOT_
FNA:12,6,_ZNSt3__122__compressed_pair_elemIPN7testing8internal9TraceInfoELi0ELb0EEC2B8ne180100IDnvEEOT_
FNA:12,2653,_ZNSt3__122__compressed_pair_elemIPN8nlohmann16json_abi_v3_11_310basic_jsonINS_3mapENS_6vectorENS_12basic_stringIcNS_11char_traitsIcEENS_9allocatorIcEEEEbxydS9_NS2_14adl_serializerENS5_IhNS9_IhEEEEvEELi0ELb0EEC2B8ne180100IDnvEEOT_
FNA:12,0,_ZNSt3__122__compressed_pair_elemIPN8nlohmann16json_abi_v3_11_327byte_container_with_subtypeINS_6vectorIhNS_9allocatorIhEEEEEELi0ELb0EEC2B8ne180100IRS9_vEEOT_
FNA:12,0,_ZNSt3__122__compressed_pair_elemIPNS_10__function6__funcIZNK7pyfolio10TimeSeriesIdE8resampleENS3_9FrequencyEEUlRKNS_6vectorIdNS_9allocatorIdEEEEE_NS8_ISD_EEFdSC_EEELi0ELb0EEC2B8ne180100IRSH_vEEOT_
FNA:12,0,_ZNSt3__122__compressed_pair_elemIPNS_11__hash_nodeINS_12basic_stringIcNS_11char_traitsIcEENS_9allocatorIcEEEEPvEELi0ELb0EEC2B8ne180100IRSA_vEEOT_
FNA:12,2,_ZNSt3__122__compressed_pair_elemIPNS_11__hash_nodeINS_17__hash_value_typeIiNS_6vectorIdNS_9allocatorIdEEEEEEPvEELi0ELb0EEC2B8ne180100IRSA_vEEOT_
FNA:12,0,_ZNSt3__122__compressed_pair_elemIPNS_11__tree_nodeINS_12__value_typeIN7pyfolio8DateTimeENS_6vectorIdNS_9allocatorIdEEEEEEPvEELi0ELb0EEC2B8ne180100IRSC_vEEOT_
FNA:12,39,_ZNSt3__122__compressed_pair_elemIPNS_11__tree_nodeINS_12__value_typeINS_12basic_stringIcNS_11char_traitsIcEENS_9allocatorIcEEEEN7pyfolio9positions7HoldingEEEPvEELi0ELb0EEC2B8ne180100IRSF_vEEOT_
FNA:12,0,_ZNSt3__122__compressed_pair_elemIPNS_11__tree_nodeINS_12__value_typeINS_12basic_stringIcNS_11char_traitsIcEENS_9allocatorIcEEEEN7testing8internal34TypeParameterizedTestSuiteRegistry30TypeParameterizedTestSuiteInfoEEEPvEELi0ELb0EEC2B8ne180100IRSG_vEEOT_
FNA:12,846,_ZNSt3__122__compressed_pair_elemIPNS_11__tree_nodeINS_12__value_typeINS_12basic_stringIcNS_11char_traitsIcEENS_9allocatorIcEEEEN8nlohmann16json_abi_v3_11_310basic_jsonINS_3mapENS_6vectorES8_bxydS6_NSA_14adl_serializerENSD_IhNS6_IhEEEEvEEEEPvEELi0ELb0EEC2B8ne180100IRSL_vEEOT_
FNA:12,53,_ZNSt3__122__compressed_pair_elemIPNS_11__tree_nodeINS_12__value_typeINS_12basic_stringIcNS_11char_traitsIcEENS_9allocatorIcEEEEdEEPvEELi0ELb0EEC2B8ne180100IRSC_vEEOT_
FNA:12,0,_ZNSt3__122__compressed_pair_elemIPNS_11__tree_nodeINS_12__value_typeINS_12basic_stringIcNS_11char_traitsIcEENS_9allocatorIcEEEEmEEPvEELi0ELb0EEC2B8ne180100IRSC_vEEOT_
FNA:12,8,_ZNSt3__122__compressed_pair_elemIPNS_11__tree_nodeINS_12basic_stringIcNS_11char_traitsIcEENS_9allocatorIcEEEEPvEELi0ELb0EEC2B8ne180100IRSA_vEEOT_
FNA:12,78,_ZNSt3__122__compressed_pair_elemIPNS_11__tree_nodeINS_6chrono14year_month_dayEPvEELi0ELb0EEC2B8ne180100IRS6_vEEOT_
FNA:12,403,_ZNSt3__122__compressed_pair_elemIPNS_12basic_stringIcNS_11char_traitsIcEENS_9allocatorIcEEEELi0ELb0EEC2B8ne180100IDnvEEOT_
FNA:12,2030,_ZNSt3__122__compressed_pair_elemIPNS_12basic_stringIcNS_11char_traitsIcEENS_9allocatorIcEEEELi0ELb0EEC2B8ne180100IRS7_vEEOT_
FNA:12,10,_ZNSt3__122__compressed_pair_elemIPNS_15__thread_structELi0ELb0EEC2B8ne180100IRS2_vEEOT_
FNA:12,10,_ZNSt3__122__compressed_pair_elemIPNS_15__thread_structELi0ELb0EEC2B8ne180100IS2_vEEOT_
FNA:12,2376,_ZNSt3__122__compressed_pair_elemIPNS_18basic_stringstreamIcNS_11char_traitsIcEENS_9allocatorIcEEEELi0ELb0EEC2B8ne180100IRS7_vEEOT_
FNA:12,276,_ZNSt3__122__compressed_pair_elemIPNS_3mapINS_12basic_stringIcNS_11char_traitsIcEENS_9allocatorIcEEEEN8nlohmann16json_abi_v3_11_310basic_jsonIS1_NS_6vectorES7_bxydS5_NS9_14adl_serializerENSB_IhNS5_IhEEEEvEENS_4lessIvEENS5_INS_4pairIKS7_SF_EEEEEELi0ELb0EEC2B8ne180100IRSN_vEEOT_
FNA:12,0,_ZNSt3__122__compressed_pair_elemIPNS_4pairIN7pyfolio8DateTimeEdEELi0ELb0EEC2B8ne180100IDnvEEOT_
FNA:12,20,_ZNSt3__122__compressed_pair_elemIPNS_5tupleIJNS_10unique_ptrINS_15__thread_structENS_14default_deleteIS3_EEEEZN36CoreTypesTest_BasicThreadSafety_Test8TestBodyEvE3$_0EEELi0ELb0EEC2B8ne180100IRSA_vEEOT_
FNA:12,6,_ZNSt3__122__compressed_pair_elemIPNS_6threadELi0ELb0EEC2B8ne180100IDnvEEOT_
FNA:12,0,_ZNSt3__122__compressed_pair_elemIPNS_6vectorIN7testing8internal13edit_distance8EditTypeENS_9allocatorIS5_EEEELi0ELb0EEC2B8ne180100IDnvEEOT_
FNA:12,736,_ZNSt3__122__compressed_pair_elemIPNS_6vectorIN8nlohmann16json_abi_v3_11_310basic_jsonINS_3mapES1_NS_12basic_stringIcNS_11char_traitsIcEENS_9allocatorIcEEEEbxydS9_NS3_14adl_serializerENS1_IhNS9_IhEEEEvEENS9_ISF_EEEELi0ELb0EEC2B8ne180100IRSI_vEEOT_
FNA:12,9,_ZNSt3__122__compressed_pair_elemIPNS_6vectorIdNS_9allocatorIdEEEELi0ELb0EEC2B8ne180100IDnvEEOT_
FNA:12,12,_ZNSt3__122__compressed_pair_elemIPPN7testing11EnvironmentELi0ELb0EEC2B8ne180100IDnvEEOT_
FNA:12,24,_ZNSt3__122__compressed_pair_elemIPPN7testing17TestEventListenerELi0ELb0EEC2B8ne180100IDnvEEOT_
FNA:12,65,_ZNSt3__122__compressed_pair_elemIPPN7testing8TestInfoELi0ELb0EEC2B8ne180100IDnvEEOT_
FNA:12,12,_ZNSt3__122__compressed_pair_elemIPPN7testing8internal30ParameterizedTestSuiteInfoBaseELi0ELb0EEC2B8ne180100IDnvEEOT_
FNA:12,23,_ZNSt3__122__compressed_pair_elemIPPN7testing9TestSuiteELi0ELb0EEC2B8ne180100IDnvEEOT_
FNA:12,0,_ZNSt3__122__compressed_pair_elemIPPcLi0ELb0EEC2B8ne180100IDnvEEOT_
FNA:12,3909,_ZNSt3__122__compressed_pair_elemIPdLi0ELb0EEC2B8ne180100IDnvEEOT_
FNA:12,0,_ZNSt3__122__compressed_pair_elemIPhLi0ELb0EEC2B8ne180100IDnvEEOT_
FNA:12,89,_ZNSt3__122__compressed_pair_elemIPiLi0ELb0EEC2B8ne180100IDnvEEOT_
FNA:12,1,_ZNSt3__122__compressed_pair_elemIPmLi0ELb0EEC2B8ne180100IDnvEEOT_
FNA:12,20,_ZNSt3__122__compressed_pair_elemIRNS_9allocatorIN7pyfolio10TimeSeriesIdEEEELi1ELb0EEC2B8ne180100IS6_vEEOT_
FNA:12,6,_ZNSt3__122__compressed_pair_elemIRNS_9allocatorIN7pyfolio11attribution17SectorAttributionEEELi1ELb0EEC2B8ne180100IS6_vEEOT_
FNA:12,9,_ZNSt3__122__compressed_pair_elemIRNS_9allocatorIN7pyfolio13visualization8PlotDataEEELi1ELb0EEC2B8ne180100IS6_vEEOT_
FNA:12,930,_ZNSt3__122__compressed_pair_elemIRNS_9allocatorIN7pyfolio8DateTimeEEELi1ELb0EEC2B8ne180100IS5_vEEOT_
FNA:12,0,_ZNSt3__122__compressed_pair_elemIRNS_9allocatorIN7testing12TestPropertyEEELi1ELb0EEC2B8ne180100IS5_vEEOT_
FNA:12,26,_ZNSt3__122__compressed_pair_elemIRNS_9allocatorIN7testing14TestPartResultEEELi1ELb0EEC2B8ne180100IS5_vEEOT_
FNA:12,0,_ZNSt3__122__compressed_pair_elemIRNS_9allocatorIN7testing8internal13edit_distance8EditTypeEEELi1ELb0EEC2B8ne180100IS7_vEEOT_
FNA:12,0,_ZNSt3__122__compressed_pair_elemIRNS_9allocatorIN7testing8internal9TraceInfoEEELi1ELb0EEC2B8ne180100IS6_vEEOT_
FNA:12,905,_ZNSt3__122__compressed_pair_elemIRNS_9allocatorIN8nlohmann16json_abi_v3_11_310basic_jsonINS_3mapENS_6vectorENS_12basic_stringIcNS_11char_traitsIcEENS1_IcEEEEbxydS1_NS3_14adl_serializerENS6_IhNS1_IhEEEEvEEEELi1ELb0EEC2B8ne180100ISH_vEEOT_
FNA:12,141,_ZNSt3__122__compressed_pair_elemIRNS_9allocatorINS_12basic_stringIcNS_11char_traitsIcEENS1_IcEEEEEELi1ELb0EEC2B8ne180100IS8_vEEOT_
FNA:12,0,_ZNSt3__122__compressed_pair_elemIRNS_9allocatorINS_4pairIN7pyfolio8DateTimeEdEEEELi1ELb0EEC2B8ne180100IS7_vEEOT_
FNA:12,5,_ZNSt3__122__compressed_pair_elemIRNS_9allocatorINS_6threadEEELi1ELb0EEC2B8ne180100IS4_vEEOT_
FNA:12,5,_ZNSt3__122__compressed_pair_elemIRNS_9allocatorINS_6vectorIdNS1_IdEEEEEELi1ELb0EEC2B8ne180100IS6_vEEOT_
FNA:12,0,_ZNSt3__122__compressed_pair_elemIRNS_9allocatorIPN7testing11EnvironmentEEELi1ELb0EEC2B8ne180100IS6_vEEOT_
FNA:12,12,_ZNSt3__122__compressed_pair_elemIRNS_9allocatorIPN7testing17TestEventListenerEEELi1ELb0EEC2B8ne180100IS6_vEEOT_
FNA:12,54,_ZNSt3__122__compressed_pair_elemIRNS_9allocatorIPN7testing8TestInfoEEELi1ELb0EEC2B8ne180100IS6_vEEOT_
FNA:12,11,_ZNSt3__122__compressed_pair_elemIRNS_9allocatorIPN7testing9TestSuiteEEELi1ELb0EEC2B8ne180100IS6_vEEOT_
FNA:12,0,_ZNSt3__122__compressed_pair_elemIRNS_9allocatorIPcEELi1ELb0EEC2B8ne180100IS4_vEEOT_
FNA:12,2369,_ZNSt3__122__compressed_pair_elemIRNS_9allocatorIdEELi1ELb0EEC2B8ne180100IS3_vEEOT_
FNA:12,65,_ZNSt3__122__compressed_pair_elemIRNS_9allocatorIiEELi1ELb0EEC2B8ne180100IS3_vEEOT_
FNA:12,0,_ZNSt3__122__compressed_pair_elemIRNS_9allocatorImEELi1ELb0EEC2B8ne180100IS3_vEEOT_
FNA:12,0,_ZNSt3__122__compressed_pair_elemIZN8nlohmann16json_abi_v3_11_310basic_jsonINS_3mapENS_6vectorENS_12basic_stringIcNS_11char_traitsIcEENS_9allocatorIcEEEEbxydS9_NS2_14adl_serializerENS5_IhNS9_IhEEEEvE6createINS2_27byte_container_with_subtypeISE_EEJEEEPT_DpOT0_EUlPSI_E_Li1ELb0EEC2B8ne180100IRKSP_vEEOSJ_
FNA:12,0,_ZNSt3__122__compressed_pair_elemIZN8nlohmann16json_abi_v3_11_310basic_jsonINS_3mapENS_6vectorENS_12basic_stringIcNS_11char_traitsIcEENS_9allocatorIcEEEEbxydS9_NS2_14adl_serializerENS5_IhNS9_IhEEEEvE6createINS2_27byte_container_with_subtypeISE_EEJRKSI_EEEPT_DpOT0_EUlPSI_E_Li1ELb0EEC2B8ne180100IRKSR_vEEOSL_
FNA:12,217,_ZNSt3__122__compressed_pair_elemIZN8nlohmann16json_abi_v3_11_310basic_jsonINS_3mapENS_6vectorENS_12basic_stringIcNS_11char_traitsIcEENS_9allocatorIcEEEEbxydS9_NS2_14adl_serializerENS5_IhNS9_IhEEEEvE6createINS4_ISB_SF_NS_4lessIvEENS9_INS_4pairIKSB_SF_EEEEEEJEEEPT_DpOT0_EUlPSN_E_Li1ELb0EEC2B8ne180100IRKSU_vEEOSO_
FNA:12,59,_ZNSt3__122__compressed_pair_elemIZN8nlohmann16json_abi_v3_11_310basic_jsonINS_3mapENS_6vectorENS_12basic_stringIcNS_11char_traitsIcEENS_9allocatorIcEEEEbxydS9_NS2_14adl_serializerENS5_IhNS9_IhEEEEvE6createINS4_ISB_SF_NS_4lessIvEENS9_INS_4pairIKSB_SF_EEEEEEJRKSN_EEEPT_DpOT0_EUlPSN_E_Li1ELb0EEC2B8ne180100IRKSW_vEEOSQ_
FNA:12,0,_ZNSt3__122__compressed_pair_elemIZN8nlohmann16json_abi_v3_11_310basic_jsonINS_3mapENS_6vectorENS_12basic_stringIcNS_11char_traitsIcEENS_9allocatorIcEEEEbxydS9_NS2_14adl_serializerENS5_IhNS9_IhEEEEvE6createINS5_ISF_NS9_ISF_EEEEJEEEPT_DpOT0_EUlPSI_E_Li1ELb0EEC2B8ne180100IRKSP_vEEOSJ_
FNA:12,3,_ZNSt3__122__compressed_pair_elemIZN8nlohmann16json_abi_v3_11_310basic_jsonINS_3mapENS_6vectorENS_12basic_stringIcNS_11char_traitsIcEENS_9allocatorIcEEEEbxydS9_NS2_14adl_serializerENS5_IhNS9_IhEEEEvE6createINS5_ISF_NS9_ISF_EEEEJNS_11__wrap_iterIPKNS5_IdNS9_IdEEEEEESO_EEEPT_DpOT0_EUlPSI_E_Li1ELb0EEC2B8ne180100IRKSV_vEEOSP_
FNA:12,9,_ZNSt3__122__compressed_pair_elemIZN8nlohmann16json_abi_v3_11_310basic_jsonINS_3mapENS_6vectorENS_12basic_stringIcNS_11char_traitsIcEENS_9allocatorIcEEEEbxydS9_NS2_14adl_serializerENS5_IhNS9_IhEEEEvE6createINS5_ISF_NS9_ISF_EEEEJNS_11__wrap_iterIPKSB_EESM_EEEPT_DpOT0_EUlPSI_E_Li1ELb0EEC2B8ne180100IRKST_vEEOSN_
FNA:12,21,_ZNSt3__122__compressed_pair_elemIZN8nlohmann16json_abi_v3_11_310basic_jsonINS_3mapENS_6vectorENS_12basic_stringIcNS_11char_traitsIcEENS_9allocatorIcEEEEbxydS9_NS2_14adl_serializerENS5_IhNS9_IhEEEEvE6createINS5_ISF_NS9_ISF_EEEEJNS_11__wrap_iterIPKdEESM_EEEPT_DpOT0_EUlPSI_E_Li1ELb0EEC2B8ne180100IRKST_vEEOSN_
FNA:12,655,_ZNSt3__122__compressed_pair_elemIZN8nlohmann16json_abi_v3_11_310basic_jsonINS_3mapENS_6vectorENS_12basic_stringIcNS_11char_traitsIcEENS_9allocatorIcEEEEbxydS9_NS2_14adl_serializerENS5_IhNS9_IhEEEEvE6createINS5_ISF_NS9_ISF_EEEEJPKNS2_6detail8json_refISF_EESN_EEEPT_DpOT0_EUlPSI_E_Li1ELb0EEC2B8ne180100IRKSU_vEEOSO_
FNA:12,48,_ZNSt3__122__compressed_pair_elemIZN8nlohmann16json_abi_v3_11_310basic_jsonINS_3mapENS_6vectorENS_12basic_stringIcNS_11char_traitsIcEENS_9allocatorIcEEEEbxydS9_NS2_14adl_serializerENS5_IhNS9_IhEEEEvE6createINS5_ISF_NS9_ISF_EEEEJRKSI_EEEPT_DpOT0_EUlPSI_E_Li1ELb0EEC2B8ne180100IRKSR_vEEOSL_
FNA:12,18,_ZNSt3__122__compressed_pair_elemIZN8nlohmann16json_abi_v3_11_310basic_jsonINS_3mapENS_6vectorENS_12basic_stringIcNS_11char_traitsIcEENS_9allocatorIcEEEEbxydS9_NS2_14adl_serializerENS5_IhNS9_IhEEEEvE6createISB_JRA10_KcEEEPT_DpOT0_EUlPSB_E_Li1ELb0EEC2B8ne180100IRKSQ_vEEOSK_
FNA:12,25,_ZNSt3__122__compressed_pair_elemIZN8nlohmann16json_abi_v3_11_310basic_jsonINS_3mapENS_6vectorENS_12basic_stringIcNS_11char_traitsIcEENS_9allocatorIcEEEEbxydS9_NS2_14adl_serializerENS5_IhNS9_IhEEEEvE6createISB_JRA11_KcEEEPT_DpOT0_EUlPSB_E_Li1ELb0EEC2B8ne180100IRKSQ_vEEOSK_
FNA:12,24,_ZNSt3__122__compressed_pair_elemIZN8nlohmann16json_abi_v3_11_310basic_jsonINS_3mapENS_6vectorENS_12basic_stringIcNS_11char_traitsIcEENS_9allocatorIcEEEEbxydS9_NS2_14adl_serializerENS5_IhNS9_IhEEEEvE6createISB_JRA12_KcEEEPT_DpOT0_EUlPSB_E_Li1ELb0EEC2B8ne180100IRKSQ_vEEOSK_
FNA:12,7,_ZNSt3__122__compressed_pair_elemIZN8nlohmann16json_abi_v3_11_310basic_jsonINS_3mapENS_6vectorENS_12basic_stringIcNS_11char_traitsIcEENS_9allocatorIcEEEEbxydS9_NS2_14adl_serializerENS5_IhNS9_IhEEEEvE6createISB_JRA14_KcEEEPT_DpOT0_EUlPSB_E_Li1ELb0EEC2B8ne180100IRKSQ_vEEOSK_
FNA:12,11,_ZNSt3__122__compressed_pair_elemIZN8nlohmann16json_abi_v3_11_310basic_jsonINS_3mapENS_6vectorENS_12basic_stringIcNS_11char_traitsIcEENS_9allocatorIcEEEEbxydS9_NS2_14adl_serializerENS5_IhNS9_IhEEEEvE6createISB_JRA15_KcEEEPT_DpOT0_EUlPSB_E_Li1ELb0EEC2B8ne180100IRKSQ_vEEOSK_
FNA:12,4,_ZNSt3__122__compressed_pair_elemIZN8nlohmann16json_abi_v3_11_310basic_jsonINS_3mapENS_6vectorENS_12basic_stringIcNS_11char_traitsIcEENS_9allocatorIcEEEEbxydS9_NS2_14adl_serializerENS5_IhNS9_IhEEEEvE6createISB_JRA1_KcEEEPT_DpOT0_EUlPSB_E_Li1ELb0EEC2B8ne180100IRKSQ_vEEOSK_
FNA:12,1,_ZNSt3__122__compressed_pair_elemIZN8nlohmann16json_abi_v3_11_310basic_jsonINS_3mapENS_6vectorENS_12basic_stringIcNS_11char_traitsIcEENS_9allocatorIcEEEEbxydS9_NS2_14adl_serializerENS5_IhNS9_IhEEEEvE6createISB_JRA20_KcEEEPT_DpOT0_EUlPSB_E_Li1ELb0EEC2B8ne180100IRKSQ_vEEOSK_
FNA:12,1,_ZNSt3__122__compressed_pair_elemIZN8nlohmann16json_abi_v3_11_310basic_jsonINS_3mapENS_6vectorENS_12basic_stringIcNS_11char_traitsIcEENS_9allocatorIcEEEEbxydS9_NS2_14adl_serializerENS5_IhNS9_IhEEEEvE6createISB_JRA22_KcEEEPT_DpOT0_EUlPSB_E_Li1ELb0EEC2B8ne180100IRKSQ_vEEOSK_
FNA:12,12,_ZNSt3__122__compressed_pair_elemIZN8nlohmann16json_abi_v3_11_310basic_jsonINS_3mapENS_6vectorENS_12basic_stringIcNS_11char_traitsIcEENS_9allocatorIcEEEEbxydS9_NS2_14adl_serializerENS5_IhNS9_IhEEEEvE6createISB_JRA23_KcEEEPT_DpOT0_EUlPSB_E_Li1ELb0EEC2B8ne180100IRKSQ_vEEOSK_
FNA:12,1,_ZNSt3__122__compressed_pair_elemIZN8nlohmann16json_abi_v3_11_310basic_jsonINS_3mapENS_6vectorENS_12basic_stringIcNS_11char_traitsIcEENS_9allocatorIcEEEEbxydS9_NS2_14adl_serializerENS5_IhNS9_IhEEEEvE6createISB_JRA27_KcEEEPT_DpOT0_EUlPSB_E_Li1ELb0EEC2B8ne180100IRKSQ_vEEOSK_
FNA:12,154,_ZNSt3__122__compressed_pair_elemIZN8nlohmann16json_abi_v3_11_310basic_jsonINS_3mapENS_6vectorENS_12basic_stringIcNS_11char_traitsIcEENS_9allocatorIcEEEEbxydS9_NS2_14adl_serializerENS5_IhNS9_IhEEEEvE6createISB_JRA2_KcEEEPT_DpOT0_EUlPSB_E_Li1ELb0EEC2B8ne180100IRKSQ_vEEOSK_
FNA:12,2,_ZNSt3__122__compressed_pair_elemIZN8nlohmann16json_abi_v3_11_310basic_jsonINS_3mapENS_6vectorENS_12basic_stringIcNS_11char_traitsIcEENS_9allocatorIcEEEEbxydS9_NS2_14adl_serializerENS5_IhNS9_IhEEEEvE6createISB_JRA35_KcEEEPT_DpOT0_EUlPSB_E_Li1ELb0EEC2B8ne180100IRKSQ_vEEOSK_
FNA:12,41,_ZNSt3__122__compressed_pair_elemIZN8nlohmann16json_abi_v3_11_310basic_jsonINS_3mapENS_6vectorENS_12basic_stringIcNS_11char_traitsIcEENS_9allocatorIcEEEEbxydS9_NS2_14adl_serializerENS5_IhNS9_IhEEEEvE6createISB_JRA3_KcEEEPT_DpOT0_EUlPSB_E_Li1ELb0EEC2B8ne180100IRKSQ_vEEOSK_
FNA:12,2,_ZNSt3__122__compressed_pair_elemIZN8nlohmann16json_abi_v3_11_310basic_jsonINS_3mapENS_6vectorENS_12basic_stringIcNS_11char_traitsIcEENS_9allocatorIcEEEEbxydS9_NS2_14adl_serializerENS5_IhNS9_IhEEEEvE6createISB_JRA45_KcEEEPT_DpOT0_EUlPSB_E_Li1ELb0EEC2B8ne180100IRKSQ_vEEOSK_
FNA:12,42,_ZNSt3__122__compressed_pair_elemIZN8nlohmann16json_abi_v3_11_310basic_jsonINS_3mapENS_6vectorENS_12basic_stringIcNS_11char_traitsIcEENS_9allocatorIcEEEEbxydS9_NS2_14adl_serializerENS5_IhNS9_IhEEEEvE6createISB_JRA4_KcEEEPT_DpOT0_EUlPSB_E_Li1ELb0EEC2B8ne180100IRKSQ_vEEOSK_
FNA:12,2,_ZNSt3__122__compressed_pair_elemIZN8nlohmann16json_abi_v3_11_310basic_jsonINS_3mapENS_6vectorENS_12basic_stringIcNS_11char_traitsIcEENS_9allocatorIcEEEEbxydS9_NS2_14adl_serializerENS5_IhNS9_IhEEEEvE6createISB_JRA53_KcEEEPT_DpOT0_EUlPSB_E_Li1ELb0EEC2B8ne180100IRKSQ_vEEOSK_
FNA:12,150,_ZNSt3__122__compressed_pair_elemIZN8nlohmann16json_abi_v3_11_310basic_jsonINS_3mapENS_6vectorENS_12basic_stringIcNS_11char_traitsIcEENS_9allocatorIcEEEEbxydS9_NS2_14adl_serializerENS5_IhNS9_IhEEEEvE6createISB_JRA5_KcEEEPT_DpOT0_EUlPSB_E_Li1ELb0EEC2B8ne180100IRKSQ_vEEOSK_
FNA:12,124,_ZNSt3__122__compressed_pair_elemIZN8nlohmann16json_abi_v3_11_310basic_jsonINS_3mapENS_6vectorENS_12basic_stringIcNS_11char_traitsIcEENS_9allocatorIcEEEEbxydS9_NS2_14adl_serializerENS5_IhNS9_IhEEEEvE6createISB_JRA6_KcEEEPT_DpOT0_EUlPSB_E_Li1ELb0EEC2B8ne180100IRKSQ_vEEOSK_
FNA:12,1,_ZNSt3__122__compressed_pair_elemIZN8nlohmann16json_abi_v3_11_310basic_jsonINS_3mapENS_6vectorENS_12basic_stringIcNS_11char_traitsIcEENS_9allocatorIcEEEEbxydS9_NS2_14adl_serializerENS5_IhNS9_IhEEEEvE6createISB_JRA72_KcEEEPT_DpOT0_EUlPSB_E_Li1ELb0EEC2B8ne180100IRKSQ_vEEOSK_
FNA:12,52,_ZNSt3__122__compressed_pair_elemIZN8nlohmann16json_abi_v3_11_310basic_jsonINS_3mapENS_6vectorENS_12basic_stringIcNS_11char_traitsIcEENS_9allocatorIcEEEEbxydS9_NS2_14adl_serializerENS5_IhNS9_IhEEEEvE6createISB_JRA7_KcEEEPT_DpOT0_EUlPSB_E_Li1ELb0EEC2B8ne180100IRKSQ_vEEOSK_
FNA:12,54,_ZNSt3__122__compressed_pair_elemIZN8nlohmann16json_abi_v3_11_310basic_jsonINS_3mapENS_6vectorENS_12basic_stringIcNS_11char_traitsIcEENS_9allocatorIcEEEEbxydS9_NS2_14adl_serializerENS5_IhNS9_IhEEEEvE6createISB_JRA8_KcEEEPT_DpOT0_EUlPSB_E_Li1ELb0EEC2B8ne180100IRKSQ_vEEOSK_
FNA:12,97,_ZNSt3__122__compressed_pair_elemIZN8nlohmann16json_abi_v3_11_310basic_jsonINS_3mapENS_6vectorENS_12basic_stringIcNS_11char_traitsIcEENS_9allocatorIcEEEEbxydS9_NS2_14adl_serializerENS5_IhNS9_IhEEEEvE6createISB_JRA9_KcEEEPT_DpOT0_EUlPSB_E_Li1ELb0EEC2B8ne180100IRKSQ_vEEOSK_
FNA:12,635,_ZNSt3__122__compressed_pair_elemIZN8nlohmann16json_abi_v3_11_310basic_jsonINS_3mapENS_6vectorENS_12basic_stringIcNS_11char_traitsIcEENS_9allocatorIcEEEEbxydS9_NS2_14adl_serializerENS5_IhNS9_IhEEEEvE6createISB_JRKSB_EEEPT_DpOT0_EUlPSB_E_Li1ELb0EEC2B8ne180100IRKSP_vEEOSJ_
FNA:12,454,_ZNSt3__122__compressed_pair_elemIZN8nlohmann16json_abi_v3_11_310basic_jsonINS_3mapENS_6vectorENS_12basic_stringIcNS_11char_traitsIcEENS_9allocatorIcEEEEbxydS9_NS2_14adl_serializerENS5_IhNS9_IhEEEEvE6createISB_JSB_EEEPT_DpOT0_EUlPSB_E_Li1ELb0EEC2B8ne180100IRKSN_vEEOSH_
FNA:12,61,_ZNSt3__122__compressed_pair_elemIfLi0ELb0EEC2B8ne180100IfvEEOT_
FNA:12,428,_ZNSt3__122__compressed_pair_elemImLi0ELb0EEC2B8ne180100IivEEOT_
FNL:13,63,63
FNA:13,8525,_ZNSt3__122__compressed_pair_elemINS_12basic_stringIcNS_11char_traitsIcEENS_9allocatorIcEEE5__repELi0ELb0EE5__getB8ne180100Ev
FNA:13,2791,_ZNSt3__122__compressed_pair_elemINS_15__tree_end_nodeIPNS_16__tree_node_baseIPvEEEELi0ELb0EE5__getB8ne180100Ev
FNA:13,118,_ZNSt3__122__compressed_pair_elemINS_16__hash_node_baseIPNS_11__hash_nodeINS_12basic_stringIcNS_11char_traitsIcEENS_9allocatorIcEEEEPvEEEELi0ELb0EE5__getB8ne180100Ev
FNA:13,8,_ZNSt3__122__compressed_pair_elemINS_16__hash_node_baseIPNS_11__hash_nodeINS_17__hash_value_typeIiNS_6vectorIdNS_9allocatorIdEEEEEEPvEEEELi0ELb0EE5__getB8ne180100Ev
FNA:13,0,_ZNSt3__122__compressed_pair_elemINS_22__allocator_destructorINS_9allocatorINS_10__function6__funcIZNK7pyfolio10TimeSeriesIdE8resampleENS5_9FrequencyEEUlRKNS_6vectorIdNS2_IdEEEEE_NS2_ISE_EEFdSD_EEEEEEELi1ELb0EE5__getB8ne180100Ev
FNA:13,0,_ZNSt3__122__compressed_pair_elemINS_22__hash_node_destructorINS_9allocatorINS_11__hash_nodeINS_12basic_stringIcNS_11char_traitsIcEENS2_IcEEEEPvEEEEEELi1ELb0EE5__getB8ne180100Ev
FNA:13,2,_ZNSt3__122__compressed_pair_elemINS_22__hash_node_destructorINS_9allocatorINS_11__hash_nodeINS_17__hash_value_typeIiNS_6vectorIdNS2_IdEEEEEEPvEEEEEELi1ELb0EE5__getB8ne180100Ev
FNA:13,0,_ZNSt3__122__compressed_pair_elemINS_22__tree_node_destructorINS_9allocatorINS_11__tree_nodeINS_12__value_typeIN7pyfolio8DateTimeENS_6vectorIdNS2_IdEEEEEEPvEEEEEELi1ELb0EE5__getB8ne180100Ev
FNA:13,39,_ZNSt3__122__compressed_pair_elemINS_22__tree_node_destructorINS_9allocatorINS_11__tree_nodeINS_12__value_typeINS_12basic_stringIcNS_11char_traitsIcEENS2_IcEEEEN7pyfolio9positions7HoldingEEEPvEEEEEELi1ELb0EE5__getB8ne180100Ev
FNA:13,0,_ZNSt3__122__compressed_pair_elemINS_22__tree_node_destructorINS_9allocatorINS_11__tree_nodeINS_12__value_typeINS_12basic_stringIcNS_11char_traitsIcEENS2_IcEEEEN7testing8internal34TypeParameterizedTestSuiteRegistry30TypeParameterizedTestSuiteInfoEEEPvEEEEEELi1ELb0EE5__getB8ne180100Ev
FNA:13,846,_ZNSt3__122__compressed_pair_elemINS_22__tree_node_destructorINS_9allocatorINS_11__tree_nodeINS_12__value_typeINS_12basic_stringIcNS_11char_traitsIcEENS2_IcEEEEN8nlohmann16json_abi_v3_11_310basic_jsonINS_3mapENS_6vectorES9_bxydS2_NSB_14adl_serializerENSE_IhNS2_IhEEEEvEEEEPvEEEEEELi1ELb0EE5__getB8ne180100Ev
FNA:13,53,_ZNSt3__122__compressed_pair_elemINS_22__tree_node_destructorINS_9allocatorINS_11__tree_nodeINS_12__value_typeINS_12basic_stringIcNS_11char_traitsIcEENS2_IcEEEEdEEPvEEEEEELi1ELb0EE5__getB8ne180100Ev
FNA:13,0,_ZNSt3__122__compressed_pair_elemINS_22__tree_node_destructorINS_9allocatorINS_11__tree_nodeINS_12__value_typeINS_12basic_stringIcNS_11char_traitsIcEENS2_IcEEEEmEEPvEEEEEELi1ELb0EE5__getB8ne180100Ev
FNA:13,8,_ZNSt3__122__compressed_pair_elemINS_22__tree_node_destructorINS_9allocatorINS_11__tree_nodeINS_12basic_stringIcNS_11char_traitsIcEENS2_IcEEEEPvEEEEEELi1ELb0EE5__getB8ne180100Ev
FNA:13,78,_ZNSt3__122__compressed_pair_elemINS_22__tree_node_destructorINS_9allocatorINS_11__tree_nodeINS_6chrono14year_month_dayEPvEEEEEELi1ELb0EE5__getB8ne180100Ev
FNA:13,60,_ZNSt3__122__compressed_pair_elemINS_25__bucket_list_deallocatorINS_9allocatorIPNS_16__hash_node_baseIPNS_11__hash_nodeINS_12basic_stringIcNS_11char_traitsIcEENS2_IcEEEEPvEEEEEEEELi1ELb0EE5__getB8ne180100Ev
FNA:13,6,_ZNSt3__122__compressed_pair_elemINS_25__bucket_list_deallocatorINS_9allocatorIPNS_16__hash_node_baseIPNS_11__hash_nodeINS_17__hash_value_typeIiNS_6vectorIdNS2_IdEEEEEEPvEEEEEEEELi1ELb0EE5__getB8ne180100Ev
FNA:13,0,_ZNSt3__122__compressed_pair_elemIPKNS_12basic_stringIcNS_11char_traitsIcEENS_9allocatorIcEEEELi0ELb0EE5__getB8ne180100Ev
FNA:13,89,_ZNSt3__122__compressed_pair_elemIPN7pyfolio10TimeSeriesIdEELi0ELb0EE5__getB8ne180100Ev
FNA:13,30,_ZNSt3__122__compressed_pair_elemIPN7pyfolio11attribution17SectorAttributionELi0ELb0EE5__getB8ne180100Ev
FNA:13,39,_ZNSt3__122__compressed_pair_elemIPN7pyfolio13visualization8PlotDataELi0ELb0EE5__getB8ne180100Ev
FNA:13,19261,_ZNSt3__122__compressed_pair_elemIPN7pyfolio8DateTimeELi0ELb0EE5__getB8ne180100Ev
FNA:13,104,_ZNSt3__122__compressed_pair_elemIPN7pyfolio9positions17PortfolioHoldingsELi0ELb0EE5__getB8ne180100Ev
FNA:13,0,_ZNSt3__122__compressed_pair_elemIPN7testing12TestPropertyELi0ELb0EE5__getB8ne180100Ev
FNA:13,196,_ZNSt3__122__compressed_pair_elemIPN7testing14TestPartResultELi0ELb0EE5__getB8ne180100Ev
FNA:13,2,_ZNSt3__122__compressed_pair_elemIPN7testing8internal11ThreadLocalINS_6vectorINS2_9TraceInfoENS_9allocatorIS5_EEEEE18ValueHolderFactoryELi0ELb0EE5__getB8ne180100Ev
FNA:13,2,_ZNSt3__122__compressed_pair_elemIPN7testing8internal11ThreadLocalIPNS1_31TestPartResultReporterInterfaceEE18ValueHolderFactoryELi0ELb0EE5__getB8ne180100Ev
FNA:13,0,_ZNSt3__122__compressed_pair_elemIPN7testing8internal13edit_distance8EditTypeELi0ELb0EE5__getB8ne180100Ev
FNA:13,264,_ZNSt3__122__compressed_pair_elemIPN7testing8internal14GTestFlagSaverELi0ELb0EE5__getB8ne180100Ev
FNA:13,2,_ZNSt3__122__compressed_pair_elemIPN7testing8internal16DeathTestFactoryELi0ELb0EE5__getB8ne180100Ev
FNA:13,26,_ZNSt3__122__compressed_pair_elemIPN7testing8internal24InternalRunDeathTestFlagELi0ELb0EE5__getB8ne180100Ev
FNA:13,0,_ZNSt3__122__compressed_pair_elemIPN7testing8internal9TraceInfoELi0ELb0EE5__getB8ne180100Ev
FNA:13,8803,_ZNSt3__122__compressed_pair_elemIPN8nlohmann16json_abi_v3_11_310basic_jsonINS_3mapENS_6vectorENS_12basic_stringIcNS_11char_traitsIcEENS_9allocatorIcEEEEbxydS9_NS2_14adl_serializerENS5_IhNS9_IhEEEEvEELi0ELb0EE5__getB8ne180100Ev
FNA:13,0,_ZNSt3__122__compressed_pair_elemIPN8nlohmann16json_abi_v3_11_327byte_container_with_subtypeINS_6vectorIhNS_9allocatorIhEEEEEELi0ELb0EE5__getB8ne180100Ev
FNA:13,0,_ZNSt3__122__compressed_pair_elemIPNS_10__function6__funcIZNK7pyfolio10TimeSeriesIdE8resampleENS3_9FrequencyEEUlRKNS_6vectorIdNS_9allocatorIdEEEEE_NS8_ISD_EEFdSC_EEELi0ELb0EE5__getB8ne180100Ev
FNA:13,0,_ZNSt3__122__compressed_pair_elemIPNS_11__hash_nodeINS_12basic_stringIcNS_11char_traitsIcEENS_9allocatorIcEEEEPvEELi0ELb0EE5__getB8ne180100Ev
FNA:13,8,_ZNSt3__122__compressed_pair_elemIPNS_11__hash_nodeINS_17__hash_value_typeIiNS_6vectorIdNS_9allocatorIdEEEEEEPvEELi0ELb0EE5__getB8ne180100Ev
FNA:13,0,_ZNSt3__122__compressed_pair_elemIPNS_11__tree_nodeINS_12__value_typeIN7pyfolio8DateTimeENS_6vectorIdNS_9allocatorIdEEEEEEPvEELi0ELb0EE5__getB8ne180100Ev
FNA:13,156,_ZNSt3__122__compressed_pair_elemIPNS_11__tree_nodeINS_12__value_typeINS_12basic_stringIcNS_11char_traitsIcEENS_9allocatorIcEEEEN7pyfolio9positions7HoldingEEEPvEELi0ELb0EE5__getB8ne180100Ev
FNA:13,0,_ZNSt3__122__compressed_pair_elemIPNS_11__tree_nodeINS_12__value_typeINS_12basic_stringIcNS_11char_traitsIcEENS_9allocatorIcEEEEN7testing8internal34TypeParameterizedTestSuiteRegistry30TypeParameterizedTestSuiteInfoEEEPvEELi0ELb0EE5__getB8ne180100Ev
FNA:13,3384,_ZNSt3__122__compressed_pair_elemIPNS_11__tree_nodeINS_12__value_typeINS_12basic_stringIcNS_11char_traitsIcEENS_9allocatorIcEEEEN8nlohmann16json_abi_v3_11_310basic_jsonINS_3mapENS_6vectorES8_bxydS6_NSA_14adl_serializerENSD_IhNS6_IhEEEEvEEEEPvEELi0ELb0EE5__getB8ne180100Ev
FNA:13,212,_ZNSt3__122__compressed_pair_elemIPNS_11__tree_nodeINS_12__value_typeINS_12basic_stringIcNS_11char_traitsIcEENS_9allocatorIcEEEEdEEPvEELi0ELb0EE5__getB8ne180100Ev
FNA:13,0,_ZNSt3__122__compressed_pair_elemIPNS_11__tree_nodeINS_12__value_typeINS_12basic_stringIcNS_11char_traitsIcEENS_9allocatorIcEEEEmEEPvEELi0ELb0EE5__getB8ne180100Ev
FNA:13,32,_ZNSt3__122__compressed_pair_elemIPNS_11__tree_nodeINS_12basic_stringIcNS_11char_traitsIcEENS_9allocatorIcEEEEPvEELi0ELb0EE5__getB8ne180100Ev
FNA:13,312,_ZNSt3__122__compressed_pair_elemIPNS_11__tree_nodeINS_6chrono14year_month_dayEPvEELi0ELb0EE5__getB8ne180100Ev
FNA:13,15210,_ZNSt3__122__compressed_pair_elemIPNS_12basic_stringIcNS_11char_traitsIcEENS_9allocatorIcEEEELi0ELb0EE5__getB8ne180100Ev
FNA:13,80,_ZNSt3__122__compressed_pair_elemIPNS_15__thread_structELi0ELb0EE5__getB8ne180100Ev
FNA:13,4292,_ZNSt3__122__compressed_pair_elemIPNS_18basic_stringstreamIcNS_11char_traitsIcEENS_9allocatorIcEEEELi0ELb0EE5__getB8ne180100Ev
FNA:13,1104,_ZNSt3__122__compressed_pair_elemIPNS_3mapINS_12basic_stringIcNS_11char_traitsIcEENS_9allocatorIcEEEEN8nlohmann16json_abi_v3_11_310basic_jsonIS1_NS_6vectorES7_bxydS5_NS9_14adl_serializerENSB_IhNS5_IhEEEEvEENS_4lessIvEENS5_INS_4pairIKS7_SF_EEEEEELi0ELb0EE5__getB8ne180100Ev
FNA:13,0,_ZNSt3__122__compressed_pair_elemIPNS_4pairIN7pyfolio8DateTimeEdEELi0ELb0EE5__getB8ne180100Ev
FNA:13,60,_ZNSt3__122__compressed_pair_elemIPNS_5tupleIJNS_10unique_ptrINS_15__thread_structENS_14default_deleteIS3_EEEEZN36CoreTypesTest_BasicThreadSafety_Test8TestBodyEvE3$_0EEELi0ELb0EE5__getB8ne180100Ev
FNA:13,25,_ZNSt3__122__compressed_pair_elemIPNS_6threadELi0ELb0EE5__getB8ne180100Ev
FNA:13,0,_ZNSt3__122__compressed_pair_elemIPNS_6vectorIN7testing8internal13edit_distance8EditTypeENS_9allocatorIS5_EEEELi0ELb0EE5__getB8ne180100Ev
FNA:13,2944,_ZNSt3__122__compressed_pair_elemIPNS_6vectorIN8nlohmann16json_abi_v3_11_310basic_jsonINS_3mapES1_NS_12basic_stringIcNS_11char_traitsIcEENS_9allocatorIcEEEEbxydS9_NS3_14adl_serializerENS1_IhNS9_IhEEEEvEENS9_ISF_EEEELi0ELb0EE5__getB8ne180100Ev
FNA:13,27,_ZNSt3__122__compressed_pair_elemIPNS_6vectorIdNS_9allocatorIdEEEELi0ELb0EE5__getB8ne180100Ev
FNA:13,0,_ZNSt3__122__compressed_pair_elemIPPN7testing11EnvironmentELi0ELb0EE5__getB8ne180100Ev
FNA:13,48,_ZNSt3__122__compressed_pair_elemIPPN7testing17TestEventListenerELi0ELb0EE5__getB8ne180100Ev
FNA:13,294,_ZNSt3__122__compressed_pair_elemIPPN7testing8TestInfoELi0ELb0EE5__getB8ne180100Ev
FNA:13,44,_ZNSt3__122__compressed_pair_elemIPPN7testing9TestSuiteELi0ELb0EE5__getB8ne180100Ev
FNA:13,166,_ZNSt3__122__compressed_pair_elemIPPNS_16__hash_node_baseIPNS_11__hash_nodeINS_12basic_stringIcNS_11char_traitsIcEENS_9allocatorIcEEEEPvEEEELi0ELb0EE5__getB8ne180100Ev
FNA:13,8,_ZNSt3__122__compressed_pair_elemIPPNS_16__hash_node_baseIPNS_11__hash_nodeINS_17__hash_value_typeIiNS_6vectorIdNS_9allocatorIdEEEEEEPvEEEELi0ELb0EE5__getB8ne180100Ev
FNA:13,0,_ZNSt3__122__compressed_pair_elemIPPcLi0ELb0EE5__getB8ne180100Ev
FNA:13,89289,_ZNSt3__122__compressed_pair_elemIPdLi0ELb0EE5__getB8ne180100Ev
FNA:13,0,_ZNSt3__122__compressed_pair_elemIPhLi0ELb0EE5__getB8ne180100Ev
FNA:13,339,_ZNSt3__122__compressed_pair_elemIPiLi0ELb0EE5__getB8ne180100Ev
FNA:13,1,_ZNSt3__122__compressed_pair_elemIPmLi0ELb0EE5__getB8ne180100Ev
FNA:13,70,_ZNSt3__122__compressed_pair_elemIRNS_9allocatorIN7pyfolio10TimeSeriesIdEEEELi1ELb0EE5__getB8ne180100Ev
FNA:13,16,_ZNSt3__122__compressed_pair_elemIRNS_9allocatorIN7pyfolio11attribution17SectorAttributionEEELi1ELb0EE5__getB8ne180100Ev
FNA:13,11,_ZNSt3__122__compressed_pair_elemIRNS_9allocatorIN7pyfolio13visualization8PlotDataEEELi1ELb0EE5__getB8ne180100Ev
FNA:13,19939,_ZNSt3__122__compressed_pair_elemIRNS_9allocatorIN7pyfolio8DateTimeEEELi1ELb0EE5__getB8ne180100Ev
FNA:13,0,_ZNSt3__122__compressed_pair_elemIRNS_9allocatorIN7testing12TestPropertyEEELi1ELb0EE5__getB8ne180100Ev
FNA:13,179,_ZNSt3__122__compressed_pair_elemIRNS_9allocatorIN7testing14TestPartResultEEELi1ELb0EE5__getB8ne180100Ev
FNA:13,0,_ZNSt3__122__compressed_pair_elemIRNS_9allocatorIN7testing8internal13edit_distance8EditTypeEEELi1ELb0EE5__getB8ne180100Ev
FNA:13,0,_ZNSt3__122__compressed_pair_elemIRNS_9allocatorIN7testing8internal9TraceInfoEEELi1ELb0EE5__getB8ne180100Ev
FNA:13,3695,_ZNSt3__122__compressed_pair_elemIRNS_9allocatorIN8nlohmann16json_abi_v3_11_310basic_jsonINS_3mapENS_6vectorENS_12basic_stringIcNS_11char_traitsIcEENS1_IcEEEEbxydS1_NS3_14adl_serializerENS6_IhNS1_IhEEEEvEEEELi1ELb0EE5__getB8ne180100Ev
FNA:13,212,_ZNSt3__122__compressed_pair_elemIRNS_9allocatorINS_12basic_stringIcNS_11char_traitsIcEENS1_IcEEEEEELi1ELb0EE5__getB8ne180100Ev
FNA:13,0,_ZNSt3__122__compressed_pair_elemIRNS_9allocatorINS_4pairIN7pyfolio8DateTimeEdEEEELi1ELb0EE5__getB8ne180100Ev
FNA:13,24,_ZNSt3__122__compressed_pair_elemIRNS_9allocatorINS_6threadEEELi1ELb0EE5__getB8ne180100Ev
FNA:13,24,_ZNSt3__122__compressed_pair_elemIRNS_9allocatorINS_6vectorIdNS1_IdEEEEEELi1ELb0EE5__getB8ne180100Ev
FNA:13,0,_ZNSt3__122__compressed_pair_elemIRNS_9allocatorIPN7testing11EnvironmentEEELi1ELb0EE5__getB8ne180100Ev
FNA:13,12,_ZNSt3__122__compressed_pair_elemIRNS_9allocatorIPN7testing17TestEventListenerEEELi1ELb0EE5__getB8ne180100Ev
FNA:13,274,_ZNSt3__122__compressed_pair_elemIRNS_9allocatorIPN7testing8TestInfoEEELi1ELb0EE5__getB8ne180100Ev
FNA:13,11,_ZNSt3__122__compressed_pair_elemIRNS_9allocatorIPN7testing9TestSuiteEEELi1ELb0EE5__getB8ne180100Ev
FNA:13,0,_ZNSt3__122__compressed_pair_elemIRNS_9allocatorIPcEELi1ELb0EE5__getB8ne180100Ev
FNA:13,64057,_ZNSt3__122__compressed_pair_elemIRNS_9allocatorIdEELi1ELb0EE5__getB8ne180100Ev
FNA:13,285,_ZNSt3__122__compressed_pair_elemIRNS_9allocatorIiEELi1ELb0EE5__getB8ne180100Ev
FNA:13,0,_ZNSt3__122__compressed_pair_elemIRNS_9allocatorImEELi1ELb0EE5__getB8ne180100Ev
FNA:13,0,_ZNSt3__122__compressed_pair_elemIZN8nlohmann16json_abi_v3_11_310basic_jsonINS_3mapENS_6vectorENS_12basic_stringIcNS_11char_traitsIcEENS_9allocatorIcEEEEbxydS9_NS2_14adl_serializerENS5_IhNS9_IhEEEEvE6createINS2_27byte_container_with_subtypeISE_EEJEEEPT_DpOT0_EUlPSI_E_Li1ELb0EE5__getB8ne180100Ev
FNA:13,0,_ZNSt3__122__compressed_pair_elemIZN8nlohmann16json_abi_v3_11_310basic_jsonINS_3mapENS_6vectorENS_12basic_stringIcNS_11char_traitsIcEENS_9allocatorIcEEEEbxydS9_NS2_14adl_serializerENS5_IhNS9_IhEEEEvE6createINS2_27byte_container_with_subtypeISE_EEJRKSI_EEEPT_DpOT0_EUlPSI_E_Li1ELb0EE5__getB8ne180100Ev
FNA:13,0,_ZNSt3__122__compressed_pair_elemIZN8nlohmann16json_abi_v3_11_310basic_jsonINS_3mapENS_6vectorENS_12basic_stringIcNS_11char_traitsIcEENS_9allocatorIcEEEEbxydS9_NS2_14adl_serializerENS5_IhNS9_IhEEEEvE6createINS4_ISB_SF_NS_4lessIvEENS9_INS_4pairIKSB_SF_EEEEEEJEEEPT_DpOT0_EUlPSN_E_Li1ELb0EE5__getB8ne180100Ev
FNA:13,0,_ZNSt3__122__compressed_pair_elemIZN8nlohmann16json_abi_v3_11_310basic_jsonINS_3mapENS_6vectorENS_12basic_stringIcNS_11char_traitsIcEENS_9allocatorIcEEEEbxydS9_NS2_14adl_serializerENS5_IhNS9_IhEEEEvE6createINS4_ISB_SF_NS_4lessIvEENS9_INS_4pairIKSB_SF_EEEEEEJRKSN_EEEPT_DpOT0_EUlPSN_E_Li1ELb0EE5__getB8ne180100Ev
FNA:13,0,_ZNSt3__122__compressed_pair_elemIZN8nlohmann16json_abi_v3_11_310basic_jsonINS_3mapENS_6vectorENS_12basic_stringIcNS_11char_traitsIcEENS_9allocatorIcEEEEbxydS9_NS2_14adl_serializerENS5_IhNS9_IhEEEEvE6createINS5_ISF_NS9_ISF_EEEEJEEEPT_DpOT0_EUlPSI_E_Li1ELb0EE5__getB8ne180100Ev
FNA:13,0,_ZNSt3__122__compressed_pair_elemIZN8nlohmann16json_abi_v3_11_310basic_jsonINS_3mapENS_6vectorENS_12basic_stringIcNS_11char_traitsIcEENS_9allocatorIcEEEEbxydS9_NS2_14adl_serializerENS5_IhNS9_IhEEEEvE6createINS5_ISF_NS9_ISF_EEEEJNS_11__wrap_iterIPKNS5_IdNS9_IdEEEEEESO_EEEPT_DpOT0_EUlPSI_E_Li1ELb0EE5__getB8ne180100Ev
FNA:13,0,_ZNSt3__122__compressed_pair_elemIZN8nlohmann16json_abi_v3_11_310basic_jsonINS_3mapENS_6vectorENS_12basic_stringIcNS_11char_traitsIcEENS_9allocatorIcEEEEbxydS9_NS2_14adl_serializerENS5_IhNS9_IhEEEEvE6createINS5_ISF_NS9_ISF_EEEEJNS_11__wrap_iterIPKSB_EESM_EEEPT_DpOT0_EUlPSI_E_Li1ELb0EE5__getB8ne180100Ev
FNA:13,0,_ZNSt3__122__compressed_pair_elemIZN8nlohmann16json_abi_v3_11_310basic_jsonINS_3mapENS_6vectorENS_12basic_stringIcNS_11char_traitsIcEENS_9allocatorIcEEEEbxydS9_NS2_14adl_serializerENS5_IhNS9_IhEEEEvE6createINS5_ISF_NS9_ISF_EEEEJNS_11__wrap_iterIPKdEESM_EEEPT_DpOT0_EUlPSI_E_Li1ELb0EE5__getB8ne180100Ev
FNA:13,0,_ZNSt3__122__compressed_pair_elemIZN8nlohmann16json_abi_v3_11_310basic_jsonINS_3mapENS_6vectorENS_12basic_stringIcNS_11char_traitsIcEENS_9allocatorIcEEEEbxydS9_NS2_14adl_serializerENS5_IhNS9_IhEEEEvE6createINS5_ISF_NS9_ISF_EEEEJPKNS2_6detail8json_refISF_EESN_EEEPT_DpOT0_EUlPSI_E_Li1ELb0EE5__getB8ne180100Ev
FNA:13,0,_ZNSt3__122__compressed_pair_elemIZN8nlohmann16json_abi_v3_11_310basic_jsonINS_3mapENS_6vectorENS_12basic_stringIcNS_11char_traitsIcEENS_9allocatorIcEEEEbxydS9_NS2_14adl_serializerENS5_IhNS9_IhEEEEvE6createINS5_ISF_NS9_ISF_EEEEJRKSI_EEEPT_DpOT0_EUlPSI_E_Li1ELb0EE5__getB8ne180100Ev
FNA:13,0,_ZNSt3__122__compressed_pair_elemIZN8nlohmann16json_abi_v3_11_310basic_jsonINS_3mapENS_6vectorENS_12basic_stringIcNS_11char_traitsIcEENS_9allocatorIcEEEEbxydS9_NS2_14adl_serializerENS5_IhNS9_IhEEEEvE6createISB_JRA10_KcEEEPT_DpOT0_EUlPSB_E_Li1ELb0EE5__getB8ne180100Ev
FNA:13,0,_ZNSt3__122__compressed_pair_elemIZN8nlohmann16json_abi_v3_11_310basic_jsonINS_3mapENS_6vectorENS_12basic_stringIcNS_11char_traitsIcEENS_9allocatorIcEEEEbxydS9_NS2_14adl_serializerENS5_IhNS9_IhEEEEvE6createISB_JRA11_KcEEEPT_DpOT0_EUlPSB_E_Li1ELb0EE5__getB8ne180100Ev
FNA:13,0,_ZNSt3__122__compressed_pair_elemIZN8nlohmann16json_abi_v3_11_310basic_jsonINS_3mapENS_6vectorENS_12basic_stringIcNS_11char_traitsIcEENS_9allocatorIcEEEEbxydS9_NS2_14adl_serializerENS5_IhNS9_IhEEEEvE6createISB_JRA12_KcEEEPT_DpOT0_EUlPSB_E_Li1ELb0EE5__getB8ne180100Ev
FNA:13,0,_ZNSt3__122__compressed_pair_elemIZN8nlohmann16json_abi_v3_11_310basic_jsonINS_3mapENS_6vectorENS_12basic_stringIcNS_11char_traitsIcEENS_9allocatorIcEEEEbxydS9_NS2_14adl_serializerENS5_IhNS9_IhEEEEvE6createISB_JRA14_KcEEEPT_DpOT0_EUlPSB_E_Li1ELb0EE5__getB8ne180100Ev
FNA:13,0,_ZNSt3__122__compressed_pair_elemIZN8nlohmann16json_abi_v3_11_310basic_jsonINS_3mapENS_6vectorENS_12basic_stringIcNS_11char_traitsIcEENS_9allocatorIcEEEEbxydS9_NS2_14adl_serializerENS5_IhNS9_IhEEEEvE6createISB_JRA15_KcEEEPT_DpOT0_EUlPSB_E_Li1ELb0EE5__getB8ne180100Ev
FNA:13,0,_ZNSt3__122__compressed_pair_elemIZN8nlohmann16json_abi_v3_11_310basic_jsonINS_3mapENS_6vectorENS_12basic_stringIcNS_11char_traitsIcEENS_9allocatorIcEEEEbxydS9_NS2_14adl_serializerENS5_IhNS9_IhEEEEvE6createISB_JRA1_KcEEEPT_DpOT0_EUlPSB_E_Li1ELb0EE5__getB8ne180100Ev
FNA:13,0,_ZNSt3__122__compressed_pair_elemIZN8nlohmann16json_abi_v3_11_310basic_jsonINS_3mapENS_6vectorENS_12basic_stringIcNS_11char_traitsIcEENS_9allocatorIcEEEEbxydS9_NS2_14adl_serializerENS5_IhNS9_IhEEEEvE6createISB_JRA20_KcEEEPT_DpOT0_EUlPSB_E_Li1ELb0EE5__getB8ne180100Ev
FNA:13,0,_ZNSt3__122__compressed_pair_elemIZN8nlohmann16json_abi_v3_11_310basic_jsonINS_3mapENS_6vectorENS_12basic_stringIcNS_11char_traitsIcEENS_9allocatorIcEEEEbxydS9_NS2_14adl_serializerENS5_IhNS9_IhEEEEvE6createISB_JRA22_KcEEEPT_DpOT0_EUlPSB_E_Li1ELb0EE5__getB8ne180100Ev
FNA:13,0,_ZNSt3__122__compressed_pair_elemIZN8nlohmann16json_abi_v3_11_310basic_jsonINS_3mapENS_6vectorENS_12basic_stringIcNS_11char_traitsIcEENS_9allocatorIcEEEEbxydS9_NS2_14adl_serializerENS5_IhNS9_IhEEEEvE6createISB_JRA23_KcEEEPT_DpOT0_EUlPSB_E_Li1ELb0EE5__getB8ne180100Ev
FNA:13,0,_ZNSt3__122__compressed_pair_elemIZN8nlohmann16json_abi_v3_11_310basic_jsonINS_3mapENS_6vectorENS_12basic_stringIcNS_11char_traitsIcEENS_9allocatorIcEEEEbxydS9_NS2_14adl_serializerENS5_IhNS9_IhEEEEvE6createISB_JRA27_KcEEEPT_DpOT0_EUlPSB_E_Li1ELb0EE5__getB8ne180100Ev
FNA:13,0,_ZNSt3__122__compressed_pair_elemIZN8nlohmann16json_abi_v3_11_310basic_jsonINS_3mapENS_6vectorENS_12basic_stringIcNS_11char_traitsIcEENS_9allocatorIcEEEEbxydS9_NS2_14adl_serializerENS5_IhNS9_IhEEEEvE6createISB_JRA2_KcEEEPT_DpOT0_EUlPSB_E_Li1ELb0EE5__getB8ne180100Ev
FNA:13,0,_ZNSt3__122__compressed_pair_elemIZN8nlohmann16json_abi_v3_11_310basic_jsonINS_3mapENS_6vectorENS_12basic_stringIcNS_11char_traitsIcEENS_9allocatorIcEEEEbxydS9_NS2_14adl_serializerENS5_IhNS9_IhEEEEvE6createISB_JRA35_KcEEEPT_DpOT0_EUlPSB_E_Li1ELb0EE5__getB8ne180100Ev
FNA:13,0,_ZNSt3__122__compressed_pair_elemIZN8nlohmann16json_abi_v3_11_310basic_jsonINS_3mapENS_6vectorENS_12basic_stringIcNS_11char_traitsIcEENS_9allocatorIcEEEEbxydS9_NS2_14adl_serializerENS5_IhNS9_IhEEEEvE6createISB_JRA3_KcEEEPT_DpOT0_EUlPSB_E_Li1ELb0EE5__getB8ne180100Ev
FNA:13,0,_ZNSt3__122__compressed_pair_elemIZN8nlohmann16json_abi_v3_11_310basic_jsonINS_3mapENS_6vectorENS_12basic_stringIcNS_11char_traitsIcEENS_9allocatorIcEEEEbxydS9_NS2_14adl_serializerENS5_IhNS9_IhEEEEvE6createISB_JRA45_KcEEEPT_DpOT0_EUlPSB_E_Li1ELb0EE5__getB8ne180100Ev
FNA:13,0,_ZNSt3__122__compressed_pair_elemIZN8nlohmann16json_abi_v3_11_310basic_jsonINS_3mapENS_6vectorENS_12basic_stringIcNS_11char_traitsIcEENS_9allocatorIcEEEEbxydS9_NS2_14adl_serializerENS5_IhNS9_IhEEEEvE6createISB_JRA4_KcEEEPT_DpOT0_EUlPSB_E_Li1ELb0EE5__getB8ne180100Ev
FNA:13,0,_ZNSt3__122__compressed_pair_elemIZN8nlohmann16json_abi_v3_11_310basic_jsonINS_3mapENS_6vectorENS_12basic_stringIcNS_11char_traitsIcEENS_9allocatorIcEEEEbxydS9_NS2_14adl_serializerENS5_IhNS9_IhEEEEvE6createISB_JRA53_KcEEEPT_DpOT0_EUlPSB_E_Li1ELb0EE5__getB8ne180100Ev
FNA:13,0,_ZNSt3__122__compressed_pair_elemIZN8nlohmann16json_abi_v3_11_310basic_jsonINS_3mapENS_6vectorENS_12basic_stringIcNS_11char_traitsIcEENS_9allocatorIcEEEEbxydS9_NS2_14adl_serializerENS5_IhNS9_IhEEEEvE6createISB_JRA5_KcEEEPT_DpOT0_EUlPSB_E_Li1ELb0EE5__getB8ne180100Ev
FNA:13,0,_ZNSt3__122__compressed_pair_elemIZN8nlohmann16json_abi_v3_11_310basic_jsonINS_3mapENS_6vectorENS_12basic_stringIcNS_11char_traitsIcEENS_9allocatorIcEEEEbxydS9_NS2_14adl_serializerENS5_IhNS9_IhEEEEvE6createISB_JRA6_KcEEEPT_DpOT0_EUlPSB_E_Li1ELb0EE5__getB8ne180100Ev
FNA:13,0,_ZNSt3__122__compressed_pair_elemIZN8nlohmann16json_abi_v3_11_310basic_jsonINS_3mapENS_6vectorENS_12basic_stringIcNS_11char_traitsIcEENS_9allocatorIcEEEEbxydS9_NS2_14adl_serializerENS5_IhNS9_IhEEEEvE6createISB_JRA72_KcEEEPT_DpOT0_EUlPSB_E_Li1ELb0EE5__getB8ne180100Ev
FNA:13,0,_ZNSt3__122__compressed_pair_elemIZN8nlohmann16json_abi_v3_11_310basic_jsonINS_3mapENS_6vectorENS_12basic_stringIcNS_11char_traitsIcEENS_9allocatorIcEEEEbxydS9_NS2_14adl_serializerENS5_IhNS9_IhEEEEvE6createISB_JRA7_KcEEEPT_DpOT0_EUlPSB_E_Li1ELb0EE5__getB8ne180100Ev
FNA:13,0,_ZNSt3__122__compressed_pair_elemIZN8nlohmann16json_abi_v3_11_310basic_jsonINS_3mapENS_6vectorENS_12basic_stringIcNS_11char_traitsIcEENS_9allocatorIcEEEEbxydS9_NS2_14adl_serializerENS5_IhNS9_IhEEEEvE6createISB_JRA8_KcEEEPT_DpOT0_EUlPSB_E_Li1ELb0EE5__getB8ne180100Ev
FNA:13,0,_ZNSt3__122__compressed_pair_elemIZN8nlohmann16json_abi_v3_11_310basic_jsonINS_3mapENS_6vectorENS_12basic_stringIcNS_11char_traitsIcEENS_9allocatorIcEEEEbxydS9_NS2_14adl_serializerENS5_IhNS9_IhEEEEvE6createISB_JRA9_KcEEEPT_DpOT0_EUlPSB_E_Li1ELb0EE5__getB8ne180100Ev
FNA:13,0,_ZNSt3__122__compressed_pair_elemIZN8nlohmann16json_abi_v3_11_310basic_jsonINS_3mapENS_6vectorENS_12basic_stringIcNS_11char_traitsIcEENS_9allocatorIcEEEEbxydS9_NS2_14adl_serializerENS5_IhNS9_IhEEEEvE6createISB_JRKSB_EEEPT_DpOT0_EUlPSB_E_Li1ELb0EE5__getB8ne180100Ev
FNA:13,0,_ZNSt3__122__compressed_pair_elemIZN8nlohmann16json_abi_v3_11_310basic_jsonINS_3mapENS_6vectorENS_12basic_stringIcNS_11char_traitsIcEENS_9allocatorIcEEEEbxydS9_NS2_14adl_serializerENS5_IhNS9_IhEEEEvE6createISB_JSB_EEEPT_DpOT0_EUlPSB_E_Li1ELb0EE5__getB8ne180100Ev
FNA:13,28,_ZNSt3__122__compressed_pair_elemIfLi0ELb0EE5__getB8ne180100Ev
FNA:13,1318,_ZNSt3__122__compressed_pair_elemImLi0ELb0EE5__getB8ne180100Ev
FNL:14,64,64
FNA:14,0,_ZNKSt3__122__compressed_pair_elemINS_12basic_stringIDiNS_11char_traitsIDiEENS_9allocatorIDiEEE5__repELi0ELb0EE5__getB8ne180100Ev
FNA:14,0,_ZNKSt3__122__compressed_pair_elemINS_12basic_stringIDsNS_11char_traitsIDsEENS_9allocatorIDsEEE5__repELi0ELb0EE5__getB8ne180100Ev
FNA:14,0,_ZNKSt3__122__compressed_pair_elemINS_12basic_stringIDuNS_11char_traitsIDuEENS_9allocatorIDuEEE5__repELi0ELb0EE5__getB8ne180100Ev
FNA:14,208024,_ZNKSt3__122__compressed_pair_elemINS_12basic_stringIcNS_11char_traitsIcEENS_9allocatorIcEEE5__repELi0ELb0EE5__getB8ne180100Ev
FNA:14,0,_ZNKSt3__122__compressed_pair_elemINS_12basic_stringIwNS_11char_traitsIwEENS_9allocatorIwEEE5__repELi0ELb0EE5__getB8ne180100Ev
FNA:14,4849,_ZNKSt3__122__compressed_pair_elemINS_15__tree_end_nodeIPNS_16__tree_node_baseIPvEEEELi0ELb0EE5__getB8ne180100Ev
FNA:14,539,_ZNKSt3__122__compressed_pair_elemINS_25__bucket_list_deallocatorINS_9allocatorIPNS_16__hash_node_baseIPNS_11__hash_nodeINS_12basic_stringIcNS_11char_traitsIcEENS2_IcEEEEPvEEEEEEEELi1ELb0EE5__getB8ne180100Ev
FNA:14,508,_ZNKSt3__122__compressed_pair_elemINS_25__bucket_list_deallocatorINS_9allocatorIPNS_16__hash_node_baseIPNS_11__hash_nodeINS_17__hash_value_typeIiNS_6vectorIdNS2_IdEEEEEEPvEEEEEEEELi1ELb0EE5__getB8ne180100Ev
FNA:14,187,_ZNKSt3__122__compressed_pair_elemIPKNS_12basic_stringIcNS_11char_traitsIcEENS_9allocatorIcEEEELi0ELb0EE5__getB8ne180100Ev
FNA:14,44,_ZNKSt3__122__compressed_pair_elemIPN7pyfolio10TimeSeriesIdEELi0ELb0EE5__getB8ne180100Ev
FNA:14,16,_ZNKSt3__122__compressed_pair_elemIPN7pyfolio11attribution17SectorAttributionELi0ELb0EE5__getB8ne180100Ev
FNA:14,21,_ZNKSt3__122__compressed_pair_elemIPN7pyfolio13visualization8PlotDataELi0ELb0EE5__getB8ne180100Ev
FNA:14,2122,_ZNKSt3__122__compressed_pair_elemIPN7pyfolio8DateTimeELi0ELb0EE5__getB8ne180100Ev
FNA:14,40,_ZNKSt3__122__compressed_pair_elemIPN7pyfolio9positions17PortfolioHoldingsELi0ELb0EE5__getB8ne180100Ev
FNA:14,0,_ZNKSt3__122__compressed_pair_elemIPN7testing12TestPropertyELi0ELb0EE5__getB8ne180100Ev
FNA:14,41,_ZNKSt3__122__compressed_pair_elemIPN7testing14TestPartResultELi0ELb0EE5__getB8ne180100Ev
FNA:14,6,_ZNKSt3__122__compressed_pair_elemIPN7testing8internal11ThreadLocalINS_6vectorINS2_9TraceInfoENS_9allocatorIS5_EEEEE18ValueHolderFactoryELi0ELb0EE5__getB8ne180100Ev
FNA:14,6,_ZNKSt3__122__compressed_pair_elemIPN7testing8internal11ThreadLocalIPNS1_31TestPartResultReporterInterfaceEE18ValueHolderFactoryELi0ELb0EE5__getB8ne180100Ev
FNA:14,0,_ZNKSt3__122__compressed_pair_elemIPN7testing8internal13edit_distance8EditTypeELi0ELb0EE5__getB8ne180100Ev
FNA:14,0,_ZNKSt3__122__compressed_pair_elemIPN7testing8internal16DeathTestFactoryELi0ELb0EE5__getB8ne180100Ev
FNA:14,24,_ZNKSt3__122__compressed_pair_elemIPN7testing8internal24InternalRunDeathTestFlagELi0ELb0EE5__getB8ne180100Ev
FNA:14,0,_ZNKSt3__122__compressed_pair_elemIPN7testing8internal9TraceInfoELi0ELb0EE5__getB8ne180100Ev
FNA:14,3788,_ZNKSt3__122__compressed_pair_elemIPN8nlohmann16json_abi_v3_11_310basic_jsonINS_3mapENS_6vectorENS_12basic_stringIcNS_11char_traitsIcEENS_9allocatorIcEEEEbxydS9_NS2_14adl_serializerENS5_IhNS9_IhEEEEvEELi0ELb0EE5__getB8ne180100Ev
FNA:14,0,_ZNKSt3__122__compressed_pair_elemIPN8nlohmann16json_abi_v3_11_327byte_container_with_subtypeINS_6vectorIhNS_9allocatorIhEEEEEELi0ELb0EE5__getB8ne180100Ev
FNA:14,0,_ZNKSt3__122__compressed_pair_elemIPNS_10__function6__funcIZNK7pyfolio10TimeSeriesIdE8resampleENS3_9FrequencyEEUlRKNS_6vectorIdNS_9allocatorIdEEEEE_NS8_ISD_EEFdSC_EEELi0ELb0EE5__getB8ne180100Ev
FNA:14,0,_ZNKSt3__122__compressed_pair_elemIPNS_11__hash_nodeINS_12basic_stringIcNS_11char_traitsIcEENS_9allocatorIcEEEEPvEELi0ELb0EE5__getB8ne180100Ev
FNA:14,10,_ZNKSt3__122__compressed_pair_elemIPNS_11__hash_nodeINS_17__hash_value_typeIiNS_6vectorIdNS_9allocatorIdEEEEEEPvEELi0ELb0EE5__getB8ne180100Ev
FNA:14,0,_ZNKSt3__122__compressed_pair_elemIPNS_11__tree_nodeINS_12__value_typeIN7pyfolio8DateTimeENS_6vectorIdNS_9allocatorIdEEEEEEPvEELi0ELb0EE5__getB8ne180100Ev
FNA:14,78,_ZNKSt3__122__compressed_pair_elemIPNS_11__tree_nodeINS_12__value_typeINS_12basic_stringIcNS_11char_traitsIcEENS_9allocatorIcEEEEN7pyfolio9positions7HoldingEEEPvEELi0ELb0EE5__getB8ne180100Ev
FNA:14,0,_ZNKSt3__122__compressed_pair_elemIPNS_11__tree_nodeINS_12__value_typeINS_12basic_stringIcNS_11char_traitsIcEENS_9allocatorIcEEEEN7testing8internal34TypeParameterizedTestSuiteRegistry30TypeParameterizedTestSuiteInfoEEEPvEELi0ELb0EE5__getB8ne180100Ev
FNA:14,1692,_ZNKSt3__122__compressed_pair_elemIPNS_11__tree_nodeINS_12__value_typeINS_12basic_stringIcNS_11char_traitsIcEENS_9allocatorIcEEEEN8nlohmann16json_abi_v3_11_310basic_jsonINS_3mapENS_6vectorES8_bxydS6_NSA_14adl_serializerENSD_IhNS6_IhEEEEvEEEEPvEELi0ELb0EE5__getB8ne180100Ev
FNA:14,106,_ZNKSt3__122__compressed_pair_elemIPNS_11__tree_nodeINS_12__value_typeINS_12basic_stringIcNS_11char_traitsIcEENS_9allocatorIcEEEEdEEPvEELi0ELb0EE5__getB8ne180100Ev
FNA:14,0,_ZNKSt3__122__compressed_pair_elemIPNS_11__tree_nodeINS_12__value_typeINS_12basic_stringIcNS_11char_traitsIcEENS_9allocatorIcEEEEmEEPvEELi0ELb0EE5__getB8ne180100Ev
FNA:14,16,_ZNKSt3__122__compressed_pair_elemIPNS_11__tree_nodeINS_12basic_stringIcNS_11char_traitsIcEENS_9allocatorIcEEEEPvEELi0ELb0EE5__getB8ne180100Ev
FNA:14,156,_ZNKSt3__122__compressed_pair_elemIPNS_11__tree_nodeINS_6chrono14year_month_dayEPvEELi0ELb0EE5__getB8ne180100Ev
FNA:14,6811,_ZNKSt3__122__compressed_pair_elemIPNS_12basic_stringIcNS_11char_traitsIcEENS_9allocatorIcEEEELi0ELb0EE5__getB8ne180100Ev
FNA:14,10399,_ZNKSt3__122__compressed_pair_elemIPNS_18basic_stringstreamIcNS_11char_traitsIcEENS_9allocatorIcEEEELi0ELb0EE5__getB8ne180100Ev
FNA:14,552,_ZNKSt3__122__compressed_pair_elemIPNS_3mapINS_12basic_stringIcNS_11char_traitsIcEENS_9allocatorIcEEEEN8nlohmann16json_abi_v3_11_310basic_jsonIS1_NS_6vectorES7_bxydS5_NS9_14adl_serializerENSB_IhNS5_IhEEEEvEENS_4lessIvEENS5_INS_4pairIKS7_SF_EEEEEELi0ELb0EE5__getB8ne180100Ev
FNA:14,0,_ZNKSt3__122__compressed_pair_elemIPNS_4pairIN7pyfolio8DateTimeEdEELi0ELb0EE5__getB8ne180100Ev
FNA:14,30,_ZNKSt3__122__compressed_pair_elemIPNS_5tupleIJNS_10unique_ptrINS_15__thread_structENS_14default_deleteIS3_EEEEZN36CoreTypesTest_BasicThreadSafety_Test8TestBodyEvE3$_0EEELi0ELb0EE5__getB8ne180100Ev
FNA:14,10,_ZNKSt3__122__compressed_pair_elemIPNS_6threadELi0ELb0EE5__getB8ne180100Ev
FNA:14,0,_ZNKSt3__122__compressed_pair_elemIPNS_6vectorIN7testing8internal13edit_distance8EditTypeENS_9allocatorIS5_EEEELi0ELb0EE5__getB8ne180100Ev
FNA:14,1472,_ZNKSt3__122__compressed_pair_elemIPNS_6vectorIN8nlohmann16json_abi_v3_11_310basic_jsonINS_3mapES1_NS_12basic_stringIcNS_11char_traitsIcEENS_9allocatorIcEEEEbxydS9_NS3_14adl_serializerENS1_IhNS9_IhEEEEvEENS9_ISF_EEEELi0ELb0EE5__getB8ne180100Ev
FNA:14,12,_ZNKSt3__122__compressed_pair_elemIPNS_6vectorIdNS_9allocatorIdEEEELi0ELb0EE5__getB8ne180100Ev
FNA:14,0,_ZNKSt3__122__compressed_pair_elemIPPN7testing11EnvironmentELi0ELb0EE5__getB8ne180100Ev
FNA:14,13,_ZNKSt3__122__compressed_pair_elemIPPN7testing17TestEventListenerELi0ELb0EE5__getB8ne180100Ev
FNA:14,97,_ZNKSt3__122__compressed_pair_elemIPPN7testing8TestInfoELi0ELb0EE5__getB8ne180100Ev
FNA:14,0,_ZNKSt3__122__compressed_pair_elemIPPN7testing8internal30ParameterizedTestSuiteInfoBaseELi0ELb0EE5__getB8ne180100Ev
FNA:14,11,_ZNKSt3__122__compressed_pair_elemIPPN7testing9TestSuiteELi0ELb0EE5__getB8ne180100Ev
FNA:14,0,_ZNKSt3__122__compressed_pair_elemIPPNS_16__hash_node_baseIPNS_11__hash_nodeINS_12basic_stringIcNS_11char_traitsIcEENS_9allocatorIcEEEEPvEEEELi0ELb0EE5__getB8ne180100Ev
FNA:14,510,_ZNKSt3__122__compressed_pair_elemIPPNS_16__hash_node_baseIPNS_11__hash_nodeINS_17__hash_value_typeIiNS_6vectorIdNS_9allocatorIdEEEEEEPvEEEELi0ELb0EE5__getB8ne180100Ev
FNA:14,0,_ZNKSt3__122__compressed_pair_elemIPPcLi0ELb0EE5__getB8ne180100Ev
FNA:14,5132,_ZNKSt3__122__compressed_pair_elemIPdLi0ELb0EE5__getB8ne180100Ev
FNA:14,0,_ZNKSt3__122__compressed_pair_elemIPhLi0ELb0EE5__getB8ne180100Ev
FNA:14,109,_ZNKSt3__122__compressed_pair_elemIPiLi0ELb0EE5__getB8ne180100Ev
FNA:14,1,_ZNKSt3__122__compressed_pair_elemIPmLi0ELb0EE5__getB8ne180100Ev
FNA:14,2120,_ZNKSt3__122__compressed_pair_elemImLi0ELb0EE5__getB8ne180100Ev
FNL:15,78,78
FNA:15,2,_ZNSt3__122__compressed_pair_elemINS_21__unordered_map_equalIiNS_17__hash_value_typeIiNS_6vectorIdNS_9allocatorIdEEEEEENS_8equal_toIiEENS_4hashIiEELb1EEELi1ELb1EEC2B8ne180100ENS_18__default_init_tagE
FNA:15,2,_ZNSt3__122__compressed_pair_elemINS_22__unordered_map_hasherIiNS_17__hash_value_typeIiNS_6vectorIdNS_9allocatorIdEEEEEENS_4hashIiEENS_8equal_toIiEELb1EEELi1ELb1EEC2B8ne180100ENS_18__default_init_tagE
FNA:15,59,_ZNSt3__122__compressed_pair_elemINS_4hashINS_12basic_stringIcNS_11char_traitsIcEENS_9allocatorIcEEEEEELi1ELb1EEC2B8ne180100ENS_18__default_init_tagE
FNA:15,59,_ZNSt3__122__compressed_pair_elemINS_8equal_toINS_12basic_stringIcNS_11char_traitsIcEENS_9allocatorIcEEEEEELi1ELb1EEC2B8ne180100ENS_18__default_init_tagE
FNA:15,10,_ZNSt3__122__compressed_pair_elemINS_9allocatorIN7pyfolio10TimeSeriesIdEEEELi1ELb1EEC2B8ne180100ENS_18__default_init_tagE
FNA:15,2,_ZNSt3__122__compressed_pair_elemINS_9allocatorIN7pyfolio11attribution17SectorAttributionEEELi1ELb1EEC2B8ne180100ENS_18__default_init_tagE
FNA:15,12,_ZNSt3__122__compressed_pair_elemINS_9allocatorIN7pyfolio13visualization8PlotDataEEELi1ELb1EEC2B8ne180100ENS_18__default_init_tagE
FNA:15,218,_ZNSt3__122__compressed_pair_elemINS_9allocatorIN7pyfolio8DateTimeEEELi1ELb1EEC2B8ne180100ENS_18__default_init_tagE
FNA:15,155,_ZNSt3__122__compressed_pair_elemINS_9allocatorIN7testing12TestPropertyEEELi1ELb1EEC2B8ne180100ENS_18__default_init_tagE
FNA:15,155,_ZNSt3__122__compressed_pair_elemINS_9allocatorIN7testing14TestPartResultEEELi1ELb1EEC2B8ne180100ENS_18__default_init_tagE
FNA:15,0,_ZNSt3__122__compressed_pair_elemINS_9allocatorIN7testing8internal13edit_distance8EditTypeEEELi1ELb1EEC2B8ne180100ENS_18__default_init_tagE
FNA:15,6,_ZNSt3__122__compressed_pair_elemINS_9allocatorIN7testing8internal9TraceInfoEEELi1ELb1EEC2B8ne180100ENS_18__default_init_tagE
FNA:15,1700,_ZNSt3__122__compressed_pair_elemINS_9allocatorIN8nlohmann16json_abi_v3_11_310basic_jsonINS_3mapENS_6vectorENS_12basic_stringIcNS_11char_traitsIcEENS1_IcEEEEbxydS1_NS3_14adl_serializerENS6_IhNS1_IhEEEEvEEEELi1ELb1EEC2B8ne180100ENS_18__default_init_tagE
FNA:15,0,_ZNSt3__122__compressed_pair_elemINS_9allocatorINS_11__list_nodeINS_4pairIcPKcEEPvEEEELi1ELb1EEC2B8ne180100ENS_18__default_init_tagE
FNA:15,228,_ZNSt3__122__compressed_pair_elemINS_9allocatorINS_12basic_stringIcNS_11char_traitsIcEENS1_IcEEEEEELi1ELb1EEC2B8ne180100ENS_18__default_init_tagE
FNA:15,0,_ZNSt3__122__compressed_pair_elemINS_9allocatorINS_4pairIN7pyfolio8DateTimeEdEEEELi1ELb1EEC2B8ne180100ENS_18__default_init_tagE
FNA:15,1,_ZNSt3__122__compressed_pair_elemINS_9allocatorINS_6threadEEELi1ELb1EEC2B8ne180100ENS_18__default_init_tagE
FNA:15,0,_ZNSt3__122__compressed_pair_elemINS_9allocatorINS_6vectorIN7testing8internal13edit_distance8EditTypeENS1_IS6_EEEEEELi1ELb1EEC2B8ne180100ENS_18__default_init_tagE
FNA:15,4,_ZNSt3__122__compressed_pair_elemINS_9allocatorINS_6vectorIdNS1_IdEEEEEELi1ELb1EEC2B8ne180100ENS_18__default_init_tagE
FNA:15,12,_ZNSt3__122__compressed_pair_elemINS_9allocatorIPN7testing11EnvironmentEEELi1ELb1EEC2B8ne180100ENS_18__default_init_tagE
FNA:15,12,_ZNSt3__122__compressed_pair_elemINS_9allocatorIPN7testing17TestEventListenerEEELi1ELb1EEC2B8ne180100ENS_18__default_init_tagE
FNA:15,11,_ZNSt3__122__compressed_pair_elemINS_9allocatorIPN7testing8TestInfoEEELi1ELb1EEC2B8ne180100ENS_18__default_init_tagE
FNA:15,12,_ZNSt3__122__compressed_pair_elemINS_9allocatorIPN7testing8internal30ParameterizedTestSuiteInfoBaseEEELi1ELb1EEC2B8ne180100ENS_18__default_init_tagE
FNA:15,12,_ZNSt3__122__compressed_pair_elemINS_9allocatorIPN7testing9TestSuiteEEELi1ELb1EEC2B8ne180100ENS_18__default_init_tagE
FNA:15,59,_ZNSt3__122__compressed_pair_elemINS_9allocatorIPNS_16__hash_node_baseIPNS_11__hash_nodeINS_12basic_stringIcNS_11char_traitsIcEENS1_IcEEEEPvEEEEEELi1ELb1EEC2B8ne180100ENS_18__default_init_tagE
FNA:15,2,_ZNSt3__122__compressed_pair_elemINS_9allocatorIPNS_16__hash_node_baseIPNS_11__hash_nodeINS_17__hash_value_typeIiNS_6vectorIdNS1_IdEEEEEEPvEEEEEELi1ELb1EEC2B8ne180100ENS_18__default_init_tagE
FNA:15,0,_ZNSt3__122__compressed_pair_elemINS_9allocatorIPcEELi1ELb1EEC2B8ne180100ENS_18__default_init_tagE
FNA:15,13076,_ZNSt3__122__compressed_pair_elemINS_9allocatorIcEELi1ELb1EEC2B8ne180100ENS_18__default_init_tagE
FNA:15,1308,_ZNSt3__122__compressed_pair_elemINS_9allocatorIdEELi1ELb1EEC2B8ne180100ENS_18__default_init_tagE
FNA:15,0,_ZNSt3__122__compressed_pair_elemINS_9allocatorIhEELi1ELb1EEC2B8ne180100ENS_18__default_init_tagE
FNA:15,24,_ZNSt3__122__compressed_pair_elemINS_9allocatorIiEELi1ELb1EEC2B8ne180100ENS_18__default_init_tagE
FNA:15,1,_ZNSt3__122__compressed_pair_elemINS_9allocatorImEELi1ELb1EEC2B8ne180100ENS_18__default_init_tagE
FNA:15,0,_ZNSt3__122__compressed_pair_elemINS_9allocatorIwEELi1ELb1EEC2B8ne180100ENS_18__default_init_tagE
FNL:16,79,79
FNA:16,275,_ZNSt3__122__compressed_pair_elemINS_14default_deleteIKNS_12basic_stringIcNS_11char_traitsIcEENS_9allocatorIcEEEEEELi1ELb1EEC2B8ne180100ENS_16__value_init_tagE
FNA:16,26,_ZNSt3__122__compressed_pair_elemINS_14default_deleteIN7pyfolio9positions17PortfolioHoldingsEEELi1ELb1EEC2B8ne180100ENS_16__value_init_tagE
FNA:16,12,_ZNSt3__122__compressed_pair_elemINS_14default_deleteIN7testing8internal11ThreadLocalINS_6vectorINS3_9TraceInfoENS_9allocatorIS6_EEEEE18ValueHolderFactoryEEELi1ELb1EEC2B8ne180100ENS_16__value_init_tagE
FNA:16,12,_ZNSt3__122__compressed_pair_elemINS_14default_deleteIN7testing8internal11ThreadLocalIPNS2_31TestPartResultReporterInterfaceEE18ValueHolderFactoryEEELi1ELb1EEC2B8ne180100ENS_16__value_init_tagE
FNA:16,132,_ZNSt3__122__compressed_pair_elemINS_14default_deleteIN7testing8internal14GTestFlagSaverEEELi1ELb1EEC2B8ne180100ENS_16__value_init_tagE
FNA:16,12,_ZNSt3__122__compressed_pair_elemINS_14default_deleteIN7testing8internal16DeathTestFactoryEEELi1ELb1EEC2B8ne180100ENS_16__value_init_tagE
FNA:16,12,_ZNSt3__122__compressed_pair_elemINS_14default_deleteIN7testing8internal24InternalRunDeathTestFlagEEELi1ELb1EEC2B8ne180100ENS_16__value_init_tagE
FNA:16,3371,_ZNSt3__122__compressed_pair_elemINS_14default_deleteINS_12basic_stringIcNS_11char_traitsIcEENS_9allocatorIcEEEEEELi1ELb1EEC2B8ne180100ENS_16__value_init_tagE
FNA:16,10,_ZNSt3__122__compressed_pair_elemINS_14default_deleteINS_15__thread_structEEELi1ELb1EEC2B8ne180100ENS_16__value_init_tagE
FNA:16,2376,_ZNSt3__122__compressed_pair_elemINS_14default_deleteINS_18basic_stringstreamIcNS_11char_traitsIcEENS_9allocatorIcEEEEEELi1ELb1EEC2B8ne180100ENS_16__value_init_tagE
FNA:16,20,_ZNSt3__122__compressed_pair_elemINS_14default_deleteINS_5tupleIJNS_10unique_ptrINS_15__thread_structENS1_IS4_EEEEZN36CoreTypesTest_BasicThreadSafety_Test8TestBodyEvE3$_0EEEEELi1ELb1EEC2B8ne180100ENS_16__value_init_tagE
FNA:16,59,_ZNSt3__122__compressed_pair_elemINS_9allocatorINS_11__hash_nodeINS_12basic_stringIcNS_11char_traitsIcEENS1_IcEEEEPvEEEELi1ELb1EEC2B8ne180100ENS_16__value_init_tagE
FNA:16,2,_ZNSt3__122__compressed_pair_elemINS_9allocatorINS_11__hash_nodeINS_17__hash_value_typeIiNS_6vectorIdNS1_IdEEEEEEPvEEEELi1ELb1EEC2B8ne180100ENS_16__value_init_tagE
FNA:16,0,_ZNSt3__122__compressed_pair_elemINS_9allocatorINS_11__tree_nodeINS_12__value_typeIN7pyfolio8DateTimeENS_6vectorIdNS1_IdEEEEEEPvEEEELi1ELb1EEC2B8ne180100ENS_16__value_init_tagE
FNA:16,13,_ZNSt3__122__compressed_pair_elemINS_9allocatorINS_11__tree_nodeINS_12__value_typeINS_12basic_stringIcNS_11char_traitsIcEENS1_IcEEEEN7pyfolio9positions7HoldingEEEPvEEEELi1ELb1EEC2B8ne180100ENS_16__value_init_tagE
FNA:16,12,_ZNSt3__122__compressed_pair_elemINS_9allocatorINS_11__tree_nodeINS_12__value_typeINS_12basic_stringIcNS_11char_traitsIcEENS1_IcEEEEN7testing8internal34TypeParameterizedTestSuiteRegistry30TypeParameterizedTestSuiteInfoEEEPvEEEELi1ELb1EEC2B8ne180100ENS_16__value_init_tagE
FNA:16,217,_ZNSt3__122__compressed_pair_elemINS_9allocatorINS_11__tree_nodeINS_12__value_typeINS_12basic_stringIcNS_11char_traitsIcEENS1_IcEEEEN8nlohmann16json_abi_v3_11_310basic_jsonINS_3mapENS_6vectorES8_bxydS1_NSA_14adl_serializerENSD_IhNS1_IhEEEEvEEEEPvEEEELi1ELb1EEC2B8ne180100ENS_16__value_init_tagE
FNA:16,14,_ZNSt3__122__compressed_pair_elemINS_9allocatorINS_11__tree_nodeINS_12__value_typeINS_12basic_stringIcNS_11char_traitsIcEENS1_IcEEEEdEEPvEEEELi1ELb1EEC2B8ne180100ENS_16__value_init_tagE
FNA:16,0,_ZNSt3__122__compressed_pair_elemINS_9allocatorINS_11__tree_nodeINS_12__value_typeINS_12basic_stringIcNS_11char_traitsIcEENS1_IcEEEEmEEPvEEEELi1ELb1EEC2B8ne180100ENS_16__value_init_tagE
FNA:16,14,_ZNSt3__122__compressed_pair_elemINS_9allocatorINS_11__tree_nodeINS_12basic_stringIcNS_11char_traitsIcEENS1_IcEEEEPvEEEELi1ELb1EEC2B8ne180100ENS_16__value_init_tagE
FNA:16,13,_ZNSt3__122__compressed_pair_elemINS_9allocatorINS_11__tree_nodeINS_6chrono14year_month_dayEPvEEEELi1ELb1EEC2B8ne180100ENS_16__value_init_tagE
FNL:17,82,83
FNA:17,10,_ZNSt3__122__compressed_pair_elemINS_14default_deleteINS_15__thread_structEEELi1ELb1EEC2B8ne180100IS3_vEEOT_
FNA:17,0,_ZNSt3__122__compressed_pair_elemINS_19__map_value_compareIN7pyfolio8DateTimeENS_12__value_typeIS3_NS_6vectorIdNS_9allocatorIdEEEEEENS_4lessIS3_EELb1EEELi1ELb1EEC2B8ne180100IRKSC_vEEOT_
