TN:
SF:/Library/Developer/CommandLineTools/SDKs/MacOSX.sdk/usr/include/___wctype.h
FNL:0,153,155
FNA:0,0,_Z8towloweri
FNF:1
FNH:0
DA:153,0
DA:155,0
LF:2
LH:0
end_of_record
TN:
SF:/Library/Developer/CommandLineTools/SDKs/MacOSX.sdk/usr/include/_ctype.h
FNL:0,137,139
FNA:0,0,_Z7isasciii
FNL:1,155,161
FNA:1,0,_Z8__istypeim
FNL:2,166,172
FNA:2,0,_Z9__isctypeim
FNL:3,232,234
FNA:3,0,_Z7iscntrli
FNL:4,239,241
FNA:4,0,_Z7isdigiti
FNL:5,269,271
FNA:5,0,_Z7isspacei
FNL:6,282,284
FNA:6,0,_Z8isxdigiti
FNL:7,300,302
FNA:7,1656,_Z7toupperi
FNF:8
FNH:1
DA:137,0
DA:139,0
DA:155,0
DA:160,0
DA:161,0
DA:166,0
DA:171,0
DA:172,0
DA:232,0
DA:234,0
DA:239,0
DA:241,0
DA:269,0
DA:271,0
DA:282,0
DA:284,0
DA:300,1656
DA:302,1656
LF:18
LH:2
end_of_record
TN:
SF:/Library/Developer/CommandLineTools/SDKs/MacOSX.sdk/usr/include/c++/v1/__algorithm/any_of.h
FNL:0,23,28
FNA:0,256,_ZNSt3__16any_ofB8ne180100INS_11__wrap_iterIPKNS_12basic_stringIcNS_11char_traitsIcEENS_9allocatorIcEEEEEEZNK7testing8internal12_GLOBAL__N_114UnitTestFilter11MatchesNameERS8_EUlSF_E_EEbT_SH_T0_
FNA:0,20,_ZNSt3__16any_ofB8ne180100INS_11__wrap_iterIPKcEEZN7testing8internal12_GLOBAL__N_113IsGlobPatternERKNS_12basic_stringIcNS_11char_traitsIcEENS_9allocatorIcEEEEE3$_0EEbT_SH_T0_
FNF:1
FNH:1
DA:23,276
DA:24,572
DA:25,379
DA:26,83
DA:27,193
DA:28,276
LF:6
LH:6
end_of_record
TN:
SF:/Library/Developer/CommandLineTools/SDKs/MacOSX.sdk/usr/include/c++/v1/__algorithm/comp.h
FNL:0,40,41
FNA:0,30,_ZNKSt3__16__lessIvvEclB8ne180100IddEEbRKT_RKT0_
FNA:0,1981,_ZNKSt3__16__lessIvvEclB8ne180100ImmEEbRKT_RKT0_
FNF:1
FNH:1
DA:40,2011
DA:41,2011
LF:2
LH:2
end_of_record
TN:
SF:/Library/Developer/CommandLineTools/SDKs/MacOSX.sdk/usr/include/c++/v1/__algorithm/copy.h
FNL:0,103,104
FNA:0,37,_ZNKSt3__114__copy_trivialclB8ne180100IKN7pyfolio8DateTimeES3_Li0EEENS_4pairIPT_PT0_EES7_S7_S9_
FNA:0,154,_ZNKSt3__114__copy_trivialclB8ne180100IKccLi0EEENS_4pairIPT_PT0_EES5_S5_S7_
FNA:0,75,_ZNKSt3__114__copy_trivialclB8ne180100IKddLi0EEENS_4pairIPT_PT0_EES5_S5_S7_
FNA:0,100,_ZNKSt3__114__copy_trivialclB8ne180100IN7pyfolio8DateTimeES3_Li0EEENS_4pairIPT_PT0_EES6_S6_S8_
FNA:0,0,_ZNKSt3__114__copy_trivialclB8ne180100IN7testing8internal13edit_distance8EditTypeES5_Li0EEENS_4pairIPT_PT0_EES8_S8_SA_
FNA:0,109,_ZNKSt3__114__copy_trivialclB8ne180100IddLi0EEENS_4pairIPT_PT0_EES4_S4_S6_
FNL:1,110,112
FNA:1,37,_ZNSt3__16__copyB8ne180100INS_17_ClassicAlgPolicyEPKN7pyfolio8DateTimeES5_PS3_EENS_4pairIT0_T2_EES8_T1_S9_
FNA:1,0,_ZNSt3__16__copyB8ne180100INS_17_ClassicAlgPolicyEPKNS_3mapINS_12basic_stringIcNS_11char_traitsIcEENS_9allocatorIcEEEEdNS_4lessIS8_EENS6_INS_4pairIKS8_dEEEEEESH_PSF_EENSB_IT0_T2_EESJ_T1_SK_
FNA:1,154,_ZNSt3__16__copyB8ne180100INS_17_ClassicAlgPolicyEPKcS3_PcEENS_4pairIT0_T2_EES6_T1_S7_
FNA:1,75,_ZNSt3__16__copyB8ne180100INS_17_ClassicAlgPolicyEPKdS3_PdEENS_4pairIT0_T2_EES6_T1_S7_
FNA:1,100,_ZNSt3__16__copyB8ne180100INS_17_ClassicAlgPolicyEPN7pyfolio8DateTimeES4_S4_EENS_4pairIT0_T2_EES6_T1_S7_
FNA:1,0,_ZNSt3__16__copyB8ne180100INS_17_ClassicAlgPolicyEPN7testing8internal13edit_distance8EditTypeES6_S6_EENS_4pairIT0_T2_EES8_T1_S9_
FNA:1,109,_ZNSt3__16__copyB8ne180100INS_17_ClassicAlgPolicyEPdS2_S2_EENS_4pairIT0_T2_EES4_T1_S5_
FNL:2,117,118
FNA:2,37,_ZNSt3__14copyB8ne180100IPKN7pyfolio8DateTimeEPS2_EET0_T_S7_S6_
FNA:2,0,_ZNSt3__14copyB8ne180100IPKNS_3mapINS_12basic_stringIcNS_11char_traitsIcEENS_9allocatorIcEEEEdNS_4lessIS7_EENS5_INS_4pairIKS7_dEEEEEEPSE_EET0_T_SJ_SI_
FNA:2,154,_ZNSt3__14copyB8ne180100IPKcPcEET0_T_S5_S4_
FNA:2,75,_ZNSt3__14copyB8ne180100IPKdPdEET0_T_S5_S4_
FNA:2,100,_ZNSt3__14copyB8ne180100IPN7pyfolio8DateTimeES3_EET0_T_S5_S4_
FNA:2,0,_ZNSt3__14copyB8ne180100IPN7testing8internal13edit_distance8EditTypeES5_EET0_T_S7_S6_
FNA:2,109,_ZNSt3__14copyB8ne180100IPdS1_EET0_T_S3_S2_
FNL:3,38,45
FNA:3,0,_ZNKSt3__111__copy_loopINS_17_ClassicAlgPolicyEEclB8ne180100IPKNS_3mapINS_12basic_stringIcNS_11char_traitsIcEENS_9allocatorIcEEEEdNS_4lessISA_EENS8_INS_4pairIKSA_dEEEEEESJ_PSH_EENSD_IT_T1_EESL_T0_SM_
FNF:4
FNH:3
DA:38,0
DA:39,0
DA:40,0
DA:41,0
DA:42,0
DA:45,0
DA:103,475
DA:104,475
DA:110,475
DA:111,475
DA:112,475
DA:117,475
DA:118,475
LF:13
LH:7
end_of_record
TN:
SF:/Library/Developer/CommandLineTools/SDKs/MacOSX.sdk/usr/include/c++/v1/__algorithm/copy_move_common.h
FNL:0,107,111
FNA:0,37,_ZNSt3__121__unwrap_and_dispatchB8ne180100INS_10__overloadINS_11__copy_loopINS_17_ClassicAlgPolicyEEENS_14__copy_trivialEEEPKN7pyfolio8DateTimeESA_PS8_Li0EEENS_4pairIT0_T2_EESD_T1_SE_
FNA:0,0,_ZNSt3__121__unwrap_and_dispatchB8ne180100INS_10__overloadINS_11__copy_loopINS_17_ClassicAlgPolicyEEENS_14__copy_trivialEEEPKNS_3mapINS_12basic_stringIcNS_11char_traitsIcEENS_9allocatorIcEEEEdNS_4lessISD_EENSB_INS_4pairIKSD_dEEEEEESM_PSK_Li0EEENSG_IT0_T2_EESO_T1_SP_
FNA:0,154,_ZNSt3__121__unwrap_and_dispatchB8ne180100INS_10__overloadINS_11__copy_loopINS_17_ClassicAlgPolicyEEENS_14__copy_trivialEEEPKcS8_PcLi0EEENS_4pairIT0_T2_EESB_T1_SC_
FNA:0,75,_ZNSt3__121__unwrap_and_dispatchB8ne180100INS_10__overloadINS_11__copy_loopINS_17_ClassicAlgPolicyEEENS_14__copy_trivialEEEPKdS8_PdLi0EEENS_4pairIT0_T2_EESB_T1_SC_
FNA:0,100,_ZNSt3__121__unwrap_and_dispatchB8ne180100INS_10__overloadINS_11__copy_loopINS_17_ClassicAlgPolicyEEENS_14__copy_trivialEEEPN7pyfolio8DateTimeES9_S9_Li0EEENS_4pairIT0_T2_EESB_T1_SC_
FNA:0,0,_ZNSt3__121__unwrap_and_dispatchB8ne180100INS_10__overloadINS_11__copy_loopINS_17_ClassicAlgPolicyEEENS_14__copy_trivialEEEPN7testing8internal13edit_distance8EditTypeESB_SB_Li0EEENS_4pairIT0_T2_EESD_T1_SE_
FNA:0,109,_ZNSt3__121__unwrap_and_dispatchB8ne180100INS_10__overloadINS_11__copy_loopINS_17_ClassicAlgPolicyEEENS_14__copy_trivialEEEPdS7_S7_Li0EEENS_4pairIT0_T2_EES9_T1_SA_
FNA:0,12,_ZNSt3__121__unwrap_and_dispatchB8ne180100INS_10__overloadINS_11__move_loopINS_17_ClassicAlgPolicyEEENS_14__move_trivialEEENS_11__wrap_iterIPNS_12basic_stringIcNS_11char_traitsIcEENS_9allocatorIcEEEEEESF_NS_15insert_iteratorINS_13unordered_setISD_NS_4hashISD_EENS_8equal_toISD_EENSB_ISD_EEEEEELi0EEENS_4pairIT0_T2_EESQ_T1_SR_
FNA:0,12,_ZNSt3__121__unwrap_and_dispatchB8ne180100INS_10__overloadINS_11__move_loopINS_17_ClassicAlgPolicyEEENS_14__move_trivialEEENS_11__wrap_iterIPNS_12basic_stringIcNS_11char_traitsIcEENS_9allocatorIcEEEEEESF_NS_15insert_iteratorINS_6vectorISD_NSB_ISD_EEEEEELi0EEENS_4pairIT0_T2_EESM_T1_SN_
FNA:0,1,_ZNSt3__121__unwrap_and_dispatchB8ne180100INS_10__overloadINS_11__move_loopINS_17_ClassicAlgPolicyEEENS_14__move_trivialEEENS_16reverse_iteratorIPN7pyfolio8DateTimeEEESB_SB_Li0EEENS_4pairIT0_T2_EESD_T1_SE_
FNA:0,0,_ZNSt3__121__unwrap_and_dispatchB8ne180100INS_10__overloadINS_11__move_loopINS_17_ClassicAlgPolicyEEENS_14__move_trivialEEENS_16reverse_iteratorIPN7testing8internal13edit_distance8EditTypeEEESD_SD_Li0EEENS_4pairIT0_T2_EESF_T1_SG_
FNA:0,0,_ZNSt3__121__unwrap_and_dispatchB8ne180100INS_10__overloadINS_11__move_loopINS_17_ClassicAlgPolicyEEENS_14__move_trivialEEENS_16reverse_iteratorIPPN7testing11EnvironmentEEESC_SC_Li0EEENS_4pairIT0_T2_EESE_T1_SF_
FNA:0,4,_ZNSt3__121__unwrap_and_dispatchB8ne180100INS_10__overloadINS_11__move_loopINS_17_ClassicAlgPolicyEEENS_14__move_trivialEEENS_16reverse_iteratorIPPN7testing17TestEventListenerEEESC_SC_Li0EEENS_4pairIT0_T2_EESE_T1_SF_
FNA:0,23,_ZNSt3__121__unwrap_and_dispatchB8ne180100INS_10__overloadINS_11__move_loopINS_17_ClassicAlgPolicyEEENS_14__move_trivialEEENS_16reverse_iteratorIPPN7testing8TestInfoEEESC_SC_Li0EEENS_4pairIT0_T2_EESE_T1_SF_
FNA:0,4,_ZNSt3__121__unwrap_and_dispatchB8ne180100INS_10__overloadINS_11__move_loopINS_17_ClassicAlgPolicyEEENS_14__move_trivialEEENS_16reverse_iteratorIPPN7testing9TestSuiteEEESC_SC_Li0EEENS_4pairIT0_T2_EESE_T1_SF_
FNA:0,0,_ZNSt3__121__unwrap_and_dispatchB8ne180100INS_10__overloadINS_11__move_loopINS_17_ClassicAlgPolicyEEENS_14__move_trivialEEENS_16reverse_iteratorIPPcEESA_SA_Li0EEENS_4pairIT0_T2_EESC_T1_SD_
FNA:0,25,_ZNSt3__121__unwrap_and_dispatchB8ne180100INS_10__overloadINS_11__move_loopINS_17_ClassicAlgPolicyEEENS_14__move_trivialEEENS_16reverse_iteratorIPdEES9_S9_Li0EEENS_4pairIT0_T2_EESB_T1_SC_
FNA:0,27,_ZNSt3__121__unwrap_and_dispatchB8ne180100INS_10__overloadINS_11__move_loopINS_17_ClassicAlgPolicyEEENS_14__move_trivialEEENS_16reverse_iteratorIPiEES9_S9_Li0EEENS_4pairIT0_T2_EESB_T1_SC_
FNA:0,0,_ZNSt3__121__unwrap_and_dispatchB8ne180100INS_10__overloadINS_11__move_loopINS_17_ClassicAlgPolicyEEENS_14__move_trivialEEENS_16reverse_iteratorIPmEES9_S9_Li0EEENS_4pairIT0_T2_EESB_T1_SC_
FNA:0,0,_ZNSt3__121__unwrap_and_dispatchB8ne180100INS_10__overloadINS_11__move_loopINS_17_ClassicAlgPolicyEEENS_14__move_trivialEEEPNS_12basic_stringIcNS_11char_traitsIcEENS_9allocatorIcEEEESD_SD_Li0EEENS_4pairIT0_T2_EESF_T1_SG_
FNA:0,0,_ZNSt3__121__unwrap_and_dispatchB8ne180100INS_10__overloadINS_11__move_loopINS_17_ClassicAlgPolicyEEENS_14__move_trivialEEEPPN7testing17TestEventListenerESA_SA_Li0EEENS_4pairIT0_T2_EESC_T1_SD_
FNA:0,0,_ZNSt3__121__unwrap_and_dispatchB8ne180100INS_10__overloadINS_11__move_loopINS_17_ClassicAlgPolicyEEENS_14__move_trivialEEEPPN7testing9TestSuiteESA_SA_Li0EEENS_4pairIT0_T2_EESC_T1_SD_
FNA:0,0,_ZNSt3__121__unwrap_and_dispatchB8ne180100INS_10__overloadINS_11__move_loopINS_17_ClassicAlgPolicyEEENS_14__move_trivialEEEPPcS8_S8_Li0EEENS_4pairIT0_T2_EESA_T1_SB_
FNA:0,0,_ZNSt3__121__unwrap_and_dispatchB8ne180100INS_10__overloadINS_20__move_backward_loopINS_17_ClassicAlgPolicyEEENS_23__move_backward_trivialEEEPNS_12basic_stringIcNS_11char_traitsIcEENS_9allocatorIcEEEESD_SD_Li0EEENS_4pairIT0_T2_EESF_T1_SG_
FNA:0,0,_ZNSt3__121__unwrap_and_dispatchB8ne180100INS_10__overloadINS_20__move_backward_loopINS_17_ClassicAlgPolicyEEENS_23__move_backward_trivialEEEPPN7testing9TestSuiteESA_SA_Li0EEENS_4pairIT0_T2_EESC_T1_SD_
FNA:0,0,_ZNSt3__121__unwrap_and_dispatchB8ne180100INS_10__overloadINS_20__move_backward_loopINS_17_ClassicAlgPolicyEEENS_23__move_backward_trivialEEEPPcS8_S8_Li0EEENS_4pairIT0_T2_EESA_T1_SB_
FNL:1,131,133
FNA:1,37,_ZNSt3__123__dispatch_copy_or_moveB8ne180100INS_17_ClassicAlgPolicyENS_11__copy_loopIS1_EENS_14__copy_trivialEPKN7pyfolio8DateTimeES8_PS6_EENS_4pairIT2_T4_EESB_T3_SC_
FNA:1,0,_ZNSt3__123__dispatch_copy_or_moveB8ne180100INS_17_ClassicAlgPolicyENS_11__copy_loopIS1_EENS_14__copy_trivialEPKNS_3mapINS_12basic_stringIcNS_11char_traitsIcEENS_9allocatorIcEEEEdNS_4lessISB_EENS9_INS_4pairIKSB_dEEEEEESK_PSI_EENSE_IT2_T4_EESM_T3_SN_
FNA:1,154,_ZNSt3__123__dispatch_copy_or_moveB8ne180100INS_17_ClassicAlgPolicyENS_11__copy_loopIS1_EENS_14__copy_trivialEPKcS6_PcEENS_4pairIT2_T4_EES9_T3_SA_
FNA:1,75,_ZNSt3__123__dispatch_copy_or_moveB8ne180100INS_17_ClassicAlgPolicyENS_11__copy_loopIS1_EENS_14__copy_trivialEPKdS6_PdEENS_4pairIT2_T4_EES9_T3_SA_
FNA:1,100,_ZNSt3__123__dispatch_copy_or_moveB8ne180100INS_17_ClassicAlgPolicyENS_11__copy_loopIS1_EENS_14__copy_trivialEPN7pyfolio8DateTimeES7_S7_EENS_4pairIT2_T4_EES9_T3_SA_
FNA:1,0,_ZNSt3__123__dispatch_copy_or_moveB8ne180100INS_17_ClassicAlgPolicyENS_11__copy_loopIS1_EENS_14__copy_trivialEPN7testing8internal13edit_distance8EditTypeES9_S9_EENS_4pairIT2_T4_EESB_T3_SC_
FNA:1,109,_ZNSt3__123__dispatch_copy_or_moveB8ne180100INS_17_ClassicAlgPolicyENS_11__copy_loopIS1_EENS_14__copy_trivialEPdS5_S5_EENS_4pairIT2_T4_EES7_T3_S8_
FNA:1,12,_ZNSt3__123__dispatch_copy_or_moveB8ne180100INS_17_ClassicAlgPolicyENS_11__move_loopIS1_EENS_14__move_trivialENS_11__wrap_iterIPNS_12basic_stringIcNS_11char_traitsIcEENS_9allocatorIcEEEEEESD_NS_15insert_iteratorINS_13unordered_setISB_NS_4hashISB_EENS_8equal_toISB_EENS9_ISB_EEEEEEEENS_4pairIT2_T4_EESO_T3_SP_
FNA:1,12,_ZNSt3__123__dispatch_copy_or_moveB8ne180100INS_17_ClassicAlgPolicyENS_11__move_loopIS1_EENS_14__move_trivialENS_11__wrap_iterIPNS_12basic_stringIcNS_11char_traitsIcEENS_9allocatorIcEEEEEESD_NS_15insert_iteratorINS_6vectorISB_NS9_ISB_EEEEEEEENS_4pairIT2_T4_EESK_T3_SL_
FNA:1,1,_ZNSt3__123__dispatch_copy_or_moveB8ne180100INS_17_ClassicAlgPolicyENS_11__move_loopIS1_EENS_14__move_trivialENS_16reverse_iteratorIPN7pyfolio8DateTimeEEES9_S9_EENS_4pairIT2_T4_EESB_T3_SC_
FNA:1,0,_ZNSt3__123__dispatch_copy_or_moveB8ne180100INS_17_ClassicAlgPolicyENS_11__move_loopIS1_EENS_14__move_trivialENS_16reverse_iteratorIPN7testing8internal13edit_distance8EditTypeEEESB_SB_EENS_4pairIT2_T4_EESD_T3_SE_
FNA:1,0,_ZNSt3__123__dispatch_copy_or_moveB8ne180100INS_17_ClassicAlgPolicyENS_11__move_loopIS1_EENS_14__move_trivialENS_16reverse_iteratorIPPN7testing11EnvironmentEEESA_SA_EENS_4pairIT2_T4_EESC_T3_SD_
FNA:1,4,_ZNSt3__123__dispatch_copy_or_moveB8ne180100INS_17_ClassicAlgPolicyENS_11__move_loopIS1_EENS_14__move_trivialENS_16reverse_iteratorIPPN7testing17TestEventListenerEEESA_SA_EENS_4pairIT2_T4_EESC_T3_SD_
FNA:1,23,_ZNSt3__123__dispatch_copy_or_moveB8ne180100INS_17_ClassicAlgPolicyENS_11__move_loopIS1_EENS_14__move_trivialENS_16reverse_iteratorIPPN7testing8TestInfoEEESA_SA_EENS_4pairIT2_T4_EESC_T3_SD_
FNA:1,4,_ZNSt3__123__dispatch_copy_or_moveB8ne180100INS_17_ClassicAlgPolicyENS_11__move_loopIS1_EENS_14__move_trivialENS_16reverse_iteratorIPPN7testing9TestSuiteEEESA_SA_EENS_4pairIT2_T4_EESC_T3_SD_
FNA:1,0,_ZNSt3__123__dispatch_copy_or_moveB8ne180100INS_17_ClassicAlgPolicyENS_11__move_loopIS1_EENS_14__move_trivialENS_16reverse_iteratorIPPcEES8_S8_EENS_4pairIT2_T4_EESA_T3_SB_
FNA:1,25,_ZNSt3__123__dispatch_copy_or_moveB8ne180100INS_17_ClassicAlgPolicyENS_11__move_loopIS1_EENS_14__move_trivialENS_16reverse_iteratorIPdEES7_S7_EENS_4pairIT2_T4_EES9_T3_SA_
FNA:1,27,_ZNSt3__123__dispatch_copy_or_moveB8ne180100INS_17_ClassicAlgPolicyENS_11__move_loopIS1_EENS_14__move_trivialENS_16reverse_iteratorIPiEES7_S7_EENS_4pairIT2_T4_EES9_T3_SA_
FNA:1,0,_ZNSt3__123__dispatch_copy_or_moveB8ne180100INS_17_ClassicAlgPolicyENS_11__move_loopIS1_EENS_14__move_trivialENS_16reverse_iteratorIPmEES7_S7_EENS_4pairIT2_T4_EES9_T3_SA_
FNA:1,0,_ZNSt3__123__dispatch_copy_or_moveB8ne180100INS_17_ClassicAlgPolicyENS_11__move_loopIS1_EENS_14__move_trivialEPNS_12basic_stringIcNS_11char_traitsIcEENS_9allocatorIcEEEESB_SB_EENS_4pairIT2_T4_EESD_T3_SE_
FNA:1,0,_ZNSt3__123__dispatch_copy_or_moveB8ne180100INS_17_ClassicAlgPolicyENS_11__move_loopIS1_EENS_14__move_trivialEPPN7testing17TestEventListenerES8_S8_EENS_4pairIT2_T4_EESA_T3_SB_
FNA:1,0,_ZNSt3__123__dispatch_copy_or_moveB8ne180100INS_17_ClassicAlgPolicyENS_11__move_loopIS1_EENS_14__move_trivialEPPN7testing9TestSuiteES8_S8_EENS_4pairIT2_T4_EESA_T3_SB_
FNA:1,0,_ZNSt3__123__dispatch_copy_or_moveB8ne180100INS_17_ClassicAlgPolicyENS_11__move_loopIS1_EENS_14__move_trivialEPPcS6_S6_EENS_4pairIT2_T4_EES8_T3_S9_
FNA:1,0,_ZNSt3__123__dispatch_copy_or_moveB8ne180100INS_17_ClassicAlgPolicyENS_20__move_backward_loopIS1_EENS_23__move_backward_trivialEPNS_12basic_stringIcNS_11char_traitsIcEENS_9allocatorIcEEEESB_SB_EENS_4pairIT2_T4_EESD_T3_SE_
FNA:1,0,_ZNSt3__123__dispatch_copy_or_moveB8ne180100INS_17_ClassicAlgPolicyENS_20__move_backward_loopIS1_EENS_23__move_backward_trivialEPPN7testing9TestSuiteES8_S8_EENS_4pairIT2_T4_EESA_T3_SB_
FNA:1,0,_ZNSt3__123__dispatch_copy_or_moveB8ne180100INS_17_ClassicAlgPolicyENS_20__move_backward_loopIS1_EENS_23__move_backward_trivialEPPcS6_S6_EENS_4pairIT2_T4_EES8_T3_S9_
FNL:2,63,68
FNA:2,37,_ZNSt3__119__copy_trivial_implB8ne180100IKN7pyfolio8DateTimeES2_EENS_4pairIPT_PT0_EES6_S6_S8_
FNA:2,154,_ZNSt3__119__copy_trivial_implB8ne180100IKccEENS_4pairIPT_PT0_EES4_S4_S6_
FNA:2,75,_ZNSt3__119__copy_trivial_implB8ne180100IKddEENS_4pairIPT_PT0_EES4_S4_S6_
FNA:2,100,_ZNSt3__119__copy_trivial_implB8ne180100IN7pyfolio8DateTimeES2_EENS_4pairIPT_PT0_EES5_S5_S7_
FNA:2,0,_ZNSt3__119__copy_trivial_implB8ne180100IN7testing8internal13edit_distance8EditTypeES4_EENS_4pairIPT_PT0_EES7_S7_S9_
FNA:2,0,_ZNSt3__119__copy_trivial_implB8ne180100IPN7testing17TestEventListenerES3_EENS_4pairIPT_PT0_EES6_S6_S8_
FNA:2,0,_ZNSt3__119__copy_trivial_implB8ne180100IPN7testing9TestSuiteES3_EENS_4pairIPT_PT0_EES6_S6_S8_
FNA:2,0,_ZNSt3__119__copy_trivial_implB8ne180100IPcS1_EENS_4pairIPT_PT0_EES4_S4_S6_
FNA:2,109,_ZNSt3__119__copy_trivial_implB8ne180100IddEENS_4pairIPT_PT0_EES3_S3_S5_
FNL:3,73,79
FNA:3,0,_ZNSt3__128__copy_backward_trivial_implB8ne180100IPN7testing9TestSuiteES3_EENS_4pairIPT_PT0_EES6_S6_S8_
FNA:3,0,_ZNSt3__128__copy_backward_trivial_implB8ne180100IPcS1_EENS_4pairIPT_PT0_EES4_S4_S6_
FNF:4
FNH:3
DA:63,475
DA:64,475
DA:66,475
DA:68,475
DA:73,0
DA:74,0
DA:75,0
DA:77,0
DA:79,0
DA:107,583
DA:108,583
DA:109,583
DA:110,1166
DA:111,583
DA:131,583
DA:133,583
LF:16
LH:11
end_of_record
TN:
SF:/Library/Developer/CommandLineTools/SDKs/MacOSX.sdk/usr/include/c++/v1/__algorithm/copy_n.h
FNL:0,51,55
FNA:0,154,_ZNSt3__16copy_nB8ne180100IPKcmPcLi0EEET1_T_T0_S4_
FNF:1
FNH:1
DA:51,154
DA:54,154
DA:55,154
LF:3
LH:3
end_of_record
TN:
SF:/Library/Developer/CommandLineTools/SDKs/MacOSX.sdk/usr/include/c++/v1/__algorithm/fill_n.h
FNL:0,26,29
FNA:0,77,_ZNSt3__18__fill_nB8ne180100IPcmcEET_S2_T0_RKT1_
FNA:0,0,_ZNSt3__18__fill_nB8ne180100IPdmdEET_S2_T0_RKT1_
FNL:1,34,35
FNA:1,77,_ZNSt3__16fill_nB8ne180100IPcmcEET_S2_T0_RKT1_
FNA:1,0,_ZNSt3__16fill_nB8ne180100IPdmdEET_S2_T0_RKT1_
FNF:2
FNH:2
DA:26,77
DA:27,154
DA:28,77
DA:29,77
DA:34,77
DA:35,77
LF:6
LH:6
end_of_record
TN:
SF:/Library/Developer/CommandLineTools/SDKs/MacOSX.sdk/usr/include/c++/v1/__algorithm/find.h
FNL:0,177,180
FNA:0,0,_ZNSt3__14findB8ne180100INS_11__wrap_iterIPKNS_12basic_stringIcNS_11char_traitsIcEENS_9allocatorIcEEEEEES7_EET_SB_SB_RKT0_
FNL:1,46,50
FNA:1,0,_ZNSt3__111__find_implB8ne180100IPKNS_12basic_stringIcNS_11char_traitsIcEENS_9allocatorIcEEEES8_S6_NS_10__identityEEET_SA_T0_RKT1_RT2_
FNF:2
FNH:0
DA:46,0
DA:47,0
DA:48,0
DA:49,0
DA:50,0
DA:177,0
DA:179,0
DA:180,0
LF:8
LH:0
end_of_record
TN:
SF:/Library/Developer/CommandLineTools/SDKs/MacOSX.sdk/usr/include/c++/v1/__algorithm/find_if.h
FNL:0,23,27
FNA:0,0,_ZNSt3__17find_ifB8ne180100INS_11__wrap_iterIPN7testing12TestPropertyEEENS2_8internal17TestPropertyKeyIsEEET_S8_S8_T0_
FNA:0,63,_ZNSt3__17find_ifB8ne180100INS_16reverse_iteratorINS_11__wrap_iterIPPN7testing9TestSuiteEEEEENS3_8internal15TestSuiteNameIsEEET_SB_SB_T0_
FNF:1
FNH:1
DA:23,63
DA:24,63
DA:25,59
DA:26,59
DA:27,63
LF:5
LH:5
end_of_record
TN:
SF:/Library/Developer/CommandLineTools/SDKs/MacOSX.sdk/usr/include/c++/v1/__algorithm/for_each.h
FNL:0,32,35
FNA:0,4,_ZNSt3__18for_eachB8ne180100INS_11__wrap_iterIPKPN7testing11EnvironmentEEEPFvS4_EEET0_T_SB_SA_
FNA:0,0,_ZNSt3__18for_eachB8ne180100INS_11__wrap_iterIPKPN7testing17TestEventListenerEEEPFvS4_EEET0_T_SB_SA_
FNA:0,4,_ZNSt3__18for_eachB8ne180100INS_11__wrap_iterIPKPN7testing8TestInfoEEEPFvS4_EEET0_T_SB_SA_
FNA:0,4,_ZNSt3__18for_eachB8ne180100INS_11__wrap_iterIPKPN7testing9TestSuiteEEEPFvS4_EEET0_T_SB_SA_
FNA:0,4,_ZNSt3__18for_eachB8ne180100INS_16reverse_iteratorINS_11__wrap_iterIPPN7testing11EnvironmentEEEEEPFvS5_EEET0_T_SC_SB_
FNF:1
FNH:1
DA:32,16
DA:33,83
DA:34,67
DA:35,16
LF:4
LH:4
end_of_record
TN:
SF:/Library/Developer/CommandLineTools/SDKs/MacOSX.sdk/usr/include/c++/v1/__algorithm/iter_swap.h
FNL:0,23,27
FNA:0,0,_ZNSt3__19iter_swapB8ne180100INS_11__wrap_iterIPN7testing8internal13edit_distance8EditTypeEEES7_EEvT_T0_
FNA:0,0,_ZNSt3__19iter_swapB8ne180100INS_11__wrap_iterIPNS_12basic_stringIcNS_11char_traitsIcEENS_9allocatorIcEEEEEES9_EEvT_T0_
FNA:0,0,_ZNSt3__19iter_swapB8ne180100IPNS_4pairIN7pyfolio8DateTimeEdEES5_EEvT_T0_
FNF:1
FNH:0
DA:23,0
DA:26,0
DA:27,0
LF:3
LH:0
end_of_record
TN:
SF:/Library/Developer/CommandLineTools/SDKs/MacOSX.sdk/usr/include/c++/v1/__algorithm/iterator_operations.h
FNL:0,102,108
FNA:0,0,_ZNSt3__18_IterOpsINS_17_ClassicAlgPolicyEE25__validate_iter_referenceB8ne180100IRNS_16reverse_iteratorIPN7pyfolio8DateTimeEEEEEvv
FNA:0,0,_ZNSt3__18_IterOpsINS_17_ClassicAlgPolicyEE25__validate_iter_referenceB8ne180100IRNS_16reverse_iteratorIPN7testing8internal13edit_distance8EditTypeEEEEEvv
FNA:0,0,_ZNSt3__18_IterOpsINS_17_ClassicAlgPolicyEE25__validate_iter_referenceB8ne180100IRNS_16reverse_iteratorIPPN7testing11EnvironmentEEEEEvv
FNA:0,0,_ZNSt3__18_IterOpsINS_17_ClassicAlgPolicyEE25__validate_iter_referenceB8ne180100IRNS_16reverse_iteratorIPPN7testing17TestEventListenerEEEEEvv
FNA:0,108,_ZNSt3__18_IterOpsINS_17_ClassicAlgPolicyEE25__validate_iter_referenceB8ne180100IRNS_16reverse_iteratorIPPN7testing8TestInfoEEEEEvv
FNA:0,0,_ZNSt3__18_IterOpsINS_17_ClassicAlgPolicyEE25__validate_iter_referenceB8ne180100IRNS_16reverse_iteratorIPPN7testing9TestSuiteEEEEEvv
FNA:0,0,_ZNSt3__18_IterOpsINS_17_ClassicAlgPolicyEE25__validate_iter_referenceB8ne180100IRNS_16reverse_iteratorIPPcEEEEvv
FNA:0,44,_ZNSt3__18_IterOpsINS_17_ClassicAlgPolicyEE25__validate_iter_referenceB8ne180100IRNS_16reverse_iteratorIPdEEEEvv
FNA:0,108,_ZNSt3__18_IterOpsINS_17_ClassicAlgPolicyEE25__validate_iter_referenceB8ne180100IRNS_16reverse_iteratorIPiEEEEvv
FNA:0,0,_ZNSt3__18_IterOpsINS_17_ClassicAlgPolicyEE25__validate_iter_referenceB8ne180100IRNS_16reverse_iteratorIPmEEEEvv
FNA:0,20,_ZNSt3__18_IterOpsINS_17_ClassicAlgPolicyEE25__validate_iter_referenceB8ne180100IRPNS_12basic_stringIcNS_11char_traitsIcEENS_9allocatorIcEEEEEEvv
FNA:0,0,_ZNSt3__18_IterOpsINS_17_ClassicAlgPolicyEE25__validate_iter_referenceB8ne180100IRPNS_4pairIN7pyfolio8DateTimeEdEEEEvv
FNL:1,116,119
FNA:1,0,_ZNSt3__18_IterOpsINS_17_ClassicAlgPolicyEE11__iter_moveB8ne180100IRNS_16reverse_iteratorIPN7pyfolio8DateTimeEEELi0EEEDTclsr3stdE4movedeclsr3stdE7declvalIRT_EEEEOSA_
FNA:1,0,_ZNSt3__18_IterOpsINS_17_ClassicAlgPolicyEE11__iter_moveB8ne180100IRNS_16reverse_iteratorIPN7testing8internal13edit_distance8EditTypeEEELi0EEEDTclsr3stdE4movedeclsr3stdE7declvalIRT_EEEEOSC_
FNA:1,0,_ZNSt3__18_IterOpsINS_17_ClassicAlgPolicyEE11__iter_moveB8ne180100IRNS_16reverse_iteratorIPPN7testing11EnvironmentEEELi0EEEDTclsr3stdE4movedeclsr3stdE7declvalIRT_EEEEOSB_
FNA:1,0,_ZNSt3__18_IterOpsINS_17_ClassicAlgPolicyEE11__iter_moveB8ne180100IRNS_16reverse_iteratorIPPN7testing17TestEventListenerEEELi0EEEDTclsr3stdE4movedeclsr3stdE7declvalIRT_EEEEOSB_
FNA:1,108,_ZNSt3__18_IterOpsINS_17_ClassicAlgPolicyEE11__iter_moveB8ne180100IRNS_16reverse_iteratorIPPN7testing8TestInfoEEELi0EEEDTclsr3stdE4movedeclsr3stdE7declvalIRT_EEEEOSB_
FNA:1,0,_ZNSt3__18_IterOpsINS_17_ClassicAlgPolicyEE11__iter_moveB8ne180100IRNS_16reverse_iteratorIPPN7testing9TestSuiteEEELi0EEEDTclsr3stdE4movedeclsr3stdE7declvalIRT_EEEEOSB_
FNA:1,0,_ZNSt3__18_IterOpsINS_17_ClassicAlgPolicyEE11__iter_moveB8ne180100IRNS_16reverse_iteratorIPPcEELi0EEEDTclsr3stdE4movedeclsr3stdE7declvalIRT_EEEEOS9_
FNA:1,44,_ZNSt3__18_IterOpsINS_17_ClassicAlgPolicyEE11__iter_moveB8ne180100IRNS_16reverse_iteratorIPdEELi0EEEDTclsr3stdE4movedeclsr3stdE7declvalIRT_EEEEOS8_
FNA:1,108,_ZNSt3__18_IterOpsINS_17_ClassicAlgPolicyEE11__iter_moveB8ne180100IRNS_16reverse_iteratorIPiEELi0EEEDTclsr3stdE4movedeclsr3stdE7declvalIRT_EEEEOS8_
FNA:1,0,_ZNSt3__18_IterOpsINS_17_ClassicAlgPolicyEE11__iter_moveB8ne180100IRNS_16reverse_iteratorIPmEELi0EEEDTclsr3stdE4movedeclsr3stdE7declvalIRT_EEEEOS8_
FNA:1,20,_ZNSt3__18_IterOpsINS_17_ClassicAlgPolicyEE11__iter_moveB8ne180100IRPNS_12basic_stringIcNS_11char_traitsIcEENS_9allocatorIcEEEELi0EEEDTclsr3stdE4movedeclsr3stdE7declvalIRT_EEEEOSC_
FNA:1,0,_ZNSt3__18_IterOpsINS_17_ClassicAlgPolicyEE11__iter_moveB8ne180100IRPNS_4pairIN7pyfolio8DateTimeEdEELi0EEEDTclsr3stdE4movedeclsr3stdE7declvalIRT_EEEEOSA_
FNL:2,136,138
FNA:2,0,_ZNSt3__18_IterOpsINS_17_ClassicAlgPolicyEE9iter_swapB8ne180100IPNS_4pairIN7pyfolio8DateTimeEdEES8_EEvOT_OT0_
FNA:2,0,_ZNSt3__18_IterOpsINS_17_ClassicAlgPolicyEE9iter_swapB8ne180100IRNS_11__wrap_iterIPN7testing8internal13edit_distance8EditTypeEEESB_EEvOT_OT0_
FNA:2,0,_ZNSt3__18_IterOpsINS_17_ClassicAlgPolicyEE9iter_swapB8ne180100IRNS_11__wrap_iterIPNS_12basic_stringIcNS_11char_traitsIcEENS_9allocatorIcEEEEEESD_EEvOT_OT0_
FNA:2,0,_ZNSt3__18_IterOpsINS_17_ClassicAlgPolicyEE9iter_swapB8ne180100IRPNS_4pairIN7pyfolio8DateTimeEdEES8_EEvOT_OT0_
FNA:2,0,_ZNSt3__18_IterOpsINS_17_ClassicAlgPolicyEE9iter_swapB8ne180100IRPNS_4pairIN7pyfolio8DateTimeEdEES9_EEvOT_OT0_
FNL:3,142,143
FNA:3,12,_ZNSt3__18_IterOpsINS_17_ClassicAlgPolicyEE4nextB8ne180100INS_11__wrap_iterIPNS_12basic_stringIcNS_11char_traitsIcEENS_9allocatorIcEEEEEEEET_SD_SD_
FNA:3,0,_ZNSt3__18_IterOpsINS_17_ClassicAlgPolicyEE4nextB8ne180100IPNS_12basic_stringIcNS_11char_traitsIcEENS_9allocatorIcEEEEEET_SB_SB_
FNA:3,0,_ZNSt3__18_IterOpsINS_17_ClassicAlgPolicyEE4nextB8ne180100IPNS_4pairIN7pyfolio8DateTimeEdEEEET_S9_S9_
FNF:4
FNH:3
DA:102,280
DA:108,280
DA:116,280
DA:117,280
DA:119,280
DA:136,0
DA:137,0
DA:138,0
DA:142,12
DA:143,12
LF:10
LH:7
end_of_record
TN:
SF:/Library/Developer/CommandLineTools/SDKs/MacOSX.sdk/usr/include/c++/v1/__algorithm/make_heap.h
FNL:0,31,42
FNA:0,0,_ZNSt3__111__make_heapB8ne180100INS_17_ClassicAlgPolicyERZN7pyfolio10TimeSeriesIdE22sort_by_time_optimizedEvEUlRKT_RKT0_E_PNS_4pairINS2_8DateTimeEdEEEEvT1_SH_OS8_
FNF:1
FNH:0
DA:31,0
DA:32,0
DA:35,0
DA:36,0
DA:38,0
DA:39,0
DA:40,0
DA:41,0
DA:42,0
LF:9
LH:0
end_of_record
TN:
SF:/Library/Developer/CommandLineTools/SDKs/MacOSX.sdk/usr/include/c++/v1/__algorithm/max.h
FNL:0,29,30
FNA:0,20,_ZNSt3__13maxB8ne180100IdNS_6__lessIvvEEEERKT_S5_S5_T0_
FNA:0,260,_ZNSt3__13maxB8ne180100ImNS_6__lessIvvEEEERKT_S5_S5_T0_
FNL:1,35,36
FNA:1,20,_ZNSt3__13maxB8ne180100IdEERKT_S3_S3_
FNA:1,260,_ZNSt3__13maxB8ne180100ImEERKT_S3_S3_
FNF:2
FNH:2
DA:29,280
DA:30,280
DA:35,280
DA:36,280
LF:4
LH:4
end_of_record
TN:
SF:/Library/Developer/CommandLineTools/SDKs/MacOSX.sdk/usr/include/c++/v1/__algorithm/min.h
FNL:0,29,30
FNA:0,0,_ZNSt3__13minB8ne180100IdNS_6__lessIvvEEEERKT_S5_S5_T0_
FNA:0,1721,_ZNSt3__13minB8ne180100ImNS_6__lessIvvEEEERKT_S5_S5_T0_
FNL:1,35,36
FNA:1,0,_ZNSt3__13minB8ne180100IdEERKT_S3_S3_
FNA:1,1721,_ZNSt3__13minB8ne180100ImEERKT_S3_S3_
FNL:2,48,49
FNA:2,0,_ZNSt3__13minB8ne180100ImEET_St16initializer_listIS1_E
FNF:3
FNH:2
DA:29,1721
DA:30,1721
DA:35,1721
DA:36,1721
DA:48,0
DA:49,0
LF:6
LH:4
end_of_record
TN:
SF:/Library/Developer/CommandLineTools/SDKs/MacOSX.sdk/usr/include/c++/v1/__algorithm/min_element.h
FNL:0,32,42
FNA:0,0,_ZNSt3__113__min_elementB8ne180100IRNS_6__lessIvvEEPKmS5_NS_10__identityEEET0_S7_T1_T_RT2_
FNL:1,45,47
FNA:1,0,_ZNSt3__113__min_elementB8ne180100IRNS_6__lessIvvEEPKmS5_EET0_S6_T1_T_
FNL:2,52,58
FNA:2,0,_ZNSt3__111min_elementB8ne180100IPKmNS_6__lessIvvEEEET_S5_S5_T0_
FNF:3
FNH:0
DA:32,0
DA:33,0
DA:34,0
DA:36,0
DA:37,0
DA:38,0
DA:39,0
DA:41,0
DA:42,0
DA:45,0
DA:46,0
DA:47,0
DA:52,0
DA:58,0
LF:14
LH:0
end_of_record
TN:
SF:/Library/Developer/CommandLineTools/SDKs/MacOSX.sdk/usr/include/c++/v1/__algorithm/minmax_element.h
FNL:0,32,33
FNA:0,2,_ZNSt3__122_MinmaxElementLessFuncINS_6__lessIvvEENS_10__identityEEC1B8ne180100ERS2_RS3_
FNA:0,2,_ZNSt3__122_MinmaxElementLessFuncINS_6__lessIvvEENS_10__identityEEC2B8ne180100ERS2_RS3_
FNL:1,36,37
FNA:1,10,_ZNSt3__122_MinmaxElementLessFuncINS_6__lessIvvEENS_10__identityEEclB8ne180100INS_11__wrap_iterIPdEEEEbRT_SA_
FNL:2,43,79
FNA:2,2,_ZNSt3__121__minmax_element_implB8ne180100INS_11__wrap_iterIPdEES3_NS_10__identityENS_6__lessIvvEEEENS_4pairIT_S8_EES8_T0_RT2_RT1_
FNL:3,83,89
FNA:3,2,_ZNSt3__114minmax_elementB8ne180100INS_11__wrap_iterIPdEENS_6__lessIvvEEEENS_4pairIT_S7_EES7_S7_T0_
FNL:4,95,96
FNA:4,2,_ZNSt3__114minmax_elementB8ne180100INS_11__wrap_iterIPdEEEENS_4pairIT_S5_EES5_S5_
FNF:5
FNH:5
DA:32,4
DA:33,4
DA:36,10
DA:37,10
DA:43,2
DA:44,2
DA:46,2
DA:47,2
DA:48,1
DA:50,1
DA:51,1
DA:53,0
DA:55,4
DA:56,3
DA:57,3
DA:58,0
DA:59,0
DA:60,0
DA:61,0
DA:62,0
DA:65,3
DA:66,3
DA:67,0
DA:68,3
DA:69,2
DA:70,3
DA:71,0
DA:72,0
DA:73,0
DA:74,0
DA:78,1
DA:79,2
DA:83,2
DA:88,2
DA:89,2
DA:95,2
DA:96,2
LF:37
LH:26
end_of_record
TN:
SF:/Library/Developer/CommandLineTools/SDKs/MacOSX.sdk/usr/include/c++/v1/__algorithm/move.h
FNL:0,104,105
FNA:0,0,_ZNKSt3__114__move_trivialclB8ne180100IPN7testing17TestEventListenerES4_Li0EEENS_4pairIPT_PT0_EES7_S7_S9_
FNA:0,0,_ZNKSt3__114__move_trivialclB8ne180100IPN7testing9TestSuiteES4_Li0EEENS_4pairIPT_PT0_EES7_S7_S9_
FNA:0,0,_ZNKSt3__114__move_trivialclB8ne180100IPcS2_Li0EEENS_4pairIPT_PT0_EES5_S5_S7_
FNL:1,111,113
FNA:1,12,_ZNSt3__16__moveB8ne180100INS_17_ClassicAlgPolicyENS_11__wrap_iterIPNS_12basic_stringIcNS_11char_traitsIcEENS_9allocatorIcEEEEEESA_NS_15insert_iteratorINS_13unordered_setIS8_NS_4hashIS8_EENS_8equal_toIS8_EENS6_IS8_EEEEEEEENS_4pairIT0_T2_EESL_T1_SM_
FNA:1,12,_ZNSt3__16__moveB8ne180100INS_17_ClassicAlgPolicyENS_11__wrap_iterIPNS_12basic_stringIcNS_11char_traitsIcEENS_9allocatorIcEEEEEESA_NS_15insert_iteratorINS_6vectorIS8_NS6_IS8_EEEEEEEENS_4pairIT0_T2_EESH_T1_SI_
FNA:1,1,_ZNSt3__16__moveB8ne180100INS_17_ClassicAlgPolicyENS_16reverse_iteratorIPN7pyfolio8DateTimeEEES6_S6_EENS_4pairIT0_T2_EES8_T1_S9_
FNA:1,0,_ZNSt3__16__moveB8ne180100INS_17_ClassicAlgPolicyENS_16reverse_iteratorIPN7testing8internal13edit_distance8EditTypeEEES8_S8_EENS_4pairIT0_T2_EESA_T1_SB_
FNA:1,0,_ZNSt3__16__moveB8ne180100INS_17_ClassicAlgPolicyENS_16reverse_iteratorIPPN7testing11EnvironmentEEES7_S7_EENS_4pairIT0_T2_EES9_T1_SA_
FNA:1,4,_ZNSt3__16__moveB8ne180100INS_17_ClassicAlgPolicyENS_16reverse_iteratorIPPN7testing17TestEventListenerEEES7_S7_EENS_4pairIT0_T2_EES9_T1_SA_
FNA:1,23,_ZNSt3__16__moveB8ne180100INS_17_ClassicAlgPolicyENS_16reverse_iteratorIPPN7testing8TestInfoEEES7_S7_EENS_4pairIT0_T2_EES9_T1_SA_
FNA:1,4,_ZNSt3__16__moveB8ne180100INS_17_ClassicAlgPolicyENS_16reverse_iteratorIPPN7testing9TestSuiteEEES7_S7_EENS_4pairIT0_T2_EES9_T1_SA_
FNA:1,0,_ZNSt3__16__moveB8ne180100INS_17_ClassicAlgPolicyENS_16reverse_iteratorIPPcEES5_S5_EENS_4pairIT0_T2_EES7_T1_S8_
FNA:1,25,_ZNSt3__16__moveB8ne180100INS_17_ClassicAlgPolicyENS_16reverse_iteratorIPdEES4_S4_EENS_4pairIT0_T2_EES6_T1_S7_
FNA:1,27,_ZNSt3__16__moveB8ne180100INS_17_ClassicAlgPolicyENS_16reverse_iteratorIPiEES4_S4_EENS_4pairIT0_T2_EES6_T1_S7_
FNA:1,0,_ZNSt3__16__moveB8ne180100INS_17_ClassicAlgPolicyENS_16reverse_iteratorIPmEES4_S4_EENS_4pairIT0_T2_EES6_T1_S7_
FNA:1,0,_ZNSt3__16__moveB8ne180100INS_17_ClassicAlgPolicyEPNS_12basic_stringIcNS_11char_traitsIcEENS_9allocatorIcEEEES8_S8_EENS_4pairIT0_T2_EESA_T1_SB_
FNA:1,0,_ZNSt3__16__moveB8ne180100INS_17_ClassicAlgPolicyEPPN7testing17TestEventListenerES5_S5_EENS_4pairIT0_T2_EES7_T1_S8_
FNA:1,0,_ZNSt3__16__moveB8ne180100INS_17_ClassicAlgPolicyEPPN7testing9TestSuiteES5_S5_EENS_4pairIT0_T2_EES7_T1_S8_
FNA:1,0,_ZNSt3__16__moveB8ne180100INS_17_ClassicAlgPolicyEPPcS3_S3_EENS_4pairIT0_T2_EES5_T1_S6_
FNL:2,118,122
FNA:2,12,_ZNSt3__14moveB8ne180100INS_11__wrap_iterIPNS_12basic_stringIcNS_11char_traitsIcEENS_9allocatorIcEEEEEENS_15insert_iteratorINS_13unordered_setIS7_NS_4hashIS7_EENS_8equal_toIS7_EENS5_IS7_EEEEEEEET0_T_SK_SJ_
FNA:2,12,_ZNSt3__14moveB8ne180100INS_11__wrap_iterIPNS_12basic_stringIcNS_11char_traitsIcEENS_9allocatorIcEEEEEENS_15insert_iteratorINS_6vectorIS7_NS5_IS7_EEEEEEEET0_T_SG_SF_
FNA:2,1,_ZNSt3__14moveB8ne180100INS_16reverse_iteratorIPN7pyfolio8DateTimeEEES5_EET0_T_S7_S6_
FNA:2,0,_ZNSt3__14moveB8ne180100INS_16reverse_iteratorIPN7testing8internal13edit_distance8EditTypeEEES7_EET0_T_S9_S8_
FNA:2,0,_ZNSt3__14moveB8ne180100INS_16reverse_iteratorIPPN7testing11EnvironmentEEES6_EET0_T_S8_S7_
FNA:2,4,_ZNSt3__14moveB8ne180100INS_16reverse_iteratorIPPN7testing17TestEventListenerEEES6_EET0_T_S8_S7_
FNA:2,23,_ZNSt3__14moveB8ne180100INS_16reverse_iteratorIPPN7testing8TestInfoEEES6_EET0_T_S8_S7_
FNA:2,4,_ZNSt3__14moveB8ne180100INS_16reverse_iteratorIPPN7testing9TestSuiteEEES6_EET0_T_S8_S7_
FNA:2,0,_ZNSt3__14moveB8ne180100INS_16reverse_iteratorIPPcEES4_EET0_T_S6_S5_
FNA:2,25,_ZNSt3__14moveB8ne180100INS_16reverse_iteratorIPdEES3_EET0_T_S5_S4_
FNA:2,27,_ZNSt3__14moveB8ne180100INS_16reverse_iteratorIPiEES3_EET0_T_S5_S4_
FNA:2,0,_ZNSt3__14moveB8ne180100INS_16reverse_iteratorIPmEES3_EET0_T_S5_S4_
FNA:2,0,_ZNSt3__14moveB8ne180100IPNS_12basic_stringIcNS_11char_traitsIcEENS_9allocatorIcEEEES7_EET0_T_S9_S8_
FNA:2,0,_ZNSt3__14moveB8ne180100IPPN7testing17TestEventListenerES4_EET0_T_S6_S5_
FNA:2,0,_ZNSt3__14moveB8ne180100IPPN7testing9TestSuiteES4_EET0_T_S6_S5_
FNA:2,0,_ZNSt3__14moveB8ne180100IPPcS2_EET0_T_S4_S3_
FNL:3,40,46
FNA:3,1,_ZNKSt3__111__move_loopINS_17_ClassicAlgPolicyEEclB8ne180100INS_16reverse_iteratorIPN7pyfolio8DateTimeEEES8_S8_EENS_4pairIT_T1_EESA_T0_SB_
FNA:3,0,_ZNKSt3__111__move_loopINS_17_ClassicAlgPolicyEEclB8ne180100INS_16reverse_iteratorIPN7testing8internal13edit_distance8EditTypeEEESA_SA_EENS_4pairIT_T1_EESC_T0_SD_
FNA:3,0,_ZNKSt3__111__move_loopINS_17_ClassicAlgPolicyEEclB8ne180100INS_16reverse_iteratorIPPN7testing11EnvironmentEEES9_S9_EENS_4pairIT_T1_EESB_T0_SC_
FNA:3,4,_ZNKSt3__111__move_loopINS_17_ClassicAlgPolicyEEclB8ne180100INS_16reverse_iteratorIPPN7testing17TestEventListenerEEES9_S9_EENS_4pairIT_T1_EESB_T0_SC_
FNA:3,23,_ZNKSt3__111__move_loopINS_17_ClassicAlgPolicyEEclB8ne180100INS_16reverse_iteratorIPPN7testing8TestInfoEEES9_S9_EENS_4pairIT_T1_EESB_T0_SC_
FNA:3,4,_ZNKSt3__111__move_loopINS_17_ClassicAlgPolicyEEclB8ne180100INS_16reverse_iteratorIPPN7testing9TestSuiteEEES9_S9_EENS_4pairIT_T1_EESB_T0_SC_
FNA:3,0,_ZNKSt3__111__move_loopINS_17_ClassicAlgPolicyEEclB8ne180100INS_16reverse_iteratorIPPcEES7_S7_EENS_4pairIT_T1_EES9_T0_SA_
FNA:3,25,_ZNKSt3__111__move_loopINS_17_ClassicAlgPolicyEEclB8ne180100INS_16reverse_iteratorIPdEES6_S6_EENS_4pairIT_T1_EES8_T0_S9_
FNA:3,27,_ZNKSt3__111__move_loopINS_17_ClassicAlgPolicyEEclB8ne180100INS_16reverse_iteratorIPiEES6_S6_EENS_4pairIT_T1_EES8_T0_S9_
FNA:3,0,_ZNKSt3__111__move_loopINS_17_ClassicAlgPolicyEEclB8ne180100INS_16reverse_iteratorIPmEES6_S6_EENS_4pairIT_T1_EES8_T0_S9_
FNA:3,12,_ZNKSt3__111__move_loopINS_17_ClassicAlgPolicyEEclB8ne180100IPNS_12basic_stringIcNS_11char_traitsIcEENS_9allocatorIcEEEESA_NS_15insert_iteratorINS_13unordered_setIS9_NS_4hashIS9_EENS_8equal_toIS9_EENS7_IS9_EEEEEEEENS_4pairIT_T1_EESL_T0_SM_
FNA:3,12,_ZNKSt3__111__move_loopINS_17_ClassicAlgPolicyEEclB8ne180100IPNS_12basic_stringIcNS_11char_traitsIcEENS_9allocatorIcEEEESA_NS_15insert_iteratorINS_6vectorIS9_NS7_IS9_EEEEEEEENS_4pairIT_T1_EESH_T0_SI_
FNA:3,0,_ZNKSt3__111__move_loopINS_17_ClassicAlgPolicyEEclB8ne180100IPNS_12basic_stringIcNS_11char_traitsIcEENS_9allocatorIcEEEESA_SA_EENS_4pairIT_T1_EESC_T0_SD_
FNF:4
FNH:3
DA:40,108
DA:41,388
DA:42,280
DA:43,280
DA:44,280
DA:46,108
DA:104,0
DA:105,0
DA:111,108
DA:112,108
DA:113,108
DA:118,108
DA:122,108
LF:13
LH:11
end_of_record
TN:
SF:/Library/Developer/CommandLineTools/SDKs/MacOSX.sdk/usr/include/c++/v1/__algorithm/move_backward.h
FNL:0,113,114
FNA:0,0,_ZNKSt3__123__move_backward_trivialclB8ne180100IPN7testing9TestSuiteES4_Li0EEENS_4pairIPT_PT0_EES7_S7_S9_
FNA:0,0,_ZNKSt3__123__move_backward_trivialclB8ne180100IPcS2_Li0EEENS_4pairIPT_PT0_EES5_S5_S7_
FNL:1,120,126
FNA:1,0,_ZNSt3__115__move_backwardB8ne180100INS_17_ClassicAlgPolicyEPNS_12basic_stringIcNS_11char_traitsIcEENS_9allocatorIcEEEES8_S8_EENS_4pairIT0_T2_EESA_T1_SB_
FNA:1,0,_ZNSt3__115__move_backwardB8ne180100INS_17_ClassicAlgPolicyEPPN7testing9TestSuiteES5_S5_EENS_4pairIT0_T2_EES7_T1_S8_
FNA:1,0,_ZNSt3__115__move_backwardB8ne180100INS_17_ClassicAlgPolicyEPPcS3_S3_EENS_4pairIT0_T2_EES5_T1_S6_
FNL:2,131,132
FNA:2,0,_ZNSt3__113move_backwardB8ne180100IPNS_12basic_stringIcNS_11char_traitsIcEENS_9allocatorIcEEEES7_EET0_T_S9_S8_
FNA:2,0,_ZNSt3__113move_backwardB8ne180100IPPN7testing9TestSuiteES4_EET0_T_S6_S5_
FNA:2,0,_ZNSt3__113move_backwardB8ne180100IPPcS2_EET0_T_S4_S3_
FNL:3,39,47
FNA:3,0,_ZNKSt3__120__move_backward_loopINS_17_ClassicAlgPolicyEEclB8ne180100IPNS_12basic_stringIcNS_11char_traitsIcEENS_9allocatorIcEEEESA_SA_EENS_4pairIT_T1_EESC_T0_SD_
FNF:4
FNH:0
DA:39,0
DA:40,0
DA:41,0
DA:43,0
DA:44,0
DA:47,0
DA:113,0
DA:114,0
DA:120,0
DA:125,0
DA:126,0
DA:131,0
DA:132,0
LF:13
LH:0
end_of_record
TN:
SF:/Library/Developer/CommandLineTools/SDKs/MacOSX.sdk/usr/include/c++/v1/__algorithm/partial_sort.h
FNL:0,35,54
FNA:0,0,_ZNSt3__119__partial_sort_implB8ne180100INS_17_ClassicAlgPolicyERZN7pyfolio10TimeSeriesIdE22sort_by_time_optimizedEvEUlRKT_RKT0_E_PNS_4pairINS2_8DateTimeEdEESG_EET1_SH_SH_T2_OS8_
FNL:1,58,70
FNA:1,0,_ZNSt3__114__partial_sortB8ne180100INS_17_ClassicAlgPolicyERZN7pyfolio10TimeSeriesIdE22sort_by_time_optimizedEvEUlRKT_RKT0_E_PNS_4pairINS2_8DateTimeEdEESG_EET1_SH_SH_T2_RS8_
FNF:2
FNH:0
DA:35,0
DA:37,0
DA:38,0
DA:41,0
DA:43,0
DA:44,0
DA:45,0
DA:46,0
DA:47,0
DA:48,0
DA:49,0
DA:50,0
DA:51,0
DA:53,0
DA:54,0
DA:58,0
DA:59,0
DA:60,0
DA:62,0
DA:64,0
DA:65,0
DA:67,0
DA:69,0
DA:70,0
LF:24
LH:0
end_of_record
TN:
SF:/Library/Developer/CommandLineTools/SDKs/MacOSX.sdk/usr/include/c++/v1/__algorithm/partition.h
FNL:0,50,69
FNA:0,12,_ZNSt3__116__partition_implB8ne180100IRPFbRKNS_12basic_stringIcNS_11char_traitsIcEENS_9allocatorIcEEEEENS_17_ClassicAlgPolicyENS_11__wrap_iterIPS6_EESF_EENS_4pairIT1_SH_EESH_T2_T_NS_26bidirectional_iterator_tagE
FNL:1,73,75
FNA:1,12,_ZNSt3__111__partitionB8ne180100INS_17_ClassicAlgPolicyENS_11__wrap_iterIPNS_12basic_stringIcNS_11char_traitsIcEENS_9allocatorIcEEEEEESA_RPFbRKS8_ENS_26random_access_iterator_tagEEENS_4pairIT0_SI_EESI_T1_OT2_T3_
FNL:2,80,83
FNA:2,12,_ZNSt3__19partitionB8ne180100INS_11__wrap_iterIPNS_12basic_stringIcNS_11char_traitsIcEENS_9allocatorIcEEEEEEPFbRKS7_EEET_SE_SE_T0_
FNF:3
FNH:3
DA:50,12
DA:51,12
DA:52,12
DA:54,12
DA:55,32
DA:56,32
DA:57,12
DA:58,20
DA:59,0
DA:60,20
DA:62,0
DA:63,0
DA:64,0
DA:65,0
DA:66,0
DA:67,0
DA:69,12
DA:73,12
DA:74,12
DA:75,12
DA:80,12
DA:82,12
DA:83,12
LF:23
LH:16
end_of_record
TN:
SF:/Library/Developer/CommandLineTools/SDKs/MacOSX.sdk/usr/include/c++/v1/__algorithm/pop_heap.h
FNL:0,35,59
FNA:0,0,_ZNSt3__110__pop_heapB8ne180100INS_17_ClassicAlgPolicyEZN7pyfolio10TimeSeriesIdE22sort_by_time_optimizedEvEUlRKT_RKT0_E_PNS_4pairINS2_8DateTimeEdEEEEvT1_SG_RS8_NS_15iterator_traitsISG_E15difference_typeE
FNF:1
FNH:0
DA:35,0
DA:42,0
DA:45,0
DA:46,0
DA:47,0
DA:48,0
DA:50,0
DA:51,0
DA:52,0
DA:53,0
DA:54,0
DA:55,0
DA:56,0
DA:58,0
DA:59,0
LF:15
LH:0
end_of_record
TN:
SF:/Library/Developer/CommandLineTools/SDKs/MacOSX.sdk/usr/include/c++/v1/__algorithm/push_heap.h
FNL:0,32,56
FNA:0,0,_ZNSt3__19__sift_upB8ne180100INS_17_ClassicAlgPolicyERZN7pyfolio10TimeSeriesIdE22sort_by_time_optimizedEvEUlRKT_RKT0_E_PNS_4pairINS2_8DateTimeEdEEEEvT1_SH_OS8_NS_15iterator_traitsISH_E15difference_typeE
FNF:1
FNH:0
DA:32,0
DA:38,0
DA:39,0
DA:40,0
DA:42,0
DA:43,0
DA:44,0
DA:45,0
DA:46,0
DA:47,0
DA:48,0
DA:49,0
DA:50,0
DA:51,0
DA:53,0
DA:54,0
DA:55,0
DA:56,0
LF:18
LH:0
end_of_record
TN:
SF:/Library/Developer/CommandLineTools/SDKs/MacOSX.sdk/usr/include/c++/v1/__algorithm/reverse.h
FNL:0,40,44
FNA:0,0,_ZNSt3__114__reverse_implB8ne180100INS_17_ClassicAlgPolicyENS_11__wrap_iterIPN7testing8internal13edit_distance8EditTypeEEEEEvT0_S9_NS_26random_access_iterator_tagE
FNL:1,47,50
FNA:1,0,_ZNSt3__19__reverseB8ne180100INS_17_ClassicAlgPolicyENS_11__wrap_iterIPN7testing8internal13edit_distance8EditTypeEEES8_EEvT0_T1_
FNL:2,54,56
FNA:2,0,_ZNSt3__17reverseB8ne180100INS_11__wrap_iterIPN7testing8internal13edit_distance8EditTypeEEEEEvT_S8_
FNF:3
FNH:0
DA:40,0
DA:41,0
DA:42,0
DA:43,0
DA:44,0
DA:47,0
DA:49,0
DA:50,0
DA:54,0
DA:55,0
DA:56,0
LF:11
LH:0
end_of_record
TN:
SF:/Library/Developer/CommandLineTools/SDKs/MacOSX.sdk/usr/include/c++/v1/__algorithm/sift_down.h
FNL:0,29,80
FNA:0,0,_ZNSt3__111__sift_downB8ne180100INS_17_ClassicAlgPolicyERZN7pyfolio10TimeSeriesIdE22sort_by_time_optimizedEvEUlRKT_RKT0_E_PNS_4pairINS2_8DateTimeEdEEEEvT1_OS8_NS_15iterator_traitsISH_E15difference_typeESH_
FNL:1,83,110
FNA:1,0,_ZNSt3__117__floyd_sift_downB8ne180100INS_17_ClassicAlgPolicyERZN7pyfolio10TimeSeriesIdE22sort_by_time_optimizedEvEUlRKT_RKT0_E_PNS_4pairINS2_8DateTimeEdEEEET1_SH_OS8_NS_15iterator_traitsISH_E15difference_typeE
FNF:2
FNH:0
DA:29,0
DA:39,0
DA:41,0
DA:42,0
DA:44,0
DA:45,0
DA:47,0
DA:49,0
DA:50,0
DA:51,0
DA:54,0
DA:56,0
DA:58,0
DA:59,0
DA:61,0
DA:62,0
DA:64,0
DA:65,0
DA:68,0
DA:69,0
DA:71,0
DA:73,0
DA:74,0
DA:75,0
DA:78,0
DA:79,0
DA:80,0
DA:83,0
DA:90,0
DA:91,0
DA:92,0
DA:94,0
DA:95,0
DA:96,0
DA:98,0
DA:100,0
DA:101,0
DA:102,0
DA:105,0
DA:106,0
DA:109,0
DA:110,0
LF:42
LH:0
end_of_record
TN:
SF:/Library/Developer/CommandLineTools/SDKs/MacOSX.sdk/usr/include/c++/v1/__algorithm/sort.h
FNL:0,1003,1005
FNA:0,0,_ZNSt3__14sortB8ne180100INS_11__wrap_iterIPNS_4pairIN7pyfolio8DateTimeEdEEEEZNS3_10TimeSeriesIdE22sort_by_time_optimizedEvEUlRKT_RKT0_E_EEvSA_SA_SD_
FNA:0,5,_ZNSt3__14sortB8ne180100INS_11__wrap_iterIPdEENS_6__lessIvvEEEEvT_S6_T0_
FNL:1,1009,1011
FNA:1,5,_ZNSt3__14sortB8ne180100INS_11__wrap_iterIPdEEEEvT_S4_
FNL:2,107,128
FNA:2,0,_ZNSt3__17__sort5B8ne180100INS_17_ClassicAlgPolicyERZN7pyfolio10TimeSeriesIdE22sort_by_time_optimizedEvEUlRKT_RKT0_E_PNS_4pairINS2_8DateTimeEdEEEEvT1_SH_SH_SH_SH_S8_
FNL:3,199,202
FNA:3,0,_ZNSt3__124__sort3_maybe_branchlessB8ne180100INS_17_ClassicAlgPolicyERZN7pyfolio10TimeSeriesIdE22sort_by_time_optimizedEvEUlRKT_RKT0_E_PNS_4pairINS2_8DateTimeEdEELi0EEEvT1_SH_SH_S8_
FNL:4,225,232
FNA:4,0,_ZNSt3__124__sort4_maybe_branchlessB8ne180100INS_17_ClassicAlgPolicyERZN7pyfolio10TimeSeriesIdE22sort_by_time_optimizedEvEUlRKT_RKT0_E_PNS_4pairINS2_8DateTimeEdEELi0EEEvT1_SH_SH_SH_S8_
FNL:5,257,266
FNA:5,0,_ZNSt3__124__sort5_maybe_branchlessB8ne180100INS_17_ClassicAlgPolicyERZN7pyfolio10TimeSeriesIdE22sort_by_time_optimizedEvEUlRKT_RKT0_E_PNS_4pairINS2_8DateTimeEdEELi0EEEvT1_SH_SH_SH_SH_S8_
FNL:6,284,305
FNA:6,0,_ZNSt3__116__insertion_sortB8ne180100INS_17_ClassicAlgPolicyERZN7pyfolio10TimeSeriesIdE22sort_by_time_optimizedEvEUlRKT_RKT0_E_PNS_4pairINS2_8DateTimeEdEEEEvT1_SH_S8_
FNL:7,314,338
FNA:7,0,_ZNSt3__126__insertion_sort_unguardedB8ne180100INS_17_ClassicAlgPolicyERZN7pyfolio10TimeSeriesIdE22sort_by_time_optimizedEvEUlRKT_RKT0_E_PNS_4pairINS2_8DateTimeEdEEEEvT1_SH_S8_
FNL:8,342,392
FNA:8,0,_ZNSt3__127__insertion_sort_incompleteB8ne180100INS_17_ClassicAlgPolicyERZN7pyfolio10TimeSeriesIdE22sort_by_time_optimizedEvEUlRKT_RKT0_E_PNS_4pairINS2_8DateTimeEdEEEEbT1_SH_S8_
FNL:9,395,408
FNA:9,0,_ZNSt3__117__swap_bitmap_posB8ne180100INS_17_ClassicAlgPolicyEPNS_4pairIN7pyfolio8DateTimeEdEEEEvT0_S7_RyS8_
FNL:10,414,424
FNA:10,0,_ZNSt3__122__populate_left_bitsetB8ne180100IRZN7pyfolio10TimeSeriesIdE22sort_by_time_optimizedEvEUlRKT_RKT0_E_PNS_4pairINS1_8DateTimeEdEESE_EEvS7_S4_RT1_Ry
FNL:11,430,440
FNA:11,0,_ZNSt3__123__populate_right_bitsetB8ne180100IRZN7pyfolio10TimeSeriesIdE22sort_by_time_optimizedEvEUlRKT_RKT0_E_PNS_4pairINS1_8DateTimeEdEESE_EEvS7_S4_RT1_Ry
FNL:12,446,490
FNA:12,0,_ZNSt3__133__bitset_partition_partial_blocksB8ne180100INS_17_ClassicAlgPolicyERZN7pyfolio10TimeSeriesIdE22sort_by_time_optimizedEvEUlRKT_RKT0_E_PNS_4pairINS2_8DateTimeEdEESF_EEvRT1_SI_S8_RT2_RySL_
FNL:13,493,523
FNA:13,0,_ZNSt3__124__swap_bitmap_pos_withinB8ne180100INS_17_ClassicAlgPolicyEPNS_4pairIN7pyfolio8DateTimeEdEEEEvRT0_S8_RyS9_
FNL:14,51,83
FNA:14,0,_ZNSt3__17__sort3B8ne180100INS_17_ClassicAlgPolicyERZN7pyfolio10TimeSeriesIdE22sort_by_time_optimizedEvEUlRKT_RKT0_E_PNS_4pairINS2_8DateTimeEdEEEEjT1_SH_SH_S8_
FNL:15,535,617
FNA:15,0,_ZNSt3__118__bitset_partitionB8ne180100INS_17_ClassicAlgPolicyEPNS_4pairIN7pyfolio8DateTimeEdEERZNS3_10TimeSeriesIdE22sort_by_time_optimizedEvEUlRKT_RKT0_E_EENS2_ISC_bEESC_SC_T1_
FNL:16,627,688
FNA:16,0,_ZNSt3__132__partition_with_equals_on_rightB8ne180100INS_17_ClassicAlgPolicyEPNS_4pairIN7pyfolio8DateTimeEdEERZNS3_10TimeSeriesIdE22sort_by_time_optimizedEvEUlRKT_RKT0_E_EENS2_ISC_bEESC_SC_T1_
FNL:17,695,747
FNA:17,0,_ZNSt3__131__partition_with_equals_on_leftB8ne180100INS_17_ClassicAlgPolicyEPNS_4pairIN7pyfolio8DateTimeEdEERZNS3_10TimeSeriesIdE22sort_by_time_optimizedEvEUlRKT_RKT0_E_EESC_SC_SC_T1_
FNL:18,758,870
FNA:18,0,_ZNSt3__111__introsortINS_17_ClassicAlgPolicyERZN7pyfolio10TimeSeriesIdE22sort_by_time_optimizedEvEUlRKT_RKT0_E_PNS_4pairINS2_8DateTimeEdEELb0EEEvT1_SH_S8_NS_15iterator_traitsISH_E15difference_typeEb
FNL:19,873,889
FNA:19,0,_ZNSt3__17__log2iB8ne180100IlEET_S1_
FNL:20,89,101
FNA:20,0,_ZNSt3__17__sort4B8ne180100INS_17_ClassicAlgPolicyERZN7pyfolio10TimeSeriesIdE22sort_by_time_optimizedEvEUlRKT_RKT0_E_PNS_4pairINS2_8DateTimeEdEEEEvT1_SH_SH_SH_S8_
FNL:21,922,933
FNA:21,0,_ZNSt3__115__sort_dispatchB8ne180100INS_17_ClassicAlgPolicyEPNS_4pairIN7pyfolio8DateTimeEdEEZNS3_10TimeSeriesIdE22sort_by_time_optimizedEvEUlRKT_RKT0_E_EEvSC_SC_RT1_
FNL:22,960,963
FNA:22,5,_ZNSt3__115__sort_dispatchB8ne180100INS_17_ClassicAlgPolicyEdLi0EEEvPT0_S3_RNS_6__lessIvvEE
FNL:23,989,999
FNA:23,0,_ZNSt3__111__sort_implB8ne180100INS_17_ClassicAlgPolicyENS_11__wrap_iterIPNS_4pairIN7pyfolio8DateTimeEdEEEEZNS4_10TimeSeriesIdE22sort_by_time_optimizedEvEUlRKT_RKT0_E_EEvSE_SE_RT1_
FNA:23,5,_ZNSt3__111__sort_implB8ne180100INS_17_ClassicAlgPolicyENS_11__wrap_iterIPdEENS_6__lessIvvEEEEvT0_S7_RT1_
FNF:24
FNH:4
DA:51,0
DA:54,0
DA:55,0
DA:57,0
DA:58,0
DA:60,0
DA:61,0
DA:62,0
DA:64,0
DA:65,0
DA:66,0
DA:67,0
DA:69,0
DA:71,0
DA:72,0
DA:73,0
DA:75,0
DA:76,0
DA:77,0
DA:79,0
DA:80,0
DA:81,0
DA:82,0
DA:83,0
DA:89,0
DA:91,0
DA:92,0
DA:93,0
DA:94,0
DA:95,0
DA:96,0
DA:97,0
DA:98,0
DA:99,0
DA:100,0
DA:101,0
DA:107,0
DA:115,0
DA:116,0
DA:117,0
DA:118,0
DA:119,0
DA:120,0
DA:121,0
DA:122,0
DA:123,0
DA:124,0
DA:125,0
DA:126,0
DA:127,0
DA:128,0
DA:199,0
DA:201,0
DA:202,0
DA:225,0
DA:231,0
DA:232,0
DA:257,0
DA:264,0
DA:265,0
DA:266,0
DA:284,0
DA:288,0
DA:289,0
DA:290,0
DA:291,0
DA:292,0
DA:293,0
DA:294,0
DA:295,0
DA:296,0
DA:297,0
DA:298,0
DA:299,0
DA:300,0
DA:301,0
DA:302,0
DA:303,0
DA:304,0
DA:305,0
DA:314,0
DA:318,0
DA:319,0
DA:320,0
DA:322,0
DA:323,0
DA:324,0
DA:325,0
DA:326,0
DA:327,0
DA:328,0
DA:329,0
DA:330,0
DA:334,0
DA:335,0
DA:336,0
DA:337,0
DA:338,0
DA:342,0
DA:346,0
DA:349,0
DA:351,0
DA:352,0
DA:353,0
DA:355,0
DA:356,0
DA:358,0
DA:359,0
DA:360,0
DA:362,0
DA:363,0
DA:364,0
DA:365,0
DA:366,0
DA:367,0
DA:368,0
DA:369,0
DA:372,0
DA:373,0
DA:374,0
DA:375,0
DA:376,0
DA:377,0
DA:378,0
DA:379,0
DA:380,0
DA:381,0
DA:382,0
DA:383,0
DA:384,0
DA:385,0
DA:386,0
DA:387,0
DA:388,0
DA:389,0
DA:390,0
DA:391,0
DA:392,0
DA:395,0
DA:401,0
DA:402,0
DA:403,0
DA:404,0
DA:405,0
DA:406,0
DA:408,0
DA:414,0
DA:417,0
DA:418,0
DA:419,0
DA:420,0
DA:421,0
DA:422,0
DA:424,0
DA:430,0
DA:433,0
DA:434,0
DA:435,0
DA:436,0
DA:437,0
DA:438,0
DA:440,0
DA:446,0
DA:454,0
DA:457,0
DA:458,0
DA:459,0
DA:460,0
DA:462,0
DA:463,0
DA:464,0
DA:465,0
DA:466,0
DA:469,0
DA:470,0
DA:471,0
DA:472,0
DA:473,0
DA:474,0
DA:475,0
DA:476,0
DA:479,0
DA:480,0
DA:481,0
DA:482,0
DA:483,0
DA:484,0
DA:485,0
DA:486,0
DA:487,0
DA:488,0
DA:489,0
DA:490,0
DA:493,0
DA:497,0
DA:500,0
DA:501,0
DA:502,0
DA:503,0
DA:504,0
DA:505,0
DA:506,0
DA:507,0
DA:509,0
DA:510,0
DA:513,0
DA:514,0
DA:515,0
DA:516,0
DA:517,0
DA:518,0
DA:519,0
DA:520,0
DA:522,0
DA:523,0
DA:535,0
DA:540,0
DA:541,0
DA:544,0
DA:546,0
DA:548,0
DA:549,0
DA:553,0
DA:554,0
DA:555,0
DA:559,0
DA:562,0
DA:566,0
DA:567,0
DA:568,0
DA:573,0
DA:574,0
DA:575,0
DA:576,0
DA:577,0
DA:581,0
DA:582,0
DA:583,0
DA:586,0
DA:589,0
DA:590,0
DA:593,0
DA:594,0
DA:597,0
DA:600,0
DA:601,0
DA:605,0
DA:606,0
DA:609,0
DA:612,0
DA:613,0
DA:614,0
DA:615,0
DA:616,0
DA:617,0
DA:627,0
DA:632,0
DA:633,0
DA:635,0
DA:639,0
DA:640,0
DA:644,0
DA:647,0
DA:648,0
DA:650,0
DA:652,0
DA:656,0
DA:657,0
DA:663,0
DA:667,0
DA:668,0
DA:669,0
DA:670,0
DA:674,0
DA:675,0
DA:679,0
DA:680,0
DA:683,0
DA:684,0
DA:685,0
DA:686,0
DA:687,0
DA:688,0
DA:695,0
DA:700,0
DA:701,0
DA:703,0
DA:704,0
DA:706,0
DA:707,0
DA:711,0
DA:712,0
DA:713,0
DA:717,0
DA:720,0
DA:724,0
DA:725,0
DA:726,0
DA:727,0
DA:728,0
DA:729,0
DA:730,0
DA:734,0
DA:735,0
DA:739,0
DA:740,0
DA:742,0
DA:743,0
DA:744,0
DA:745,0
DA:746,0
DA:747,0
DA:758,0
DA:767,0
DA:769,0
DA:770,0
DA:771,0
DA:772,0
DA:775,0
DA:777,0
DA:778,0
DA:779,0
DA:781,0
DA:782,0
DA:784,0
DA:785,0
DA:786,0
DA:788,0
DA:789,0
DA:790,0
DA:791,0
DA:792,0
DA:793,0
DA:794,0
DA:795,0
DA:798,0
DA:799,0
DA:800,0
DA:801,0
DA:802,0
DA:804,0
DA:806,0
DA:808,0
DA:809,0
DA:811,0
DA:813,0
DA:816,0
DA:817,0
DA:818,0
DA:819,0
DA:820,0
DA:821,0
DA:822,0
DA:823,0
DA:824,0
DA:825,0
DA:826,0
DA:837,0
DA:838,0
DA:839,0
DA:840,0
DA:843,0
DA:844,0
DA:845,0
DA:846,0
DA:847,0
DA:850,0
DA:851,0
DA:852,0
DA:853,0
DA:854,0
DA:855,0
DA:856,0
DA:858,0
DA:859,0
DA:860,0
DA:863,0
DA:865,0
DA:866,0
DA:867,0
DA:868,0
DA:870,0
DA:873,0
DA:874,0
DA:875,0
DA:879,0
DA:889,0
DA:922,0
DA:924,0
DA:929,0
DA:932,0
DA:933,0
DA:960,5
DA:962,5
DA:963,5
DA:989,5
DA:990,5
DA:996,5
DA:998,5
DA:999,5
DA:1003,5
DA:1004,5
DA:1005,5
DA:1009,5
DA:1010,5
DA:1011,5
LF:406
LH:14
end_of_record
TN:
SF:/Library/Developer/CommandLineTools/SDKs/MacOSX.sdk/usr/include/c++/v1/__algorithm/sort_heap.h
FNL:0,34,42
FNA:0,0,_ZNSt3__111__sort_heapB8ne180100INS_17_ClassicAlgPolicyERZN7pyfolio10TimeSeriesIdE22sort_by_time_optimizedEvEUlRKT_RKT0_E_PNS_4pairINS2_8DateTimeEdEEEEvT1_SH_OS8_
FNF:1
FNH:0
DA:34,0
DA:35,0
DA:36,0
DA:39,0
DA:40,0
DA:41,0
DA:42,0
LF:7
LH:0
end_of_record
TN:
SF:/Library/Developer/CommandLineTools/SDKs/MacOSX.sdk/usr/include/c++/v1/__algorithm/unwrap_iter.h
FNL:0,39,39
FNA:0,12,_ZNSt3__118__unwrap_iter_implINS_15insert_iteratorINS_13unordered_setINS_12basic_stringIcNS_11char_traitsIcEENS_9allocatorIcEEEENS_4hashIS8_EENS_8equal_toIS8_EENS6_IS8_EEEEEELb0EE8__rewrapB8ne180100ESF_SF_
FNA:0,12,_ZNSt3__118__unwrap_iter_implINS_15insert_iteratorINS_6vectorINS_12basic_stringIcNS_11char_traitsIcEENS_9allocatorIcEEEENS6_IS8_EEEEEELb0EE8__rewrapB8ne180100ESB_SB_
FNA:0,2,_ZNSt3__118__unwrap_iter_implINS_16reverse_iteratorIPN7pyfolio8DateTimeEEELb0EE8__rewrapB8ne180100ES5_S5_
FNA:0,0,_ZNSt3__118__unwrap_iter_implINS_16reverse_iteratorIPN7testing8internal13edit_distance8EditTypeEEELb0EE8__rewrapB8ne180100ES7_S7_
FNA:0,0,_ZNSt3__118__unwrap_iter_implINS_16reverse_iteratorIPPN7testing11EnvironmentEEELb0EE8__rewrapB8ne180100ES6_S6_
FNA:0,8,_ZNSt3__118__unwrap_iter_implINS_16reverse_iteratorIPPN7testing17TestEventListenerEEELb0EE8__rewrapB8ne180100ES6_S6_
FNA:0,46,_ZNSt3__118__unwrap_iter_implINS_16reverse_iteratorIPPN7testing8TestInfoEEELb0EE8__rewrapB8ne180100ES6_S6_
FNA:0,8,_ZNSt3__118__unwrap_iter_implINS_16reverse_iteratorIPPN7testing9TestSuiteEEELb0EE8__rewrapB8ne180100ES6_S6_
FNA:0,0,_ZNSt3__118__unwrap_iter_implINS_16reverse_iteratorIPPcEELb0EE8__rewrapB8ne180100ES4_S4_
FNA:0,50,_ZNSt3__118__unwrap_iter_implINS_16reverse_iteratorIPdEELb0EE8__rewrapB8ne180100ES3_S3_
FNA:0,54,_ZNSt3__118__unwrap_iter_implINS_16reverse_iteratorIPiEELb0EE8__rewrapB8ne180100ES3_S3_
FNA:0,0,_ZNSt3__118__unwrap_iter_implINS_16reverse_iteratorIPmEELb0EE8__rewrapB8ne180100ES3_S3_
FNL:1,40,40
FNA:1,12,_ZNSt3__118__unwrap_iter_implINS_15insert_iteratorINS_13unordered_setINS_12basic_stringIcNS_11char_traitsIcEENS_9allocatorIcEEEENS_4hashIS8_EENS_8equal_toIS8_EENS6_IS8_EEEEEELb0EE8__unwrapB8ne180100ESF_
FNA:1,12,_ZNSt3__118__unwrap_iter_implINS_15insert_iteratorINS_6vectorINS_12basic_stringIcNS_11char_traitsIcEENS_9allocatorIcEEEENS6_IS8_EEEEEELb0EE8__unwrapB8ne180100ESB_
FNA:1,3,_ZNSt3__118__unwrap_iter_implINS_16reverse_iteratorIPN7pyfolio8DateTimeEEELb0EE8__unwrapB8ne180100ES5_
FNA:1,0,_ZNSt3__118__unwrap_iter_implINS_16reverse_iteratorIPN7testing8internal13edit_distance8EditTypeEEELb0EE8__unwrapB8ne180100ES7_
FNA:1,0,_ZNSt3__118__unwrap_iter_implINS_16reverse_iteratorIPPN7testing11EnvironmentEEELb0EE8__unwrapB8ne180100ES6_
FNA:1,12,_ZNSt3__118__unwrap_iter_implINS_16reverse_iteratorIPPN7testing17TestEventListenerEEELb0EE8__unwrapB8ne180100ES6_
FNA:1,69,_ZNSt3__118__unwrap_iter_implINS_16reverse_iteratorIPPN7testing8TestInfoEEELb0EE8__unwrapB8ne180100ES6_
FNA:1,12,_ZNSt3__118__unwrap_iter_implINS_16reverse_iteratorIPPN7testing9TestSuiteEEELb0EE8__unwrapB8ne180100ES6_
FNA:1,0,_ZNSt3__118__unwrap_iter_implINS_16reverse_iteratorIPPcEELb0EE8__unwrapB8ne180100ES4_
FNA:1,75,_ZNSt3__118__unwrap_iter_implINS_16reverse_iteratorIPdEELb0EE8__unwrapB8ne180100ES3_
FNA:1,81,_ZNSt3__118__unwrap_iter_implINS_16reverse_iteratorIPiEELb0EE8__unwrapB8ne180100ES3_
FNA:1,0,_ZNSt3__118__unwrap_iter_implINS_16reverse_iteratorIPmEELb0EE8__unwrapB8ne180100ES3_
FNL:2,51,52
FNA:2,0,_ZNSt3__118__unwrap_iter_implINS_11__wrap_iterIPKNS_12basic_stringIcNS_11char_traitsIcEENS_9allocatorIcEEEEEELb1EE8__rewrapB8ne180100ESA_S9_
FNA:2,24,_ZNSt3__118__unwrap_iter_implINS_11__wrap_iterIPNS_12basic_stringIcNS_11char_traitsIcEENS_9allocatorIcEEEEEELb1EE8__rewrapB8ne180100ES9_S8_
FNA:2,37,_ZNSt3__118__unwrap_iter_implIPKN7pyfolio8DateTimeELb1EE8__rewrapB8ne180100ES4_S4_
FNA:2,0,_ZNSt3__118__unwrap_iter_implIPKNS_3mapINS_12basic_stringIcNS_11char_traitsIcEENS_9allocatorIcEEEEdNS_4lessIS7_EENS5_INS_4pairIKS7_dEEEEEELb1EE8__rewrapB8ne180100ESG_SG_
FNA:2,154,_ZNSt3__118__unwrap_iter_implIPKcLb1EE8__rewrapB8ne180100ES2_S2_
FNA:2,75,_ZNSt3__118__unwrap_iter_implIPKdLb1EE8__rewrapB8ne180100ES2_S2_
FNA:2,374,_ZNSt3__118__unwrap_iter_implIPN7pyfolio8DateTimeELb1EE8__rewrapB8ne180100ES3_S3_
FNA:2,0,_ZNSt3__118__unwrap_iter_implIPN7testing8internal13edit_distance8EditTypeELb1EE8__rewrapB8ne180100ES5_S5_
FNA:2,4,_ZNSt3__118__unwrap_iter_implIPNS_12basic_stringIcNS_11char_traitsIcEENS_9allocatorIcEEEELb1EE8__rewrapB8ne180100ES7_S7_
FNA:2,18,_ZNSt3__118__unwrap_iter_implIPNS_3mapINS_12basic_stringIcNS_11char_traitsIcEENS_9allocatorIcEEEEdNS_4lessIS7_EENS5_INS_4pairIKS7_dEEEEEELb1EE8__rewrapB8ne180100ESF_SF_
FNA:2,0,_ZNSt3__118__unwrap_iter_implIPPN7testing17TestEventListenerELb1EE8__rewrapB8ne180100ES4_S4_
FNA:2,0,_ZNSt3__118__unwrap_iter_implIPPN7testing9TestSuiteELb1EE8__rewrapB8ne180100ES4_S4_
FNA:2,0,_ZNSt3__118__unwrap_iter_implIPPcLb1EE8__rewrapB8ne180100ES2_S2_
FNA:2,154,_ZNSt3__118__unwrap_iter_implIPcLb1EE8__rewrapB8ne180100ES1_S1_
FNA:2,477,_ZNSt3__118__unwrap_iter_implIPdLb1EE8__rewrapB8ne180100ES1_S1_
FNL:3,55,56
FNA:3,0,_ZNSt3__118__unwrap_iter_implINS_11__wrap_iterIPKNS_12basic_stringIcNS_11char_traitsIcEENS_9allocatorIcEEEEEELb1EE8__unwrapB8ne180100ESA_
FNA:3,6,_ZNSt3__118__unwrap_iter_implINS_11__wrap_iterIPKdEELb1EE8__unwrapB8ne180100ES4_
FNA:3,48,_ZNSt3__118__unwrap_iter_implINS_11__wrap_iterIPNS_12basic_stringIcNS_11char_traitsIcEENS_9allocatorIcEEEEEELb1EE8__unwrapB8ne180100ES9_
FNA:3,0,_ZNSt3__118__unwrap_iter_implINS_11__wrap_iterIPNS_4pairIN7pyfolio8DateTimeEdEEEELb1EE8__unwrapB8ne180100ES7_
FNA:3,20,_ZNSt3__118__unwrap_iter_implINS_11__wrap_iterIPdEELb1EE8__unwrapB8ne180100ES3_
FNA:3,148,_ZNSt3__118__unwrap_iter_implIPKN7pyfolio8DateTimeELb1EE8__unwrapB8ne180100ES4_
FNA:3,36,_ZNSt3__118__unwrap_iter_implIPKNS_3mapINS_12basic_stringIcNS_11char_traitsIcEENS_9allocatorIcEEEEdNS_4lessIS7_EENS5_INS_4pairIKS7_dEEEEEELb1EE8__unwrapB8ne180100ESG_
FNA:3,0,_ZNSt3__118__unwrap_iter_implIPKPKcLb1EE8__unwrapB8ne180100ES4_
FNA:3,308,_ZNSt3__118__unwrap_iter_implIPKcLb1EE8__unwrapB8ne180100ES2_
FNA:3,294,_ZNSt3__118__unwrap_iter_implIPKdLb1EE8__unwrapB8ne180100ES2_
FNA:3,674,_ZNSt3__118__unwrap_iter_implIPN7pyfolio8DateTimeELb1EE8__unwrapB8ne180100ES3_
FNA:3,0,_ZNSt3__118__unwrap_iter_implIPN7testing8internal13edit_distance8EditTypeELb1EE8__unwrapB8ne180100ES5_
FNA:3,12,_ZNSt3__118__unwrap_iter_implIPNS_12basic_stringIcNS_11char_traitsIcEENS_9allocatorIcEEEELb1EE8__unwrapB8ne180100ES7_
FNA:3,18,_ZNSt3__118__unwrap_iter_implIPNS_3mapINS_12basic_stringIcNS_11char_traitsIcEENS_9allocatorIcEEEEdNS_4lessIS7_EENS5_INS_4pairIKS7_dEEEEEELb1EE8__unwrapB8ne180100ESF_
FNA:3,0,_ZNSt3__118__unwrap_iter_implIPPN7testing17TestEventListenerELb1EE8__unwrapB8ne180100ES4_
FNA:3,0,_ZNSt3__118__unwrap_iter_implIPPN7testing9TestSuiteELb1EE8__unwrapB8ne180100ES4_
FNA:3,0,_ZNSt3__118__unwrap_iter_implIPPcLb1EE8__unwrapB8ne180100ES2_
FNA:3,154,_ZNSt3__118__unwrap_iter_implIPcLb1EE8__unwrapB8ne180100ES1_
FNA:3,804,_ZNSt3__118__unwrap_iter_implIPdLb1EE8__unwrapB8ne180100ES1_
FNL:4,64,65
FNA:4,0,_ZNSt3__113__unwrap_iterB8ne180100INS_11__wrap_iterIPKNS_12basic_stringIcNS_11char_traitsIcEENS_9allocatorIcEEEEEENS_18__unwrap_iter_implISA_Lb1EEELi0EEEDTclsrT0_8__unwrapclsr3stdE7declvalIT_EEEESE_
FNA:4,6,_ZNSt3__113__unwrap_iterB8ne180100INS_11__wrap_iterIPKdEENS_18__unwrap_iter_implIS4_Lb1EEELi0EEEDTclsrT0_8__unwrapclsr3stdE7declvalIT_EEEES8_
FNA:4,48,_ZNSt3__113__unwrap_iterB8ne180100INS_11__wrap_iterIPNS_12basic_stringIcNS_11char_traitsIcEENS_9allocatorIcEEEEEENS_18__unwrap_iter_implIS9_Lb1EEELi0EEEDTclsrT0_8__unwrapclsr3stdE7declvalIT_EEEESD_
FNA:4,0,_ZNSt3__113__unwrap_iterB8ne180100INS_11__wrap_iterIPNS_4pairIN7pyfolio8DateTimeEdEEEENS_18__unwrap_iter_implIS7_Lb1EEELi0EEEDTclsrT0_8__unwrapclsr3stdE7declvalIT_EEEESB_
FNA:4,20,_ZNSt3__113__unwrap_iterB8ne180100INS_11__wrap_iterIPdEENS_18__unwrap_iter_implIS3_Lb1EEELi0EEEDTclsrT0_8__unwrapclsr3stdE7declvalIT_EEEES7_
FNA:4,12,_ZNSt3__113__unwrap_iterB8ne180100INS_15insert_iteratorINS_13unordered_setINS_12basic_stringIcNS_11char_traitsIcEENS_9allocatorIcEEEENS_4hashIS8_EENS_8equal_toIS8_EENS6_IS8_EEEEEENS_18__unwrap_iter_implISF_Lb0EEELi0EEEDTclsrT0_8__unwrapclsr3stdE7declvalIT_EEEESJ_
FNA:4,12,_ZNSt3__113__unwrap_iterB8ne180100INS_15insert_iteratorINS_6vectorINS_12basic_stringIcNS_11char_traitsIcEENS_9allocatorIcEEEENS6_IS8_EEEEEENS_18__unwrap_iter_implISB_Lb0EEELi0EEEDTclsrT0_8__unwrapclsr3stdE7declvalIT_EEEESF_
FNA:4,3,_ZNSt3__113__unwrap_iterB8ne180100INS_16reverse_iteratorIPN7pyfolio8DateTimeEEENS_18__unwrap_iter_implIS5_Lb0EEELi0EEEDTclsrT0_8__unwrapclsr3stdE7declvalIT_EEEES9_
FNA:4,0,_ZNSt3__113__unwrap_iterB8ne180100INS_16reverse_iteratorIPN7testing8internal13edit_distance8EditTypeEEENS_18__unwrap_iter_implIS7_Lb0EEELi0EEEDTclsrT0_8__unwrapclsr3stdE7declvalIT_EEEESB_
FNA:4,0,_ZNSt3__113__unwrap_iterB8ne180100INS_16reverse_iteratorIPPN7testing11EnvironmentEEENS_18__unwrap_iter_implIS6_Lb0EEELi0EEEDTclsrT0_8__unwrapclsr3stdE7declvalIT_EEEESA_
FNA:4,12,_ZNSt3__113__unwrap_iterB8ne180100INS_16reverse_iteratorIPPN7testing17TestEventListenerEEENS_18__unwrap_iter_implIS6_Lb0EEELi0EEEDTclsrT0_8__unwrapclsr3stdE7declvalIT_EEEESA_
FNA:4,69,_ZNSt3__113__unwrap_iterB8ne180100INS_16reverse_iteratorIPPN7testing8TestInfoEEENS_18__unwrap_iter_implIS6_Lb0EEELi0EEEDTclsrT0_8__unwrapclsr3stdE7declvalIT_EEEESA_
FNA:4,12,_ZNSt3__113__unwrap_iterB8ne180100INS_16reverse_iteratorIPPN7testing9TestSuiteEEENS_18__unwrap_iter_implIS6_Lb0EEELi0EEEDTclsrT0_8__unwrapclsr3stdE7declvalIT_EEEESA_
FNA:4,0,_ZNSt3__113__unwrap_iterB8ne180100INS_16reverse_iteratorIPPcEENS_18__unwrap_iter_implIS4_Lb0EEELi0EEEDTclsrT0_8__unwrapclsr3stdE7declvalIT_EEEES8_
FNA:4,75,_ZNSt3__113__unwrap_iterB8ne180100INS_16reverse_iteratorIPdEENS_18__unwrap_iter_implIS3_Lb0EEELi0EEEDTclsrT0_8__unwrapclsr3stdE7declvalIT_EEEES7_
FNA:4,81,_ZNSt3__113__unwrap_iterB8ne180100INS_16reverse_iteratorIPiEENS_18__unwrap_iter_implIS3_Lb0EEELi0EEEDTclsrT0_8__unwrapclsr3stdE7declvalIT_EEEES7_
FNA:4,0,_ZNSt3__113__unwrap_iterB8ne180100INS_16reverse_iteratorIPmEENS_18__unwrap_iter_implIS3_Lb0EEELi0EEEDTclsrT0_8__unwrapclsr3stdE7declvalIT_EEEES7_
FNA:4,148,_ZNSt3__113__unwrap_iterB8ne180100IPKN7pyfolio8DateTimeENS_18__unwrap_iter_implIS4_Lb1EEELi0EEEDTclsrT0_8__unwrapclsr3stdE7declvalIT_EEEES8_
FNA:4,36,_ZNSt3__113__unwrap_iterB8ne180100IPKNS_3mapINS_12basic_stringIcNS_11char_traitsIcEENS_9allocatorIcEEEEdNS_4lessIS7_EENS5_INS_4pairIKS7_dEEEEEENS_18__unwrap_iter_implISG_Lb1EEELi0EEEDTclsrT0_8__unwrapclsr3stdE7declvalIT_EEEESK_
FNA:4,0,_ZNSt3__113__unwrap_iterB8ne180100IPKPKcNS_18__unwrap_iter_implIS4_Lb1EEELi0EEEDTclsrT0_8__unwrapclsr3stdE7declvalIT_EEEES8_
FNA:4,308,_ZNSt3__113__unwrap_iterB8ne180100IPKcNS_18__unwrap_iter_implIS2_Lb1EEELi0EEEDTclsrT0_8__unwrapclsr3stdE7declvalIT_EEEES6_
FNA:4,294,_ZNSt3__113__unwrap_iterB8ne180100IPKdNS_18__unwrap_iter_implIS2_Lb1EEELi0EEEDTclsrT0_8__unwrapclsr3stdE7declvalIT_EEEES6_
FNA:4,674,_ZNSt3__113__unwrap_iterB8ne180100IPN7pyfolio8DateTimeENS_18__unwrap_iter_implIS3_Lb1EEELi0EEEDTclsrT0_8__unwrapclsr3stdE7declvalIT_EEEES7_
FNA:4,0,_ZNSt3__113__unwrap_iterB8ne180100IPN7testing8internal13edit_distance8EditTypeENS_18__unwrap_iter_implIS5_Lb1EEELi0EEEDTclsrT0_8__unwrapclsr3stdE7declvalIT_EEEES9_
FNA:4,12,_ZNSt3__113__unwrap_iterB8ne180100IPNS_12basic_stringIcNS_11char_traitsIcEENS_9allocatorIcEEEENS_18__unwrap_iter_implIS7_Lb1EEELi0EEEDTclsrT0_8__unwrapclsr3stdE7declvalIT_EEEESB_
FNA:4,18,_ZNSt3__113__unwrap_iterB8ne180100IPNS_3mapINS_12basic_stringIcNS_11char_traitsIcEENS_9allocatorIcEEEEdNS_4lessIS7_EENS5_INS_4pairIKS7_dEEEEEENS_18__unwrap_iter_implISF_Lb1EEELi0EEEDTclsrT0_8__unwrapclsr3stdE7declvalIT_EEEESJ_
FNA:4,0,_ZNSt3__113__unwrap_iterB8ne180100IPPN7testing17TestEventListenerENS_18__unwrap_iter_implIS4_Lb1EEELi0EEEDTclsrT0_8__unwrapclsr3stdE7declvalIT_EEEES8_
FNA:4,0,_ZNSt3__113__unwrap_iterB8ne180100IPPN7testing9TestSuiteENS_18__unwrap_iter_implIS4_Lb1EEELi0EEEDTclsrT0_8__unwrapclsr3stdE7declvalIT_EEEES8_
FNA:4,0,_ZNSt3__113__unwrap_iterB8ne180100IPPcNS_18__unwrap_iter_implIS2_Lb1EEELi0EEEDTclsrT0_8__unwrapclsr3stdE7declvalIT_EEEES6_
FNA:4,154,_ZNSt3__113__unwrap_iterB8ne180100IPcNS_18__unwrap_iter_implIS1_Lb1EEELi0EEEDTclsrT0_8__unwrapclsr3stdE7declvalIT_EEEES5_
FNA:4,804,_ZNSt3__113__unwrap_iterB8ne180100IPdNS_18__unwrap_iter_implIS1_Lb1EEELi0EEEDTclsrT0_8__unwrapclsr3stdE7declvalIT_EEEES5_
FNL:5,77,78
FNA:5,0,_ZNSt3__113__rewrap_iterB8ne180100INS_11__wrap_iterIPKNS_12basic_stringIcNS_11char_traitsIcEENS_9allocatorIcEEEEEES9_NS_18__unwrap_iter_implISA_Lb1EEEEET_SD_T0_
FNA:5,24,_ZNSt3__113__rewrap_iterB8ne180100INS_11__wrap_iterIPNS_12basic_stringIcNS_11char_traitsIcEENS_9allocatorIcEEEEEES8_NS_18__unwrap_iter_implIS9_Lb1EEEEET_SC_T0_
FNA:5,12,_ZNSt3__113__rewrap_iterB8ne180100INS_15insert_iteratorINS_13unordered_setINS_12basic_stringIcNS_11char_traitsIcEENS_9allocatorIcEEEENS_4hashIS8_EENS_8equal_toIS8_EENS6_IS8_EEEEEESF_NS_18__unwrap_iter_implISF_Lb0EEEEET_SI_T0_
FNA:5,12,_ZNSt3__113__rewrap_iterB8ne180100INS_15insert_iteratorINS_6vectorINS_12basic_stringIcNS_11char_traitsIcEENS_9allocatorIcEEEENS6_IS8_EEEEEESB_NS_18__unwrap_iter_implISB_Lb0EEEEET_SE_T0_
FNA:5,2,_ZNSt3__113__rewrap_iterB8ne180100INS_16reverse_iteratorIPN7pyfolio8DateTimeEEES5_NS_18__unwrap_iter_implIS5_Lb0EEEEET_S8_T0_
FNA:5,0,_ZNSt3__113__rewrap_iterB8ne180100INS_16reverse_iteratorIPN7testing8internal13edit_distance8EditTypeEEES7_NS_18__unwrap_iter_implIS7_Lb0EEEEET_SA_T0_
FNA:5,0,_ZNSt3__113__rewrap_iterB8ne180100INS_16reverse_iteratorIPPN7testing11EnvironmentEEES6_NS_18__unwrap_iter_implIS6_Lb0EEEEET_S9_T0_
FNA:5,8,_ZNSt3__113__rewrap_iterB8ne180100INS_16reverse_iteratorIPPN7testing17TestEventListenerEEES6_NS_18__unwrap_iter_implIS6_Lb0EEEEET_S9_T0_
FNA:5,46,_ZNSt3__113__rewrap_iterB8ne180100INS_16reverse_iteratorIPPN7testing8TestInfoEEES6_NS_18__unwrap_iter_implIS6_Lb0EEEEET_S9_T0_
FNA:5,8,_ZNSt3__113__rewrap_iterB8ne180100INS_16reverse_iteratorIPPN7testing9TestSuiteEEES6_NS_18__unwrap_iter_implIS6_Lb0EEEEET_S9_T0_
FNA:5,0,_ZNSt3__113__rewrap_iterB8ne180100INS_16reverse_iteratorIPPcEES4_NS_18__unwrap_iter_implIS4_Lb0EEEEET_S7_T0_
FNA:5,50,_ZNSt3__113__rewrap_iterB8ne180100INS_16reverse_iteratorIPdEES3_NS_18__unwrap_iter_implIS3_Lb0EEEEET_S6_T0_
FNA:5,54,_ZNSt3__113__rewrap_iterB8ne180100INS_16reverse_iteratorIPiEES3_NS_18__unwrap_iter_implIS3_Lb0EEEEET_S6_T0_
FNA:5,0,_ZNSt3__113__rewrap_iterB8ne180100INS_16reverse_iteratorIPmEES3_NS_18__unwrap_iter_implIS3_Lb0EEEEET_S6_T0_
FNA:5,37,_ZNSt3__113__rewrap_iterB8ne180100IPKN7pyfolio8DateTimeES4_NS_18__unwrap_iter_implIS4_Lb1EEEEET_S7_T0_
FNA:5,0,_ZNSt3__113__rewrap_iterB8ne180100IPKNS_3mapINS_12basic_stringIcNS_11char_traitsIcEENS_9allocatorIcEEEEdNS_4lessIS7_EENS5_INS_4pairIKS7_dEEEEEESG_NS_18__unwrap_iter_implISG_Lb1EEEEET_SJ_T0_
FNA:5,154,_ZNSt3__113__rewrap_iterB8ne180100IPKcS2_NS_18__unwrap_iter_implIS2_Lb1EEEEET_S5_T0_
FNA:5,75,_ZNSt3__113__rewrap_iterB8ne180100IPKdS2_NS_18__unwrap_iter_implIS2_Lb1EEEEET_S5_T0_
FNA:5,374,_ZNSt3__113__rewrap_iterB8ne180100IPN7pyfolio8DateTimeES3_NS_18__unwrap_iter_implIS3_Lb1EEEEET_S6_T0_
FNA:5,0,_ZNSt3__113__rewrap_iterB8ne180100IPN7testing8internal13edit_distance8EditTypeES5_NS_18__unwrap_iter_implIS5_Lb1EEEEET_S8_T0_
FNA:5,4,_ZNSt3__113__rewrap_iterB8ne180100IPNS_12basic_stringIcNS_11char_traitsIcEENS_9allocatorIcEEEES7_NS_18__unwrap_iter_implIS7_Lb1EEEEET_SA_T0_
FNA:5,18,_ZNSt3__113__rewrap_iterB8ne180100IPNS_3mapINS_12basic_stringIcNS_11char_traitsIcEENS_9allocatorIcEEEEdNS_4lessIS7_EENS5_INS_4pairIKS7_dEEEEEESF_NS_18__unwrap_iter_implISF_Lb1EEEEET_SI_T0_
FNA:5,0,_ZNSt3__113__rewrap_iterB8ne180100IPPN7testing17TestEventListenerES4_NS_18__unwrap_iter_implIS4_Lb1EEEEET_S7_T0_
FNA:5,0,_ZNSt3__113__rewrap_iterB8ne180100IPPN7testing9TestSuiteES4_NS_18__unwrap_iter_implIS4_Lb1EEEEET_S7_T0_
FNA:5,0,_ZNSt3__113__rewrap_iterB8ne180100IPPcS2_NS_18__unwrap_iter_implIS2_Lb1EEEEET_S5_T0_
FNA:5,154,_ZNSt3__113__rewrap_iterB8ne180100IPcS1_NS_18__unwrap_iter_implIS1_Lb1EEEEET_S4_T0_
FNA:5,477,_ZNSt3__113__rewrap_iterB8ne180100IPdS1_NS_18__unwrap_iter_implIS1_Lb1EEEEET_S4_T0_
FNF:6
FNH:6
DA:39,192
DA:40,276
DA:51,1317
DA:52,1317
DA:55,2522
DA:56,2522
DA:64,2798
DA:65,2798
DA:77,1509
DA:78,1509
LF:10
LH:10
end_of_record
TN:
SF:/Library/Developer/CommandLineTools/SDKs/MacOSX.sdk/usr/include/c++/v1/__algorithm/unwrap_range.h
FNL:0,64,65
FNA:0,0,_ZNSt3__119__unwrap_range_implINS_11__wrap_iterIPKNS_12basic_stringIcNS_11char_traitsIcEENS_9allocatorIcEEEEEESA_E8__unwrapB8ne180100ESA_SA_
FNA:0,3,_ZNSt3__119__unwrap_range_implINS_11__wrap_iterIPKdEES4_E8__unwrapB8ne180100ES4_S4_
FNA:0,24,_ZNSt3__119__unwrap_range_implINS_11__wrap_iterIPNS_12basic_stringIcNS_11char_traitsIcEENS_9allocatorIcEEEEEES9_E8__unwrapB8ne180100ES9_S9_
FNA:0,1,_ZNSt3__119__unwrap_range_implINS_16reverse_iteratorIPN7pyfolio8DateTimeEEES5_E8__unwrapB8ne180100ES5_S5_
FNA:0,0,_ZNSt3__119__unwrap_range_implINS_16reverse_iteratorIPN7testing8internal13edit_distance8EditTypeEEES7_E8__unwrapB8ne180100ES7_S7_
FNA:0,0,_ZNSt3__119__unwrap_range_implINS_16reverse_iteratorIPPN7testing11EnvironmentEEES6_E8__unwrapB8ne180100ES6_S6_
FNA:0,4,_ZNSt3__119__unwrap_range_implINS_16reverse_iteratorIPPN7testing17TestEventListenerEEES6_E8__unwrapB8ne180100ES6_S6_
FNA:0,23,_ZNSt3__119__unwrap_range_implINS_16reverse_iteratorIPPN7testing8TestInfoEEES6_E8__unwrapB8ne180100ES6_S6_
FNA:0,4,_ZNSt3__119__unwrap_range_implINS_16reverse_iteratorIPPN7testing9TestSuiteEEES6_E8__unwrapB8ne180100ES6_S6_
FNA:0,0,_ZNSt3__119__unwrap_range_implINS_16reverse_iteratorIPPcEES4_E8__unwrapB8ne180100ES4_S4_
FNA:0,25,_ZNSt3__119__unwrap_range_implINS_16reverse_iteratorIPdEES3_E8__unwrapB8ne180100ES3_S3_
FNA:0,27,_ZNSt3__119__unwrap_range_implINS_16reverse_iteratorIPiEES3_E8__unwrapB8ne180100ES3_S3_
FNA:0,0,_ZNSt3__119__unwrap_range_implINS_16reverse_iteratorIPmEES3_E8__unwrapB8ne180100ES3_S3_
FNA:0,74,_ZNSt3__119__unwrap_range_implIPKN7pyfolio8DateTimeES4_E8__unwrapB8ne180100ES4_S4_
FNA:0,18,_ZNSt3__119__unwrap_range_implIPKNS_3mapINS_12basic_stringIcNS_11char_traitsIcEENS_9allocatorIcEEEEdNS_4lessIS7_EENS5_INS_4pairIKS7_dEEEEEESG_E8__unwrapB8ne180100ESG_SG_
FNA:0,0,_ZNSt3__119__unwrap_range_implIPKPKcS4_E8__unwrapB8ne180100ES4_S4_
FNA:0,154,_ZNSt3__119__unwrap_range_implIPKcS2_E8__unwrapB8ne180100ES2_S2_
FNA:0,147,_ZNSt3__119__unwrap_range_implIPKdS2_E8__unwrapB8ne180100ES2_S2_
FNA:0,200,_ZNSt3__119__unwrap_range_implIPN7pyfolio8DateTimeES3_E8__unwrapB8ne180100ES3_S3_
FNA:0,0,_ZNSt3__119__unwrap_range_implIPN7testing8internal13edit_distance8EditTypeES5_E8__unwrapB8ne180100ES5_S5_
FNA:0,4,_ZNSt3__119__unwrap_range_implIPNS_12basic_stringIcNS_11char_traitsIcEENS_9allocatorIcEEEES7_E8__unwrapB8ne180100ES7_S7_
FNA:0,0,_ZNSt3__119__unwrap_range_implIPPN7testing17TestEventListenerES4_E8__unwrapB8ne180100ES4_S4_
FNA:0,0,_ZNSt3__119__unwrap_range_implIPPN7testing9TestSuiteES4_E8__unwrapB8ne180100ES4_S4_
FNA:0,0,_ZNSt3__119__unwrap_range_implIPPcS2_E8__unwrapB8ne180100ES2_S2_
FNA:0,218,_ZNSt3__119__unwrap_range_implIPdS1_E8__unwrapB8ne180100ES1_S1_
FNL:1,69,70
FNA:1,24,_ZNSt3__119__unwrap_range_implINS_11__wrap_iterIPNS_12basic_stringIcNS_11char_traitsIcEENS_9allocatorIcEEEEEES9_E8__rewrapB8ne180100ES9_S8_
FNA:1,1,_ZNSt3__119__unwrap_range_implINS_16reverse_iteratorIPN7pyfolio8DateTimeEEES5_E8__rewrapB8ne180100ES5_S5_
FNA:1,0,_ZNSt3__119__unwrap_range_implINS_16reverse_iteratorIPN7testing8internal13edit_distance8EditTypeEEES7_E8__rewrapB8ne180100ES7_S7_
FNA:1,0,_ZNSt3__119__unwrap_range_implINS_16reverse_iteratorIPPN7testing11EnvironmentEEES6_E8__rewrapB8ne180100ES6_S6_
FNA:1,4,_ZNSt3__119__unwrap_range_implINS_16reverse_iteratorIPPN7testing17TestEventListenerEEES6_E8__rewrapB8ne180100ES6_S6_
FNA:1,23,_ZNSt3__119__unwrap_range_implINS_16reverse_iteratorIPPN7testing8TestInfoEEES6_E8__rewrapB8ne180100ES6_S6_
FNA:1,4,_ZNSt3__119__unwrap_range_implINS_16reverse_iteratorIPPN7testing9TestSuiteEEES6_E8__rewrapB8ne180100ES6_S6_
FNA:1,0,_ZNSt3__119__unwrap_range_implINS_16reverse_iteratorIPPcEES4_E8__rewrapB8ne180100ES4_S4_
FNA:1,25,_ZNSt3__119__unwrap_range_implINS_16reverse_iteratorIPdEES3_E8__rewrapB8ne180100ES3_S3_
FNA:1,27,_ZNSt3__119__unwrap_range_implINS_16reverse_iteratorIPiEES3_E8__rewrapB8ne180100ES3_S3_
FNA:1,0,_ZNSt3__119__unwrap_range_implINS_16reverse_iteratorIPmEES3_E8__rewrapB8ne180100ES3_S3_
FNA:1,37,_ZNSt3__119__unwrap_range_implIPKN7pyfolio8DateTimeES4_E8__rewrapB8ne180100ES4_S4_
FNA:1,0,_ZNSt3__119__unwrap_range_implIPKNS_3mapINS_12basic_stringIcNS_11char_traitsIcEENS_9allocatorIcEEEEdNS_4lessIS7_EENS5_INS_4pairIKS7_dEEEEEESG_E8__rewrapB8ne180100ESG_SG_
FNA:1,154,_ZNSt3__119__unwrap_range_implIPKcS2_E8__rewrapB8ne180100ES2_S2_
FNA:1,75,_ZNSt3__119__unwrap_range_implIPKdS2_E8__rewrapB8ne180100ES2_S2_
FNA:1,100,_ZNSt3__119__unwrap_range_implIPN7pyfolio8DateTimeES3_E8__rewrapB8ne180100ES3_S3_
FNA:1,0,_ZNSt3__119__unwrap_range_implIPN7testing8internal13edit_distance8EditTypeES5_E8__rewrapB8ne180100ES5_S5_
FNA:1,0,_ZNSt3__119__unwrap_range_implIPNS_12basic_stringIcNS_11char_traitsIcEENS_9allocatorIcEEEES7_E8__rewrapB8ne180100ES7_S7_
FNA:1,0,_ZNSt3__119__unwrap_range_implIPPN7testing17TestEventListenerES4_E8__rewrapB8ne180100ES4_S4_
FNA:1,0,_ZNSt3__119__unwrap_range_implIPPN7testing9TestSuiteES4_E8__rewrapB8ne180100ES4_S4_
FNA:1,0,_ZNSt3__119__unwrap_range_implIPPcS2_E8__rewrapB8ne180100ES2_S2_
FNA:1,109,_ZNSt3__119__unwrap_range_implIPdS1_E8__rewrapB8ne180100ES1_S1_
FNL:2,75,76
FNA:2,0,_ZNSt3__114__unwrap_rangeB8ne180100INS_11__wrap_iterIPKNS_12basic_stringIcNS_11char_traitsIcEENS_9allocatorIcEEEEEESA_EEDaT_T0_
FNA:2,3,_ZNSt3__114__unwrap_rangeB8ne180100INS_11__wrap_iterIPKdEES4_EEDaT_T0_
FNA:2,24,_ZNSt3__114__unwrap_rangeB8ne180100INS_11__wrap_iterIPNS_12basic_stringIcNS_11char_traitsIcEENS_9allocatorIcEEEEEES9_EEDaT_T0_
FNA:2,1,_ZNSt3__114__unwrap_rangeB8ne180100INS_16reverse_iteratorIPN7pyfolio8DateTimeEEES5_EEDaT_T0_
FNA:2,0,_ZNSt3__114__unwrap_rangeB8ne180100INS_16reverse_iteratorIPN7testing8internal13edit_distance8EditTypeEEES7_EEDaT_T0_
FNA:2,0,_ZNSt3__114__unwrap_rangeB8ne180100INS_16reverse_iteratorIPPN7testing11EnvironmentEEES6_EEDaT_T0_
FNA:2,4,_ZNSt3__114__unwrap_rangeB8ne180100INS_16reverse_iteratorIPPN7testing17TestEventListenerEEES6_EEDaT_T0_
FNA:2,23,_ZNSt3__114__unwrap_rangeB8ne180100INS_16reverse_iteratorIPPN7testing8TestInfoEEES6_EEDaT_T0_
FNA:2,4,_ZNSt3__114__unwrap_rangeB8ne180100INS_16reverse_iteratorIPPN7testing9TestSuiteEEES6_EEDaT_T0_
FNA:2,0,_ZNSt3__114__unwrap_rangeB8ne180100INS_16reverse_iteratorIPPcEES4_EEDaT_T0_
FNA:2,25,_ZNSt3__114__unwrap_rangeB8ne180100INS_16reverse_iteratorIPdEES3_EEDaT_T0_
FNA:2,27,_ZNSt3__114__unwrap_rangeB8ne180100INS_16reverse_iteratorIPiEES3_EEDaT_T0_
FNA:2,0,_ZNSt3__114__unwrap_rangeB8ne180100INS_16reverse_iteratorIPmEES3_EEDaT_T0_
FNA:2,74,_ZNSt3__114__unwrap_rangeB8ne180100IPKN7pyfolio8DateTimeES4_EEDaT_T0_
FNA:2,18,_ZNSt3__114__unwrap_rangeB8ne180100IPKNS_3mapINS_12basic_stringIcNS_11char_traitsIcEENS_9allocatorIcEEEEdNS_4lessIS7_EENS5_INS_4pairIKS7_dEEEEEESG_EEDaT_T0_
FNA:2,0,_ZNSt3__114__unwrap_rangeB8ne180100IPKPKcS4_EEDaT_T0_
FNA:2,154,_ZNSt3__114__unwrap_rangeB8ne180100IPKcS2_EEDaT_T0_
FNA:2,147,_ZNSt3__114__unwrap_rangeB8ne180100IPKdS2_EEDaT_T0_
FNA:2,200,_ZNSt3__114__unwrap_rangeB8ne180100IPN7pyfolio8DateTimeES3_EEDaT_T0_
FNA:2,0,_ZNSt3__114__unwrap_rangeB8ne180100IPN7testing8internal13edit_distance8EditTypeES5_EEDaT_T0_
FNA:2,4,_ZNSt3__114__unwrap_rangeB8ne180100IPNS_12basic_stringIcNS_11char_traitsIcEENS_9allocatorIcEEEES7_EEDaT_T0_
FNA:2,0,_ZNSt3__114__unwrap_rangeB8ne180100IPPN7testing17TestEventListenerES4_EEDaT_T0_
FNA:2,0,_ZNSt3__114__unwrap_rangeB8ne180100IPPN7testing9TestSuiteES4_EEDaT_T0_
FNA:2,0,_ZNSt3__114__unwrap_rangeB8ne180100IPPcS2_EEDaT_T0_
FNA:2,218,_ZNSt3__114__unwrap_rangeB8ne180100IPdS1_EEDaT_T0_
FNL:3,80,81
FNA:3,24,_ZNSt3__114__rewrap_rangeB8ne180100INS_11__wrap_iterIPNS_12basic_stringIcNS_11char_traitsIcEENS_9allocatorIcEEEEEES9_S8_EET0_SA_T1_
FNA:3,1,_ZNSt3__114__rewrap_rangeB8ne180100INS_16reverse_iteratorIPN7pyfolio8DateTimeEEES5_S5_EET0_S6_T1_
FNA:3,0,_ZNSt3__114__rewrap_rangeB8ne180100INS_16reverse_iteratorIPN7testing8internal13edit_distance8EditTypeEEES7_S7_EET0_S8_T1_
FNA:3,0,_ZNSt3__114__rewrap_rangeB8ne180100INS_16reverse_iteratorIPPN7testing11EnvironmentEEES6_S6_EET0_S7_T1_
FNA:3,4,_ZNSt3__114__rewrap_rangeB8ne180100INS_16reverse_iteratorIPPN7testing17TestEventListenerEEES6_S6_EET0_S7_T1_
FNA:3,23,_ZNSt3__114__rewrap_rangeB8ne180100INS_16reverse_iteratorIPPN7testing8TestInfoEEES6_S6_EET0_S7_T1_
FNA:3,4,_ZNSt3__114__rewrap_rangeB8ne180100INS_16reverse_iteratorIPPN7testing9TestSuiteEEES6_S6_EET0_S7_T1_
FNA:3,0,_ZNSt3__114__rewrap_rangeB8ne180100INS_16reverse_iteratorIPPcEES4_S4_EET0_S5_T1_
FNA:3,25,_ZNSt3__114__rewrap_rangeB8ne180100INS_16reverse_iteratorIPdEES3_S3_EET0_S4_T1_
FNA:3,27,_ZNSt3__114__rewrap_rangeB8ne180100INS_16reverse_iteratorIPiEES3_S3_EET0_S4_T1_
FNA:3,0,_ZNSt3__114__rewrap_rangeB8ne180100INS_16reverse_iteratorIPmEES3_S3_EET0_S4_T1_
FNA:3,37,_ZNSt3__114__rewrap_rangeB8ne180100IPKN7pyfolio8DateTimeES4_S4_EET0_S5_T1_
FNA:3,0,_ZNSt3__114__rewrap_rangeB8ne180100IPKNS_3mapINS_12basic_stringIcNS_11char_traitsIcEENS_9allocatorIcEEEEdNS_4lessIS7_EENS5_INS_4pairIKS7_dEEEEEESG_SG_EET0_SH_T1_
FNA:3,154,_ZNSt3__114__rewrap_rangeB8ne180100IPKcS2_S2_EET0_S3_T1_
FNA:3,75,_ZNSt3__114__rewrap_rangeB8ne180100IPKdS2_S2_EET0_S3_T1_
FNA:3,100,_ZNSt3__114__rewrap_rangeB8ne180100IPN7pyfolio8DateTimeES3_S3_EET0_S4_T1_
FNA:3,0,_ZNSt3__114__rewrap_rangeB8ne180100IPN7testing8internal13edit_distance8EditTypeES5_S5_EET0_S6_T1_
FNA:3,0,_ZNSt3__114__rewrap_rangeB8ne180100IPNS_12basic_stringIcNS_11char_traitsIcEENS_9allocatorIcEEEES7_S7_EET0_S8_T1_
FNA:3,0,_ZNSt3__114__rewrap_rangeB8ne180100IPPN7testing17TestEventListenerES4_S4_EET0_S5_T1_
FNA:3,0,_ZNSt3__114__rewrap_rangeB8ne180100IPPN7testing9TestSuiteES4_S4_EET0_S5_T1_
FNA:3,0,_ZNSt3__114__rewrap_rangeB8ne180100IPPcS2_S2_EET0_S3_T1_
FNA:3,109,_ZNSt3__114__rewrap_rangeB8ne180100IPdS1_S1_EET0_S2_T1_
FNF:4
FNH:4
DA:64,926
DA:65,926
DA:69,583
DA:70,583
DA:75,926
DA:76,926
DA:80,583
DA:81,583
LF:8
LH:8
end_of_record
TN:
SF:/Library/Developer/CommandLineTools/SDKs/MacOSX.sdk/usr/include/c++/v1/__atomic/atomic.h
FNL:0,47,47
FNA:0,1,_ZNSt3__16atomicIiEC1B8ne180100Ei
FNA:0,1,_ZNSt3__16atomicIiEC2B8ne180100Ei
FNF:1
FNH:1
DA:47,2
LF:1
LH:1
end_of_record
TN:
SF:/Library/Developer/CommandLineTools/SDKs/MacOSX.sdk/usr/include/c++/v1/__atomic/atomic_base.h
FNL:0,132,132
FNA:0,1,_ZNSt3__113__atomic_baseIiLb0EEC2B8ne180100Ei
FNL:1,150,150
FNA:1,1,_ZNSt3__113__atomic_baseIiLb1EEC2B8ne180100Ei
FNL:2,155,156
FNA:2,10,_ZNSt3__113__atomic_baseIiLb1EE9fetch_addB8ne180100EiNS_12memory_orderE
FNL:3,161,162
FNA:3,0,_ZNSt3__113__atomic_baseIiLb1EE9fetch_subB8ne180100EiNS_12memory_orderE
FNL:4,58,60
FNA:4,1,_ZNKSt3__113__atomic_baseIiLb0EE4loadB8ne180100ENS_12memory_orderE
FNF:5
FNH:4
DA:58,1
DA:60,1
DA:132,1
DA:150,1
DA:155,10
DA:156,10
DA:161,0
DA:162,0
LF:8
LH:6
end_of_record
TN:
SF:/Library/Developer/CommandLineTools/SDKs/MacOSX.sdk/usr/include/c++/v1/__atomic/cxx_atomic_impl.h
FNL:0,305,305
FNA:0,1,_ZNSt3__122__cxx_atomic_base_implIiEC2Ei
FNL:1,347,350
FNA:1,1,_ZNSt3__117__cxx_atomic_loadB8ne180100IiEET_PKNS_22__cxx_atomic_base_implIS1_EENS_12memory_orderE
FNL:2,448,450
FNA:2,10,_ZNSt3__122__cxx_atomic_fetch_addB8ne180100IiEET_PNS_22__cxx_atomic_base_implIS1_EES1_NS_12memory_orderE
FNL:3,474,476
FNA:3,0,_ZNSt3__122__cxx_atomic_fetch_subB8ne180100IiEET_PNS_22__cxx_atomic_base_implIS1_EES1_NS_12memory_orderE
FNL:4,819,819
FNA:4,1,_ZNSt3__117__cxx_atomic_implIiNS_22__cxx_atomic_base_implIiEEEC1B8ne180100Ei
FNA:4,1,_ZNSt3__117__cxx_atomic_implIiNS_22__cxx_atomic_base_implIiEEEC2B8ne180100Ei
FNF:5
FNH:4
DA:305,1
DA:347,1
DA:349,1
DA:350,1
DA:448,10
DA:449,10
DA:450,10
DA:474,0
DA:475,0
DA:476,0
DA:819,2
LF:11
LH:8
end_of_record
TN:
SF:/Library/Developer/CommandLineTools/SDKs/MacOSX.sdk/usr/include/c++/v1/__bit/blsr.h
FNL:0,28,29
FNA:0,0,_ZNSt3__113__libcpp_blsrB8ne180100Ey
FNF:1
FNH:0
DA:28,0
DA:29,0
LF:2
LH:0
end_of_record
TN:
SF:/Library/Developer/CommandLineTools/SDKs/MacOSX.sdk/usr/include/c++/v1/__bit/countl.h
FNL:0,31,32
FNA:0,0,_ZNSt3__112__libcpp_clzB8ne180100Em
FNL:1,35,36
FNA:1,0,_ZNSt3__112__libcpp_clzB8ne180100Ey
FNF:2
FNH:0
DA:31,0
DA:32,0
DA:35,0
DA:36,0
LF:4
LH:0
end_of_record
TN:
SF:/Library/Developer/CommandLineTools/SDKs/MacOSX.sdk/usr/include/c++/v1/__bit/countr.h
FNL:0,34,35
FNA:0,0,_ZNSt3__112__libcpp_ctzB8ne180100Ey
FNF:1
FNH:0
DA:34,0
DA:35,0
LF:2
LH:0
end_of_record
TN:
SF:/Library/Developer/CommandLineTools/SDKs/MacOSX.sdk/usr/include/c++/v1/__chrono/day.h
FNL:0,33,34
FNA:0,797,_ZNSt3__16chrono3dayC1B8ne180100Ej
FNA:0,797,_ZNSt3__16chrono3dayC2B8ne180100Ej
FNL:1,55,55
FNA:1,1875,_ZNKSt3__16chrono3daycvjB8ne180100Ev
FNL:2,63,64
FNA:2,742,_ZNSt3__16chronossB8ne180100ERKNS0_3dayES3_
FNF:3
FNH:3
DA:33,1594
DA:34,1594
DA:55,1875
DA:63,742
DA:64,742
LF:5
LH:5
end_of_record
TN:
SF:/Library/Developer/CommandLineTools/SDKs/MacOSX.sdk/usr/include/c++/v1/__chrono/duration.h
FNL:0,106,107
FNA:0,32,_ZNSt3__16chrono13duration_castB8ne180100INS0_8durationIiNS_5ratioILl86400ELl1EEEEExNS3_ILl1ELl1000000EEELi0EEET_RKNS2_IT0_T1_EE
FNA:0,383,_ZNSt3__16chrono13duration_castB8ne180100INS0_8durationIxNS_5ratioILl1ELl1000000EEEEEiNS3_ILl86400ELl1EEELi0EEET_RKNS2_IT0_T1_EE
FNA:0,1,_ZNSt3__16chrono13duration_castB8ne180100INS0_8durationIxNS_5ratioILl1ELl1000000EEEEExNS3_ILl1ELl1000000000EEELi0EEET_RKNS2_IT0_T1_EE
FNA:0,71,_ZNSt3__16chrono13duration_castB8ne180100INS0_8durationIxNS_5ratioILl1ELl1000EEEEExNS3_ILl1ELl1000000000EEELi0EEET_RKNS2_IT0_T1_EE
FNA:0,75,_ZNSt3__16chrono13duration_castB8ne180100INS0_8durationIxNS_5ratioILl1ELl1000EEEEExNS3_ILl1ELl1000000EEELi0EEET_RKNS2_IT0_T1_EE
FNL:1,128,132
FNA:1,32,_ZNSt3__16chrono5floorB8ne180100INS0_8durationIiNS_5ratioILl86400ELl1EEEEExNS3_ILl1ELl1000000EEELi0EEET_RKNS2_IT0_T1_EE
FNL:2,210,210
FNA:2,444,_ZNSt3__16chrono8durationIiNS_5ratioILl86400ELl1EEEEC1B8ne180100IiLi0EEERKT_
FNA:2,444,_ZNSt3__16chrono8durationIiNS_5ratioILl86400ELl1EEEEC2B8ne180100IiLi0EEERKT_
FNA:2,72,_ZNSt3__16chrono8durationIxNS_5ratioILl1ELl1000000000EEEEC1B8ne180100IxLi0EEERKT_
FNA:2,72,_ZNSt3__16chrono8durationIxNS_5ratioILl1ELl1000000000EEEEC2B8ne180100IxLi0EEERKT_
FNA:2,461,_ZNSt3__16chrono8durationIxNS_5ratioILl1ELl1000000EEEEC1B8ne180100IxLi0EEERKT_
FNA:2,461,_ZNSt3__16chrono8durationIxNS_5ratioILl1ELl1000000EEEEC2B8ne180100IxLi0EEERKT_
FNA:2,146,_ZNSt3__16chrono8durationIxNS_5ratioILl1ELl1000EEEEC1B8ne180100IxLi0EEERKT_
FNA:2,146,_ZNSt3__16chrono8durationIxNS_5ratioILl1ELl1000EEEEC2B8ne180100IxLi0EEERKT_
FNL:3,219,220
FNA:3,383,_ZNSt3__16chrono8durationIxNS_5ratioILl1ELl1000000EEEEC1B8ne180100IiNS2_ILl86400ELl1EEELi0EEERKNS1_IT_T0_EE
FNA:3,383,_ZNSt3__16chrono8durationIxNS_5ratioILl1ELl1000000EEEEC2B8ne180100IiNS2_ILl86400ELl1EEELi0EEERKNS1_IT_T0_EE
FNL:4,224,224
FNA:4,476,_ZNKSt3__16chrono8durationIiNS_5ratioILl86400ELl1EEEE5countB8ne180100Ev
FNA:4,216,_ZNKSt3__16chrono8durationIxNS_5ratioILl1ELl1000000000EEEE5countB8ne180100Ev
FNA:4,1975,_ZNKSt3__16chrono8durationIxNS_5ratioILl1ELl1000000EEEE5countB8ne180100Ev
FNA:4,146,_ZNKSt3__16chrono8durationIxNS_5ratioILl1ELl1000EEEE5countB8ne180100Ev
FNL:5,308,309
FNA:5,2,_ZNKSt3__16chrono13__duration_eqINS0_8durationIxNS_5ratioILl1ELl1000000EEEEES5_EclB8ne180100ERKS5_S8_
FNL:6,315,316
FNA:6,2,_ZNSt3__16chronoeqB8ne180100IxNS_5ratioILl1ELl1000000EEExS3_EEbRKNS0_8durationIT_T0_EERKNS4_IT1_T2_EE
FNL:7,383,385
FNA:7,32,_ZNSt3__16chronossB8ne180100IiNS_5ratioILl86400ELl1EEExNS2_ILl1ELl1000000EEEEEDaRKNS0_8durationIT_T0_EERKNS6_IT1_T2_EE
FNA:7,631,_ZNSt3__16chronossB8ne180100IxNS_5ratioILl1ELl1000000EEExS3_EEDaRKNS0_8durationIT_T0_EERKNS5_IT1_T2_EE
FNL:8,395,397
FNA:8,13,_ZNSt3__16chronoplB8ne180100IiNS_5ratioILl86400ELl1EEEiS3_EENS_11common_typeIJNS0_8durationIT_T0_EENS5_IT1_T2_EEEE4typeERKS8_RKSB_
FNA:8,2,_ZNSt3__16chronoplB8ne180100IxNS_5ratioILl1ELl1000000EEEiNS2_ILl86400ELl1EEEEENS_11common_typeIJNS0_8durationIT_T0_EENS6_IT1_T2_EEEE4typeERKS9_RKSC_
FNL:9,405,407
FNA:9,1,_ZNSt3__16chronomiB8ne180100IiNS_5ratioILl86400ELl1EEEiS3_EENS_11common_typeIJNS0_8durationIT_T0_EENS5_IT1_T2_EEEE4typeERKS8_RKSB_
FNA:9,72,_ZNSt3__16chronomiB8ne180100IxNS_5ratioILl1ELl1000000000EEExS3_EENS_11common_typeIJNS0_8durationIT_T0_EENS5_IT1_T2_EEEE4typeERKS8_RKSB_
FNA:9,75,_ZNSt3__16chronomiB8ne180100IxNS_5ratioILl1ELl1000000EEExS3_EENS_11common_typeIJNS0_8durationIT_T0_EENS5_IT1_T2_EEEE4typeERKS8_RKSB_
FNL:10,80,83
FNA:10,1,_ZNKSt3__16chrono15__duration_castINS0_8durationIxNS_5ratioILl1ELl1000000000EEEEENS2_IxNS3_ILl1ELl1000000EEEEENS3_ILl1ELl1000EEELb1ELb0EEclB8ne180100ERKS5_
FNA:10,71,_ZNKSt3__16chrono15__duration_castINS0_8durationIxNS_5ratioILl1ELl1000000000EEEEENS2_IxNS3_ILl1ELl1000EEEEENS3_ILl1ELl1000000EEELb1ELb0EEclB8ne180100ERKS5_
FNA:10,32,_ZNKSt3__16chrono15__duration_castINS0_8durationIxNS_5ratioILl1ELl1000000EEEEENS2_IiNS3_ILl86400ELl1EEEEENS3_ILl1ELl86400000000EEELb1ELb0EEclB8ne180100ERKS5_
FNA:10,75,_ZNKSt3__16chrono15__duration_castINS0_8durationIxNS_5ratioILl1ELl1000000EEEEENS2_IxNS3_ILl1ELl1000EEEEES6_Lb1ELb0EEclB8ne180100ERKS5_
FNL:11,89,92
FNA:11,383,_ZNKSt3__16chrono15__duration_castINS0_8durationIiNS_5ratioILl86400ELl1EEEEENS2_IxNS3_ILl1ELl1000000EEEEENS3_ILl86400000000ELl1EEELb0ELb1EEclB8ne180100ERKS5_
FNF:12
FNH:12
DA:80,179
DA:82,179
DA:83,179
DA:89,383
DA:91,383
DA:92,383
DA:106,562
DA:107,562
DA:128,32
DA:129,32
DA:130,32
DA:131,0
DA:132,32
DA:210,2246
DA:219,766
DA:220,766
DA:224,2813
DA:308,2
DA:309,2
DA:315,2
DA:316,2
DA:383,663
DA:385,663
DA:395,15
DA:397,15
DA:405,148
DA:407,148
LF:27
LH:26
end_of_record
TN:
SF:/Library/Developer/CommandLineTools/SDKs/MacOSX.sdk/usr/include/c++/v1/__chrono/month.h
FNL:0,33,34
FNA:0,396,_ZNSt3__16chrono5monthC1B8ne180100Ej
FNA:0,396,_ZNSt3__16chrono5monthC2B8ne180100Ej
FNL:1,55,55
FNA:1,2502,_ZNKSt3__16chrono5monthcvjB8ne180100Ev
FNL:2,56,56
FNA:2,701,_ZNKSt3__16chrono5month2okB8ne180100Ev
FNL:3,59,60
FNA:3,353,_ZNSt3__16chronoeqB8ne180100ERKNS0_5monthES3_
FNL:4,63,64
FNA:4,527,_ZNSt3__16chronossB8ne180100ERKNS0_5monthES3_
FNF:5
FNH:5
DA:33,792
DA:34,792
DA:55,2502
DA:56,701
DA:59,353
DA:60,353
DA:63,527
DA:64,527
LF:8
LH:8
end_of_record
TN:
SF:/Library/Developer/CommandLineTools/SDKs/MacOSX.sdk/usr/include/c++/v1/__chrono/monthday.h
FNL:0,96,96
FNA:0,353,_ZNSt3__16chrono14month_day_lastC1B8ne180100ERKNS0_5monthE
FNA:0,353,_ZNSt3__16chrono14month_day_lastC2B8ne180100ERKNS0_5monthE
FNL:1,97,97
FNA:1,1050,_ZNKSt3__16chrono14month_day_last5monthB8ne180100Ev
FNF:2
FNH:2
DA:96,706
DA:97,1050
LF:2
LH:2
end_of_record
TN:
SF:/Library/Developer/CommandLineTools/SDKs/MacOSX.sdk/usr/include/c++/v1/__chrono/time_point.h
FNL:0,122,123
FNA:0,2,_ZNSt3__16chronoeqB8ne180100INS0_12system_clockENS0_8durationIxNS_5ratioILl1ELl1000000EEEEES6_EEbRKNS0_10time_pointIT_T0_EERKNS7_IS8_T1_EE
FNL:1,174,175
FNA:1,631,_ZNSt3__16chronossB8ne180100INS0_12system_clockENS0_8durationIxNS_5ratioILl1ELl1000000EEEEES6_EEDaRKNS0_10time_pointIT_T0_EERKNS8_IS9_T1_EE
FNL:2,185,187
FNA:2,13,_ZNSt3__16chronoplB8ne180100INS0_12system_clockENS0_8durationIiNS_5ratioILl86400ELl1EEEEEiS5_EENS0_10time_pointIT_NS_11common_typeIJT0_NS3_IT1_T2_EEEE4typeEEERKNS7_IS8_SA_EERKSD_
FNA:2,2,_ZNSt3__16chronoplB8ne180100INS0_12system_clockENS0_8durationIxNS_5ratioILl1ELl1000000EEEEEiNS4_ILl86400ELl1EEEEENS0_10time_pointIT_NS_11common_typeIJT0_NS3_IT1_T2_EEEE4typeEEERKNS8_IS9_SB_EERKSE_
FNL:3,213,214
FNA:3,72,_ZNSt3__16chronomiB8ne180100INS0_12steady_clockENS0_8durationIxNS_5ratioILl1ELl1000000000EEEEES6_EENS_11common_typeIJT0_T1_EE4typeERKNS0_10time_pointIT_S8_EERKNSC_ISD_S9_EE
FNA:3,1,_ZNSt3__16chronomiB8ne180100INS0_12system_clockENS0_8durationIiNS_5ratioILl86400ELl1EEEEES6_EENS_11common_typeIJT0_T1_EE4typeERKNS0_10time_pointIT_S8_EERKNSC_ISD_S9_EE
FNA:3,75,_ZNSt3__16chronomiB8ne180100INS0_12system_clockENS0_8durationIxNS_5ratioILl1ELl1000000EEEEES6_EENS_11common_typeIJT0_T1_EE4typeERKNS0_10time_pointIT_S8_EERKNSC_ISD_S9_EE
FNL:4,49,49
FNA:4,428,_ZNSt3__16chrono10time_pointINS0_12system_clockENS0_8durationIiNS_5ratioILl86400ELl1EEEEEEC1B8ne180100ERKS6_
FNA:4,428,_ZNSt3__16chrono10time_pointINS0_12system_clockENS0_8durationIiNS_5ratioILl86400ELl1EEEEEEC2B8ne180100ERKS6_
FNA:4,2,_ZNSt3__16chrono10time_pointINS0_12system_clockENS0_8durationIxNS_5ratioILl1ELl1000000EEEEEEC1B8ne180100ERKS6_
FNA:4,2,_ZNSt3__16chrono10time_pointINS0_12system_clockENS0_8durationIxNS_5ratioILl1ELl1000000EEEEEEC2B8ne180100ERKS6_
FNL:5,53,54
FNA:5,349,_ZNSt3__16chrono10time_pointINS0_12system_clockENS0_8durationIxNS_5ratioILl1ELl1000000EEEEEEC1B8ne180100INS3_IiNS4_ILl86400ELl1EEEEELi0EEERKNS1_IS2_T_EE
FNA:5,349,_ZNSt3__16chrono10time_pointINS0_12system_clockENS0_8durationIxNS_5ratioILl1ELl1000000EEEEEEC2B8ne180100INS3_IiNS4_ILl86400ELl1EEEEELi0EEERKNS1_IS2_T_EE
FNL:6,58,58
FNA:6,144,_ZNKSt3__16chrono10time_pointINS0_12steady_clockENS0_8durationIxNS_5ratioILl1ELl1000000000EEEEEE16time_since_epochB8ne180100Ev
FNA:6,428,_ZNKSt3__16chrono10time_pointINS0_12system_clockENS0_8durationIiNS_5ratioILl86400ELl1EEEEEE16time_since_epochB8ne180100Ev
FNA:6,1450,_ZNKSt3__16chrono10time_pointINS0_12system_clockENS0_8durationIxNS_5ratioILl1ELl1000000EEEEEE16time_since_epochB8ne180100Ev
FNL:7,96,97
FNA:7,32,_ZNSt3__16chrono5floorB8ne180100INS0_8durationIiNS_5ratioILl86400ELl1EEEEENS0_12system_clockENS2_IxNS3_ILl1ELl1000000EEEEELi0EEENS0_10time_pointIT0_T_EERKNS9_ISA_T1_EE
FNF:8
FNH:8
DA:49,860
DA:53,698
DA:54,698
DA:58,2022
DA:96,32
DA:97,32
DA:122,2
DA:123,2
DA:174,631
DA:175,631
DA:185,15
DA:187,15
DA:213,148
DA:214,148
LF:14
LH:14
end_of_record
TN:
SF:/Library/Developer/CommandLineTools/SDKs/MacOSX.sdk/usr/include/c++/v1/__chrono/weekday.h
FNL:0,41,42
FNA:0,21,_ZNSt3__16chrono7weekdayC1B8ne180100ERKNS0_10time_pointINS0_12system_clockENS0_8durationIiNS_5ratioILl86400ELl1EEEEEEE
FNA:0,21,_ZNSt3__16chrono7weekdayC2B8ne180100ERKNS0_10time_pointINS0_12system_clockENS0_8durationIiNS_5ratioILl86400ELl1EEEEEEE
FNL:1,66,66
FNA:1,76,_ZNKSt3__16chrono7weekday10c_encodingB8ne180100Ev
FNL:2,74,75
FNA:2,21,_ZNSt3__16chrono7weekday19__weekday_from_daysB8ne180100Ei
FNL:3,78,79
FNA:3,38,_ZNSt3__16chronoeqB8ne180100ERKNS0_7weekdayES3_
FNF:4
FNH:4
DA:41,42
DA:42,42
DA:66,76
DA:74,21
DA:75,21
DA:78,38
DA:79,38
LF:7
LH:7
end_of_record
TN:
SF:/Library/Developer/CommandLineTools/SDKs/MacOSX.sdk/usr/include/c++/v1/__chrono/year.h
FNL:0,105,107
FNA:0,353,_ZNKSt3__16chrono4year2okB8ne180100Ev
FNL:1,37,37
FNA:1,794,_ZNSt3__16chrono4yearC1B8ne180100Ei
FNA:1,794,_ZNSt3__16chrono4yearC2B8ne180100Ei
FNL:2,62,63
FNA:2,8,_ZNKSt3__16chrono4year7is_leapB8ne180100Ev
FNL:3,65,65
FNA:3,1161,_ZNKSt3__16chrono4yearcviB8ne180100Ev
FNL:4,67,67
FNA:4,353,_ZNSt3__16chrono4year3minB8ne180100Ev
FNL:5,75,76
FNA:5,208,_ZNSt3__16chronossB8ne180100ERKNS0_4yearES3_
FNF:6
FNH:6
DA:37,1588
DA:62,8
DA:63,13
DA:65,1161
DA:67,353
DA:75,208
DA:76,208
DA:105,353
DA:107,353
LF:9
LH:9
end_of_record
TN:
SF:/Library/Developer/CommandLineTools/SDKs/MacOSX.sdk/usr/include/c++/v1/__chrono/year_month.h
FNL:0,35,36
FNA:0,754,_ZNSt3__16chrono10year_monthC1B8ne180100ERKNS0_4yearERKNS0_5monthE
FNA:0,754,_ZNSt3__16chrono10year_monthC2B8ne180100ERKNS0_4yearERKNS0_5monthE
FNL:1,37,37
FNA:1,754,_ZNKSt3__16chrono10year_month4yearB8ne180100Ev
FNL:2,38,38
FNA:2,754,_ZNKSt3__16chrono10year_month5monthB8ne180100Ev
FNL:3,46,47
FNA:3,754,_ZNSt3__16chronodvB8ne180100ERKNS0_4yearERKNS0_5monthE
FNF:4
FNH:4
DA:35,1508
DA:36,1508
DA:37,754
DA:38,754
DA:46,754
DA:47,754
LF:6
LH:6
end_of_record
TN:
SF:/Library/Developer/CommandLineTools/SDKs/MacOSX.sdk/usr/include/c++/v1/__chrono/year_month_day.h
FNL:0,112,118
FNA:0,208,_ZNSt3__16chronossB8ne180100ERKNS0_14year_month_dayES3_
FNL:1,120,121
FNA:1,401,_ZNSt3__16chronodvB8ne180100ERKNS0_10year_monthERKNS0_3dayE
FNL:2,124,125
FNA:2,48,_ZNSt3__16chronodvB8ne180100ERKNS0_10year_monthEi
FNL:3,197,198
FNA:3,353,_ZNSt3__16chrono19year_month_day_lastC1B8ne180100ERKNS0_4yearERKNS0_14month_day_lastE
FNA:3,353,_ZNSt3__16chrono19year_month_day_lastC2B8ne180100ERKNS0_4yearERKNS0_14month_day_lastE
FNL:4,205,205
FNA:4,1,_ZNKSt3__16chrono19year_month_day_last4yearB8ne180100Ev
FNL:5,206,206
FNA:5,1050,_ZNKSt3__16chrono19year_month_day_last5monthB8ne180100Ev
FNL:6,218,234
FNA:6,359,_ZNKSt3__16chrono19year_month_day_last3dayB8ne180100Ev
FNL:7,271,272
FNA:7,353,_ZNSt3__16chronodvB8ne180100ERKNS0_10year_monthENS0_9last_specE
FNL:8,344,345
FNA:8,1,_ZNSt3__16chrono14year_month_dayC1B8ne180100ERKNS0_19year_month_day_lastE
FNA:8,1,_ZNSt3__16chrono14year_month_dayC2B8ne180100ERKNS0_19year_month_day_lastE
FNL:9,347,351
FNA:9,353,_ZNKSt3__16chrono14year_month_day2okB8ne180100Ev
FNL:10,46,48
FNA:10,444,_ZNSt3__16chrono14year_month_dayC1B8ne180100ERKNS0_4yearERKNS0_5monthERKNS0_3dayE
FNA:10,444,_ZNSt3__16chrono14year_month_dayC2B8ne180100ERKNS0_4yearERKNS0_5monthERKNS0_3dayE
FNL:11,50,51
FNA:11,43,_ZNSt3__16chrono14year_month_dayC1B8ne180100ERKNS0_10time_pointINS0_12system_clockENS0_8durationIiNS_5ratioILl86400ELl1EEEEEEE
FNL:12,60,60
FNA:12,428,_ZNKSt3__16chrono14year_month_day4yearB8ne180100Ev
FNL:13,61,61
FNA:13,300,_ZNKSt3__16chrono14year_month_day5monthB8ne180100Ev
FNL:14,62,62
FNA:14,88,_ZNKSt3__16chrono14year_month_day3dayB8ne180100Ev
FNL:15,63,63
FNA:15,383,_ZNKSt3__16chrono14year_month_daycvNS0_10time_pointINS0_12system_clockENS0_8durationIiNS_5ratioILl86400ELl1EEEEEEEB8ne180100Ev
FNL:16,75,87
FNA:16,43,_ZNSt3__16chrono14year_month_day11__from_daysB8ne180100ENS0_8durationIiNS_5ratioILl86400ELl1EEEEE
FNL:17,91,103
FNA:17,383,_ZNKSt3__16chrono14year_month_day9__to_daysB8ne180100Ev
FNF:18
FNH:18
DA:46,888
DA:48,888
DA:50,43
DA:51,43
DA:60,428
DA:61,300
DA:62,88
DA:63,383
DA:75,43
DA:78,43
DA:79,43
DA:80,43
DA:81,43
DA:82,43
DA:83,43
DA:84,43
DA:85,43
DA:86,43
DA:87,43
DA:91,383
DA:95,383
DA:96,383
DA:97,383
DA:99,383
DA:100,383
DA:101,383
DA:102,383
DA:103,383
DA:112,208
DA:113,208
DA:114,64
DA:115,144
DA:116,106
DA:117,38
DA:118,208
DA:120,401
DA:121,401
DA:124,48
DA:125,48
DA:197,706
DA:198,706
DA:205,1
DA:206,1050
DA:218,359
DA:219,359
DA:232,359
DA:233,348
DA:234,11
DA:271,353
DA:272,353
DA:344,2
DA:345,2
DA:347,353
DA:348,353
DA:349,1
DA:350,352
DA:351,353
LF:57
LH:57
end_of_record
TN:
SF:/Library/Developer/CommandLineTools/SDKs/MacOSX.sdk/usr/include/c++/v1/__compare/ordering.h
FNL:0,213,214
FNA:0,983,_ZNSt3__1eqB8ne180100ENS_15strong_orderingENS_20_CmpUnspecifiedParamE
FNL:1,217,218
FNA:1,915,_ZNSt3__1ltB8ne180100ENS_15strong_orderingENS_20_CmpUnspecifiedParamE
FNL:2,221,222
FNA:2,1103,_ZNSt3__1leB8ne180100ENS_15strong_orderingENS_20_CmpUnspecifiedParamE
FNL:3,225,226
FNA:3,655,_ZNSt3__1gtB8ne180100ENS_15strong_orderingENS_20_CmpUnspecifiedParamE
FNL:4,229,230
FNA:4,5,_ZNSt3__1geB8ne180100ENS_15strong_orderingENS_20_CmpUnspecifiedParamE
FNL:5,37,37
FNA:5,3661,_ZNSt3__120_CmpUnspecifiedParamC1B8ne180100EMS0_i
FNA:5,3661,_ZNSt3__120_CmpUnspecifiedParamC2B8ne180100EMS0_i
FNF:6
FNH:6
DA:37,7322
DA:213,983
DA:214,983
DA:217,915
DA:218,915
DA:221,1103
DA:222,1103
DA:225,655
DA:226,655
DA:229,5
DA:230,5
LF:11
LH:11
end_of_record
TN:
SF:/Library/Developer/CommandLineTools/SDKs/MacOSX.sdk/usr/include/c++/v1/__debug_utils/randomize_range.h
FNL:0,26,38
FNA:0,0,_ZNSt3__123__debug_randomize_rangeB8ne180100INS_17_ClassicAlgPolicyENS_11__wrap_iterIPNS_4pairIN7pyfolio8DateTimeEdEEEES8_EEvT0_T1_
FNA:0,5,_ZNSt3__123__debug_randomize_rangeB8ne180100INS_17_ClassicAlgPolicyENS_11__wrap_iterIPdEES4_EEvT0_T1_
FNA:0,0,_ZNSt3__123__debug_randomize_rangeB8ne180100INS_17_ClassicAlgPolicyEPNS_4pairIN7pyfolio8DateTimeEdEES6_EEvT0_T1_
FNF:1
FNH:1
DA:26,5
DA:38,5
LF:2
LH:2
end_of_record
TN:
SF:/Library/Developer/CommandLineTools/SDKs/MacOSX.sdk/usr/include/c++/v1/__debug_utils/strict_weak_ordering_check.h
FNL:0,28,73
FNA:0,0,_ZNSt3__135__check_strict_weak_ordering_sortedB8ne180100IPNS_4pairIN7pyfolio8DateTimeEdEEZNS2_10TimeSeriesIdE22sort_by_time_optimizedEvEUlRKT_RKT0_E_EEvS8_S8_RSB_
FNA:0,5,_ZNSt3__135__check_strict_weak_ordering_sortedB8ne180100IPdNS_6__lessIvvEEEEvT_S4_RT0_
FNF:1
FNH:1
DA:28,5
DA:71,5
DA:73,5
LF:3
LH:3
end_of_record
TN:
SF:/Library/Developer/CommandLineTools/SDKs/MacOSX.sdk/usr/include/c++/v1/__exception/exception.h
FNL:0,74,74
FNA:0,0,_ZNSt9exceptionC2B8ne180100Ev
FNF:1
FNH:0
DA:74,0
LF:1
LH:0
end_of_record
TN:
SF:/Library/Developer/CommandLineTools/SDKs/MacOSX.sdk/usr/include/c++/v1/__functional/hash.h
FNL:0,136,137
FNA:0,887,_ZNSt3__121__murmur2_or_cityhashImLm64EE8__rotateB8ne180100Emi
FNL:1,140,141
FNA:1,75,_ZNSt3__121__murmur2_or_cityhashImLm64EE22__rotate_by_at_least_1B8ne180100Emi
FNL:2,144,144
FNA:2,140,_ZNSt3__121__murmur2_or_cityhashImLm64EE11__shift_mixB8ne180100Em
FNL:3,146,153
FNA:3,186,_ZNSt3__121__murmur2_or_cityhashImLm64EE13__hash_len_16B8ne180100Emm
FNL:4,157,181
FNA:4,77,_ZNSt3__121__murmur2_or_cityhashImLm64EE18__hash_len_0_to_16B8ne180100EPKcm
FNL:5,184,190
FNA:5,109,_ZNSt3__121__murmur2_or_cityhashImLm64EE19__hash_len_17_to_32B8ne180100EPKcm
FNL:6,196,203
FNA:6,0,_ZNSt3__121__murmur2_or_cityhashImLm64EE29__weak_hash_len_32_with_seedsB8ne180100Emmmmmm
FNL:7,208,215
FNA:7,0,_ZNSt3__121__murmur2_or_cityhashImLm64EE29__weak_hash_len_32_with_seedsB8ne180100EPKcmm
FNL:8,220,240
FNA:8,70,_ZNSt3__121__murmur2_or_cityhashImLm64EE19__hash_len_33_to_64B8ne180100EPKcm
FNL:9,38,41
FNA:9,4,_ZNSt3__110__loadwordB8ne180100IjEET_PKv
FNA:9,1286,_ZNSt3__110__loadwordB8ne180100ImEET_PKv
FNL:10,89,127
FNA:10,256,_ZNKSt3__121__murmur2_or_cityhashImLm64EEclB8ne180100EPKvm
FNF:11
FNH:9
DA:38,1290
DA:40,1290
DA:41,1290
DA:89,256
DA:90,256
DA:91,256
DA:92,186
DA:93,77
DA:95,109
DA:97,70
DA:98,70
DA:103,0
DA:104,0
DA:105,0
DA:106,0
DA:107,0
DA:108,0
DA:109,0
DA:112,0
DA:113,0
DA:114,0
DA:115,0
DA:116,0
DA:117,0
DA:118,0
DA:119,0
DA:120,0
DA:121,0
DA:122,0
DA:123,0
DA:124,0
DA:125,0
DA:126,0
DA:127,256
DA:136,887
DA:137,887
DA:140,75
DA:141,75
DA:144,140
DA:146,186
DA:147,186
DA:148,186
DA:149,186
DA:150,186
DA:151,186
DA:152,186
DA:153,186
DA:157,77
DA:158,77
DA:159,75
DA:160,75
DA:161,75
DA:163,2
DA:164,2
DA:165,2
DA:169,2
DA:172,0
DA:173,0
DA:174,0
DA:175,0
DA:176,0
DA:177,0
DA:178,0
DA:180,0
DA:181,77
DA:184,109
DA:185,109
DA:186,109
DA:187,109
DA:188,109
DA:189,109
DA:190,109
DA:196,0
DA:197,0
DA:198,0
DA:199,0
DA:200,0
DA:201,0
DA:202,0
DA:203,0
DA:208,0
DA:209,0
DA:210,0
DA:211,0
DA:212,0
DA:213,0
DA:214,0
DA:215,0
DA:220,70
DA:221,70
DA:222,70
DA:223,70
DA:224,70
DA:225,70
DA:226,70
DA:227,70
DA:228,70
DA:229,70
DA:230,70
DA:231,70
DA:232,70
DA:233,70
DA:234,70
DA:235,70
DA:236,70
DA:237,70
DA:238,70
DA:239,70
DA:240,70
LF:109
LH:63
end_of_record
TN:
SF:/Library/Developer/CommandLineTools/SDKs/MacOSX.sdk/usr/include/c++/v1/__functional/identity.h
FNL:0,29,30
FNA:0,0,_ZNKSt3__110__identityclB8ne180100IRKNS_12basic_stringIcNS_11char_traitsIcEENS_9allocatorIcEEEEEEOT_SB_
FNA:0,0,_ZNKSt3__110__identityclB8ne180100IRKmEEOT_S5_
FNA:0,20,_ZNKSt3__110__identityclB8ne180100IRdEEOT_S4_
FNF:1
FNH:1
DA:29,20
DA:30,20
LF:2
LH:2
end_of_record
TN:
SF:/Library/Developer/CommandLineTools/SDKs/MacOSX.sdk/usr/include/c++/v1/__functional/operations.h
FNL:0,296,297
FNA:0,0,_ZNKSt3__18equal_toINS_12basic_stringIcNS_11char_traitsIcEENS_9allocatorIcEEEEEclB8ne180100ERKS6_S9_
FNL:1,357,358
FNA:1,720,_ZNKSt3__14lessINS_12basic_stringIcNS_11char_traitsIcEENS_9allocatorIcEEEEEclB8ne180100ERKS6_S9_
FNA:1,193,_ZNKSt3__14lessINS_6chrono14year_month_dayEEclB8ne180100ERKS2_S5_
FNL:2,367,370
FNA:2,0,_ZNKSt3__14lessIvEclB8ne180100IRKNS_12basic_stringIcNS_11char_traitsIcEENS_9allocatorIcEEEESA_EEDTltclsr3stdE7forwardIT_Efp_Eclsr3stdE7forwardIT0_Efp0_EEOSB_OSC_
FNF:3
FNH:1
DA:296,0
DA:297,0
DA:357,913
DA:358,913
DA:367,0
DA:370,0
LF:6
LH:2
end_of_record
TN:
SF:/Library/Developer/CommandLineTools/SDKs/MacOSX.sdk/usr/include/c++/v1/__hash_table
FNL:0,100
FNA:0,0,_ZNKSt3__116__hash_node_baseIPNS_11__hash_nodeINS_12basic_stringIcNS_11char_traitsIcEENS_9allocatorIcEEEEPvEEE6__hashB8ne180100Ev
FNL:1,102
FNA:1,20,_ZNSt3__116__hash_node_baseIPNS_11__hash_nodeINS_12basic_stringIcNS_11char_traitsIcEENS_9allocatorIcEEEEPvEEEC1B8ne180100Ev
FNA:1,20,_ZNSt3__116__hash_node_baseIPNS_11__hash_nodeINS_12basic_stringIcNS_11char_traitsIcEENS_9allocatorIcEEEEPvEEEC2B8ne180100Ev
FNL:2,103
FNA:2,0,_ZNSt3__116__hash_node_baseIPNS_11__hash_nodeINS_12basic_stringIcNS_11char_traitsIcEENS_9allocatorIcEEEEPvEEEC2B8ne180100EPSB_
FNL:3,1073
FNA:3,20,_ZNSt3__112__hash_tableINS_12basic_stringIcNS_11char_traitsIcEENS_9allocatorIcEEEENS_4hashIS6_EENS_8equal_toIS6_EENS4_IS6_EEED1Ev
FNA:3,20,_ZNSt3__112__hash_tableINS_12basic_stringIcNS_11char_traitsIcEENS_9allocatorIcEEEENS_4hashIS6_EENS_8equal_toIS6_EENS4_IS6_EEED2Ev
FNL:4,1106
FNA:4,20,_ZNSt3__112__hash_tableINS_12basic_stringIcNS_11char_traitsIcEENS_9allocatorIcEEEENS_4hashIS6_EENS_8equal_toIS6_EENS4_IS6_EEE17__deallocate_nodeEPNS_16__hash_node_baseIPNS_11__hash_nodeIS6_PvEEEE
FNL:5,1131
FNA:5,4,_ZNSt3__112__hash_tableINS_12basic_stringIcNS_11char_traitsIcEENS_9allocatorIcEEEENS_4hashIS6_EENS_8equal_toIS6_EENS4_IS6_EEE13__move_assignERSC_NS_17integral_constantIbLb1EEE
FNL:6,1190
FNA:6,4,_ZNSt3__112__hash_tableINS_12basic_stringIcNS_11char_traitsIcEENS_9allocatorIcEEEENS_4hashIS6_EENS_8equal_toIS6_EENS4_IS6_EEEaSEOSC_
FNL:7,124
FNA:7,0,_ZNSt3__111__hash_nodeINS_12basic_stringIcNS_11char_traitsIcEENS_9allocatorIcEEEEPvE11__get_valueB8ne180100Ev
FNL:8,1262
FNA:8,12,_ZNSt3__112__hash_tableINS_12basic_stringIcNS_11char_traitsIcEENS_9allocatorIcEEEENS_4hashIS6_EENS_8equal_toIS6_EENS4_IS6_EEE5beginEv
FNL:9,1280
FNA:9,512,_ZNKSt3__112__hash_tableINS_12basic_stringIcNS_11char_traitsIcEENS_9allocatorIcEEEENS_4hashIS6_EENS_8equal_toIS6_EENS4_IS6_EEE3endEv
FNL:10,1285
FNA:10,4,_ZNSt3__112__hash_tableINS_12basic_stringIcNS_11char_traitsIcEENS_9allocatorIcEEEENS_4hashIS6_EENS_8equal_toIS6_EENS4_IS6_EEE5clearEv
FNL:11,134
FNA:11,0,_ZNSt3__111__hash_nodeINS_12basic_stringIcNS_11char_traitsIcEENS_9allocatorIcEEEEPvEC1B8ne180100EPNS_16__hash_node_baseIPS8_EEm
FNA:11,0,_ZNSt3__111__hash_nodeINS_12basic_stringIcNS_11char_traitsIcEENS_9allocatorIcEEEEPvEC2B8ne180100EPNS_16__hash_node_baseIPS8_EEm
FNL:12,135
FNA:12,0,_ZNSt3__111__hash_nodeINS_12basic_stringIcNS_11char_traitsIcEENS_9allocatorIcEEEEPvED1B8ne180100Ev
FNA:12,0,_ZNSt3__111__hash_nodeINS_12basic_stringIcNS_11char_traitsIcEENS_9allocatorIcEEEEPvED2B8ne180100Ev
FNL:13,138
FNA:13,0,_ZNSt3__116__is_hash_power2B8ne180100Em
FNL:14,140
FNA:14,0,_ZNSt3__116__constrain_hashB8ne180100Emm
FNL:15,144
FNA:15,0,_ZNSt3__116__next_hash_pow2B8ne180100Em
FNL:16,1476
FNA:16,0,_ZNSt3__112__hash_tableINS_12basic_stringIcNS_11char_traitsIcEENS_9allocatorIcEEEENS_4hashIS6_EENS_8equal_toIS6_EENS4_IS6_EEE25__emplace_unique_key_argsIS6_JS6_EEENS_4pairINS_15__hash_iteratorIPNS_11__hash_nodeIS6_PvEEEEbEERKT_DpOT0_
FNL:17,1656
FNA:17,0,_ZNSt3__112__hash_tableINS_12basic_stringIcNS_11char_traitsIcEENS_9allocatorIcEEEENS_4hashIS6_EENS_8equal_toIS6_EENS4_IS6_EEE8__rehashILb1EEEvm
FNL:18,1676
FNA:18,0,_ZNSt3__112__hash_tableINS_12basic_stringIcNS_11char_traitsIcEENS_9allocatorIcEEEENS_4hashIS6_EENS_8equal_toIS6_EENS4_IS6_EEE11__do_rehashILb1EEEvm
FNL:19,172
FNA:19,0,_ZNSt3__122__hash_key_value_typesINS_12basic_stringIcNS_11char_traitsIcEENS_9allocatorIcEEEEE9__get_keyB8ne180100ERKS6_
FNL:20,174
FNA:20,0,_ZNSt3__122__hash_key_value_typesINS_12basic_stringIcNS_11char_traitsIcEENS_9allocatorIcEEEEE9__get_ptrB8ne180100ERS6_
FNL:21,1740
FNA:21,256,_ZNKSt3__112__hash_tableINS_12basic_stringIcNS_11char_traitsIcEENS_9allocatorIcEEEENS_4hashIS6_EENS_8equal_toIS6_EENS4_IS6_EEE4findIS6_EENS_21__hash_const_iteratorIPNS_11__hash_nodeIS6_PvEEEERKT_
FNL:22,1785
FNA:22,0,_ZNSt3__112__hash_tableINS_12basic_stringIcNS_11char_traitsIcEENS_9allocatorIcEEEENS_4hashIS6_EENS_8equal_toIS6_EENS4_IS6_EEE21__construct_node_hashIS6_JEEENS_10unique_ptrINS_11__hash_nodeIS6_PvEENS_22__hash_node_destructorINS4_ISH_EEEEEEmOT_DpOT0_
FNL:23,1880
FNA:23,256,_ZNKSt3__112__hash_tableINS_12basic_stringIcNS_11char_traitsIcEENS_9allocatorIcEEEENS_4hashIS6_EENS_8equal_toIS6_EENS4_IS6_EEE14__count_uniqueIS6_EEmRKT_
FNL:24,312
FNA:24,12,_ZNSt3__115__hash_iteratorIPNS_11__hash_nodeINS_12basic_stringIcNS_11char_traitsIcEENS_9allocatorIcEEEEPvEEEC1B8ne180100EPNS_16__hash_node_baseISA_EE
FNA:24,12,_ZNSt3__115__hash_iteratorIPNS_11__hash_nodeINS_12basic_stringIcNS_11char_traitsIcEENS_9allocatorIcEEEEPvEEEC2B8ne180100EPNS_16__hash_node_baseISA_EE
FNL:25,346
FNA:25,12,_ZNSt3__121__hash_const_iteratorIPNS_11__hash_nodeINS_12basic_stringIcNS_11char_traitsIcEENS_9allocatorIcEEEEPvEEEC1B8ne180100ERKNS_15__hash_iteratorISA_EE
FNA:25,12,_ZNSt3__121__hash_const_iteratorIPNS_11__hash_nodeINS_12basic_stringIcNS_11char_traitsIcEENS_9allocatorIcEEEEPvEEEC2B8ne180100ERKNS_15__hash_iteratorISA_EE
FNL:26,353
FNA:26,0,_ZNSt3__121__hash_const_iteratorIPNS_11__hash_nodeINS_12basic_stringIcNS_11char_traitsIcEENS_9allocatorIcEEEEPvEEEppB8ne180100Ev
FNL:27,364
FNA:27,256,_ZNSt3__1eqB8ne180100ERKNS_21__hash_const_iteratorIPNS_11__hash_nodeINS_12basic_stringIcNS_11char_traitsIcEENS_9allocatorIcEEEEPvEEEESD_
FNL:28,367
FNA:28,256,_ZNSt3__1neB8ne180100ERKNS_21__hash_const_iteratorIPNS_11__hash_nodeINS_12basic_stringIcNS_11char_traitsIcEENS_9allocatorIcEEEEPvEEEESD_
FNL:29,372
FNA:29,512,_ZNSt3__121__hash_const_iteratorIPNS_11__hash_nodeINS_12basic_stringIcNS_11char_traitsIcEENS_9allocatorIcEEEEPvEEEC1B8ne180100EPNS_16__hash_node_baseISA_EE
FNA:29,512,_ZNSt3__121__hash_const_iteratorIPNS_11__hash_nodeINS_12basic_stringIcNS_11char_traitsIcEENS_9allocatorIcEEEEPvEEEC2B8ne180100EPNS_16__hash_node_baseISA_EE
FNL:30,533
FNA:30,20,_ZNSt3__125__bucket_list_deallocatorINS_9allocatorIPNS_16__hash_node_baseIPNS_11__hash_nodeINS_12basic_stringIcNS_11char_traitsIcEENS1_IcEEEEPvEEEEEEEC1B8ne180100Ev
FNA:30,20,_ZNSt3__125__bucket_list_deallocatorINS_9allocatorIPNS_16__hash_node_baseIPNS_11__hash_nodeINS_12basic_stringIcNS_11char_traitsIcEENS1_IcEEEEPvEEEEEEEC2B8ne180100Ev
FNL:31,546
FNA:31,12,_ZNSt3__125__bucket_list_deallocatorINS_9allocatorIPNS_16__hash_node_baseIPNS_11__hash_nodeINS_12basic_stringIcNS_11char_traitsIcEENS1_IcEEEEPvEEEEEEE4sizeB8ne180100Ev
FNL:32,547
FNA:32,256,_ZNKSt3__125__bucket_list_deallocatorINS_9allocatorIPNS_16__hash_node_baseIPNS_11__hash_nodeINS_12basic_stringIcNS_11char_traitsIcEENS1_IcEEEEPvEEEEEEE4sizeB8ne180100Ev
FNL:33,549
FNA:33,8,_ZNSt3__125__bucket_list_deallocatorINS_9allocatorIPNS_16__hash_node_baseIPNS_11__hash_nodeINS_12basic_stringIcNS_11char_traitsIcEENS1_IcEEEEPvEEEEEEE7__allocB8ne180100Ev
FNL:34,552
FNA:34,0,_ZNSt3__125__bucket_list_deallocatorINS_9allocatorIPNS_16__hash_node_baseIPNS_11__hash_nodeINS_12basic_stringIcNS_11char_traitsIcEENS1_IcEEEEPvEEEEEEEclB8ne180100EPSD_
FNL:35,577
FNA:35,0,_ZNSt3__122__hash_node_destructorINS_9allocatorINS_11__hash_nodeINS_12basic_stringIcNS_11char_traitsIcEENS1_IcEEEEPvEEEEEC1B8ne180100ERSA_b
FNA:35,0,_ZNSt3__122__hash_node_destructorINS_9allocatorINS_11__hash_nodeINS_12basic_stringIcNS_11char_traitsIcEENS1_IcEEEEPvEEEEEC2B8ne180100ERSA_b
FNL:36,581
FNA:36,0,_ZNSt3__122__hash_node_destructorINS_9allocatorINS_11__hash_nodeINS_12basic_stringIcNS_11char_traitsIcEENS1_IcEEEEPvEEEEEclB8ne180100EPS9_
FNL:37,695
FNA:37,16,_ZNSt3__112__hash_tableINS_12basic_stringIcNS_11char_traitsIcEENS_9allocatorIcEEEENS_4hashIS6_EENS_8equal_toIS6_EENS4_IS6_EEE4sizeB8ne180100Ev
FNL:38,700
FNA:38,8,_ZNSt3__112__hash_tableINS_12basic_stringIcNS_11char_traitsIcEENS_9allocatorIcEEEENS_4hashIS6_EENS_8equal_toIS6_EENS4_IS6_EEE13hash_functionB8ne180100Ev
FNL:39,701
FNA:39,256,_ZNKSt3__112__hash_tableINS_12basic_stringIcNS_11char_traitsIcEENS_9allocatorIcEEEENS_4hashIS6_EENS_8equal_toIS6_EENS4_IS6_EEE13hash_functionB8ne180100Ev
FNL:40,703
FNA:40,8,_ZNSt3__112__hash_tableINS_12basic_stringIcNS_11char_traitsIcEENS_9allocatorIcEEEENS_4hashIS6_EENS_8equal_toIS6_EENS4_IS6_EEE15max_load_factorB8ne180100Ev
FNL:41,706
FNA:41,8,_ZNSt3__112__hash_tableINS_12basic_stringIcNS_11char_traitsIcEENS_9allocatorIcEEEENS_4hashIS6_EENS_8equal_toIS6_EENS4_IS6_EEE6key_eqB8ne180100Ev
FNL:42,707
FNA:42,0,_ZNKSt3__112__hash_tableINS_12basic_stringIcNS_11char_traitsIcEENS_9allocatorIcEEEENS_4hashIS6_EENS_8equal_toIS6_EENS4_IS6_EEE6key_eqB8ne180100Ev
FNL:43,709
FNA:43,28,_ZNSt3__112__hash_tableINS_12basic_stringIcNS_11char_traitsIcEENS_9allocatorIcEEEENS_4hashIS6_EENS_8equal_toIS6_EENS4_IS6_EEE12__node_allocB8ne180100Ev
FNL:44,801
FNA:44,0,_ZNSt3__112__hash_tableINS_12basic_stringIcNS_11char_traitsIcEENS_9allocatorIcEEEENS_4hashIS6_EENS_8equal_toIS6_EENS4_IS6_EEE15__insert_uniqueB8ne180100EOS6_
FNL:45,846
FNA:45,0,_ZNSt3__112__hash_tableINS_12basic_stringIcNS_11char_traitsIcEENS_9allocatorIcEEEENS_4hashIS6_EENS_8equal_toIS6_EENS4_IS6_EEE15__rehash_uniqueB8ne180100Em
FNL:46,855
FNA:46,256,_ZNKSt3__112__hash_tableINS_12basic_stringIcNS_11char_traitsIcEENS_9allocatorIcEEEENS_4hashIS6_EENS_8equal_toIS6_EENS4_IS6_EEE12bucket_countB8ne180100Ev
FNL:47,92
FNA:47,0,_ZNSt3__116__hash_node_baseIPNS_11__hash_nodeINS_12basic_stringIcNS_11char_traitsIcEENS_9allocatorIcEEEEPvEEE5__ptrB8ne180100Ev
FNL:48,96
FNA:48,0,_ZNSt3__116__hash_node_baseIPNS_11__hash_nodeINS_12basic_stringIcNS_11char_traitsIcEENS_9allocatorIcEEEEPvEEE8__upcastB8ne180100Ev
FNL:49,971
FNA:49,4,_ZNSt3__112__hash_tableINS_12basic_stringIcNS_11char_traitsIcEENS_9allocatorIcEEEENS_4hashIS6_EENS_8equal_toIS6_EENS4_IS6_EEE19__move_assign_allocB8ne180100ERSC_
FNL:50,976
FNA:50,4,_ZNSt3__112__hash_tableINS_12basic_stringIcNS_11char_traitsIcEENS_9allocatorIcEEEENS_4hashIS6_EENS_8equal_toIS6_EENS4_IS6_EEE19__move_assign_allocB8ne180100ERSC_NS_17integral_constantIbLb1EEE
FNL:51,993
FNA:51,20,_ZNSt3__112__hash_tableINS_12basic_stringIcNS_11char_traitsIcEENS_9allocatorIcEEEENS_4hashIS6_EENS_8equal_toIS6_EENS4_IS6_EEEC1Ev
FNA:51,20,_ZNSt3__112__hash_tableINS_12basic_stringIcNS_11char_traitsIcEENS_9allocatorIcEEEENS_4hashIS6_EENS_8equal_toIS6_EENS4_IS6_EEEC2Ev
FNF:52
FNH:29
DA:92,0
DA:93,0
DA:96,0
DA:97,0
DA:100,0
DA:102,40
DA:103,0
DA:124,0
DA:134,0
DA:135,0
DA:138,0
DA:140,0
DA:141,0
DA:144,0
DA:145,0
DA:172,0
DA:174,0
DA:312,24
DA:346,24
DA:353,0
DA:354,0
DA:355,0
DA:364,256
DA:365,256
DA:367,256
DA:368,256
DA:372,1024
DA:533,40
DA:534,40
DA:546,12
DA:547,256
DA:549,8
DA:552,0
DA:577,0
DA:578,0
DA:579,0
DA:581,0
DA:582,0
DA:583,0
DA:584,0
DA:585,0
DA:586,0
DA:587,0
DA:588,0
DA:695,16
DA:700,8
DA:701,256
DA:703,8
DA:706,8
DA:707,0
DA:709,28
DA:718,20
DA:801,0
DA:802,0
DA:846,0
DA:855,256
DA:971,4
DA:974,4
DA:975,4
DA:976,4
DA:978,4
DA:979,4
DA:980,4
DA:993,40
DA:997,40
DA:1073,40
DA:1079,20
DA:1080,40
DA:1106,20
DA:1107,20
DA:1108,20
DA:1109,0
DA:1110,0
DA:1111,0
DA:1112,0
DA:1113,0
DA:1114,0
DA:1116,20
DA:1131,4
DA:1134,4
DA:1135,4
DA:1136,4
DA:1137,4
DA:1138,4
DA:1139,4
DA:1140,4
DA:1141,4
DA:1142,4
DA:1143,4
DA:1144,4
DA:1145,0
DA:1146,0
DA:1147,0
DA:1148,0
DA:1149,4
DA:1190,4
DA:1193,4
DA:1194,4
DA:1262,12
DA:1263,12
DA:1280,512
DA:1281,512
DA:1285,4
DA:1286,4
DA:1287,0
DA:1288,0
DA:1289,0
DA:1290,0
DA:1291,0
DA:1292,0
DA:1293,0
DA:1294,4
DA:1476,0
DA:1477,0
DA:1478,0
DA:1479,0
DA:1482,0
DA:1483,0
DA:1484,0
DA:1485,0
DA:1486,0
DA:1487,0
DA:1488,0
DA:1489,0
DA:1490,0
DA:1491,0
DA:1492,0
DA:1493,0
DA:1495,0
DA:1496,0
DA:1497,0
DA:1498,0
DA:1499,0
DA:1500,0
DA:1501,0
DA:1503,0
DA:1504,0
DA:1505,0
DA:1506,0
DA:1507,0
DA:1509,0
DA:1510,0
DA:1511,0
DA:1512,0
DA:1513,0
DA:1514,0
DA:1516,0
DA:1518,0
DA:1519,0
DA:1520,0
DA:1522,0
DA:1523,0
DA:1656,0
DA:1657,0
DA:1658,0
DA:1659,0
DA:1660,0
DA:1661,0
DA:1662,0
DA:1663,0
DA:1664,0
DA:1665,0
DA:1667,0
DA:1668,0
DA:1669,0
DA:1670,0
DA:1671,0
DA:1672,0
DA:1676,0
DA:1677,0
DA:1678,0
DA:1679,0
DA:1680,0
DA:1681,0
DA:1682,0
DA:1683,0
DA:1684,0
DA:1685,0
DA:1686,0
DA:1687,0
DA:1688,0
DA:1689,0
DA:1690,0
DA:1691,0
DA:1692,0
DA:1694,0
DA:1695,0
DA:1696,0
DA:1697,0
DA:1698,0
DA:1699,0
DA:1706,0
DA:1707,0
DA:1708,0
DA:1711,0
DA:1712,0
DA:1713,0
DA:1714,0
DA:1740,256
DA:1741,256
DA:1742,256
DA:1743,256
DA:1744,0
DA:1745,0
DA:1746,0
DA:1747,0
DA:1748,0
DA:1749,0
DA:1750,0
DA:1751,0
DA:1752,0
DA:1753,0
DA:1754,0
DA:1755,256
DA:1756,256
DA:1785,0
DA:1787,0
DA:1788,0
DA:1789,0
DA:1790,0
DA:1791,0
DA:1792,0
DA:1793,0
DA:1794,0
DA:1880,256
DA:1881,256
LF:226
LH:68
end_of_record
TN:
SF:/Library/Developer/CommandLineTools/SDKs/MacOSX.sdk/usr/include/c++/v1/__iterator/advance.h
FNL:0,46,53
FNA:0,0,_ZNSt3__19__advanceB8ne180100INS_21__tree_const_iteratorINS_12__value_typeINS_12basic_stringIcNS_11char_traitsIcEENS_9allocatorIcEEEEdEEPNS_11__tree_nodeIS9_PvEElEEEEvRT_NS_15iterator_traitsISF_E15difference_typeENS_26bidirectional_iterator_tagE
FNL:1,57,59
FNA:1,24,_ZNSt3__19__advanceB8ne180100INS_11__wrap_iterIPcEEEEvRT_NS_15iterator_traitsIS4_E15difference_typeENS_26random_access_iterator_tagE
FNA:1,0,_ZNSt3__19__advanceB8ne180100INS_16reverse_iteratorIPN7testing12TestPropertyEEEEEvRT_NS_15iterator_traitsIS6_E15difference_typeENS_26random_access_iterator_tagE
FNA:1,0,_ZNSt3__19__advanceB8ne180100INS_16reverse_iteratorIPN7testing14TestPartResultEEEEEvRT_NS_15iterator_traitsIS6_E15difference_typeENS_26random_access_iterator_tagE
FNA:1,0,_ZNSt3__19__advanceB8ne180100INS_16reverse_iteratorIPN7testing8internal9TraceInfoEEEEEvRT_NS_15iterator_traitsIS7_E15difference_typeENS_26random_access_iterator_tagE
FNA:1,0,_ZNSt3__19__advanceB8ne180100INS_16reverse_iteratorIPNS_12basic_stringIcNS_11char_traitsIcEENS_9allocatorIcEEEEEEEEvRT_NS_15iterator_traitsISA_E15difference_typeENS_26random_access_iterator_tagE
FNA:1,0,_ZNSt3__19__advanceB8ne180100INS_16reverse_iteratorIPNS_4pairIN7pyfolio8DateTimeEdEEEEEEvRT_NS_15iterator_traitsIS8_E15difference_typeENS_26random_access_iterator_tagE
FNA:1,0,_ZNSt3__19__advanceB8ne180100INS_16reverse_iteratorIPNS_6threadEEEEEvRT_NS_15iterator_traitsIS5_E15difference_typeENS_26random_access_iterator_tagE
FNA:1,0,_ZNSt3__19__advanceB8ne180100IPKN7pyfolio8DateTimeEEEvRT_NS_15iterator_traitsIS5_E15difference_typeENS_26random_access_iterator_tagE
FNA:1,0,_ZNSt3__19__advanceB8ne180100IPKNS_3mapINS_12basic_stringIcNS_11char_traitsIcEENS_9allocatorIcEEEEdNS_4lessIS7_EENS5_INS_4pairIKS7_dEEEEEEEEvRT_NS_15iterator_traitsISH_E15difference_typeENS_26random_access_iterator_tagE
FNA:1,0,_ZNSt3__19__advanceB8ne180100IPKdEEvRT_NS_15iterator_traitsIS3_E15difference_typeENS_26random_access_iterator_tagE
FNA:1,0,_ZNSt3__19__advanceB8ne180100IPN7pyfolio8DateTimeEEEvRT_NS_15iterator_traitsIS4_E15difference_typeENS_26random_access_iterator_tagE
FNA:1,0,_ZNSt3__19__advanceB8ne180100IPN7testing12TestPropertyEEEvRT_NS_15iterator_traitsIS4_E15difference_typeENS_26random_access_iterator_tagE
FNA:1,7,_ZNSt3__19__advanceB8ne180100IPN7testing14TestPartResultEEEvRT_NS_15iterator_traitsIS4_E15difference_typeENS_26random_access_iterator_tagE
FNA:1,0,_ZNSt3__19__advanceB8ne180100IPN7testing8internal9TraceInfoEEEvRT_NS_15iterator_traitsIS5_E15difference_typeENS_26random_access_iterator_tagE
FNA:1,8,_ZNSt3__19__advanceB8ne180100IPNS_12basic_stringIcNS_11char_traitsIcEENS_9allocatorIcEEEEEEvRT_NS_15iterator_traitsIS8_E15difference_typeENS_26random_access_iterator_tagE
FNA:1,0,_ZNSt3__19__advanceB8ne180100IPNS_3mapINS_12basic_stringIcNS_11char_traitsIcEENS_9allocatorIcEEEEdNS_4lessIS7_EENS5_INS_4pairIKS7_dEEEEEEEEvRT_NS_15iterator_traitsISG_E15difference_typeENS_26random_access_iterator_tagE
FNA:1,0,_ZNSt3__19__advanceB8ne180100IPNS_4pairIN7pyfolio8DateTimeEdEEEEvRT_NS_15iterator_traitsIS6_E15difference_typeENS_26random_access_iterator_tagE
FNA:1,15,_ZNSt3__19__advanceB8ne180100IPNS_6threadEEEvRT_NS_15iterator_traitsIS3_E15difference_typeENS_26random_access_iterator_tagE
FNL:2,65,72
FNA:2,24,_ZNSt3__17advanceB8ne180100INS_11__wrap_iterIPcEEllvEEvRT_T0_
FNA:2,0,_ZNSt3__17advanceB8ne180100INS_16reverse_iteratorIPN7testing12TestPropertyEEEllvEEvRT_T0_
FNA:2,0,_ZNSt3__17advanceB8ne180100INS_16reverse_iteratorIPN7testing14TestPartResultEEEllvEEvRT_T0_
FNA:2,0,_ZNSt3__17advanceB8ne180100INS_16reverse_iteratorIPN7testing8internal9TraceInfoEEEllvEEvRT_T0_
FNA:2,0,_ZNSt3__17advanceB8ne180100INS_16reverse_iteratorIPNS_12basic_stringIcNS_11char_traitsIcEENS_9allocatorIcEEEEEEllvEEvRT_T0_
FNA:2,0,_ZNSt3__17advanceB8ne180100INS_16reverse_iteratorIPNS_4pairIN7pyfolio8DateTimeEdEEEEllvEEvRT_T0_
FNA:2,0,_ZNSt3__17advanceB8ne180100INS_16reverse_iteratorIPNS_6threadEEEllvEEvRT_T0_
FNA:2,0,_ZNSt3__17advanceB8ne180100INS_21__tree_const_iteratorINS_12__value_typeINS_12basic_stringIcNS_11char_traitsIcEENS_9allocatorIcEEEEdEEPNS_11__tree_nodeIS9_PvEElEEllvEEvRT_T0_
FNA:2,0,_ZNSt3__17advanceB8ne180100IPKN7pyfolio8DateTimeEllvEEvRT_T0_
FNA:2,0,_ZNSt3__17advanceB8ne180100IPKNS_3mapINS_12basic_stringIcNS_11char_traitsIcEENS_9allocatorIcEEEEdNS_4lessIS7_EENS5_INS_4pairIKS7_dEEEEEEllvEEvRT_T0_
FNA:2,0,_ZNSt3__17advanceB8ne180100IPKdllvEEvRT_T0_
FNA:2,0,_ZNSt3__17advanceB8ne180100IPN7pyfolio8DateTimeEllvEEvRT_T0_
FNA:2,0,_ZNSt3__17advanceB8ne180100IPN7testing12TestPropertyEllvEEvRT_T0_
FNA:2,7,_ZNSt3__17advanceB8ne180100IPN7testing14TestPartResultEllvEEvRT_T0_
FNA:2,0,_ZNSt3__17advanceB8ne180100IPN7testing8internal9TraceInfoEllvEEvRT_T0_
FNA:2,8,_ZNSt3__17advanceB8ne180100IPNS_12basic_stringIcNS_11char_traitsIcEENS_9allocatorIcEEEEllvEEvRT_T0_
FNA:2,0,_ZNSt3__17advanceB8ne180100IPNS_3mapINS_12basic_stringIcNS_11char_traitsIcEENS_9allocatorIcEEEEdNS_4lessIS7_EENS5_INS_4pairIKS7_dEEEEEEllvEEvRT_T0_
FNA:2,0,_ZNSt3__17advanceB8ne180100IPNS_4pairIN7pyfolio8DateTimeEdEEllvEEvRT_T0_
FNA:2,15,_ZNSt3__17advanceB8ne180100IPNS_6threadEllvEEvRT_T0_
FNF:3
FNH:2
DA:46,0
DA:47,0
DA:48,0
DA:49,0
DA:51,0
DA:52,0
DA:53,0
DA:57,54
DA:58,54
DA:59,54
DA:65,54
DA:67,54
DA:71,54
DA:72,54
LF:14
LH:7
end_of_record
TN:
SF:/Library/Developer/CommandLineTools/SDKs/MacOSX.sdk/usr/include/c++/v1/__iterator/distance.h
FNL:0,40,41
FNA:0,0,_ZNSt3__110__distanceB8ne180100INS_11__wrap_iterIPKNS_12basic_stringIcNS_11char_traitsIcEENS_9allocatorIcEEEEEEEENS_15iterator_traitsIT_E15difference_typeESC_SC_NS_26random_access_iterator_tagE
FNA:0,63,_ZNSt3__110__distanceB8ne180100INS_11__wrap_iterIPKcEEEENS_15iterator_traitsIT_E15difference_typeES6_S6_NS_26random_access_iterator_tagE
FNA:0,3,_ZNSt3__110__distanceB8ne180100INS_11__wrap_iterIPKdEEEENS_15iterator_traitsIT_E15difference_typeES6_S6_NS_26random_access_iterator_tagE
FNA:0,12,_ZNSt3__110__distanceB8ne180100INS_11__wrap_iterIPNS_12basic_stringIcNS_11char_traitsIcEENS_9allocatorIcEEEEEEEENS_15iterator_traitsIT_E15difference_typeESB_SB_NS_26random_access_iterator_tagE
FNA:0,0,_ZNSt3__110__distanceB8ne180100INS_13move_iteratorIPNS_12basic_stringIcNS_11char_traitsIcEENS_9allocatorIcEEEEEEEENS_15iterator_traitsIT_E15difference_typeESB_SB_NS_26random_access_iterator_tagE
FNA:0,0,_ZNSt3__110__distanceB8ne180100INS_13move_iteratorIPPN7testing9TestSuiteEEEEENS_15iterator_traitsIT_E15difference_typeES8_S8_NS_26random_access_iterator_tagE
FNA:0,0,_ZNSt3__110__distanceB8ne180100INS_13move_iteratorIPPcEEEENS_15iterator_traitsIT_E15difference_typeES6_S6_NS_26random_access_iterator_tagE
FNA:0,35,_ZNSt3__110__distanceB8ne180100IPKN7pyfolio8DateTimeEEENS_15iterator_traitsIT_E15difference_typeES6_S6_NS_26random_access_iterator_tagE
FNA:0,18,_ZNSt3__110__distanceB8ne180100IPKNS_3mapINS_12basic_stringIcNS_11char_traitsIcEENS_9allocatorIcEEEEdNS_4lessIS7_EENS5_INS_4pairIKS7_dEEEEEEEENS_15iterator_traitsIT_E15difference_typeESI_SI_NS_26random_access_iterator_tagE
FNA:0,0,_ZNSt3__110__distanceB8ne180100IPKPKcEENS_15iterator_traitsIT_E15difference_typeES6_S6_NS_26random_access_iterator_tagE
FNA:0,0,_ZNSt3__110__distanceB8ne180100IPKcEENS_15iterator_traitsIT_E15difference_typeES4_S4_NS_26random_access_iterator_tagE
FNA:0,70,_ZNSt3__110__distanceB8ne180100IPKdEENS_15iterator_traitsIT_E15difference_typeES4_S4_NS_26random_access_iterator_tagE
FNA:0,18,_ZNSt3__110__distanceB8ne180100IPN7pyfolio8DateTimeEEENS_15iterator_traitsIT_E15difference_typeES5_S5_NS_26random_access_iterator_tagE
FNL:1,46,47
FNA:1,0,_ZNSt3__18distanceB8ne180100INS_11__wrap_iterIPKNS_12basic_stringIcNS_11char_traitsIcEENS_9allocatorIcEEEEEEEENS_15iterator_traitsIT_E15difference_typeESC_SC_
FNA:1,63,_ZNSt3__18distanceB8ne180100INS_11__wrap_iterIPKcEEEENS_15iterator_traitsIT_E15difference_typeES6_S6_
FNA:1,3,_ZNSt3__18distanceB8ne180100INS_11__wrap_iterIPKdEEEENS_15iterator_traitsIT_E15difference_typeES6_S6_
FNA:1,12,_ZNSt3__18distanceB8ne180100INS_11__wrap_iterIPNS_12basic_stringIcNS_11char_traitsIcEENS_9allocatorIcEEEEEEEENS_15iterator_traitsIT_E15difference_typeESB_SB_
FNA:1,0,_ZNSt3__18distanceB8ne180100INS_13move_iteratorIPNS_12basic_stringIcNS_11char_traitsIcEENS_9allocatorIcEEEEEEEENS_15iterator_traitsIT_E15difference_typeESB_SB_
FNA:1,0,_ZNSt3__18distanceB8ne180100INS_13move_iteratorIPPN7testing9TestSuiteEEEEENS_15iterator_traitsIT_E15difference_typeES8_S8_
FNA:1,0,_ZNSt3__18distanceB8ne180100INS_13move_iteratorIPPcEEEENS_15iterator_traitsIT_E15difference_typeES6_S6_
FNA:1,35,_ZNSt3__18distanceB8ne180100IPKN7pyfolio8DateTimeEEENS_15iterator_traitsIT_E15difference_typeES6_S6_
FNA:1,18,_ZNSt3__18distanceB8ne180100IPKNS_3mapINS_12basic_stringIcNS_11char_traitsIcEENS_9allocatorIcEEEEdNS_4lessIS7_EENS5_INS_4pairIKS7_dEEEEEEEENS_15iterator_traitsIT_E15difference_typeESI_SI_
FNA:1,0,_ZNSt3__18distanceB8ne180100IPKPKcEENS_15iterator_traitsIT_E15difference_typeES6_S6_
FNA:1,0,_ZNSt3__18distanceB8ne180100IPKcEENS_15iterator_traitsIT_E15difference_typeES4_S4_
FNA:1,70,_ZNSt3__18distanceB8ne180100IPKdEENS_15iterator_traitsIT_E15difference_typeES4_S4_
FNA:1,18,_ZNSt3__18distanceB8ne180100IPN7pyfolio8DateTimeEEENS_15iterator_traitsIT_E15difference_typeES5_S5_
FNF:2
FNH:2
DA:40,219
DA:41,219
DA:46,219
DA:47,219
LF:4
LH:4
end_of_record
TN:
SF:/Library/Developer/CommandLineTools/SDKs/MacOSX.sdk/usr/include/c++/v1/__iterator/insert_iterator.h
FNL:0,64,65
FNA:0,12,_ZNSt3__115insert_iteratorINS_13unordered_setINS_12basic_stringIcNS_11char_traitsIcEENS_9allocatorIcEEEENS_4hashIS7_EENS_8equal_toIS7_EENS5_IS7_EEEEEC1B8ne180100ERSD_NS_21__hash_const_iteratorIPNS_11__hash_nodeIS7_PvEEEE
FNA:0,12,_ZNSt3__115insert_iteratorINS_13unordered_setINS_12basic_stringIcNS_11char_traitsIcEENS_9allocatorIcEEEENS_4hashIS7_EENS_8equal_toIS7_EENS5_IS7_EEEEEC2B8ne180100ERSD_NS_21__hash_const_iteratorIPNS_11__hash_nodeIS7_PvEEEE
FNA:0,12,_ZNSt3__115insert_iteratorINS_6vectorINS_12basic_stringIcNS_11char_traitsIcEENS_9allocatorIcEEEENS5_IS7_EEEEEC1B8ne180100ERS9_NS_11__wrap_iterIPS7_EE
FNA:0,12,_ZNSt3__115insert_iteratorINS_6vectorINS_12basic_stringIcNS_11char_traitsIcEENS_9allocatorIcEEEENS5_IS7_EEEEEC2B8ne180100ERS9_NS_11__wrap_iterIPS7_EE
FNL:1,74,77
FNA:1,0,_ZNSt3__115insert_iteratorINS_13unordered_setINS_12basic_stringIcNS_11char_traitsIcEENS_9allocatorIcEEEENS_4hashIS7_EENS_8equal_toIS7_EENS5_IS7_EEEEEaSB8ne180100EOS7_
FNA:1,20,_ZNSt3__115insert_iteratorINS_6vectorINS_12basic_stringIcNS_11char_traitsIcEENS_9allocatorIcEEEENS5_IS7_EEEEEaSB8ne180100EOS7_
FNL:2,80,80
FNA:2,0,_ZNSt3__115insert_iteratorINS_13unordered_setINS_12basic_stringIcNS_11char_traitsIcEENS_9allocatorIcEEEENS_4hashIS7_EENS_8equal_toIS7_EENS5_IS7_EEEEEdeB8ne180100Ev
FNA:2,20,_ZNSt3__115insert_iteratorINS_6vectorINS_12basic_stringIcNS_11char_traitsIcEENS_9allocatorIcEEEENS5_IS7_EEEEEdeB8ne180100Ev
FNL:3,81,81
FNA:3,0,_ZNSt3__115insert_iteratorINS_13unordered_setINS_12basic_stringIcNS_11char_traitsIcEENS_9allocatorIcEEEENS_4hashIS7_EENS_8equal_toIS7_EENS5_IS7_EEEEEppB8ne180100Ev
FNA:3,20,_ZNSt3__115insert_iteratorINS_6vectorINS_12basic_stringIcNS_11char_traitsIcEENS_9allocatorIcEEEENS5_IS7_EEEEEppB8ne180100Ev
FNL:4,87,88
FNA:4,12,_ZNSt3__18inserterB8ne180100INS_13unordered_setINS_12basic_stringIcNS_11char_traitsIcEENS_9allocatorIcEEEENS_4hashIS7_EENS_8equal_toIS7_EENS5_IS7_EEEEEENS_15insert_iteratorIT_EERSF_DTclL_ZNS_6ranges5__cpo5beginEEclsr3stdE7declvalISH_EEEE
FNA:4,12,_ZNSt3__18inserterB8ne180100INS_6vectorINS_12basic_stringIcNS_11char_traitsIcEENS_9allocatorIcEEEENS5_IS7_EEEEEENS_15insert_iteratorIT_EERSB_DTclL_ZNS_6ranges5__cpo5beginEEclsr3stdE7declvalISD_EEEE
FNF:5
FNH:5
DA:64,48
DA:65,48
DA:74,20
DA:75,20
DA:76,20
DA:77,20
DA:80,20
DA:81,20
DA:87,24
DA:88,24
LF:10
LH:10
end_of_record
TN:
SF:/Library/Developer/CommandLineTools/SDKs/MacOSX.sdk/usr/include/c++/v1/__iterator/iter_move.h
FNL:0,72,74
FNA:0,0,_ZNKSt3__16ranges11__iter_move4__fnclB8ne180100IRKPNS_12basic_stringIcNS_11char_traitsIcEENS_9allocatorIcEEEEEEDTclsr3stdE4movedeclsr3stdE7forwardIT_Efp_EEEOSD_
FNA:0,0,_ZNKSt3__16ranges11__iter_move4__fnclB8ne180100IRKPPN7testing9TestSuiteEEEDTclsr3stdE4movedeclsr3stdE7forwardIT_Efp_EEEOSA_
FNA:0,0,_ZNKSt3__16ranges11__iter_move4__fnclB8ne180100IRKPPcEEDTclsr3stdE4movedeclsr3stdE7forwardIT_Efp_EEEOS8_
FNF:1
FNH:0
DA:72,0
DA:74,0
LF:2
LH:0
end_of_record
TN:
SF:/Library/Developer/CommandLineTools/SDKs/MacOSX.sdk/usr/include/c++/v1/__iterator/move_iterator.h
FNL:0,113,113
FNA:0,0,_ZNSt3__113move_iteratorIPNS_12basic_stringIcNS_11char_traitsIcEENS_9allocatorIcEEEEEC1B8ne180100ES7_
FNA:0,0,_ZNSt3__113move_iteratorIPNS_12basic_stringIcNS_11char_traitsIcEENS_9allocatorIcEEEEEC2B8ne180100ES7_
FNA:0,0,_ZNSt3__113move_iteratorIPPN7testing9TestSuiteEEC1B8ne180100ES4_
FNA:0,0,_ZNSt3__113move_iteratorIPPN7testing9TestSuiteEEC2B8ne180100ES4_
FNA:0,0,_ZNSt3__113move_iteratorIPPcEC1B8ne180100ES2_
FNA:0,0,_ZNSt3__113move_iteratorIPPcEC2B8ne180100ES2_
FNL:1,115,117
FNA:1,0,_ZNSt3__113move_iteratorIPNS_12basic_stringIcNS_11char_traitsIcEENS_9allocatorIcEEEEEppB8ne180100Ev
FNA:1,0,_ZNSt3__113move_iteratorIPPN7testing9TestSuiteEEppB8ne180100Ev
FNA:1,0,_ZNSt3__113move_iteratorIPPcEppB8ne180100Ev
FNL:2,140,140
FNA:2,0,_ZNKRSt3__113move_iteratorIPNS_12basic_stringIcNS_11char_traitsIcEENS_9allocatorIcEEEEE4baseB8ne180100Ev
FNA:2,0,_ZNKRSt3__113move_iteratorIPPN7testing9TestSuiteEE4baseB8ne180100Ev
FNA:2,0,_ZNKRSt3__113move_iteratorIPPcE4baseB8ne180100Ev
FNL:3,143,143
FNA:3,0,_ZNKSt3__113move_iteratorIPNS_12basic_stringIcNS_11char_traitsIcEENS_9allocatorIcEEEEEdeB8ne180100Ev
FNA:3,0,_ZNKSt3__113move_iteratorIPPN7testing9TestSuiteEEdeB8ne180100Ev
FNA:3,0,_ZNKSt3__113move_iteratorIPPcEdeB8ne180100Ev
FNL:4,304,305
FNA:4,0,_ZNSt3__1miB8ne180100IPNS_12basic_stringIcNS_11char_traitsIcEENS_9allocatorIcEEEES7_EEDTmicldtfp_4baseEcldtfp0_4baseEERKNS_13move_iteratorIT_EERKNS9_IT0_EE
FNA:4,0,_ZNSt3__1miB8ne180100IPPN7testing9TestSuiteES4_EEDTmicldtfp_4baseEcldtfp0_4baseEERKNS_13move_iteratorIT_EERKNS6_IT0_EE
FNA:4,0,_ZNSt3__1miB8ne180100IPPcS2_EEDTmicldtfp_4baseEcldtfp0_4baseEERKNS_13move_iteratorIT_EERKNS4_IT0_EE
FNF:5
FNH:0
DA:113,0
DA:115,0
DA:116,0
DA:117,0
DA:140,0
DA:143,0
DA:304,0
DA:305,0
LF:8
LH:0
end_of_record
TN:
SF:/Library/Developer/CommandLineTools/SDKs/MacOSX.sdk/usr/include/c++/v1/__iterator/next.h
FNL:0,29,36
FNA:0,0,_ZNSt3__14nextB8ne180100INS_21__tree_const_iteratorINS_12__value_typeINS_12basic_stringIcNS_11char_traitsIcEENS_9allocatorIcEEEEdEEPNS_11__tree_nodeIS9_PvEElEELi0EEET_SF_NS_15iterator_traitsISF_E15difference_typeE
FNA:0,0,_ZNSt3__14nextB8ne180100IPKN7pyfolio8DateTimeELi0EEET_S5_NS_15iterator_traitsIS5_E15difference_typeE
FNA:0,0,_ZNSt3__14nextB8ne180100IPKNS_3mapINS_12basic_stringIcNS_11char_traitsIcEENS_9allocatorIcEEEEdNS_4lessIS7_EENS5_INS_4pairIKS7_dEEEEEELi0EEET_SH_NS_15iterator_traitsISH_E15difference_typeE
FNA:0,0,_ZNSt3__14nextB8ne180100IPKdLi0EEET_S3_NS_15iterator_traitsIS3_E15difference_typeE
FNA:0,0,_ZNSt3__14nextB8ne180100IPN7pyfolio8DateTimeELi0EEET_S4_NS_15iterator_traitsIS4_E15difference_typeE
FNF:1
FNH:0
DA:29,0
DA:35,0
DA:36,0
LF:3
LH:0
end_of_record
TN:
SF:/Library/Developer/CommandLineTools/SDKs/MacOSX.sdk/usr/include/c++/v1/__iterator/ostreambuf_iterator.h
FNL:0,53,53
FNA:0,1962,_ZNSt3__119ostreambuf_iteratorIcNS_11char_traitsIcEEEC1B8ne180100ERNS_13basic_ostreamIcS2_EE
FNA:0,1962,_ZNSt3__119ostreambuf_iteratorIcNS_11char_traitsIcEEEC2B8ne180100ERNS_13basic_ostreamIcS2_EE
FNL:1,63,63
FNA:1,1962,_ZNKSt3__119ostreambuf_iteratorIcNS_11char_traitsIcEEE6failedB8ne180100Ev
FNF:2
FNH:2
DA:53,3924
DA:63,1962
LF:2
LH:2
end_of_record
TN:
SF:/Library/Developer/CommandLineTools/SDKs/MacOSX.sdk/usr/include/c++/v1/__iterator/prev.h
FNL:0,29,35
FNA:0,24,_ZNSt3__14prevB8ne180100INS_11__wrap_iterIPcEELi0EEET_S4_NS_15iterator_traitsIS4_E15difference_typeE
FNA:0,0,_ZNSt3__14prevB8ne180100INS_16reverse_iteratorIPN7testing12TestPropertyEEELi0EEET_S6_NS_15iterator_traitsIS6_E15difference_typeE
FNA:0,0,_ZNSt3__14prevB8ne180100INS_16reverse_iteratorIPN7testing14TestPartResultEEELi0EEET_S6_NS_15iterator_traitsIS6_E15difference_typeE
FNA:0,0,_ZNSt3__14prevB8ne180100INS_16reverse_iteratorIPN7testing8internal9TraceInfoEEELi0EEET_S7_NS_15iterator_traitsIS7_E15difference_typeE
FNA:0,0,_ZNSt3__14prevB8ne180100INS_16reverse_iteratorIPNS_12basic_stringIcNS_11char_traitsIcEENS_9allocatorIcEEEEEELi0EEET_SA_NS_15iterator_traitsISA_E15difference_typeE
FNA:0,0,_ZNSt3__14prevB8ne180100INS_16reverse_iteratorIPNS_4pairIN7pyfolio8DateTimeEdEEEELi0EEET_S8_NS_15iterator_traitsIS8_E15difference_typeE
FNA:0,0,_ZNSt3__14prevB8ne180100INS_16reverse_iteratorIPNS_6threadEEELi0EEET_S5_NS_15iterator_traitsIS5_E15difference_typeE
FNA:0,0,_ZNSt3__14prevB8ne180100IPN7testing12TestPropertyELi0EEET_S4_NS_15iterator_traitsIS4_E15difference_typeE
FNA:0,7,_ZNSt3__14prevB8ne180100IPN7testing14TestPartResultELi0EEET_S4_NS_15iterator_traitsIS4_E15difference_typeE
FNA:0,0,_ZNSt3__14prevB8ne180100IPN7testing8internal9TraceInfoELi0EEET_S5_NS_15iterator_traitsIS5_E15difference_typeE
FNA:0,8,_ZNSt3__14prevB8ne180100IPNS_12basic_stringIcNS_11char_traitsIcEENS_9allocatorIcEEEELi0EEET_S8_NS_15iterator_traitsIS8_E15difference_typeE
FNA:0,0,_ZNSt3__14prevB8ne180100IPNS_3mapINS_12basic_stringIcNS_11char_traitsIcEENS_9allocatorIcEEEEdNS_4lessIS7_EENS5_INS_4pairIKS7_dEEEEEELi0EEET_SG_NS_15iterator_traitsISG_E15difference_typeE
FNA:0,0,_ZNSt3__14prevB8ne180100IPNS_4pairIN7pyfolio8DateTimeEdEELi0EEET_S6_NS_15iterator_traitsIS6_E15difference_typeE
FNA:0,15,_ZNSt3__14prevB8ne180100IPNS_6threadELi0EEET_S3_NS_15iterator_traitsIS3_E15difference_typeE
FNF:1
FNH:1
DA:29,54
DA:34,54
DA:35,54
LF:3
LH:3
end_of_record
TN:
SF:/Library/Developer/CommandLineTools/SDKs/MacOSX.sdk/usr/include/c++/v1/__iterator/reverse_iterator.h
FNL:0,129,129
FNA:0,0,_ZNKSt3__116reverse_iteratorINS0_IPN7testing12TestPropertyEEEE4baseB8ne180100Ev
FNA:0,0,_ZNKSt3__116reverse_iteratorINS0_IPN7testing14TestPartResultEEEE4baseB8ne180100Ev
FNA:0,0,_ZNKSt3__116reverse_iteratorINS0_IPN7testing8internal9TraceInfoEEEE4baseB8ne180100Ev
FNA:0,0,_ZNKSt3__116reverse_iteratorINS0_IPNS_12basic_stringIcNS_11char_traitsIcEENS_9allocatorIcEEEEEEE4baseB8ne180100Ev
FNA:0,0,_ZNKSt3__116reverse_iteratorINS0_IPNS_4pairIN7pyfolio8DateTimeEdEEEEE4baseB8ne180100Ev
FNA:0,0,_ZNKSt3__116reverse_iteratorINS0_IPNS_6threadEEEE4baseB8ne180100Ev
FNA:0,8,_ZNKSt3__116reverse_iteratorINS_11__wrap_iterIPPN7testing11EnvironmentEEEE4baseB8ne180100Ev
FNA:0,252,_ZNKSt3__116reverse_iteratorINS_11__wrap_iterIPPN7testing9TestSuiteEEEE4baseB8ne180100Ev
FNA:0,3,_ZNKSt3__116reverse_iteratorIPN7pyfolio8DateTimeEE4baseB8ne180100Ev
FNA:0,0,_ZNKSt3__116reverse_iteratorIPN7testing12TestPropertyEE4baseB8ne180100Ev
FNA:0,35,_ZNKSt3__116reverse_iteratorIPN7testing14TestPartResultEE4baseB8ne180100Ev
FNA:0,0,_ZNKSt3__116reverse_iteratorIPN7testing8internal13edit_distance8EditTypeEE4baseB8ne180100Ev
FNA:0,0,_ZNKSt3__116reverse_iteratorIPN7testing8internal9TraceInfoEE4baseB8ne180100Ev
FNA:0,142,_ZNKSt3__116reverse_iteratorIPNS_12basic_stringIcNS_11char_traitsIcEENS_9allocatorIcEEEEE4baseB8ne180100Ev
FNA:0,0,_ZNKSt3__116reverse_iteratorIPNS_3mapINS_12basic_stringIcNS_11char_traitsIcEENS_9allocatorIcEEEEdNS_4lessIS7_EENS5_INS_4pairIKS7_dEEEEEEE4baseB8ne180100Ev
FNA:0,0,_ZNKSt3__116reverse_iteratorIPNS_4pairIN7pyfolio8DateTimeEdEEE4baseB8ne180100Ev
FNA:0,45,_ZNKSt3__116reverse_iteratorIPNS_6threadEE4baseB8ne180100Ev
FNA:0,0,_ZNKSt3__116reverse_iteratorIPPN7testing11EnvironmentEE4baseB8ne180100Ev
FNA:0,12,_ZNKSt3__116reverse_iteratorIPPN7testing17TestEventListenerEE4baseB8ne180100Ev
FNA:0,285,_ZNKSt3__116reverse_iteratorIPPN7testing8TestInfoEE4baseB8ne180100Ev
FNA:0,12,_ZNKSt3__116reverse_iteratorIPPN7testing9TestSuiteEE4baseB8ne180100Ev
FNA:0,0,_ZNKSt3__116reverse_iteratorIPPcE4baseB8ne180100Ev
FNA:0,163,_ZNKSt3__116reverse_iteratorIPdE4baseB8ne180100Ev
FNA:0,297,_ZNKSt3__116reverse_iteratorIPiE4baseB8ne180100Ev
FNA:0,0,_ZNKSt3__116reverse_iteratorIPmE4baseB8ne180100Ev
FNL:1,130,132
FNA:1,0,_ZNKSt3__116reverse_iteratorINS_11__wrap_iterIPPN7testing11EnvironmentEEEEdeB8ne180100Ev
FNA:1,118,_ZNKSt3__116reverse_iteratorINS_11__wrap_iterIPPN7testing9TestSuiteEEEEdeB8ne180100Ev
FNA:1,0,_ZNKSt3__116reverse_iteratorIPN7pyfolio8DateTimeEEdeB8ne180100Ev
FNA:1,0,_ZNKSt3__116reverse_iteratorIPN7testing12TestPropertyEEdeB8ne180100Ev
FNA:1,7,_ZNKSt3__116reverse_iteratorIPN7testing14TestPartResultEEdeB8ne180100Ev
FNA:1,0,_ZNKSt3__116reverse_iteratorIPN7testing8internal13edit_distance8EditTypeEEdeB8ne180100Ev
FNA:1,0,_ZNKSt3__116reverse_iteratorIPN7testing8internal9TraceInfoEEdeB8ne180100Ev
FNA:1,8,_ZNKSt3__116reverse_iteratorIPNS_12basic_stringIcNS_11char_traitsIcEENS_9allocatorIcEEEEEdeB8ne180100Ev
FNA:1,0,_ZNKSt3__116reverse_iteratorIPNS_4pairIN7pyfolio8DateTimeEdEEEdeB8ne180100Ev
FNA:1,15,_ZNKSt3__116reverse_iteratorIPNS_6threadEEdeB8ne180100Ev
FNA:1,0,_ZNKSt3__116reverse_iteratorIPPN7testing11EnvironmentEEdeB8ne180100Ev
FNA:1,0,_ZNKSt3__116reverse_iteratorIPPN7testing17TestEventListenerEEdeB8ne180100Ev
FNA:1,216,_ZNKSt3__116reverse_iteratorIPPN7testing8TestInfoEEdeB8ne180100Ev
FNA:1,0,_ZNKSt3__116reverse_iteratorIPPN7testing9TestSuiteEEdeB8ne180100Ev
FNA:1,0,_ZNKSt3__116reverse_iteratorIPPcEdeB8ne180100Ev
FNA:1,88,_ZNKSt3__116reverse_iteratorIPdEdeB8ne180100Ev
FNA:1,216,_ZNKSt3__116reverse_iteratorIPiEdeB8ne180100Ev
FNA:1,0,_ZNKSt3__116reverse_iteratorIPmEdeB8ne180100Ev
FNL:2,136,142
FNA:2,0,_ZNKSt3__116reverse_iteratorINS0_IPN7testing12TestPropertyEEEEptB8ne180100Ev
FNA:2,0,_ZNKSt3__116reverse_iteratorINS0_IPN7testing14TestPartResultEEEEptB8ne180100Ev
FNA:2,0,_ZNKSt3__116reverse_iteratorINS0_IPN7testing8internal9TraceInfoEEEEptB8ne180100Ev
FNA:2,0,_ZNKSt3__116reverse_iteratorINS0_IPNS_12basic_stringIcNS_11char_traitsIcEENS_9allocatorIcEEEEEEEptB8ne180100Ev
FNA:2,0,_ZNKSt3__116reverse_iteratorINS0_IPNS_4pairIN7pyfolio8DateTimeEdEEEEEptB8ne180100Ev
FNA:2,0,_ZNKSt3__116reverse_iteratorINS0_IPNS_6threadEEEEptB8ne180100Ev
FNA:2,0,_ZNKSt3__116reverse_iteratorIPN7testing12TestPropertyEEptB8ne180100Ev
FNA:2,7,_ZNKSt3__116reverse_iteratorIPN7testing14TestPartResultEEptB8ne180100Ev
FNA:2,0,_ZNKSt3__116reverse_iteratorIPN7testing8internal9TraceInfoEEptB8ne180100Ev
FNA:2,8,_ZNKSt3__116reverse_iteratorIPNS_12basic_stringIcNS_11char_traitsIcEENS_9allocatorIcEEEEEptB8ne180100Ev
FNA:2,0,_ZNKSt3__116reverse_iteratorIPNS_3mapINS_12basic_stringIcNS_11char_traitsIcEENS_9allocatorIcEEEEdNS_4lessIS7_EENS5_INS_4pairIKS7_dEEEEEEEptB8ne180100Ev
FNA:2,0,_ZNKSt3__116reverse_iteratorIPNS_4pairIN7pyfolio8DateTimeEdEEEptB8ne180100Ev
FNA:2,15,_ZNKSt3__116reverse_iteratorIPNS_6threadEEptB8ne180100Ev
FNL:3,149,151
FNA:3,0,_ZNSt3__116reverse_iteratorINS0_IPN7testing12TestPropertyEEEEppB8ne180100Ev
FNA:3,0,_ZNSt3__116reverse_iteratorINS0_IPN7testing14TestPartResultEEEEppB8ne180100Ev
FNA:3,0,_ZNSt3__116reverse_iteratorINS0_IPN7testing8internal9TraceInfoEEEEppB8ne180100Ev
FNA:3,0,_ZNSt3__116reverse_iteratorINS0_IPNS_12basic_stringIcNS_11char_traitsIcEENS_9allocatorIcEEEEEEEppB8ne180100Ev
FNA:3,0,_ZNSt3__116reverse_iteratorINS0_IPNS_4pairIN7pyfolio8DateTimeEdEEEEEppB8ne180100Ev
FNA:3,0,_ZNSt3__116reverse_iteratorINS0_IPNS_6threadEEEEppB8ne180100Ev
FNA:3,0,_ZNSt3__116reverse_iteratorINS_11__wrap_iterIPPN7testing11EnvironmentEEEEppB8ne180100Ev
FNA:3,0,_ZNSt3__116reverse_iteratorINS_11__wrap_iterIPPN7testing9TestSuiteEEEEppB8ne180100Ev
FNA:3,0,_ZNSt3__116reverse_iteratorIPN7pyfolio8DateTimeEEppB8ne180100Ev
FNA:3,0,_ZNSt3__116reverse_iteratorIPN7testing12TestPropertyEEppB8ne180100Ev
FNA:3,14,_ZNSt3__116reverse_iteratorIPN7testing14TestPartResultEEppB8ne180100Ev
FNA:3,0,_ZNSt3__116reverse_iteratorIPN7testing8internal13edit_distance8EditTypeEEppB8ne180100Ev
FNA:3,0,_ZNSt3__116reverse_iteratorIPN7testing8internal9TraceInfoEEppB8ne180100Ev
FNA:3,16,_ZNSt3__116reverse_iteratorIPNS_12basic_stringIcNS_11char_traitsIcEENS_9allocatorIcEEEEEppB8ne180100Ev
FNA:3,0,_ZNSt3__116reverse_iteratorIPNS_3mapINS_12basic_stringIcNS_11char_traitsIcEENS_9allocatorIcEEEEdNS_4lessIS7_EENS5_INS_4pairIKS7_dEEEEEEEppB8ne180100Ev
FNA:3,0,_ZNSt3__116reverse_iteratorIPNS_4pairIN7pyfolio8DateTimeEdEEEppB8ne180100Ev
FNA:3,30,_ZNSt3__116reverse_iteratorIPNS_6threadEEppB8ne180100Ev
FNA:3,0,_ZNSt3__116reverse_iteratorIPPN7testing11EnvironmentEEppB8ne180100Ev
FNA:3,0,_ZNSt3__116reverse_iteratorIPPN7testing17TestEventListenerEEppB8ne180100Ev
FNA:3,216,_ZNSt3__116reverse_iteratorIPPN7testing8TestInfoEEppB8ne180100Ev
FNA:3,0,_ZNSt3__116reverse_iteratorIPPN7testing9TestSuiteEEppB8ne180100Ev
FNA:3,0,_ZNSt3__116reverse_iteratorIPPcEppB8ne180100Ev
FNA:3,88,_ZNSt3__116reverse_iteratorIPdEppB8ne180100Ev
FNA:3,216,_ZNSt3__116reverse_iteratorIPiEppB8ne180100Ev
FNA:3,0,_ZNSt3__116reverse_iteratorIPmEppB8ne180100Ev
FNL:4,158,160
FNA:4,0,_ZNSt3__116reverse_iteratorIPN7testing12TestPropertyEEmmB8ne180100Ev
FNA:4,0,_ZNSt3__116reverse_iteratorIPN7testing14TestPartResultEEmmB8ne180100Ev
FNA:4,0,_ZNSt3__116reverse_iteratorIPN7testing8internal9TraceInfoEEmmB8ne180100Ev
FNA:4,0,_ZNSt3__116reverse_iteratorIPNS_12basic_stringIcNS_11char_traitsIcEENS_9allocatorIcEEEEEmmB8ne180100Ev
FNA:4,0,_ZNSt3__116reverse_iteratorIPNS_4pairIN7pyfolio8DateTimeEdEEEmmB8ne180100Ev
FNA:4,0,_ZNSt3__116reverse_iteratorIPNS_6threadEEmmB8ne180100Ev
FNL:5,170,172
FNA:5,0,_ZNSt3__116reverse_iteratorIPN7testing12TestPropertyEEpLB8ne180100El
FNA:5,0,_ZNSt3__116reverse_iteratorIPN7testing14TestPartResultEEpLB8ne180100El
FNA:5,0,_ZNSt3__116reverse_iteratorIPN7testing8internal9TraceInfoEEpLB8ne180100El
FNA:5,0,_ZNSt3__116reverse_iteratorIPNS_12basic_stringIcNS_11char_traitsIcEENS_9allocatorIcEEEEEpLB8ne180100El
FNA:5,0,_ZNSt3__116reverse_iteratorIPNS_4pairIN7pyfolio8DateTimeEdEEEpLB8ne180100El
FNA:5,0,_ZNSt3__116reverse_iteratorIPNS_6threadEEpLB8ne180100El
FNL:6,231,238
FNA:6,4,_ZNSt3__1neB8ne180100INS_11__wrap_iterIPPN7testing11EnvironmentEEES6_EEbRKNS_16reverse_iteratorIT_EERKNS7_IT0_EE
FNA:6,126,_ZNSt3__1neB8ne180100INS_11__wrap_iterIPPN7testing9TestSuiteEEES6_EEbRKNS_16reverse_iteratorIT_EERKNS7_IT0_EE
FNA:6,0,_ZNSt3__1neB8ne180100INS_16reverse_iteratorIPN7testing12TestPropertyEEES5_EEbRKNS1_IT_EERKNS1_IT0_EE
FNA:6,0,_ZNSt3__1neB8ne180100INS_16reverse_iteratorIPN7testing14TestPartResultEEES5_EEbRKNS1_IT_EERKNS1_IT0_EE
FNA:6,0,_ZNSt3__1neB8ne180100INS_16reverse_iteratorIPN7testing8internal9TraceInfoEEES6_EEbRKNS1_IT_EERKNS1_IT0_EE
FNA:6,0,_ZNSt3__1neB8ne180100INS_16reverse_iteratorIPNS_12basic_stringIcNS_11char_traitsIcEENS_9allocatorIcEEEEEES9_EEbRKNS1_IT_EERKNS1_IT0_EE
FNA:6,0,_ZNSt3__1neB8ne180100INS_16reverse_iteratorIPNS_4pairIN7pyfolio8DateTimeEdEEEES7_EEbRKNS1_IT_EERKNS1_IT0_EE
FNA:6,0,_ZNSt3__1neB8ne180100INS_16reverse_iteratorIPNS_6threadEEES4_EEbRKNS1_IT_EERKNS1_IT0_EE
FNA:6,1,_ZNSt3__1neB8ne180100IPN7pyfolio8DateTimeES3_EEbRKNS_16reverse_iteratorIT_EERKNS4_IT0_EE
FNA:6,0,_ZNSt3__1neB8ne180100IPN7testing12TestPropertyES3_EEbRKNS_16reverse_iteratorIT_EERKNS4_IT0_EE
FNA:6,14,_ZNSt3__1neB8ne180100IPN7testing14TestPartResultES3_EEbRKNS_16reverse_iteratorIT_EERKNS4_IT0_EE
FNA:6,0,_ZNSt3__1neB8ne180100IPN7testing8internal13edit_distance8EditTypeES5_EEbRKNS_16reverse_iteratorIT_EERKNS6_IT0_EE
FNA:6,0,_ZNSt3__1neB8ne180100IPN7testing8internal9TraceInfoES4_EEbRKNS_16reverse_iteratorIT_EERKNS5_IT0_EE
FNA:6,50,_ZNSt3__1neB8ne180100IPNS_12basic_stringIcNS_11char_traitsIcEENS_9allocatorIcEEEES7_EEbRKNS_16reverse_iteratorIT_EERKNS8_IT0_EE
FNA:6,0,_ZNSt3__1neB8ne180100IPNS_3mapINS_12basic_stringIcNS_11char_traitsIcEENS_9allocatorIcEEEEdNS_4lessIS7_EENS5_INS_4pairIKS7_dEEEEEESF_EEbRKNS_16reverse_iteratorIT_EERKNSG_IT0_EE
FNA:6,0,_ZNSt3__1neB8ne180100IPNS_4pairIN7pyfolio8DateTimeEdEES5_EEbRKNS_16reverse_iteratorIT_EERKNS6_IT0_EE
FNA:6,20,_ZNSt3__1neB8ne180100IPNS_6threadES2_EEbRKNS_16reverse_iteratorIT_EERKNS3_IT0_EE
FNA:6,0,_ZNSt3__1neB8ne180100IPPN7testing11EnvironmentES4_EEbRKNS_16reverse_iteratorIT_EERKNS5_IT0_EE
FNA:6,4,_ZNSt3__1neB8ne180100IPPN7testing17TestEventListenerES4_EEbRKNS_16reverse_iteratorIT_EERKNS5_IT0_EE
FNA:6,131,_ZNSt3__1neB8ne180100IPPN7testing8TestInfoES4_EEbRKNS_16reverse_iteratorIT_EERKNS5_IT0_EE
FNA:6,4,_ZNSt3__1neB8ne180100IPPN7testing9TestSuiteES4_EEbRKNS_16reverse_iteratorIT_EERKNS5_IT0_EE
FNA:6,0,_ZNSt3__1neB8ne180100IPPcS2_EEbRKNS_16reverse_iteratorIT_EERKNS3_IT0_EE
FNA:6,69,_ZNSt3__1neB8ne180100IPdS1_EEbRKNS_16reverse_iteratorIT_EERKNS2_IT0_EE
FNA:6,135,_ZNSt3__1neB8ne180100IPiS1_EEbRKNS_16reverse_iteratorIT_EERKNS2_IT0_EE
FNA:6,0,_ZNSt3__1neB8ne180100IPmS1_EEbRKNS_16reverse_iteratorIT_EERKNS2_IT0_EE
FNL:7,97,97
FNA:7,0,_ZNSt3__116reverse_iteratorINS0_IPN7testing12TestPropertyEEEEC1B8ne180100ES4_
FNA:7,0,_ZNSt3__116reverse_iteratorINS0_IPN7testing12TestPropertyEEEEC2B8ne180100ES4_
FNA:7,0,_ZNSt3__116reverse_iteratorINS0_IPN7testing14TestPartResultEEEEC1B8ne180100ES4_
FNA:7,0,_ZNSt3__116reverse_iteratorINS0_IPN7testing14TestPartResultEEEEC2B8ne180100ES4_
FNA:7,0,_ZNSt3__116reverse_iteratorINS0_IPN7testing8internal9TraceInfoEEEEC1B8ne180100ES5_
FNA:7,0,_ZNSt3__116reverse_iteratorINS0_IPN7testing8internal9TraceInfoEEEEC2B8ne180100ES5_
FNA:7,0,_ZNSt3__116reverse_iteratorINS0_IPNS_12basic_stringIcNS_11char_traitsIcEENS_9allocatorIcEEEEEEEC1B8ne180100ES8_
FNA:7,0,_ZNSt3__116reverse_iteratorINS0_IPNS_12basic_stringIcNS_11char_traitsIcEENS_9allocatorIcEEEEEEEC2B8ne180100ES8_
FNA:7,0,_ZNSt3__116reverse_iteratorINS0_IPNS_4pairIN7pyfolio8DateTimeEdEEEEEC1B8ne180100ES6_
FNA:7,0,_ZNSt3__116reverse_iteratorINS0_IPNS_4pairIN7pyfolio8DateTimeEdEEEEEC2B8ne180100ES6_
FNA:7,0,_ZNSt3__116reverse_iteratorINS0_IPNS_6threadEEEEC1B8ne180100ES3_
FNA:7,0,_ZNSt3__116reverse_iteratorINS0_IPNS_6threadEEEEC2B8ne180100ES3_
FNA:7,8,_ZNSt3__116reverse_iteratorINS_11__wrap_iterIPPN7testing11EnvironmentEEEEC1B8ne180100ES6_
FNA:7,8,_ZNSt3__116reverse_iteratorINS_11__wrap_iterIPPN7testing11EnvironmentEEEEC2B8ne180100ES6_
FNA:7,189,_ZNSt3__116reverse_iteratorINS_11__wrap_iterIPPN7testing9TestSuiteEEEEC1B8ne180100ES6_
FNA:7,189,_ZNSt3__116reverse_iteratorINS_11__wrap_iterIPPN7testing9TestSuiteEEEEC2B8ne180100ES6_
FNA:7,3,_ZNSt3__116reverse_iteratorIPN7pyfolio8DateTimeEEC1B8ne180100ES3_
FNA:7,3,_ZNSt3__116reverse_iteratorIPN7pyfolio8DateTimeEEC2B8ne180100ES3_
FNA:7,0,_ZNSt3__116reverse_iteratorIPN7testing12TestPropertyEEC1B8ne180100ES3_
FNA:7,0,_ZNSt3__116reverse_iteratorIPN7testing12TestPropertyEEC2B8ne180100ES3_
FNA:7,21,_ZNSt3__116reverse_iteratorIPN7testing14TestPartResultEEC1B8ne180100ES3_
FNA:7,21,_ZNSt3__116reverse_iteratorIPN7testing14TestPartResultEEC2B8ne180100ES3_
FNA:7,0,_ZNSt3__116reverse_iteratorIPN7testing8internal13edit_distance8EditTypeEEC1B8ne180100ES5_
FNA:7,0,_ZNSt3__116reverse_iteratorIPN7testing8internal13edit_distance8EditTypeEEC2B8ne180100ES5_
FNA:7,0,_ZNSt3__116reverse_iteratorIPN7testing8internal9TraceInfoEEC1B8ne180100ES4_
FNA:7,0,_ZNSt3__116reverse_iteratorIPN7testing8internal9TraceInfoEEC2B8ne180100ES4_
FNA:7,126,_ZNSt3__116reverse_iteratorIPNS_12basic_stringIcNS_11char_traitsIcEENS_9allocatorIcEEEEEC1B8ne180100ES7_
FNA:7,126,_ZNSt3__116reverse_iteratorIPNS_12basic_stringIcNS_11char_traitsIcEENS_9allocatorIcEEEEEC2B8ne180100ES7_
FNA:7,0,_ZNSt3__116reverse_iteratorIPNS_3mapINS_12basic_stringIcNS_11char_traitsIcEENS_9allocatorIcEEEEdNS_4lessIS7_EENS5_INS_4pairIKS7_dEEEEEEEC1B8ne180100ESF_
FNA:7,0,_ZNSt3__116reverse_iteratorIPNS_3mapINS_12basic_stringIcNS_11char_traitsIcEENS_9allocatorIcEEEEdNS_4lessIS7_EENS5_INS_4pairIKS7_dEEEEEEEC2B8ne180100ESF_
FNA:7,0,_ZNSt3__116reverse_iteratorIPNS_4pairIN7pyfolio8DateTimeEdEEEC1B8ne180100ES5_
FNA:7,0,_ZNSt3__116reverse_iteratorIPNS_4pairIN7pyfolio8DateTimeEdEEEC2B8ne180100ES5_
FNA:7,15,_ZNSt3__116reverse_iteratorIPNS_6threadEEC1B8ne180100ES2_
FNA:7,15,_ZNSt3__116reverse_iteratorIPNS_6threadEEC2B8ne180100ES2_
FNA:7,0,_ZNSt3__116reverse_iteratorIPPN7testing11EnvironmentEEC1B8ne180100ES4_
FNA:7,0,_ZNSt3__116reverse_iteratorIPPN7testing11EnvironmentEEC2B8ne180100ES4_
FNA:7,12,_ZNSt3__116reverse_iteratorIPPN7testing17TestEventListenerEEC1B8ne180100ES4_
FNA:7,12,_ZNSt3__116reverse_iteratorIPPN7testing17TestEventListenerEEC2B8ne180100ES4_
FNA:7,69,_ZNSt3__116reverse_iteratorIPPN7testing8TestInfoEEC1B8ne180100ES4_
FNA:7,69,_ZNSt3__116reverse_iteratorIPPN7testing8TestInfoEEC2B8ne180100ES4_
FNA:7,12,_ZNSt3__116reverse_iteratorIPPN7testing9TestSuiteEEC1B8ne180100ES4_
FNA:7,12,_ZNSt3__116reverse_iteratorIPPN7testing9TestSuiteEEC2B8ne180100ES4_
FNA:7,0,_ZNSt3__116reverse_iteratorIPPcEC1B8ne180100ES2_
FNA:7,0,_ZNSt3__116reverse_iteratorIPPcEC2B8ne180100ES2_
FNA:7,75,_ZNSt3__116reverse_iteratorIPdEC1B8ne180100ES1_
FNA:7,75,_ZNSt3__116reverse_iteratorIPdEC2B8ne180100ES1_
FNA:7,81,_ZNSt3__116reverse_iteratorIPiEC1B8ne180100ES1_
FNA:7,81,_ZNSt3__116reverse_iteratorIPiEC2B8ne180100ES1_
FNA:7,0,_ZNSt3__116reverse_iteratorIPmEC1B8ne180100ES1_
FNA:7,0,_ZNSt3__116reverse_iteratorIPmEC2B8ne180100ES1_
FNF:8
FNH:6
DA:97,1222
DA:129,1254
DA:130,668
DA:131,668
DA:132,668
DA:136,30
DA:140,30
DA:142,0
DA:149,580
DA:150,580
DA:151,580
DA:158,0
DA:159,0
DA:160,0
DA:170,0
DA:171,0
DA:172,0
DA:231,558
DA:238,558
LF:19
LH:12
end_of_record
TN:
SF:/Library/Developer/CommandLineTools/SDKs/MacOSX.sdk/usr/include/c++/v1/__iterator/wrap_iter.h
FNL:0,108,109
FNA:0,437,_ZNSt3__1eqB8ne180100IPKN7testing14TestPartResultEEEbRKNS_11__wrap_iterIT_EES9_
FNA:0,0,_ZNSt3__1eqB8ne180100IPKN7testing8internal13edit_distance8EditTypeEEEbRKNS_11__wrap_iterIT_EESB_
FNA:0,516,_ZNSt3__1eqB8ne180100IPKNS_12basic_stringIcNS_11char_traitsIcEENS_9allocatorIcEEEEEEbRKNS_11__wrap_iterIT_EESD_
FNA:0,4,_ZNSt3__1eqB8ne180100IPKPN7testing11EnvironmentEEEbRKNS_11__wrap_iterIT_EESA_
FNA:0,0,_ZNSt3__1eqB8ne180100IPKPN7testing17TestEventListenerEEEbRKNS_11__wrap_iterIT_EESA_
FNA:0,708,_ZNSt3__1eqB8ne180100IPKPN7testing8TestInfoEEEbRKNS_11__wrap_iterIT_EESA_
FNA:0,40,_ZNSt3__1eqB8ne180100IPKPN7testing9TestSuiteEEEbRKNS_11__wrap_iterIT_EESA_
FNA:0,1229,_ZNSt3__1eqB8ne180100IPKcEEbRKNS_11__wrap_iterIT_EES7_
FNA:0,344,_ZNSt3__1eqB8ne180100IPKdEEbRKNS_11__wrap_iterIT_EES7_
FNA:0,0,_ZNSt3__1eqB8ne180100IPN7testing12TestPropertyEEEbRKNS_11__wrap_iterIT_EES8_
FNA:0,0,_ZNSt3__1eqB8ne180100IPN7testing8internal13edit_distance8EditTypeEEEbRKNS_11__wrap_iterIT_EESA_
FNA:0,32,_ZNSt3__1eqB8ne180100IPNS_12basic_stringIcNS_11char_traitsIcEENS_9allocatorIcEEEEEEbRKNS_11__wrap_iterIT_EESC_
FNA:0,11,_ZNSt3__1eqB8ne180100IPNS_6threadEEEbRKNS_11__wrap_iterIT_EES7_
FNA:0,4,_ZNSt3__1eqB8ne180100IPPN7testing11EnvironmentEEEbRKNS_11__wrap_iterIT_EES9_
FNA:0,4,_ZNSt3__1eqB8ne180100IPPN7testing8internal30ParameterizedTestSuiteInfoBaseEEEbRKNS_11__wrap_iterIT_EESA_
FNA:0,134,_ZNSt3__1eqB8ne180100IPPN7testing9TestSuiteEEEbRKNS_11__wrap_iterIT_EES9_
FNA:0,0,_ZNSt3__1eqB8ne180100IPPcEEbRKNS_11__wrap_iterIT_EES7_
FNA:0,28,_ZNSt3__1eqB8ne180100IPcEEbRKNS_11__wrap_iterIT_EES6_
FNA:0,191,_ZNSt3__1eqB8ne180100IPdEEbRKNS_11__wrap_iterIT_EES6_
FNL:1,114,115
FNA:1,0,_ZNSt3__1eqB8ne180100IPKNS_12basic_stringIcNS_11char_traitsIcEENS_9allocatorIcEEEEPS6_EEbRKNS_11__wrap_iterIT_EERKNSA_IT0_EE
FNA:1,284,_ZNSt3__1eqB8ne180100IPKcPcEEbRKNS_11__wrap_iterIT_EERKNS4_IT0_EE
FNL:2,120,121
FNA:2,0,_ZNSt3__1ltB8ne180100IPN7testing8internal13edit_distance8EditTypeEEEbRKNS_11__wrap_iterIT_EESA_
FNL:3,132,133
FNA:3,437,_ZNSt3__1neB8ne180100IPKN7testing14TestPartResultEEEbRKNS_11__wrap_iterIT_EES9_
FNA:3,0,_ZNSt3__1neB8ne180100IPKN7testing8internal13edit_distance8EditTypeEEEbRKNS_11__wrap_iterIT_EESB_
FNA:3,516,_ZNSt3__1neB8ne180100IPKNS_12basic_stringIcNS_11char_traitsIcEENS_9allocatorIcEEEEEEbRKNS_11__wrap_iterIT_EESD_
FNA:3,4,_ZNSt3__1neB8ne180100IPKPN7testing11EnvironmentEEEbRKNS_11__wrap_iterIT_EESA_
FNA:3,0,_ZNSt3__1neB8ne180100IPKPN7testing17TestEventListenerEEEbRKNS_11__wrap_iterIT_EESA_
FNA:3,708,_ZNSt3__1neB8ne180100IPKPN7testing8TestInfoEEEbRKNS_11__wrap_iterIT_EESA_
FNA:3,40,_ZNSt3__1neB8ne180100IPKPN7testing9TestSuiteEEEbRKNS_11__wrap_iterIT_EESA_
FNA:3,1229,_ZNSt3__1neB8ne180100IPKcEEbRKNS_11__wrap_iterIT_EES7_
FNA:3,344,_ZNSt3__1neB8ne180100IPKdEEbRKNS_11__wrap_iterIT_EES7_
FNA:3,0,_ZNSt3__1neB8ne180100IPN7testing12TestPropertyEEEbRKNS_11__wrap_iterIT_EES8_
FNA:3,0,_ZNSt3__1neB8ne180100IPN7testing8internal13edit_distance8EditTypeEEEbRKNS_11__wrap_iterIT_EESA_
FNA:3,11,_ZNSt3__1neB8ne180100IPNS_6threadEEEbRKNS_11__wrap_iterIT_EES7_
FNA:3,4,_ZNSt3__1neB8ne180100IPPN7testing11EnvironmentEEEbRKNS_11__wrap_iterIT_EES9_
FNA:3,4,_ZNSt3__1neB8ne180100IPPN7testing8internal30ParameterizedTestSuiteInfoBaseEEEbRKNS_11__wrap_iterIT_EESA_
FNA:3,134,_ZNSt3__1neB8ne180100IPPN7testing9TestSuiteEEEbRKNS_11__wrap_iterIT_EES9_
FNA:3,0,_ZNSt3__1neB8ne180100IPPcEEbRKNS_11__wrap_iterIT_EES7_
FNA:3,0,_ZNSt3__1neB8ne180100IPcEEbRKNS_11__wrap_iterIT_EES6_
FNA:3,184,_ZNSt3__1neB8ne180100IPdEEbRKNS_11__wrap_iterIT_EES6_
FNL:4,138,139
FNA:4,0,_ZNSt3__1neB8ne180100IPKNS_12basic_stringIcNS_11char_traitsIcEENS_9allocatorIcEEEEPS6_EEbRKNS_11__wrap_iterIT_EERKNSA_IT0_EE
FNA:4,284,_ZNSt3__1neB8ne180100IPKcPcEEbRKNS_11__wrap_iterIT_EERKNS4_IT0_EE
FNL:5,182,189
FNA:5,0,_ZNSt3__1miB8ne180100IPKN7testing8internal13edit_distance8EditTypeES6_EEDTmicldtfp_4baseEcldtfp0_4baseEERKNS_11__wrap_iterIT_EERKNS8_IT0_EE
FNA:5,20,_ZNSt3__1miB8ne180100IPKNS_12basic_stringIcNS_11char_traitsIcEENS_9allocatorIcEEEEPS6_EEDTmicldtfp_4baseEcldtfp0_4baseEERKNS_11__wrap_iterIT_EERKNSB_IT0_EE
FNA:5,0,_ZNSt3__1miB8ne180100IPKNS_12basic_stringIcNS_11char_traitsIcEENS_9allocatorIcEEEES8_EEDTmicldtfp_4baseEcldtfp0_4baseEERKNS_11__wrap_iterIT_EERKNSA_IT0_EE
FNA:5,0,_ZNSt3__1miB8ne180100IPKPN7testing17TestEventListenerES5_EEDTmicldtfp_4baseEcldtfp0_4baseEERKNS_11__wrap_iterIT_EERKNS7_IT0_EE
FNA:5,0,_ZNSt3__1miB8ne180100IPKPN7testing9TestSuiteEPS3_EEDTmicldtfp_4baseEcldtfp0_4baseEERKNS_11__wrap_iterIT_EERKNS8_IT0_EE
FNA:5,0,_ZNSt3__1miB8ne180100IPKPcPS1_EEDTmicldtfp_4baseEcldtfp0_4baseEERKNS_11__wrap_iterIT_EERKNS6_IT0_EE
FNA:5,4,_ZNSt3__1miB8ne180100IPKcPcEEDTmicldtfp_4baseEcldtfp0_4baseEERKNS_11__wrap_iterIT_EERKNS5_IT0_EE
FNA:5,67,_ZNSt3__1miB8ne180100IPKcS2_EEDTmicldtfp_4baseEcldtfp0_4baseEERKNS_11__wrap_iterIT_EERKNS4_IT0_EE
FNA:5,3,_ZNSt3__1miB8ne180100IPKdS2_EEDTmicldtfp_4baseEcldtfp0_4baseEERKNS_11__wrap_iterIT_EERKNS4_IT0_EE
FNA:5,12,_ZNSt3__1miB8ne180100IPNS_12basic_stringIcNS_11char_traitsIcEENS_9allocatorIcEEEES7_EEDTmicldtfp_4baseEcldtfp0_4baseEERKNS_11__wrap_iterIT_EERKNS9_IT0_EE
FNL:6,210,211
FNA:6,0,_ZNSt3__114pointer_traitsINS_11__wrap_iterIPKNS_12basic_stringIcNS_11char_traitsIcEENS_9allocatorIcEEEEEEE10to_addressB8ne180100ESA_
FNA:6,6,_ZNSt3__114pointer_traitsINS_11__wrap_iterIPKdEEE10to_addressB8ne180100ES4_
FNA:6,72,_ZNSt3__114pointer_traitsINS_11__wrap_iterIPNS_12basic_stringIcNS_11char_traitsIcEENS_9allocatorIcEEEEEEE10to_addressB8ne180100ES9_
FNA:6,0,_ZNSt3__114pointer_traitsINS_11__wrap_iterIPNS_4pairIN7pyfolio8DateTimeEdEEEEE10to_addressB8ne180100ES7_
FNA:6,20,_ZNSt3__114pointer_traitsINS_11__wrap_iterIPdEEE10to_addressB8ne180100ES3_
FNL:7,46,47
FNA:7,20,_ZNSt3__111__wrap_iterIPKNS_12basic_stringIcNS_11char_traitsIcEENS_9allocatorIcEEEEEC1B8ne180100IPS6_Li0EEERKNS0_IT_EE
FNA:7,20,_ZNSt3__111__wrap_iterIPKNS_12basic_stringIcNS_11char_traitsIcEENS_9allocatorIcEEEEEC2B8ne180100IPS6_Li0EEERKNS0_IT_EE
FNA:7,0,_ZNSt3__111__wrap_iterIPKPN7testing17TestEventListenerEEC1B8ne180100IPS3_Li0EEERKNS0_IT_EE
FNA:7,0,_ZNSt3__111__wrap_iterIPKPN7testing17TestEventListenerEEC2B8ne180100IPS3_Li0EEERKNS0_IT_EE
FNA:7,0,_ZNSt3__111__wrap_iterIPKPN7testing9TestSuiteEEC1B8ne180100IPS3_Li0EEERKNS0_IT_EE
FNA:7,0,_ZNSt3__111__wrap_iterIPKPN7testing9TestSuiteEEC2B8ne180100IPS3_Li0EEERKNS0_IT_EE
FNA:7,0,_ZNSt3__111__wrap_iterIPKPcEC1B8ne180100IPS1_Li0EEERKNS0_IT_EE
FNA:7,0,_ZNSt3__111__wrap_iterIPKPcEC2B8ne180100IPS1_Li0EEERKNS0_IT_EE
FNA:7,8,_ZNSt3__111__wrap_iterIPKcEC1B8ne180100IPcLi0EEERKNS0_IT_EE
FNA:7,8,_ZNSt3__111__wrap_iterIPKcEC2B8ne180100IPcLi0EEERKNS0_IT_EE
FNL:8,48,48
FNA:8,0,_ZNKSt3__111__wrap_iterIPKN7testing14TestPartResultEEdeB8ne180100Ev
FNA:8,0,_ZNKSt3__111__wrap_iterIPKN7testing8internal13edit_distance8EditTypeEEdeB8ne180100Ev
FNA:8,323,_ZNKSt3__111__wrap_iterIPKNS_12basic_stringIcNS_11char_traitsIcEENS_9allocatorIcEEEEEdeB8ne180100Ev
FNA:8,0,_ZNKSt3__111__wrap_iterIPKPN7testing11EnvironmentEEdeB8ne180100Ev
FNA:8,0,_ZNKSt3__111__wrap_iterIPKPN7testing17TestEventListenerEEdeB8ne180100Ev
FNA:8,666,_ZNKSt3__111__wrap_iterIPKPN7testing8TestInfoEEdeB8ne180100Ev
FNA:8,20,_ZNKSt3__111__wrap_iterIPKPN7testing9TestSuiteEEdeB8ne180100Ev
FNA:8,1446,_ZNKSt3__111__wrap_iterIPKcEdeB8ne180100Ev
FNA:8,304,_ZNKSt3__111__wrap_iterIPKdEdeB8ne180100Ev
FNA:8,0,_ZNKSt3__111__wrap_iterIPN7testing12TestPropertyEEdeB8ne180100Ev
FNA:8,0,_ZNKSt3__111__wrap_iterIPN7testing8internal13edit_distance8EditTypeEEdeB8ne180100Ev
FNA:8,20,_ZNKSt3__111__wrap_iterIPNS_12basic_stringIcNS_11char_traitsIcEENS_9allocatorIcEEEEEdeB8ne180100Ev
FNA:8,10,_ZNKSt3__111__wrap_iterIPNS_6threadEEdeB8ne180100Ev
FNA:8,0,_ZNKSt3__111__wrap_iterIPPN7testing11EnvironmentEEdeB8ne180100Ev
FNA:8,0,_ZNKSt3__111__wrap_iterIPPN7testing8internal30ParameterizedTestSuiteInfoBaseEEdeB8ne180100Ev
FNA:8,122,_ZNKSt3__111__wrap_iterIPPN7testing9TestSuiteEEdeB8ne180100Ev
FNA:8,0,_ZNKSt3__111__wrap_iterIPPcEdeB8ne180100Ev
FNA:8,304,_ZNKSt3__111__wrap_iterIPcEdeB8ne180100Ev
FNA:8,186,_ZNKSt3__111__wrap_iterIPdEdeB8ne180100Ev
FNL:9,49,50
FNA:9,0,_ZNKSt3__111__wrap_iterIPKNS_12basic_stringIcNS_11char_traitsIcEENS_9allocatorIcEEEEEptB8ne180100Ev
FNA:9,0,_ZNKSt3__111__wrap_iterIPN7testing12TestPropertyEEptB8ne180100Ev
FNL:10,52,54
FNA:10,0,_ZNSt3__111__wrap_iterIPKN7testing14TestPartResultEEppB8ne180100Ev
FNA:10,0,_ZNSt3__111__wrap_iterIPKN7testing8internal13edit_distance8EditTypeEEppB8ne180100Ev
FNA:10,260,_ZNSt3__111__wrap_iterIPKNS_12basic_stringIcNS_11char_traitsIcEENS_9allocatorIcEEEEEppB8ne180100Ev
FNA:10,0,_ZNSt3__111__wrap_iterIPKPN7testing11EnvironmentEEppB8ne180100Ev
FNA:10,0,_ZNSt3__111__wrap_iterIPKPN7testing17TestEventListenerEEppB8ne180100Ev
FNA:10,666,_ZNSt3__111__wrap_iterIPKPN7testing8TestInfoEEppB8ne180100Ev
FNA:10,20,_ZNSt3__111__wrap_iterIPKPN7testing9TestSuiteEEppB8ne180100Ev
FNA:10,1426,_ZNSt3__111__wrap_iterIPKcEppB8ne180100Ev
FNA:10,304,_ZNSt3__111__wrap_iterIPKdEppB8ne180100Ev
FNA:10,0,_ZNSt3__111__wrap_iterIPN7testing12TestPropertyEEppB8ne180100Ev
FNA:10,0,_ZNSt3__111__wrap_iterIPN7testing8internal13edit_distance8EditTypeEEppB8ne180100Ev
FNA:10,40,_ZNSt3__111__wrap_iterIPNS_12basic_stringIcNS_11char_traitsIcEENS_9allocatorIcEEEEEppB8ne180100Ev
FNA:10,10,_ZNSt3__111__wrap_iterIPNS_6threadEEppB8ne180100Ev
FNA:10,0,_ZNSt3__111__wrap_iterIPPN7testing8internal30ParameterizedTestSuiteInfoBaseEEppB8ne180100Ev
FNA:10,4,_ZNSt3__111__wrap_iterIPPN7testing9TestSuiteEEppB8ne180100Ev
FNA:10,0,_ZNSt3__111__wrap_iterIPPcEppB8ne180100Ev
FNA:10,280,_ZNSt3__111__wrap_iterIPcEppB8ne180100Ev
FNA:10,171,_ZNSt3__111__wrap_iterIPdEppB8ne180100Ev
FNL:11,56,59
FNA:11,280,_ZNSt3__111__wrap_iterIPcEppB8ne180100Ei
FNL:12,62,64
FNA:12,0,_ZNSt3__111__wrap_iterIPN7testing8internal13edit_distance8EditTypeEEmmB8ne180100Ev
FNA:12,0,_ZNSt3__111__wrap_iterIPNS_12basic_stringIcNS_11char_traitsIcEENS_9allocatorIcEEEEEmmB8ne180100Ev
FNA:12,0,_ZNSt3__111__wrap_iterIPPN7testing11EnvironmentEEmmB8ne180100Ev
FNA:12,118,_ZNSt3__111__wrap_iterIPPN7testing9TestSuiteEEmmB8ne180100Ev
FNA:12,0,_ZNSt3__111__wrap_iterIPcEmmB8ne180100Ev
FNL:13,71,74
FNA:13,0,_ZNKSt3__111__wrap_iterIPKN7testing8internal13edit_distance8EditTypeEEplB8ne180100El
FNA:13,0,_ZNKSt3__111__wrap_iterIPKNS_12basic_stringIcNS_11char_traitsIcEENS_9allocatorIcEEEEEplB8ne180100El
FNA:13,24,_ZNKSt3__111__wrap_iterIPNS_12basic_stringIcNS_11char_traitsIcEENS_9allocatorIcEEEEEplB8ne180100El
FNA:13,0,_ZNKSt3__111__wrap_iterIPPN7testing17TestEventListenerEEplB8ne180100El
FNA:13,0,_ZNKSt3__111__wrap_iterIPPN7testing9TestSuiteEEplB8ne180100El
FNA:13,0,_ZNKSt3__111__wrap_iterIPPcEplB8ne180100El
FNA:13,4,_ZNKSt3__111__wrap_iterIPcEplB8ne180100El
FNL:14,76,78
FNA:14,0,_ZNSt3__111__wrap_iterIPKN7testing8internal13edit_distance8EditTypeEEpLB8ne180100El
FNA:14,0,_ZNSt3__111__wrap_iterIPKNS_12basic_stringIcNS_11char_traitsIcEENS_9allocatorIcEEEEEpLB8ne180100El
FNA:14,24,_ZNSt3__111__wrap_iterIPNS_12basic_stringIcNS_11char_traitsIcEENS_9allocatorIcEEEEEpLB8ne180100El
FNA:14,0,_ZNSt3__111__wrap_iterIPPN7testing17TestEventListenerEEpLB8ne180100El
FNA:14,0,_ZNSt3__111__wrap_iterIPPN7testing9TestSuiteEEpLB8ne180100El
FNA:14,0,_ZNSt3__111__wrap_iterIPPcEpLB8ne180100El
FNA:14,28,_ZNSt3__111__wrap_iterIPcEpLB8ne180100El
FNL:15,80,81
FNA:15,0,_ZNKSt3__111__wrap_iterIPPcEmiB8ne180100El
FNL:16,91,91
FNA:16,874,_ZNKSt3__111__wrap_iterIPKN7testing14TestPartResultEE4baseB8ne180100Ev
FNA:16,0,_ZNKSt3__111__wrap_iterIPKN7testing8internal13edit_distance8EditTypeEE4baseB8ne180100Ev
FNA:16,1052,_ZNKSt3__111__wrap_iterIPKNS_12basic_stringIcNS_11char_traitsIcEENS_9allocatorIcEEEEE4baseB8ne180100Ev
FNA:16,8,_ZNKSt3__111__wrap_iterIPKPN7testing11EnvironmentEE4baseB8ne180100Ev
FNA:16,0,_ZNKSt3__111__wrap_iterIPKPN7testing17TestEventListenerEE4baseB8ne180100Ev
FNA:16,1416,_ZNKSt3__111__wrap_iterIPKPN7testing8TestInfoEE4baseB8ne180100Ev
FNA:16,80,_ZNKSt3__111__wrap_iterIPKPN7testing9TestSuiteEE4baseB8ne180100Ev
FNA:16,0,_ZNKSt3__111__wrap_iterIPKPcE4baseB8ne180100Ev
FNA:16,2880,_ZNKSt3__111__wrap_iterIPKcE4baseB8ne180100Ev
FNA:16,700,_ZNKSt3__111__wrap_iterIPKdE4baseB8ne180100Ev
FNA:16,0,_ZNKSt3__111__wrap_iterIPN7testing12TestPropertyEE4baseB8ne180100Ev
FNA:16,0,_ZNKSt3__111__wrap_iterIPN7testing8internal13edit_distance8EditTypeEE4baseB8ne180100Ev
FNA:16,200,_ZNKSt3__111__wrap_iterIPNS_12basic_stringIcNS_11char_traitsIcEENS_9allocatorIcEEEEE4baseB8ne180100Ev
FNA:16,0,_ZNKSt3__111__wrap_iterIPNS_4pairIN7pyfolio8DateTimeEdEEE4baseB8ne180100Ev
FNA:16,22,_ZNKSt3__111__wrap_iterIPNS_6threadEE4baseB8ne180100Ev
FNA:16,8,_ZNKSt3__111__wrap_iterIPPN7testing11EnvironmentEE4baseB8ne180100Ev
FNA:16,0,_ZNKSt3__111__wrap_iterIPPN7testing17TestEventListenerEE4baseB8ne180100Ev
FNA:16,8,_ZNKSt3__111__wrap_iterIPPN7testing8internal30ParameterizedTestSuiteInfoBaseEE4baseB8ne180100Ev
FNA:16,268,_ZNKSt3__111__wrap_iterIPPN7testing9TestSuiteEE4baseB8ne180100Ev
FNA:16,0,_ZNKSt3__111__wrap_iterIPPcE4baseB8ne180100Ev
FNA:16,352,_ZNKSt3__111__wrap_iterIPcE4baseB8ne180100Ev
FNA:16,402,_ZNKSt3__111__wrap_iterIPdE4baseB8ne180100Ev
FNL:17,94,94
FNA:17,874,_ZNSt3__111__wrap_iterIPKN7testing14TestPartResultEEC1B8ne180100ES4_
FNA:17,874,_ZNSt3__111__wrap_iterIPKN7testing14TestPartResultEEC2B8ne180100ES4_
FNA:17,0,_ZNSt3__111__wrap_iterIPKN7testing8internal13edit_distance8EditTypeEEC1B8ne180100ES6_
FNA:17,0,_ZNSt3__111__wrap_iterIPKN7testing8internal13edit_distance8EditTypeEEC2B8ne180100ES6_
FNA:17,512,_ZNSt3__111__wrap_iterIPKNS_12basic_stringIcNS_11char_traitsIcEENS_9allocatorIcEEEEEC1B8ne180100ES8_
FNA:17,512,_ZNSt3__111__wrap_iterIPKNS_12basic_stringIcNS_11char_traitsIcEENS_9allocatorIcEEEEEC2B8ne180100ES8_
FNA:17,8,_ZNSt3__111__wrap_iterIPKPN7testing11EnvironmentEEC1B8ne180100ES5_
FNA:17,8,_ZNSt3__111__wrap_iterIPKPN7testing11EnvironmentEEC2B8ne180100ES5_
FNA:17,0,_ZNSt3__111__wrap_iterIPKPN7testing17TestEventListenerEEC1B8ne180100ES5_
FNA:17,0,_ZNSt3__111__wrap_iterIPKPN7testing17TestEventListenerEEC2B8ne180100ES5_
FNA:17,687,_ZNSt3__111__wrap_iterIPKPN7testing8TestInfoEEC1B8ne180100ES5_
FNA:17,687,_ZNSt3__111__wrap_iterIPKPN7testing8TestInfoEEC2B8ne180100ES5_
FNA:17,56,_ZNSt3__111__wrap_iterIPKPN7testing9TestSuiteEEC1B8ne180100ES5_
FNA:17,56,_ZNSt3__111__wrap_iterIPKPN7testing9TestSuiteEEC2B8ne180100ES5_
FNA:17,170,_ZNSt3__111__wrap_iterIPKcEC1B8ne180100ES2_
FNA:17,170,_ZNSt3__111__wrap_iterIPKcEC2B8ne180100ES2_
FNA:17,86,_ZNSt3__111__wrap_iterIPKdEC1B8ne180100ES2_
FNA:17,86,_ZNSt3__111__wrap_iterIPKdEC2B8ne180100ES2_
FNA:17,0,_ZNSt3__111__wrap_iterIPN7testing12TestPropertyEEC1B8ne180100ES3_
FNA:17,0,_ZNSt3__111__wrap_iterIPN7testing12TestPropertyEEC2B8ne180100ES3_
FNA:17,0,_ZNSt3__111__wrap_iterIPN7testing8internal13edit_distance8EditTypeEEC1B8ne180100ES5_
FNA:17,0,_ZNSt3__111__wrap_iterIPN7testing8internal13edit_distance8EditTypeEEC2B8ne180100ES5_
FNA:17,112,_ZNSt3__111__wrap_iterIPNS_12basic_stringIcNS_11char_traitsIcEENS_9allocatorIcEEEEEC1B8ne180100ES7_
FNA:17,112,_ZNSt3__111__wrap_iterIPNS_12basic_stringIcNS_11char_traitsIcEENS_9allocatorIcEEEEEC2B8ne180100ES7_
FNA:17,0,_ZNSt3__111__wrap_iterIPNS_4pairIN7pyfolio8DateTimeEdEEEC1B8ne180100ES5_
FNA:17,0,_ZNSt3__111__wrap_iterIPNS_4pairIN7pyfolio8DateTimeEdEEEC2B8ne180100ES5_
FNA:17,2,_ZNSt3__111__wrap_iterIPNS_6threadEEC1B8ne180100ES2_
FNA:17,2,_ZNSt3__111__wrap_iterIPNS_6threadEEC2B8ne180100ES2_
FNA:17,8,_ZNSt3__111__wrap_iterIPPN7testing11EnvironmentEEC1B8ne180100ES4_
FNA:17,8,_ZNSt3__111__wrap_iterIPPN7testing11EnvironmentEEC2B8ne180100ES4_
FNA:17,0,_ZNSt3__111__wrap_iterIPPN7testing17TestEventListenerEEC1B8ne180100ES4_
FNA:17,0,_ZNSt3__111__wrap_iterIPPN7testing17TestEventListenerEEC2B8ne180100ES4_
FNA:17,8,_ZNSt3__111__wrap_iterIPPN7testing8internal30ParameterizedTestSuiteInfoBaseEEC1B8ne180100ES5_
FNA:17,8,_ZNSt3__111__wrap_iterIPPN7testing8internal30ParameterizedTestSuiteInfoBaseEEC2B8ne180100ES5_
FNA:17,197,_ZNSt3__111__wrap_iterIPPN7testing9TestSuiteEEC1B8ne180100ES4_
FNA:17,197,_ZNSt3__111__wrap_iterIPPN7testing9TestSuiteEEC2B8ne180100ES4_
FNA:17,0,_ZNSt3__111__wrap_iterIPPcEC1B8ne180100ES2_
FNA:17,0,_ZNSt3__111__wrap_iterIPPcEC2B8ne180100ES2_
FNA:17,324,_ZNSt3__111__wrap_iterIPcEC1B8ne180100ES1_
FNA:17,324,_ZNSt3__111__wrap_iterIPcEC2B8ne180100ES1_
FNA:17,50,_ZNSt3__111__wrap_iterIPdEC1B8ne180100ES1_
FNA:17,50,_ZNSt3__111__wrap_iterIPdEC2B8ne180100ES1_
FNF:18
FNH:15
DA:46,56
DA:47,56
DA:48,3401
DA:49,0
DA:50,0
DA:52,3181
DA:53,3181
DA:54,3181
DA:56,280
DA:57,280
DA:58,280
DA:59,280
DA:62,118
DA:63,118
DA:64,118
DA:71,28
DA:72,28
DA:73,28
DA:74,28
DA:76,52
DA:77,52
DA:78,52
DA:80,0
DA:81,0
DA:91,8270
DA:94,6188
DA:108,3682
DA:109,3682
DA:114,284
DA:115,284
DA:120,0
DA:121,0
DA:132,3615
DA:133,3615
DA:138,284
DA:139,284
DA:182,106
DA:189,106
DA:210,98
DA:211,98
LF:40
LH:34
end_of_record
TN:
SF:/Library/Developer/CommandLineTools/SDKs/MacOSX.sdk/usr/include/c++/v1/__locale
FNL:0,189
FNA:0,215,_ZNSt3__19use_facetB8ne180100INS_5ctypeIcEEEERKT_RKNS_6localeE
FNL:1,587
FNA:1,215,_ZNKSt3__15ctypeIcE5widenB8ne180100Ec
FNF:2
FNH:2
DA:189,215
DA:190,215
DA:587,215
LF:3
LH:3
end_of_record
TN:
SF:/Library/Developer/CommandLineTools/SDKs/MacOSX.sdk/usr/include/c++/v1/__math/roots.h
FNL:0,36,37
FNA:0,1,_ZNSt3__16__math4sqrtB8ne180100IiLi0EEEdT_
FNF:1
FNH:1
DA:36,1
DA:37,1
LF:2
LH:2
end_of_record
TN:
SF:/Library/Developer/CommandLineTools/SDKs/MacOSX.sdk/usr/include/c++/v1/__math/rounding_functions.h
FNL:0,29,29
FNA:0,0,_ZNSt3__16__math4ceilB8ne180100Ef
FNF:1
FNH:0
DA:29,0
LF:1
LH:0
end_of_record
TN:
SF:/Library/Developer/CommandLineTools/SDKs/MacOSX.sdk/usr/include/c++/v1/__math/traits.h
FNL:0,103,104
FNA:0,0,_ZNSt3__16__math5isnanB8ne180100EUa9enable_ifIXLb1EEEd
FNL:1,49,50
FNA:1,22,_ZNSt3__16__math8isfiniteB8ne180100IdLi0EEEbT_
FNF:2
FNH:1
DA:49,22
DA:50,22
DA:103,0
DA:104,0
LF:4
LH:2
end_of_record
TN:
SF:/Library/Developer/CommandLineTools/SDKs/MacOSX.sdk/usr/include/c++/v1/__memory/allocate_at_least.h
FNL:0,54,55
FNA:0,138,_ZNSt3__119__allocate_at_leastB8ne180100INS_9allocatorIN7pyfolio8DateTimeEEEEENS_19__allocation_resultINS_16allocator_traitsIT_E7pointerEEERS7_m
FNA:0,0,_ZNSt3__119__allocate_at_leastB8ne180100INS_9allocatorIN7testing12TestPropertyEEEEENS_19__allocation_resultINS_16allocator_traitsIT_E7pointerEEERS7_m
FNA:0,7,_ZNSt3__119__allocate_at_leastB8ne180100INS_9allocatorIN7testing14TestPartResultEEEEENS_19__allocation_resultINS_16allocator_traitsIT_E7pointerEEERS7_m
FNA:0,0,_ZNSt3__119__allocate_at_leastB8ne180100INS_9allocatorIN7testing8internal13edit_distance8EditTypeEEEEENS_19__allocation_resultINS_16allocator_traitsIT_E7pointerEEERS9_m
FNA:0,0,_ZNSt3__119__allocate_at_leastB8ne180100INS_9allocatorIN7testing8internal9TraceInfoEEEEENS_19__allocation_resultINS_16allocator_traitsIT_E7pointerEEERS8_m
FNA:0,46,_ZNSt3__119__allocate_at_leastB8ne180100INS_9allocatorINS_12basic_stringIcNS_11char_traitsIcEENS1_IcEEEEEEEENS_19__allocation_resultINS_16allocator_traitsIT_E7pointerEEERSA_m
FNA:0,18,_ZNSt3__119__allocate_at_leastB8ne180100INS_9allocatorINS_3mapINS_12basic_stringIcNS_11char_traitsIcEENS1_IcEEEEdNS_4lessIS7_EENS1_INS_4pairIKS7_dEEEEEEEEEENS_19__allocation_resultINS_16allocator_traitsIT_E7pointerEEERSI_m
FNA:0,0,_ZNSt3__119__allocate_at_leastB8ne180100INS_9allocatorINS_4pairIN7pyfolio8DateTimeEdEEEEEENS_19__allocation_resultINS_16allocator_traitsIT_E7pointerEEERS9_m
FNA:0,5,_ZNSt3__119__allocate_at_leastB8ne180100INS_9allocatorINS_6threadEEEEENS_19__allocation_resultINS_16allocator_traitsIT_E7pointerEEERS6_m
FNA:0,0,_ZNSt3__119__allocate_at_leastB8ne180100INS_9allocatorINS_6vectorIN7testing8internal13edit_distance8EditTypeENS1_IS6_EEEEEEEENS_19__allocation_resultINS_16allocator_traitsIT_E7pointerEEERSC_m
FNA:0,0,_ZNSt3__119__allocate_at_leastB8ne180100INS_9allocatorINS_6vectorIdNS1_IdEEEEEEEENS_19__allocation_resultINS_16allocator_traitsIT_E7pointerEEERS8_m
FNA:0,0,_ZNSt3__119__allocate_at_leastB8ne180100INS_9allocatorIPN7testing11EnvironmentEEEEENS_19__allocation_resultINS_16allocator_traitsIT_E7pointerEEERS8_m
FNA:0,4,_ZNSt3__119__allocate_at_leastB8ne180100INS_9allocatorIPN7testing17TestEventListenerEEEEENS_19__allocation_resultINS_16allocator_traitsIT_E7pointerEEERS8_m
FNA:0,23,_ZNSt3__119__allocate_at_leastB8ne180100INS_9allocatorIPN7testing8TestInfoEEEEENS_19__allocation_resultINS_16allocator_traitsIT_E7pointerEEERS8_m
FNA:0,4,_ZNSt3__119__allocate_at_leastB8ne180100INS_9allocatorIPN7testing9TestSuiteEEEEENS_19__allocation_resultINS_16allocator_traitsIT_E7pointerEEERS8_m
FNA:0,0,_ZNSt3__119__allocate_at_leastB8ne180100INS_9allocatorIPcEEEENS_19__allocation_resultINS_16allocator_traitsIT_E7pointerEEERS6_m
FNA:0,13,_ZNSt3__119__allocate_at_leastB8ne180100INS_9allocatorIcEEEENS_19__allocation_resultINS_16allocator_traitsIT_E7pointerEEERS5_m
FNA:0,210,_ZNSt3__119__allocate_at_leastB8ne180100INS_9allocatorIdEEEENS_19__allocation_resultINS_16allocator_traitsIT_E7pointerEEERS5_m
FNA:0,27,_ZNSt3__119__allocate_at_leastB8ne180100INS_9allocatorIiEEEENS_19__allocation_resultINS_16allocator_traitsIT_E7pointerEEERS5_m
FNA:0,0,_ZNSt3__119__allocate_at_leastB8ne180100INS_9allocatorImEEEENS_19__allocation_resultINS_16allocator_traitsIT_E7pointerEEERS5_m
FNF:1
FNH:1
DA:54,495
DA:55,495
LF:2
LH:2
end_of_record
TN:
SF:/Library/Developer/CommandLineTools/SDKs/MacOSX.sdk/usr/include/c++/v1/__memory/allocation_guard.h
FNL:0,53,57
FNA:0,0,_ZNSt3__118__allocation_guardINS_9allocatorINS_11__list_nodeINS_4pairIcPKcEEPvEEEEEC1B8ne180100IS9_EET_m
FNA:0,0,_ZNSt3__118__allocation_guardINS_9allocatorINS_11__list_nodeINS_4pairIcPKcEEPvEEEEEC2B8ne180100IS9_EET_m
FNL:1,59,59
FNA:1,0,_ZNSt3__118__allocation_guardINS_9allocatorINS_11__list_nodeINS_4pairIcPKcEEPvEEEEED1B8ne180100Ev
FNA:1,0,_ZNSt3__118__allocation_guardINS_9allocatorINS_11__list_nodeINS_4pairIcPKcEEPvEEEEED2B8ne180100Ev
FNL:2,84,87
FNA:2,0,_ZNSt3__118__allocation_guardINS_9allocatorINS_11__list_nodeINS_4pairIcPKcEEPvEEEEE13__release_ptrB8ne180100Ev
FNL:3,90,90
FNA:3,0,_ZNKSt3__118__allocation_guardINS_9allocatorINS_11__list_nodeINS_4pairIcPKcEEPvEEEEE5__getB8ne180100Ev
FNL:4,93,97
FNA:4,0,_ZNSt3__118__allocation_guardINS_9allocatorINS_11__list_nodeINS_4pairIcPKcEEPvEEEEE9__destroyB8ne180100Ev
FNF:5
FNH:0
DA:53,0
DA:54,0
DA:55,0
DA:56,0
DA:57,0
DA:59,0
DA:84,0
DA:85,0
DA:86,0
DA:87,0
DA:90,0
DA:93,0
DA:94,0
DA:95,0
DA:96,0
DA:97,0
LF:16
LH:0
end_of_record
TN:
SF:/Library/Developer/CommandLineTools/SDKs/MacOSX.sdk/usr/include/c++/v1/__memory/allocator.h
FNL:0,114,114
FNA:0,128,_ZNSt3__19allocatorIN7pyfolio8DateTimeEEC2B8ne180100Ev
FNA:0,71,_ZNSt3__19allocatorIN7testing12TestPropertyEEC2B8ne180100Ev
FNA:0,71,_ZNSt3__19allocatorIN7testing14TestPartResultEEC2B8ne180100Ev
FNA:0,0,_ZNSt3__19allocatorIN7testing8internal13edit_distance8EditTypeEEC2B8ne180100Ev
FNA:0,1,_ZNSt3__19allocatorIN7testing8internal9TraceInfoEEC2B8ne180100Ev
FNA:0,20,_ZNSt3__19allocatorINS_11__hash_nodeINS_12basic_stringIcNS_11char_traitsIcEENS0_IcEEEEPvEEEC2B8ne180100Ev
FNA:0,0,_ZNSt3__19allocatorINS_11__list_nodeINS_4pairIcPKcEEPvEEEC2B8ne180100Ev
FNA:0,4,_ZNSt3__19allocatorINS_11__tree_nodeINS_12__value_typeINS_12basic_stringIcNS_11char_traitsIcEENS0_IcEEEEN7testing8internal34TypeParameterizedTestSuiteRegistry30TypeParameterizedTestSuiteInfoEEEPvEEEC2B8ne180100Ev
FNA:0,180,_ZNSt3__19allocatorINS_11__tree_nodeINS_12__value_typeINS_12basic_stringIcNS_11char_traitsIcEENS0_IcEEEEdEEPvEEEC2B8ne180100Ev
FNA:0,0,_ZNSt3__19allocatorINS_11__tree_nodeINS_12__value_typeINS_12basic_stringIcNS_11char_traitsIcEENS0_IcEEEEmEEPvEEEC2B8ne180100Ev
FNA:0,4,_ZNSt3__19allocatorINS_11__tree_nodeINS_12basic_stringIcNS_11char_traitsIcEENS0_IcEEEEPvEEEC2B8ne180100Ev
FNA:0,8,_ZNSt3__19allocatorINS_11__tree_nodeINS_6chrono14year_month_dayEPvEEEC2B8ne180100Ev
FNA:0,54,_ZNSt3__19allocatorINS_12basic_stringIcNS_11char_traitsIcEENS0_IcEEEEEC2B8ne180100Ev
FNA:0,18,_ZNSt3__19allocatorINS_3mapINS_12basic_stringIcNS_11char_traitsIcEENS0_IcEEEEdNS_4lessIS6_EENS0_INS_4pairIKS6_dEEEEEEEC2B8ne180100Ev
FNA:0,0,_ZNSt3__19allocatorINS_4pairIN7pyfolio8DateTimeEdEEEC2B8ne180100Ev
FNA:0,1,_ZNSt3__19allocatorINS_6threadEEC2B8ne180100Ev
FNA:0,0,_ZNSt3__19allocatorINS_6vectorIN7testing8internal13edit_distance8EditTypeENS0_IS5_EEEEEC2B8ne180100Ev
FNA:0,0,_ZNSt3__19allocatorINS_6vectorIdNS0_IdEEEEEC2B8ne180100Ev
FNA:0,4,_ZNSt3__19allocatorIPN7testing11EnvironmentEEC2B8ne180100Ev
FNA:0,4,_ZNSt3__19allocatorIPN7testing17TestEventListenerEEC2B8ne180100Ev
FNA:0,4,_ZNSt3__19allocatorIPN7testing8TestInfoEEC2B8ne180100Ev
FNA:0,4,_ZNSt3__19allocatorIPN7testing8internal30ParameterizedTestSuiteInfoBaseEEC2B8ne180100Ev
FNA:0,4,_ZNSt3__19allocatorIPN7testing9TestSuiteEEC2B8ne180100Ev
FNA:0,20,_ZNSt3__19allocatorIPNS_16__hash_node_baseIPNS_11__hash_nodeINS_12basic_stringIcNS_11char_traitsIcEENS0_IcEEEEPvEEEEEC2B8ne180100Ev
FNA:0,0,_ZNSt3__19allocatorIPcEC2B8ne180100Ev
FNA:0,1073,_ZNSt3__19allocatorIcEC1B8ne180100Ev
FNA:0,4069,_ZNSt3__19allocatorIcEC2B8ne180100Ev
FNA:0,159,_ZNSt3__19allocatorIdEC2B8ne180100Ev
FNA:0,8,_ZNSt3__19allocatorIiEC2B8ne180100Ev
FNA:0,0,_ZNSt3__19allocatorImEC2B8ne180100Ev
FNA:0,0,_ZNSt3__19allocatorIwEC2B8ne180100Ev
FNL:1,119,125
FNA:1,138,_ZNSt3__19allocatorIN7pyfolio8DateTimeEE8allocateB8ne180100Em
FNA:1,0,_ZNSt3__19allocatorIN7testing12TestPropertyEE8allocateB8ne180100Em
FNA:1,7,_ZNSt3__19allocatorIN7testing14TestPartResultEE8allocateB8ne180100Em
FNA:1,0,_ZNSt3__19allocatorIN7testing8internal13edit_distance8EditTypeEE8allocateB8ne180100Em
FNA:1,0,_ZNSt3__19allocatorIN7testing8internal9TraceInfoEE8allocateB8ne180100Em
FNA:1,0,_ZNSt3__19allocatorINS_11__hash_nodeINS_12basic_stringIcNS_11char_traitsIcEENS0_IcEEEEPvEEE8allocateB8ne180100Em
FNA:1,0,_ZNSt3__19allocatorINS_11__list_nodeINS_4pairIcPKcEEPvEEE8allocateB8ne180100Em
FNA:1,0,_ZNSt3__19allocatorINS_11__tree_nodeINS_12__value_typeINS_12basic_stringIcNS_11char_traitsIcEENS0_IcEEEEN7testing8internal34TypeParameterizedTestSuiteRegistry30TypeParameterizedTestSuiteInfoEEEPvEEE8allocateB8ne180100Em
FNA:1,1080,_ZNSt3__19allocatorINS_11__tree_nodeINS_12__value_typeINS_12basic_stringIcNS_11char_traitsIcEENS0_IcEEEEdEEPvEEE8allocateB8ne180100Em
FNA:1,0,_ZNSt3__19allocatorINS_11__tree_nodeINS_12__value_typeINS_12basic_stringIcNS_11char_traitsIcEENS0_IcEEEEmEEPvEEE8allocateB8ne180100Em
FNA:1,0,_ZNSt3__19allocatorINS_11__tree_nodeINS_12basic_stringIcNS_11char_traitsIcEENS0_IcEEEEPvEEE8allocateB8ne180100Em
FNA:1,48,_ZNSt3__19allocatorINS_11__tree_nodeINS_6chrono14year_month_dayEPvEEE8allocateB8ne180100Em
FNA:1,46,_ZNSt3__19allocatorINS_12basic_stringIcNS_11char_traitsIcEENS0_IcEEEEE8allocateB8ne180100Em
FNA:1,18,_ZNSt3__19allocatorINS_3mapINS_12basic_stringIcNS_11char_traitsIcEENS0_IcEEEEdNS_4lessIS6_EENS0_INS_4pairIKS6_dEEEEEEE8allocateB8ne180100Em
FNA:1,0,_ZNSt3__19allocatorINS_4pairIN7pyfolio8DateTimeEdEEE8allocateB8ne180100Em
FNA:1,5,_ZNSt3__19allocatorINS_6threadEE8allocateB8ne180100Em
FNA:1,0,_ZNSt3__19allocatorINS_6vectorIN7testing8internal13edit_distance8EditTypeENS0_IS5_EEEEE8allocateB8ne180100Em
FNA:1,0,_ZNSt3__19allocatorINS_6vectorIdNS0_IdEEEEE8allocateB8ne180100Em
FNA:1,0,_ZNSt3__19allocatorIPN7testing11EnvironmentEE8allocateB8ne180100Em
FNA:1,4,_ZNSt3__19allocatorIPN7testing17TestEventListenerEE8allocateB8ne180100Em
FNA:1,23,_ZNSt3__19allocatorIPN7testing8TestInfoEE8allocateB8ne180100Em
FNA:1,4,_ZNSt3__19allocatorIPN7testing9TestSuiteEE8allocateB8ne180100Em
FNA:1,0,_ZNSt3__19allocatorIPNS_16__hash_node_baseIPNS_11__hash_nodeINS_12basic_stringIcNS_11char_traitsIcEENS0_IcEEEEPvEEEEE8allocateB8ne180100Em
FNA:1,0,_ZNSt3__19allocatorIPcE8allocateB8ne180100Em
FNA:1,39,_ZNSt3__19allocatorIcE8allocateB8ne180100Em
FNA:1,210,_ZNSt3__19allocatorIdE8allocateB8ne180100Em
FNA:1,27,_ZNSt3__19allocatorIiE8allocateB8ne180100Em
FNA:1,0,_ZNSt3__19allocatorImE8allocateB8ne180100Em
FNL:2,135,141
FNA:2,138,_ZNSt3__19allocatorIN7pyfolio8DateTimeEE10deallocateB8ne180100EPS2_m
FNA:2,0,_ZNSt3__19allocatorIN7testing12TestPropertyEE10deallocateB8ne180100EPS2_m
FNA:2,3,_ZNSt3__19allocatorIN7testing14TestPartResultEE10deallocateB8ne180100EPS2_m
FNA:2,0,_ZNSt3__19allocatorIN7testing8internal13edit_distance8EditTypeEE10deallocateB8ne180100EPS4_m
FNA:2,0,_ZNSt3__19allocatorIN7testing8internal9TraceInfoEE10deallocateB8ne180100EPS3_m
FNA:2,0,_ZNSt3__19allocatorINS_11__hash_nodeINS_12basic_stringIcNS_11char_traitsIcEENS0_IcEEEEPvEEE10deallocateB8ne180100EPS8_m
FNA:2,0,_ZNSt3__19allocatorINS_11__list_nodeINS_4pairIcPKcEEPvEEE10deallocateB8ne180100EPS7_m
FNA:2,0,_ZNSt3__19allocatorINS_11__tree_nodeINS_12__value_typeINS_12basic_stringIcNS_11char_traitsIcEENS0_IcEEEEN7testing8internal34TypeParameterizedTestSuiteRegistry30TypeParameterizedTestSuiteInfoEEEPvEEE10deallocateB8ne180100EPSE_m
FNA:2,1080,_ZNSt3__19allocatorINS_11__tree_nodeINS_12__value_typeINS_12basic_stringIcNS_11char_traitsIcEENS0_IcEEEEdEEPvEEE10deallocateB8ne180100EPSA_m
FNA:2,0,_ZNSt3__19allocatorINS_11__tree_nodeINS_12__value_typeINS_12basic_stringIcNS_11char_traitsIcEENS0_IcEEEEmEEPvEEE10deallocateB8ne180100EPSA_m
FNA:2,0,_ZNSt3__19allocatorINS_11__tree_nodeINS_12basic_stringIcNS_11char_traitsIcEENS0_IcEEEEPvEEE10deallocateB8ne180100EPS8_m
FNA:2,24,_ZNSt3__19allocatorINS_11__tree_nodeINS_6chrono14year_month_dayEPvEEE10deallocateB8ne180100EPS5_m
FNA:2,42,_ZNSt3__19allocatorINS_12basic_stringIcNS_11char_traitsIcEENS0_IcEEEEE10deallocateB8ne180100EPS5_m
FNA:2,18,_ZNSt3__19allocatorINS_3mapINS_12basic_stringIcNS_11char_traitsIcEENS0_IcEEEEdNS_4lessIS6_EENS0_INS_4pairIKS6_dEEEEEEE10deallocateB8ne180100EPSD_m
FNA:2,0,_ZNSt3__19allocatorINS_4pairIN7pyfolio8DateTimeEdEEE10deallocateB8ne180100EPS4_m
FNA:2,5,_ZNSt3__19allocatorINS_6threadEE10deallocateB8ne180100EPS1_m
FNA:2,0,_ZNSt3__19allocatorINS_6vectorIN7testing8internal13edit_distance8EditTypeENS0_IS5_EEEEE10deallocateB8ne180100EPS7_m
FNA:2,0,_ZNSt3__19allocatorINS_6vectorIdNS0_IdEEEEE10deallocateB8ne180100EPS3_m
FNA:2,0,_ZNSt3__19allocatorIPN7testing11EnvironmentEE10deallocateB8ne180100EPS3_m
FNA:2,0,_ZNSt3__19allocatorIPN7testing17TestEventListenerEE10deallocateB8ne180100EPS3_m
FNA:2,19,_ZNSt3__19allocatorIPN7testing8TestInfoEE10deallocateB8ne180100EPS3_m
FNA:2,0,_ZNSt3__19allocatorIPN7testing8internal30ParameterizedTestSuiteInfoBaseEE10deallocateB8ne180100EPS4_m
FNA:2,0,_ZNSt3__19allocatorIPN7testing9TestSuiteEE10deallocateB8ne180100EPS3_m
FNA:2,0,_ZNSt3__19allocatorIPNS_16__hash_node_baseIPNS_11__hash_nodeINS_12basic_stringIcNS_11char_traitsIcEENS0_IcEEEEPvEEEEE10deallocateB8ne180100EPSC_m
FNA:2,0,_ZNSt3__19allocatorIPcE10deallocateB8ne180100EPS1_m
FNA:2,0,_ZNSt3__19allocatorIcE10deallocateB8ne180100EPcm
FNA:2,210,_ZNSt3__19allocatorIdE10deallocateB8ne180100EPdm
FNA:2,19,_ZNSt3__19allocatorIiE10deallocateB8ne180100EPim
FNA:2,0,_ZNSt3__19allocatorImE10deallocateB8ne180100EPmm
FNL:3,93,93
FNA:3,128,_ZNSt3__116__non_trivial_ifILb1ENS_9allocatorIN7pyfolio8DateTimeEEEEC2B8ne180100Ev
FNA:3,71,_ZNSt3__116__non_trivial_ifILb1ENS_9allocatorIN7testing12TestPropertyEEEEC2B8ne180100Ev
FNA:3,71,_ZNSt3__116__non_trivial_ifILb1ENS_9allocatorIN7testing14TestPartResultEEEEC2B8ne180100Ev
FNA:3,0,_ZNSt3__116__non_trivial_ifILb1ENS_9allocatorIN7testing8internal13edit_distance8EditTypeEEEEC2B8ne180100Ev
FNA:3,1,_ZNSt3__116__non_trivial_ifILb1ENS_9allocatorIN7testing8internal9TraceInfoEEEEC2B8ne180100Ev
FNA:3,20,_ZNSt3__116__non_trivial_ifILb1ENS_9allocatorINS_11__hash_nodeINS_12basic_stringIcNS_11char_traitsIcEENS1_IcEEEEPvEEEEEC2B8ne180100Ev
FNA:3,0,_ZNSt3__116__non_trivial_ifILb1ENS_9allocatorINS_11__list_nodeINS_4pairIcPKcEEPvEEEEEC2B8ne180100Ev
FNA:3,4,_ZNSt3__116__non_trivial_ifILb1ENS_9allocatorINS_11__tree_nodeINS_12__value_typeINS_12basic_stringIcNS_11char_traitsIcEENS1_IcEEEEN7testing8internal34TypeParameterizedTestSuiteRegistry30TypeParameterizedTestSuiteInfoEEEPvEEEEEC2B8ne180100Ev
FNA:3,180,_ZNSt3__116__non_trivial_ifILb1ENS_9allocatorINS_11__tree_nodeINS_12__value_typeINS_12basic_stringIcNS_11char_traitsIcEENS1_IcEEEEdEEPvEEEEEC2B8ne180100Ev
FNA:3,0,_ZNSt3__116__non_trivial_ifILb1ENS_9allocatorINS_11__tree_nodeINS_12__value_typeINS_12basic_stringIcNS_11char_traitsIcEENS1_IcEEEEmEEPvEEEEEC2B8ne180100Ev
FNA:3,4,_ZNSt3__116__non_trivial_ifILb1ENS_9allocatorINS_11__tree_nodeINS_12basic_stringIcNS_11char_traitsIcEENS1_IcEEEEPvEEEEEC2B8ne180100Ev
FNA:3,8,_ZNSt3__116__non_trivial_ifILb1ENS_9allocatorINS_11__tree_nodeINS_6chrono14year_month_dayEPvEEEEEC2B8ne180100Ev
FNA:3,54,_ZNSt3__116__non_trivial_ifILb1ENS_9allocatorINS_12basic_stringIcNS_11char_traitsIcEENS1_IcEEEEEEEC2B8ne180100Ev
FNA:3,18,_ZNSt3__116__non_trivial_ifILb1ENS_9allocatorINS_3mapINS_12basic_stringIcNS_11char_traitsIcEENS1_IcEEEEdNS_4lessIS7_EENS1_INS_4pairIKS7_dEEEEEEEEEC2B8ne180100Ev
FNA:3,0,_ZNSt3__116__non_trivial_ifILb1ENS_9allocatorINS_4pairIN7pyfolio8DateTimeEdEEEEEC2B8ne180100Ev
FNA:3,1,_ZNSt3__116__non_trivial_ifILb1ENS_9allocatorINS_6threadEEEEC2B8ne180100Ev
FNA:3,0,_ZNSt3__116__non_trivial_ifILb1ENS_9allocatorINS_6vectorIN7testing8internal13edit_distance8EditTypeENS1_IS6_EEEEEEEC2B8ne180100Ev
FNA:3,0,_ZNSt3__116__non_trivial_ifILb1ENS_9allocatorINS_6vectorIdNS1_IdEEEEEEEC2B8ne180100Ev
FNA:3,4,_ZNSt3__116__non_trivial_ifILb1ENS_9allocatorIPN7testing11EnvironmentEEEEC2B8ne180100Ev
FNA:3,4,_ZNSt3__116__non_trivial_ifILb1ENS_9allocatorIPN7testing17TestEventListenerEEEEC2B8ne180100Ev
FNA:3,4,_ZNSt3__116__non_trivial_ifILb1ENS_9allocatorIPN7testing8TestInfoEEEEC2B8ne180100Ev
FNA:3,4,_ZNSt3__116__non_trivial_ifILb1ENS_9allocatorIPN7testing8internal30ParameterizedTestSuiteInfoBaseEEEEC2B8ne180100Ev
FNA:3,4,_ZNSt3__116__non_trivial_ifILb1ENS_9allocatorIPN7testing9TestSuiteEEEEC2B8ne180100Ev
FNA:3,20,_ZNSt3__116__non_trivial_ifILb1ENS_9allocatorIPNS_16__hash_node_baseIPNS_11__hash_nodeINS_12basic_stringIcNS_11char_traitsIcEENS1_IcEEEEPvEEEEEEEC2B8ne180100Ev
FNA:3,0,_ZNSt3__116__non_trivial_ifILb1ENS_9allocatorIPcEEEC2B8ne180100Ev
FNA:3,4069,_ZNSt3__116__non_trivial_ifILb1ENS_9allocatorIcEEEC2B8ne180100Ev
FNA:3,159,_ZNSt3__116__non_trivial_ifILb1ENS_9allocatorIdEEEC2B8ne180100Ev
FNA:3,8,_ZNSt3__116__non_trivial_ifILb1ENS_9allocatorIiEEEC2B8ne180100Ev
FNA:3,0,_ZNSt3__116__non_trivial_ifILb1ENS_9allocatorImEEEC2B8ne180100Ev
FNA:3,0,_ZNSt3__116__non_trivial_ifILb1ENS_9allocatorIwEEEC2B8ne180100Ev
FNF:4
FNH:4
DA:93,4836
DA:114,5909
DA:119,1649
DA:120,1649
DA:121,0
DA:125,1649
DA:135,1558
DA:139,1558
DA:141,1558
LF:9
LH:8
end_of_record
TN:
SF:/Library/Developer/CommandLineTools/SDKs/MacOSX.sdk/usr/include/c++/v1/__memory/allocator_traits.h
FNL:0,268,269
FNA:0,0,_ZNSt3__116allocator_traitsINS_9allocatorINS_11__hash_nodeINS_12basic_stringIcNS_11char_traitsIcEENS1_IcEEEEPvEEEEE8allocateB8ne180100ERSA_m
FNA:0,0,_ZNSt3__116allocator_traitsINS_9allocatorINS_11__list_nodeINS_4pairIcPKcEEPvEEEEE8allocateB8ne180100ERS9_m
FNA:0,0,_ZNSt3__116allocator_traitsINS_9allocatorINS_11__tree_nodeINS_12__value_typeINS_12basic_stringIcNS_11char_traitsIcEENS1_IcEEEEN7testing8internal34TypeParameterizedTestSuiteRegistry30TypeParameterizedTestSuiteInfoEEEPvEEEEE8allocateB8ne180100ERSG_m
FNA:0,1080,_ZNSt3__116allocator_traitsINS_9allocatorINS_11__tree_nodeINS_12__value_typeINS_12basic_stringIcNS_11char_traitsIcEENS1_IcEEEEdEEPvEEEEE8allocateB8ne180100ERSC_m
FNA:0,0,_ZNSt3__116allocator_traitsINS_9allocatorINS_11__tree_nodeINS_12__value_typeINS_12basic_stringIcNS_11char_traitsIcEENS1_IcEEEEmEEPvEEEEE8allocateB8ne180100ERSC_m
FNA:0,0,_ZNSt3__116allocator_traitsINS_9allocatorINS_11__tree_nodeINS_12basic_stringIcNS_11char_traitsIcEENS1_IcEEEEPvEEEEE8allocateB8ne180100ERSA_m
FNA:0,48,_ZNSt3__116allocator_traitsINS_9allocatorINS_11__tree_nodeINS_6chrono14year_month_dayEPvEEEEE8allocateB8ne180100ERS7_m
FNA:0,0,_ZNSt3__116allocator_traitsINS_9allocatorIPNS_16__hash_node_baseIPNS_11__hash_nodeINS_12basic_stringIcNS_11char_traitsIcEENS1_IcEEEEPvEEEEEEE8allocateB8ne180100ERSE_m
FNA:0,26,_ZNSt3__116allocator_traitsINS_9allocatorIcEEE8allocateB8ne180100ERS2_m
FNL:1,288,290
FNA:1,138,_ZNSt3__116allocator_traitsINS_9allocatorIN7pyfolio8DateTimeEEEE10deallocateB8ne180100ERS4_PS3_m
FNA:1,0,_ZNSt3__116allocator_traitsINS_9allocatorIN7testing12TestPropertyEEEE10deallocateB8ne180100ERS4_PS3_m
FNA:1,3,_ZNSt3__116allocator_traitsINS_9allocatorIN7testing14TestPartResultEEEE10deallocateB8ne180100ERS4_PS3_m
FNA:1,0,_ZNSt3__116allocator_traitsINS_9allocatorIN7testing8internal13edit_distance8EditTypeEEEE10deallocateB8ne180100ERS6_PS5_m
FNA:1,0,_ZNSt3__116allocator_traitsINS_9allocatorIN7testing8internal9TraceInfoEEEE10deallocateB8ne180100ERS5_PS4_m
FNA:1,0,_ZNSt3__116allocator_traitsINS_9allocatorINS_11__hash_nodeINS_12basic_stringIcNS_11char_traitsIcEENS1_IcEEEEPvEEEEE10deallocateB8ne180100ERSA_PS9_m
FNA:1,0,_ZNSt3__116allocator_traitsINS_9allocatorINS_11__list_nodeINS_4pairIcPKcEEPvEEEEE10deallocateB8ne180100ERS9_PS8_m
FNA:1,0,_ZNSt3__116allocator_traitsINS_9allocatorINS_11__tree_nodeINS_12__value_typeINS_12basic_stringIcNS_11char_traitsIcEENS1_IcEEEEN7testing8internal34TypeParameterizedTestSuiteRegistry30TypeParameterizedTestSuiteInfoEEEPvEEEEE10deallocateB8ne180100ERSG_PSF_m
FNA:1,1080,_ZNSt3__116allocator_traitsINS_9allocatorINS_11__tree_nodeINS_12__value_typeINS_12basic_stringIcNS_11char_traitsIcEENS1_IcEEEEdEEPvEEEEE10deallocateB8ne180100ERSC_PSB_m
FNA:1,0,_ZNSt3__116allocator_traitsINS_9allocatorINS_11__tree_nodeINS_12__value_typeINS_12basic_stringIcNS_11char_traitsIcEENS1_IcEEEEmEEPvEEEEE10deallocateB8ne180100ERSC_PSB_m
FNA:1,0,_ZNSt3__116allocator_traitsINS_9allocatorINS_11__tree_nodeINS_12basic_stringIcNS_11char_traitsIcEENS1_IcEEEEPvEEEEE10deallocateB8ne180100ERSA_PS9_m
FNA:1,24,_ZNSt3__116allocator_traitsINS_9allocatorINS_11__tree_nodeINS_6chrono14year_month_dayEPvEEEEE10deallocateB8ne180100ERS7_PS6_m
FNA:1,42,_ZNSt3__116allocator_traitsINS_9allocatorINS_12basic_stringIcNS_11char_traitsIcEENS1_IcEEEEEEE10deallocateB8ne180100ERS7_PS6_m
FNA:1,18,_ZNSt3__116allocator_traitsINS_9allocatorINS_3mapINS_12basic_stringIcNS_11char_traitsIcEENS1_IcEEEEdNS_4lessIS7_EENS1_INS_4pairIKS7_dEEEEEEEEE10deallocateB8ne180100ERSF_PSE_m
FNA:1,0,_ZNSt3__116allocator_traitsINS_9allocatorINS_4pairIN7pyfolio8DateTimeEdEEEEE10deallocateB8ne180100ERS6_PS5_m
FNA:1,5,_ZNSt3__116allocator_traitsINS_9allocatorINS_6threadEEEE10deallocateB8ne180100ERS3_PS2_m
FNA:1,0,_ZNSt3__116allocator_traitsINS_9allocatorINS_6vectorIN7testing8internal13edit_distance8EditTypeENS1_IS6_EEEEEEE10deallocateB8ne180100ERS9_PS8_m
FNA:1,0,_ZNSt3__116allocator_traitsINS_9allocatorINS_6vectorIdNS1_IdEEEEEEE10deallocateB8ne180100ERS5_PS4_m
FNA:1,0,_ZNSt3__116allocator_traitsINS_9allocatorIPN7testing11EnvironmentEEEE10deallocateB8ne180100ERS5_PS4_m
FNA:1,0,_ZNSt3__116allocator_traitsINS_9allocatorIPN7testing17TestEventListenerEEEE10deallocateB8ne180100ERS5_PS4_m
FNA:1,19,_ZNSt3__116allocator_traitsINS_9allocatorIPN7testing8TestInfoEEEE10deallocateB8ne180100ERS5_PS4_m
FNA:1,0,_ZNSt3__116allocator_traitsINS_9allocatorIPN7testing8internal30ParameterizedTestSuiteInfoBaseEEEE10deallocateB8ne180100ERS6_PS5_m
FNA:1,0,_ZNSt3__116allocator_traitsINS_9allocatorIPN7testing9TestSuiteEEEE10deallocateB8ne180100ERS5_PS4_m
FNA:1,0,_ZNSt3__116allocator_traitsINS_9allocatorIPNS_16__hash_node_baseIPNS_11__hash_nodeINS_12basic_stringIcNS_11char_traitsIcEENS1_IcEEEEPvEEEEEEE10deallocateB8ne180100ERSE_PSD_m
FNA:1,0,_ZNSt3__116allocator_traitsINS_9allocatorIPcEEE10deallocateB8ne180100ERS3_PS2_m
FNA:1,0,_ZNSt3__116allocator_traitsINS_9allocatorIcEEE10deallocateB8ne180100ERS2_Pcm
FNA:1,210,_ZNSt3__116allocator_traitsINS_9allocatorIdEEE10deallocateB8ne180100ERS2_Pdm
FNA:1,19,_ZNSt3__116allocator_traitsINS_9allocatorIiEEE10deallocateB8ne180100ERS2_Pim
FNA:1,0,_ZNSt3__116allocator_traitsINS_9allocatorImEEE10deallocateB8ne180100ERS2_Pmm
FNL:2,304,306
FNA:2,10,_ZNSt3__116allocator_traitsINS_9allocatorIN7pyfolio8DateTimeEEEE9constructB8ne180100IS3_JRKS3_EvvEEvRS4_PT_DpOT0_
FNA:2,0,_ZNSt3__116allocator_traitsINS_9allocatorIN7testing12TestPropertyEEEE9constructB8ne180100IS3_JRKS3_EvvEEvRS4_PT_DpOT0_
FNA:2,0,_ZNSt3__116allocator_traitsINS_9allocatorIN7testing12TestPropertyEEEE9constructB8ne180100IS3_JS3_EvvEEvRS4_PT_DpOT0_
FNA:2,8,_ZNSt3__116allocator_traitsINS_9allocatorIN7testing14TestPartResultEEEE9constructB8ne180100IS3_JRKS3_EvvEEvRS4_PT_DpOT0_
FNA:2,7,_ZNSt3__116allocator_traitsINS_9allocatorIN7testing14TestPartResultEEEE9constructB8ne180100IS3_JS3_EvvEEvRS4_PT_DpOT0_
FNA:2,0,_ZNSt3__116allocator_traitsINS_9allocatorIN7testing8internal13edit_distance8EditTypeEEEE9constructB8ne180100IS5_JEvvEEvRS6_PT_DpOT0_
FNA:2,0,_ZNSt3__116allocator_traitsINS_9allocatorIN7testing8internal13edit_distance8EditTypeEEEE9constructB8ne180100IS5_JRKS5_EvvEEvRS6_PT_DpOT0_
FNA:2,0,_ZNSt3__116allocator_traitsINS_9allocatorIN7testing8internal9TraceInfoEEEE9constructB8ne180100IS4_JRKS4_EvvEEvRS5_PT_DpOT0_
FNA:2,0,_ZNSt3__116allocator_traitsINS_9allocatorIN7testing8internal9TraceInfoEEEE9constructB8ne180100IS4_JS4_EvvEEvRS5_PT_DpOT0_
FNA:2,0,_ZNSt3__116allocator_traitsINS_9allocatorINS_11__hash_nodeINS_12basic_stringIcNS_11char_traitsIcEENS1_IcEEEEPvEEEEE9constructB8ne180100IS7_JS7_EvvEEvRSA_PT_DpOT0_
FNA:2,0,_ZNSt3__116allocator_traitsINS_9allocatorINS_11__list_nodeINS_4pairIcPKcEEPvEEEEE9constructB8ne180100IS6_JS6_EvvEEvRS9_PT_DpOT0_
FNA:2,0,_ZNSt3__116allocator_traitsINS_9allocatorINS_11__tree_nodeINS_12__value_typeINS_12basic_stringIcNS_11char_traitsIcEENS1_IcEEEEN7testing8internal34TypeParameterizedTestSuiteRegistry30TypeParameterizedTestSuiteInfoEEEPvEEEEE9constructB8ne180100INS_4pairIKS8_SC_EEJS8_SC_EvvEEvRSG_PT_DpOT0_
FNA:2,1080,_ZNSt3__116allocator_traitsINS_9allocatorINS_11__tree_nodeINS_12__value_typeINS_12basic_stringIcNS_11char_traitsIcEENS1_IcEEEEdEEPvEEEEE9constructB8ne180100INS_4pairIKS8_dEEJRKSH_EvvEEvRSC_PT_DpOT0_
FNA:2,0,_ZNSt3__116allocator_traitsINS_9allocatorINS_11__tree_nodeINS_12__value_typeINS_12basic_stringIcNS_11char_traitsIcEENS1_IcEEEEmEEPvEEEEE9constructB8ne180100INS_4pairIKS8_mEEJRKNS_21piecewise_construct_tENS_5tupleIJRSG_EEENSL_IJEEEEvvEEvRSC_PT_DpOT0_
FNA:2,0,_ZNSt3__116allocator_traitsINS_9allocatorINS_11__tree_nodeINS_12basic_stringIcNS_11char_traitsIcEENS1_IcEEEEPvEEEEE9constructB8ne180100IS7_JRKS7_EvvEEvRSA_PT_DpOT0_
FNA:2,0,_ZNSt3__116allocator_traitsINS_9allocatorINS_11__tree_nodeINS_12basic_stringIcNS_11char_traitsIcEENS1_IcEEEEPvEEEEE9constructB8ne180100IS7_JS7_EvvEEvRSA_PT_DpOT0_
FNA:2,0,_ZNSt3__116allocator_traitsINS_9allocatorINS_11__tree_nodeINS_6chrono14year_month_dayEPvEEEEE9constructB8ne180100IS4_JRKS4_EvvEEvRS7_PT_DpOT0_
FNA:2,48,_ZNSt3__116allocator_traitsINS_9allocatorINS_11__tree_nodeINS_6chrono14year_month_dayEPvEEEEE9constructB8ne180100IS4_JS4_EvvEEvRS7_PT_DpOT0_
FNA:2,0,_ZNSt3__116allocator_traitsINS_9allocatorINS_12basic_stringIcNS_11char_traitsIcEENS1_IcEEEEEEE9constructB8ne180100IS6_JRKPKcEvvEEvRS7_PT_DpOT0_
FNA:2,0,_ZNSt3__116allocator_traitsINS_9allocatorINS_12basic_stringIcNS_11char_traitsIcEENS1_IcEEEEEEE9constructB8ne180100IS6_JRKS6_EvvEEvRS7_PT_DpOT0_
FNA:2,4,_ZNSt3__116allocator_traitsINS_9allocatorINS_12basic_stringIcNS_11char_traitsIcEENS1_IcEEEEEEE9constructB8ne180100IS6_JRS6_EvvEEvRS7_PT_DpOT0_
FNA:2,58,_ZNSt3__116allocator_traitsINS_9allocatorINS_12basic_stringIcNS_11char_traitsIcEENS1_IcEEEEEEE9constructB8ne180100IS6_JS6_EvvEEvRS7_PT_DpOT0_
FNA:2,180,_ZNSt3__116allocator_traitsINS_9allocatorINS_3mapINS_12basic_stringIcNS_11char_traitsIcEENS1_IcEEEEdNS_4lessIS7_EENS1_INS_4pairIKS7_dEEEEEEEEE9constructB8ne180100ISE_JRKSE_EvvEEvRSF_PT_DpOT0_
FNA:2,0,_ZNSt3__116allocator_traitsINS_9allocatorINS_4pairIN7pyfolio8DateTimeEdEEEEE9constructB8ne180100IS5_JS4_dEvvEEvRS6_PT_DpOT0_
FNA:2,0,_ZNSt3__116allocator_traitsINS_9allocatorINS_4pairIN7pyfolio8DateTimeEdEEEEE9constructB8ne180100IS5_JS5_EvvEEvRS6_PT_DpOT0_
FNA:2,15,_ZNSt3__116allocator_traitsINS_9allocatorINS_6threadEEEE9constructB8ne180100IS2_JS2_EvvEEvRS3_PT_DpOT0_
FNA:2,10,_ZNSt3__116allocator_traitsINS_9allocatorINS_6threadEEEE9constructB8ne180100IS2_JZN36CoreTypesTest_BasicThreadSafety_Test8TestBodyEvE3$_0EvvEEvRS3_PT_DpOT0_
FNA:2,0,_ZNSt3__116allocator_traitsINS_9allocatorINS_6vectorIN7testing8internal13edit_distance8EditTypeENS1_IS6_EEEEEEE9constructB8ne180100IS8_JRKS8_EvvEEvRS9_PT_DpOT0_
FNA:2,0,_ZNSt3__116allocator_traitsINS_9allocatorINS_6vectorIdNS1_IdEEEEEEE9constructB8ne180100IS4_JRKS4_EvvEEvRS5_PT_DpOT0_
FNA:2,0,_ZNSt3__116allocator_traitsINS_9allocatorIPN7testing11EnvironmentEEEE9constructB8ne180100IS4_JRKS4_EvvEEvRS5_PT_DpOT0_
FNA:2,4,_ZNSt3__116allocator_traitsINS_9allocatorIPN7testing17TestEventListenerEEEE9constructB8ne180100IS4_JRKS4_EvvEEvRS5_PT_DpOT0_
FNA:2,63,_ZNSt3__116allocator_traitsINS_9allocatorIPN7testing8TestInfoEEEE9constructB8ne180100IS4_JRKS4_EvvEEvRS5_PT_DpOT0_
FNA:2,4,_ZNSt3__116allocator_traitsINS_9allocatorIPN7testing9TestSuiteEEEE9constructB8ne180100IS4_JRKS4_EvvEEvRS5_PT_DpOT0_
FNA:2,0,_ZNSt3__116allocator_traitsINS_9allocatorIPN7testing9TestSuiteEEEE9constructB8ne180100IS4_JS4_EvvEEvRS5_PT_DpOT0_
FNA:2,0,_ZNSt3__116allocator_traitsINS_9allocatorIPcEEE9constructB8ne180100IS2_JS2_EvvEEvRS3_PT_DpOT0_
FNA:2,0,_ZNSt3__116allocator_traitsINS_9allocatorIdEEE9constructB8ne180100IdJEvvEEvRS2_PT_DpOT0_
FNA:2,10,_ZNSt3__116allocator_traitsINS_9allocatorIdEEE9constructB8ne180100IdJRKdEvvEEvRS2_PT_DpOT0_
FNA:2,93,_ZNSt3__116allocator_traitsINS_9allocatorIdEEE9constructB8ne180100IdJdEvvEEvRS2_PT_DpOT0_
FNA:2,67,_ZNSt3__116allocator_traitsINS_9allocatorIiEEE9constructB8ne180100IiJiEvvEEvRS2_PT_DpOT0_
FNA:2,0,_ZNSt3__116allocator_traitsINS_9allocatorImEEE9constructB8ne180100ImJmEvvEEvRS2_PT_DpOT0_
FNL:3,315,317
FNA:3,1238,_ZNSt3__116allocator_traitsINS_9allocatorIN7pyfolio8DateTimeEEEE7destroyB8ne180100IS3_vvEEvRS4_PT_
FNA:3,0,_ZNSt3__116allocator_traitsINS_9allocatorIN7testing12TestPropertyEEEE7destroyB8ne180100IS3_vvEEvRS4_PT_
FNA:3,7,_ZNSt3__116allocator_traitsINS_9allocatorIN7testing14TestPartResultEEEE7destroyB8ne180100IS3_vvEEvRS4_PT_
FNA:3,0,_ZNSt3__116allocator_traitsINS_9allocatorIN7testing8internal13edit_distance8EditTypeEEEE7destroyB8ne180100IS5_vvEEvRS6_PT_
FNA:3,0,_ZNSt3__116allocator_traitsINS_9allocatorIN7testing8internal9TraceInfoEEEE7destroyB8ne180100IS4_vvEEvRS5_PT_
FNA:3,0,_ZNSt3__116allocator_traitsINS_9allocatorINS_11__hash_nodeINS_12basic_stringIcNS_11char_traitsIcEENS1_IcEEEEPvEEEEE7destroyB8ne180100IS7_vvEEvRSA_PT_
FNA:3,0,_ZNSt3__116allocator_traitsINS_9allocatorINS_11__list_nodeINS_4pairIcPKcEEPvEEEEE7destroyB8ne180100IS6_vvEEvRS9_PT_
FNA:3,0,_ZNSt3__116allocator_traitsINS_9allocatorINS_11__tree_nodeINS_12__value_typeINS_12basic_stringIcNS_11char_traitsIcEENS1_IcEEEEN7testing8internal34TypeParameterizedTestSuiteRegistry30TypeParameterizedTestSuiteInfoEEEPvEEEEE7destroyB8ne180100INS_4pairIKS8_SC_EEvvEEvRSG_PT_
FNA:3,1080,_ZNSt3__116allocator_traitsINS_9allocatorINS_11__tree_nodeINS_12__value_typeINS_12basic_stringIcNS_11char_traitsIcEENS1_IcEEEEdEEPvEEEEE7destroyB8ne180100INS_4pairIKS8_dEEvvEEvRSC_PT_
FNA:3,0,_ZNSt3__116allocator_traitsINS_9allocatorINS_11__tree_nodeINS_12__value_typeINS_12basic_stringIcNS_11char_traitsIcEENS1_IcEEEEmEEPvEEEEE7destroyB8ne180100INS_4pairIKS8_mEEvvEEvRSC_PT_
FNA:3,0,_ZNSt3__116allocator_traitsINS_9allocatorINS_11__tree_nodeINS_12basic_stringIcNS_11char_traitsIcEENS1_IcEEEEPvEEEEE7destroyB8ne180100IS7_vvEEvRSA_PT_
FNA:3,24,_ZNSt3__116allocator_traitsINS_9allocatorINS_11__tree_nodeINS_6chrono14year_month_dayEPvEEEEE7destroyB8ne180100IS4_vvEEvRS7_PT_
FNA:3,58,_ZNSt3__116allocator_traitsINS_9allocatorINS_12basic_stringIcNS_11char_traitsIcEENS1_IcEEEEEEE7destroyB8ne180100IS6_vvEEvRS7_PT_
FNA:3,180,_ZNSt3__116allocator_traitsINS_9allocatorINS_3mapINS_12basic_stringIcNS_11char_traitsIcEENS1_IcEEEEdNS_4lessIS7_EENS1_INS_4pairIKS7_dEEEEEEEEE7destroyB8ne180100ISE_vvEEvRSF_PT_
FNA:3,0,_ZNSt3__116allocator_traitsINS_9allocatorINS_4pairIN7pyfolio8DateTimeEdEEEEE7destroyB8ne180100IS5_vvEEvRS6_PT_
FNA:3,25,_ZNSt3__116allocator_traitsINS_9allocatorINS_6threadEEEE7destroyB8ne180100IS2_vvEEvRS3_PT_
FNA:3,0,_ZNSt3__116allocator_traitsINS_9allocatorINS_6vectorIN7testing8internal13edit_distance8EditTypeENS1_IS6_EEEEEEE7destroyB8ne180100IS8_vvEEvRS9_PT_
FNA:3,0,_ZNSt3__116allocator_traitsINS_9allocatorINS_6vectorIdNS1_IdEEEEEEE7destroyB8ne180100IS4_vvEEvRS5_PT_
FNA:3,0,_ZNSt3__116allocator_traitsINS_9allocatorIPN7testing11EnvironmentEEEE7destroyB8ne180100IS4_vvEEvRS5_PT_
FNA:3,0,_ZNSt3__116allocator_traitsINS_9allocatorIPN7testing17TestEventListenerEEEE7destroyB8ne180100IS4_vvEEvRS5_PT_
FNA:3,108,_ZNSt3__116allocator_traitsINS_9allocatorIPN7testing8TestInfoEEEE7destroyB8ne180100IS4_vvEEvRS5_PT_
FNA:3,0,_ZNSt3__116allocator_traitsINS_9allocatorIPN7testing8internal30ParameterizedTestSuiteInfoBaseEEEE7destroyB8ne180100IS5_vvEEvRS6_PT_
FNA:3,0,_ZNSt3__116allocator_traitsINS_9allocatorIPN7testing9TestSuiteEEEE7destroyB8ne180100IS4_vvEEvRS5_PT_
FNA:3,0,_ZNSt3__116allocator_traitsINS_9allocatorIPcEEE7destroyB8ne180100IS2_vvEEvRS3_PT_
FNA:3,1753,_ZNSt3__116allocator_traitsINS_9allocatorIdEEE7destroyB8ne180100IdvvEEvRS2_PT_
FNA:3,108,_ZNSt3__116allocator_traitsINS_9allocatorIiEEE7destroyB8ne180100IivvEEvRS2_PT_
FNA:3,0,_ZNSt3__116allocator_traitsINS_9allocatorImEEE7destroyB8ne180100ImvvEEvRS2_PT_
FNL:4,326,327
FNA:4,329,_ZNSt3__116allocator_traitsINS_9allocatorIN7pyfolio8DateTimeEEEE8max_sizeB8ne180100IS4_vvEEmRKS4_
FNA:4,0,_ZNSt3__116allocator_traitsINS_9allocatorIN7testing12TestPropertyEEEE8max_sizeB8ne180100IS4_vvEEmRKS4_
FNA:4,14,_ZNSt3__116allocator_traitsINS_9allocatorIN7testing14TestPartResultEEEE8max_sizeB8ne180100IS4_vvEEmRKS4_
FNA:4,0,_ZNSt3__116allocator_traitsINS_9allocatorIN7testing8internal13edit_distance8EditTypeEEEE8max_sizeB8ne180100IS6_vvEEmRKS6_
FNA:4,0,_ZNSt3__116allocator_traitsINS_9allocatorIN7testing8internal9TraceInfoEEEE8max_sizeB8ne180100IS5_vvEEmRKS5_
FNA:4,0,_ZNSt3__116allocator_traitsINS_9allocatorINS_11__hash_nodeINS_12basic_stringIcNS_11char_traitsIcEENS1_IcEEEEPvEEEEE8max_sizeB8ne180100ISA_vvEEmRKSA_
FNA:4,0,_ZNSt3__116allocator_traitsINS_9allocatorINS_11__list_nodeINS_4pairIcPKcEEPvEEEEE8max_sizeB8ne180100IS9_vvEEmRKS9_
FNA:4,0,_ZNSt3__116allocator_traitsINS_9allocatorINS_11__tree_nodeINS_12__value_typeINS_12basic_stringIcNS_11char_traitsIcEENS1_IcEEEEN7testing8internal34TypeParameterizedTestSuiteRegistry30TypeParameterizedTestSuiteInfoEEEPvEEEEE8max_sizeB8ne180100ISG_vvEEmRKSG_
FNA:4,1080,_ZNSt3__116allocator_traitsINS_9allocatorINS_11__tree_nodeINS_12__value_typeINS_12basic_stringIcNS_11char_traitsIcEENS1_IcEEEEdEEPvEEEEE8max_sizeB8ne180100ISC_vvEEmRKSC_
FNA:4,0,_ZNSt3__116allocator_traitsINS_9allocatorINS_11__tree_nodeINS_12__value_typeINS_12basic_stringIcNS_11char_traitsIcEENS1_IcEEEEmEEPvEEEEE8max_sizeB8ne180100ISC_vvEEmRKSC_
FNA:4,0,_ZNSt3__116allocator_traitsINS_9allocatorINS_11__tree_nodeINS_12basic_stringIcNS_11char_traitsIcEENS1_IcEEEEPvEEEEE8max_sizeB8ne180100ISA_vvEEmRKSA_
FNA:4,48,_ZNSt3__116allocator_traitsINS_9allocatorINS_11__tree_nodeINS_6chrono14year_month_dayEPvEEEEE8max_sizeB8ne180100IS7_vvEEmRKS7_
FNA:4,92,_ZNSt3__116allocator_traitsINS_9allocatorINS_12basic_stringIcNS_11char_traitsIcEENS1_IcEEEEEEE8max_sizeB8ne180100IS7_vvEEmRKS7_
FNA:4,54,_ZNSt3__116allocator_traitsINS_9allocatorINS_3mapINS_12basic_stringIcNS_11char_traitsIcEENS1_IcEEEEdNS_4lessIS7_EENS1_INS_4pairIKS7_dEEEEEEEEE8max_sizeB8ne180100ISF_vvEEmRKSF_
FNA:4,0,_ZNSt3__116allocator_traitsINS_9allocatorINS_4pairIN7pyfolio8DateTimeEdEEEEE8max_sizeB8ne180100IS6_vvEEmRKS6_
FNA:4,10,_ZNSt3__116allocator_traitsINS_9allocatorINS_6threadEEEE8max_sizeB8ne180100IS3_vvEEmRKS3_
FNA:4,0,_ZNSt3__116allocator_traitsINS_9allocatorINS_6vectorIN7testing8internal13edit_distance8EditTypeENS1_IS6_EEEEEEE8max_sizeB8ne180100IS9_vvEEmRKS9_
FNA:4,0,_ZNSt3__116allocator_traitsINS_9allocatorINS_6vectorIdNS1_IdEEEEEEE8max_sizeB8ne180100IS5_vvEEmRKS5_
FNA:4,0,_ZNSt3__116allocator_traitsINS_9allocatorIPN7testing11EnvironmentEEEE8max_sizeB8ne180100IS5_vvEEmRKS5_
FNA:4,8,_ZNSt3__116allocator_traitsINS_9allocatorIPN7testing17TestEventListenerEEEE8max_sizeB8ne180100IS5_vvEEmRKS5_
FNA:4,46,_ZNSt3__116allocator_traitsINS_9allocatorIPN7testing8TestInfoEEEE8max_sizeB8ne180100IS5_vvEEmRKS5_
FNA:4,8,_ZNSt3__116allocator_traitsINS_9allocatorIPN7testing9TestSuiteEEEE8max_sizeB8ne180100IS5_vvEEmRKS5_
FNA:4,0,_ZNSt3__116allocator_traitsINS_9allocatorIPNS_16__hash_node_baseIPNS_11__hash_nodeINS_12basic_stringIcNS_11char_traitsIcEENS1_IcEEEEPvEEEEEEE8max_sizeB8ne180100ISE_vvEEmRKSE_
FNA:4,0,_ZNSt3__116allocator_traitsINS_9allocatorIPcEEE8max_sizeB8ne180100IS3_vvEEmRKS3_
FNA:4,179,_ZNSt3__116allocator_traitsINS_9allocatorIcEEE8max_sizeB8ne180100IS2_vvEEmRKS2_
FNA:4,490,_ZNSt3__116allocator_traitsINS_9allocatorIdEEE8max_sizeB8ne180100IS2_vvEEmRKS2_
FNA:4,54,_ZNSt3__116allocator_traitsINS_9allocatorIiEEE8max_sizeB8ne180100IS2_vvEEmRKS2_
FNA:4,0,_ZNSt3__116allocator_traitsINS_9allocatorImEEE8max_sizeB8ne180100IS2_vvEEmRKS2_
FNL:5,339,340
FNA:5,82,_ZNSt3__116allocator_traitsINS_9allocatorIN7pyfolio8DateTimeEEEE37select_on_container_copy_constructionB8ne180100IS4_vvEES4_RKS4_
FNA:5,0,_ZNSt3__116allocator_traitsINS_9allocatorIN7testing8internal13edit_distance8EditTypeEEEE37select_on_container_copy_constructionB8ne180100IS6_vvEES6_RKS6_
FNA:5,180,_ZNSt3__116allocator_traitsINS_9allocatorINS_11__tree_nodeINS_12__value_typeINS_12basic_stringIcNS_11char_traitsIcEENS1_IcEEEEdEEPvEEEEE37select_on_container_copy_constructionB8ne180100ISC_vvEESC_RKSC_
FNA:5,8,_ZNSt3__116allocator_traitsINS_9allocatorINS_12basic_stringIcNS_11char_traitsIcEENS1_IcEEEEEEE37select_on_container_copy_constructionB8ne180100IS7_vvEES7_RKS7_
FNA:5,77,_ZNSt3__116allocator_traitsINS_9allocatorIcEEE37select_on_container_copy_constructionB8ne180100IS2_vvEES2_RKS2_
FNA:5,109,_ZNSt3__116allocator_traitsINS_9allocatorIdEEE37select_on_container_copy_constructionB8ne180100IS2_vvEES2_RKS2_
FNF:6
FNH:6
DA:268,1154
DA:269,1154
DA:288,1558
DA:289,1558
DA:290,1558
DA:304,1661
DA:305,1661
DA:306,1661
DA:315,4581
DA:316,4581
DA:317,4581
DA:326,2412
DA:327,2412
DA:339,456
DA:340,456
LF:15
LH:15
end_of_record
TN:
SF:/Library/Developer/CommandLineTools/SDKs/MacOSX.sdk/usr/include/c++/v1/__memory/compressed_pair.h
FNL:0,114,115
FNA:0,4,_ZNSt3__117__compressed_pairINS_15__tree_end_nodeIPNS_16__tree_node_baseIPvEEEENS_9allocatorINS_11__tree_nodeINS_12__value_typeINS_12basic_stringIcNS_11char_traitsIcEENS7_IcEEEEN7testing8internal34TypeParameterizedTestSuiteRegistry30TypeParameterizedTestSuiteInfoEEES3_EEEEEC1B8ne180100ILb1EvEEv
FNA:0,4,_ZNSt3__117__compressed_pairINS_15__tree_end_nodeIPNS_16__tree_node_baseIPvEEEENS_9allocatorINS_11__tree_nodeINS_12__value_typeINS_12basic_stringIcNS_11char_traitsIcEENS7_IcEEEEN7testing8internal34TypeParameterizedTestSuiteRegistry30TypeParameterizedTestSuiteInfoEEES3_EEEEEC2B8ne180100ILb1EvEEv
FNA:0,180,_ZNSt3__117__compressed_pairINS_15__tree_end_nodeIPNS_16__tree_node_baseIPvEEEENS_9allocatorINS_11__tree_nodeINS_12__value_typeINS_12basic_stringIcNS_11char_traitsIcEENS7_IcEEEEdEES3_EEEEEC1B8ne180100ILb1EvEEv
FNA:0,180,_ZNSt3__117__compressed_pairINS_15__tree_end_nodeIPNS_16__tree_node_baseIPvEEEENS_9allocatorINS_11__tree_nodeINS_12__value_typeINS_12basic_stringIcNS_11char_traitsIcEENS7_IcEEEEdEES3_EEEEEC2B8ne180100ILb1EvEEv
FNA:0,0,_ZNSt3__117__compressed_pairINS_15__tree_end_nodeIPNS_16__tree_node_baseIPvEEEENS_9allocatorINS_11__tree_nodeINS_12__value_typeINS_12basic_stringIcNS_11char_traitsIcEENS7_IcEEEEmEES3_EEEEEC1B8ne180100ILb1EvEEv
FNA:0,0,_ZNSt3__117__compressed_pairINS_15__tree_end_nodeIPNS_16__tree_node_baseIPvEEEENS_9allocatorINS_11__tree_nodeINS_12__value_typeINS_12basic_stringIcNS_11char_traitsIcEENS7_IcEEEEmEES3_EEEEEC2B8ne180100ILb1EvEEv
FNA:0,4,_ZNSt3__117__compressed_pairINS_15__tree_end_nodeIPNS_16__tree_node_baseIPvEEEENS_9allocatorINS_11__tree_nodeINS_12basic_stringIcNS_11char_traitsIcEENS7_IcEEEES3_EEEEEC1B8ne180100ILb1EvEEv
FNA:0,4,_ZNSt3__117__compressed_pairINS_15__tree_end_nodeIPNS_16__tree_node_baseIPvEEEENS_9allocatorINS_11__tree_nodeINS_12basic_stringIcNS_11char_traitsIcEENS7_IcEEEES3_EEEEEC2B8ne180100ILb1EvEEv
FNA:0,8,_ZNSt3__117__compressed_pairINS_15__tree_end_nodeIPNS_16__tree_node_baseIPvEEEENS_9allocatorINS_11__tree_nodeINS_6chrono14year_month_dayES3_EEEEEC1B8ne180100ILb1EvEEv
FNA:0,8,_ZNSt3__117__compressed_pairINS_15__tree_end_nodeIPNS_16__tree_node_baseIPvEEEENS_9allocatorINS_11__tree_nodeINS_6chrono14year_month_dayES3_EEEEEC2B8ne180100ILb1EvEEv
FNA:0,20,_ZNSt3__117__compressed_pairINS_16__hash_node_baseIPNS_11__hash_nodeINS_12basic_stringIcNS_11char_traitsIcEENS_9allocatorIcEEEEPvEEEENS6_ISA_EEEC1B8ne180100ILb1EvEEv
FNA:0,20,_ZNSt3__117__compressed_pairINS_16__hash_node_baseIPNS_11__hash_nodeINS_12basic_stringIcNS_11char_traitsIcEENS_9allocatorIcEEEEPvEEEENS6_ISA_EEEC2B8ne180100ILb1EvEEv
FNL:1,118,119
FNA:1,1125,_ZNSt3__117__compressed_pairINS_12basic_stringIcNS_11char_traitsIcEENS_9allocatorIcEEE5__repES5_EC1B8ne180100INS_16__value_init_tagENS_18__default_init_tagEEEOT_OT0_
FNA:1,414,_ZNSt3__117__compressed_pairINS_12basic_stringIcNS_11char_traitsIcEENS_9allocatorIcEEE5__repES5_EC1B8ne180100INS_18__default_init_tagERKS5_EEOT_OT0_
FNA:1,1871,_ZNSt3__117__compressed_pairINS_12basic_stringIcNS_11char_traitsIcEENS_9allocatorIcEEE5__repES5_EC1B8ne180100INS_18__default_init_tagESA_EEOT_OT0_
FNA:1,1125,_ZNSt3__117__compressed_pairINS_12basic_stringIcNS_11char_traitsIcEENS_9allocatorIcEEE5__repES5_EC2B8ne180100INS_16__value_init_tagENS_18__default_init_tagEEEOT_OT0_
FNA:1,414,_ZNSt3__117__compressed_pairINS_12basic_stringIcNS_11char_traitsIcEENS_9allocatorIcEEE5__repES5_EC2B8ne180100INS_18__default_init_tagERKS5_EEOT_OT0_
FNA:1,1871,_ZNSt3__117__compressed_pairINS_12basic_stringIcNS_11char_traitsIcEENS_9allocatorIcEEE5__repES5_EC2B8ne180100INS_18__default_init_tagESA_EEOT_OT0_
FNA:1,0,_ZNSt3__117__compressed_pairINS_12basic_stringIwNS_11char_traitsIwEENS_9allocatorIwEEE5__repES5_EC1B8ne180100INS_18__default_init_tagESA_EEOT_OT0_
FNA:1,0,_ZNSt3__117__compressed_pairINS_12basic_stringIwNS_11char_traitsIwEENS_9allocatorIwEEE5__repES5_EC2B8ne180100INS_18__default_init_tagESA_EEOT_OT0_
FNA:1,180,_ZNSt3__117__compressed_pairINS_15__tree_end_nodeIPNS_16__tree_node_baseIPvEEEENS_9allocatorINS_11__tree_nodeINS_12__value_typeINS_12basic_stringIcNS_11char_traitsIcEENS7_IcEEEEdEES3_EEEEEC1B8ne180100INS_18__default_init_tagESH_EEOT_OT0_
FNA:1,180,_ZNSt3__117__compressed_pairINS_15__tree_end_nodeIPNS_16__tree_node_baseIPvEEEENS_9allocatorINS_11__tree_nodeINS_12__value_typeINS_12basic_stringIcNS_11char_traitsIcEENS7_IcEEEEdEES3_EEEEEC2B8ne180100INS_18__default_init_tagESH_EEOT_OT0_
FNA:1,130,_ZNSt3__117__compressed_pairIPKNS_12basic_stringIcNS_11char_traitsIcEENS_9allocatorIcEEEENS_14default_deleteIS7_EEEC1B8ne180100IRS8_NS_16__value_init_tagEEEOT_OT0_
FNA:1,130,_ZNSt3__117__compressed_pairIPKNS_12basic_stringIcNS_11char_traitsIcEENS_9allocatorIcEEEENS_14default_deleteIS7_EEEC2B8ne180100IRS8_NS_16__value_init_tagEEEOT_OT0_
FNA:1,128,_ZNSt3__117__compressed_pairIPN7pyfolio8DateTimeENS_9allocatorIS2_EEEC1B8ne180100IDnNS_18__default_init_tagEEEOT_OT0_
FNA:1,90,_ZNSt3__117__compressed_pairIPN7pyfolio8DateTimeENS_9allocatorIS2_EEEC1B8ne180100IDnS5_EEOT_OT0_
FNA:1,128,_ZNSt3__117__compressed_pairIPN7pyfolio8DateTimeENS_9allocatorIS2_EEEC2B8ne180100IDnNS_18__default_init_tagEEEOT_OT0_
FNA:1,90,_ZNSt3__117__compressed_pairIPN7pyfolio8DateTimeENS_9allocatorIS2_EEEC2B8ne180100IDnS5_EEOT_OT0_
FNA:1,1,_ZNSt3__117__compressed_pairIPN7pyfolio8DateTimeERNS_9allocatorIS2_EEEC1B8ne180100IDnS6_EEOT_OT0_
FNA:1,1,_ZNSt3__117__compressed_pairIPN7pyfolio8DateTimeERNS_9allocatorIS2_EEEC2B8ne180100IDnS6_EEOT_OT0_
FNA:1,71,_ZNSt3__117__compressed_pairIPN7testing12TestPropertyENS_9allocatorIS2_EEEC1B8ne180100IDnNS_18__default_init_tagEEEOT_OT0_
FNA:1,71,_ZNSt3__117__compressed_pairIPN7testing12TestPropertyENS_9allocatorIS2_EEEC2B8ne180100IDnNS_18__default_init_tagEEEOT_OT0_
FNA:1,0,_ZNSt3__117__compressed_pairIPN7testing12TestPropertyERNS_9allocatorIS2_EEEC1B8ne180100IDnS6_EEOT_OT0_
FNA:1,0,_ZNSt3__117__compressed_pairIPN7testing12TestPropertyERNS_9allocatorIS2_EEEC2B8ne180100IDnS6_EEOT_OT0_
FNA:1,71,_ZNSt3__117__compressed_pairIPN7testing14TestPartResultENS_9allocatorIS2_EEEC1B8ne180100IDnNS_18__default_init_tagEEEOT_OT0_
FNA:1,71,_ZNSt3__117__compressed_pairIPN7testing14TestPartResultENS_9allocatorIS2_EEEC2B8ne180100IDnNS_18__default_init_tagEEEOT_OT0_
FNA:1,7,_ZNSt3__117__compressed_pairIPN7testing14TestPartResultERNS_9allocatorIS2_EEEC1B8ne180100IDnS6_EEOT_OT0_
FNA:1,7,_ZNSt3__117__compressed_pairIPN7testing14TestPartResultERNS_9allocatorIS2_EEEC2B8ne180100IDnS6_EEOT_OT0_
FNA:1,4,_ZNSt3__117__compressed_pairIPN7testing8internal11ThreadLocalINS_6vectorINS2_9TraceInfoENS_9allocatorIS5_EEEEE18ValueHolderFactoryENS_14default_deleteISA_EEEC1B8ne180100IRSB_NS_16__value_init_tagEEEOT_OT0_
FNA:1,4,_ZNSt3__117__compressed_pairIPN7testing8internal11ThreadLocalINS_6vectorINS2_9TraceInfoENS_9allocatorIS5_EEEEE18ValueHolderFactoryENS_14default_deleteISA_EEEC2B8ne180100IRSB_NS_16__value_init_tagEEEOT_OT0_
FNA:1,4,_ZNSt3__117__compressed_pairIPN7testing8internal11ThreadLocalIPNS1_31TestPartResultReporterInterfaceEE18ValueHolderFactoryENS_14default_deleteIS7_EEEC1B8ne180100IRS8_NS_16__value_init_tagEEEOT_OT0_
FNA:1,4,_ZNSt3__117__compressed_pairIPN7testing8internal11ThreadLocalIPNS1_31TestPartResultReporterInterfaceEE18ValueHolderFactoryENS_14default_deleteIS7_EEEC2B8ne180100IRS8_NS_16__value_init_tagEEEOT_OT0_
FNA:1,0,_ZNSt3__117__compressed_pairIPN7testing8internal13edit_distance8EditTypeENS_9allocatorIS4_EEEC1B8ne180100IDnNS_18__default_init_tagEEEOT_OT0_
FNA:1,0,_ZNSt3__117__compressed_pairIPN7testing8internal13edit_distance8EditTypeENS_9allocatorIS4_EEEC1B8ne180100IDnS7_EEOT_OT0_
FNA:1,0,_ZNSt3__117__compressed_pairIPN7testing8internal13edit_distance8EditTypeENS_9allocatorIS4_EEEC2B8ne180100IDnNS_18__default_init_tagEEEOT_OT0_
FNA:1,0,_ZNSt3__117__compressed_pairIPN7testing8internal13edit_distance8EditTypeENS_9allocatorIS4_EEEC2B8ne180100IDnS7_EEOT_OT0_
FNA:1,0,_ZNSt3__117__compressed_pairIPN7testing8internal13edit_distance8EditTypeERNS_9allocatorIS4_EEEC1B8ne180100IDnS8_EEOT_OT0_
FNA:1,0,_ZNSt3__117__compressed_pairIPN7testing8internal13edit_distance8EditTypeERNS_9allocatorIS4_EEEC2B8ne180100IDnS8_EEOT_OT0_
FNA:1,63,_ZNSt3__117__compressed_pairIPN7testing8internal14GTestFlagSaverENS_14default_deleteIS3_EEEC1B8ne180100IRS4_NS_16__value_init_tagEEEOT_OT0_
FNA:1,63,_ZNSt3__117__compressed_pairIPN7testing8internal14GTestFlagSaverENS_14default_deleteIS3_EEEC2B8ne180100IRS4_NS_16__value_init_tagEEEOT_OT0_
FNA:1,4,_ZNSt3__117__compressed_pairIPN7testing8internal16DeathTestFactoryENS_14default_deleteIS3_EEEC1B8ne180100IRS4_NS_16__value_init_tagEEEOT_OT0_
FNA:1,4,_ZNSt3__117__compressed_pairIPN7testing8internal16DeathTestFactoryENS_14default_deleteIS3_EEEC2B8ne180100IRS4_NS_16__value_init_tagEEEOT_OT0_
FNA:1,4,_ZNSt3__117__compressed_pairIPN7testing8internal24InternalRunDeathTestFlagENS_14default_deleteIS3_EEEC1B8ne180100INS_16__value_init_tagES9_EEOT_OT0_
FNA:1,4,_ZNSt3__117__compressed_pairIPN7testing8internal24InternalRunDeathTestFlagENS_14default_deleteIS3_EEEC2B8ne180100INS_16__value_init_tagES9_EEOT_OT0_
FNA:1,1,_ZNSt3__117__compressed_pairIPN7testing8internal9TraceInfoENS_9allocatorIS3_EEEC1B8ne180100IDnNS_18__default_init_tagEEEOT_OT0_
FNA:1,1,_ZNSt3__117__compressed_pairIPN7testing8internal9TraceInfoENS_9allocatorIS3_EEEC2B8ne180100IDnNS_18__default_init_tagEEEOT_OT0_
FNA:1,0,_ZNSt3__117__compressed_pairIPN7testing8internal9TraceInfoERNS_9allocatorIS3_EEEC1B8ne180100IDnS7_EEOT_OT0_
FNA:1,0,_ZNSt3__117__compressed_pairIPN7testing8internal9TraceInfoERNS_9allocatorIS3_EEEC2B8ne180100IDnS7_EEOT_OT0_
FNA:1,0,_ZNSt3__117__compressed_pairIPNS_11__hash_nodeINS_12basic_stringIcNS_11char_traitsIcEENS_9allocatorIcEEEEPvEENS_22__hash_node_destructorINS5_IS9_EEEEEC1B8ne180100IRSA_SD_EEOT_OT0_
FNA:1,0,_ZNSt3__117__compressed_pairIPNS_11__hash_nodeINS_12basic_stringIcNS_11char_traitsIcEENS_9allocatorIcEEEEPvEENS_22__hash_node_destructorINS5_IS9_EEEEEC2B8ne180100IRSA_SD_EEOT_OT0_
FNA:1,0,_ZNSt3__117__compressed_pairIPNS_11__tree_nodeINS_12__value_typeINS_12basic_stringIcNS_11char_traitsIcEENS_9allocatorIcEEEEN7testing8internal34TypeParameterizedTestSuiteRegistry30TypeParameterizedTestSuiteInfoEEEPvEENS_22__tree_node_destructorINS6_ISF_EEEEEC1B8ne180100IRSG_SJ_EEOT_OT0_
FNA:1,0,_ZNSt3__117__compressed_pairIPNS_11__tree_nodeINS_12__value_typeINS_12basic_stringIcNS_11char_traitsIcEENS_9allocatorIcEEEEN7testing8internal34TypeParameterizedTestSuiteRegistry30TypeParameterizedTestSuiteInfoEEEPvEENS_22__tree_node_destructorINS6_ISF_EEEEEC2B8ne180100IRSG_SJ_EEOT_OT0_
FNA:1,1080,_ZNSt3__117__compressed_pairIPNS_11__tree_nodeINS_12__value_typeINS_12basic_stringIcNS_11char_traitsIcEENS_9allocatorIcEEEEdEEPvEENS_22__tree_node_destructorINS6_ISB_EEEEEC1B8ne180100IRSC_SF_EEOT_OT0_
FNA:1,1080,_ZNSt3__117__compressed_pairIPNS_11__tree_nodeINS_12__value_typeINS_12basic_stringIcNS_11char_traitsIcEENS_9allocatorIcEEEEdEEPvEENS_22__tree_node_destructorINS6_ISB_EEEEEC2B8ne180100IRSC_SF_EEOT_OT0_
FNA:1,0,_ZNSt3__117__compressed_pairIPNS_11__tree_nodeINS_12__value_typeINS_12basic_stringIcNS_11char_traitsIcEENS_9allocatorIcEEEEmEEPvEENS_22__tree_node_destructorINS6_ISB_EEEEEC1B8ne180100IRSC_SF_EEOT_OT0_
FNA:1,0,_ZNSt3__117__compressed_pairIPNS_11__tree_nodeINS_12__value_typeINS_12basic_stringIcNS_11char_traitsIcEENS_9allocatorIcEEEEmEEPvEENS_22__tree_node_destructorINS6_ISB_EEEEEC2B8ne180100IRSC_SF_EEOT_OT0_
FNA:1,0,_ZNSt3__117__compressed_pairIPNS_11__tree_nodeINS_12basic_stringIcNS_11char_traitsIcEENS_9allocatorIcEEEEPvEENS_22__tree_node_destructorINS5_IS9_EEEEEC1B8ne180100IRSA_SD_EEOT_OT0_
FNA:1,0,_ZNSt3__117__compressed_pairIPNS_11__tree_nodeINS_12basic_stringIcNS_11char_traitsIcEENS_9allocatorIcEEEEPvEENS_22__tree_node_destructorINS5_IS9_EEEEEC2B8ne180100IRSA_SD_EEOT_OT0_
FNA:1,48,_ZNSt3__117__compressed_pairIPNS_11__tree_nodeINS_6chrono14year_month_dayEPvEENS_22__tree_node_destructorINS_9allocatorIS5_EEEEEC1B8ne180100IRS6_SA_EEOT_OT0_
FNA:1,48,_ZNSt3__117__compressed_pairIPNS_11__tree_nodeINS_6chrono14year_month_dayEPvEENS_22__tree_node_destructorINS_9allocatorIS5_EEEEEC2B8ne180100IRS6_SA_EEOT_OT0_
FNA:1,54,_ZNSt3__117__compressed_pairIPNS_12basic_stringIcNS_11char_traitsIcEENS_9allocatorIcEEEENS4_IS6_EEEC1B8ne180100IDnNS_18__default_init_tagEEEOT_OT0_
FNA:1,8,_ZNSt3__117__compressed_pairIPNS_12basic_stringIcNS_11char_traitsIcEENS_9allocatorIcEEEENS4_IS6_EEEC1B8ne180100IDnS8_EEOT_OT0_
FNA:1,54,_ZNSt3__117__compressed_pairIPNS_12basic_stringIcNS_11char_traitsIcEENS_9allocatorIcEEEENS4_IS6_EEEC2B8ne180100IDnNS_18__default_init_tagEEEOT_OT0_
FNA:1,8,_ZNSt3__117__compressed_pairIPNS_12basic_stringIcNS_11char_traitsIcEENS_9allocatorIcEEEENS4_IS6_EEEC2B8ne180100IDnS8_EEOT_OT0_
FNA:1,215,_ZNSt3__117__compressed_pairIPNS_12basic_stringIcNS_11char_traitsIcEENS_9allocatorIcEEEENS_14default_deleteIS6_EEEC1B8ne180100INS_16__value_init_tagESC_EEOT_OT0_
FNA:1,3,_ZNSt3__117__compressed_pairIPNS_12basic_stringIcNS_11char_traitsIcEENS_9allocatorIcEEEENS_14default_deleteIS6_EEEC1B8ne180100IRS7_NS_16__value_init_tagEEEOT_OT0_
FNA:1,215,_ZNSt3__117__compressed_pairIPNS_12basic_stringIcNS_11char_traitsIcEENS_9allocatorIcEEEENS_14default_deleteIS6_EEEC2B8ne180100INS_16__value_init_tagESC_EEOT_OT0_
FNA:1,3,_ZNSt3__117__compressed_pairIPNS_12basic_stringIcNS_11char_traitsIcEENS_9allocatorIcEEEENS_14default_deleteIS6_EEEC2B8ne180100IRS7_NS_16__value_init_tagEEEOT_OT0_
FNA:1,42,_ZNSt3__117__compressed_pairIPNS_12basic_stringIcNS_11char_traitsIcEENS_9allocatorIcEEEERNS4_IS6_EEEC1B8ne180100IDnS9_EEOT_OT0_
FNA:1,42,_ZNSt3__117__compressed_pairIPNS_12basic_stringIcNS_11char_traitsIcEENS_9allocatorIcEEEERNS4_IS6_EEEC2B8ne180100IDnS9_EEOT_OT0_
FNA:1,10,_ZNSt3__117__compressed_pairIPNS_15__thread_structENS_14default_deleteIS1_EEEC1B8ne180100IRS2_NS_16__value_init_tagEEEOT_OT0_
FNA:1,10,_ZNSt3__117__compressed_pairIPNS_15__thread_structENS_14default_deleteIS1_EEEC1B8ne180100IS2_S4_EEOT_OT0_
FNA:1,10,_ZNSt3__117__compressed_pairIPNS_15__thread_structENS_14default_deleteIS1_EEEC2B8ne180100IRS2_NS_16__value_init_tagEEEOT_OT0_
FNA:1,10,_ZNSt3__117__compressed_pairIPNS_15__thread_structENS_14default_deleteIS1_EEEC2B8ne180100IS2_S4_EEOT_OT0_
FNA:1,331,_ZNSt3__117__compressed_pairIPNS_18basic_stringstreamIcNS_11char_traitsIcEENS_9allocatorIcEEEENS_14default_deleteIS6_EEEC1B8ne180100IRS7_NS_16__value_init_tagEEEOT_OT0_
FNA:1,331,_ZNSt3__117__compressed_pairIPNS_18basic_stringstreamIcNS_11char_traitsIcEENS_9allocatorIcEEEENS_14default_deleteIS6_EEEC2B8ne180100IRS7_NS_16__value_init_tagEEEOT_OT0_
FNA:1,18,_ZNSt3__117__compressed_pairIPNS_3mapINS_12basic_stringIcNS_11char_traitsIcEENS_9allocatorIcEEEEdNS_4lessIS7_EENS5_INS_4pairIKS7_dEEEEEENS5_ISE_EEEC1B8ne180100IDnNS_18__default_init_tagEEEOT_OT0_
FNA:1,18,_ZNSt3__117__compressed_pairIPNS_3mapINS_12basic_stringIcNS_11char_traitsIcEENS_9allocatorIcEEEEdNS_4lessIS7_EENS5_INS_4pairIKS7_dEEEEEENS5_ISE_EEEC2B8ne180100IDnNS_18__default_init_tagEEEOT_OT0_
FNA:1,0,_ZNSt3__117__compressed_pairIPNS_4pairIN7pyfolio8DateTimeEdEENS_9allocatorIS4_EEEC1B8ne180100IDnNS_18__default_init_tagEEEOT_OT0_
FNA:1,0,_ZNSt3__117__compressed_pairIPNS_4pairIN7pyfolio8DateTimeEdEENS_9allocatorIS4_EEEC2B8ne180100IDnNS_18__default_init_tagEEEOT_OT0_
FNA:1,0,_ZNSt3__117__compressed_pairIPNS_4pairIN7pyfolio8DateTimeEdEERNS_9allocatorIS4_EEEC1B8ne180100IDnS8_EEOT_OT0_
FNA:1,0,_ZNSt3__117__compressed_pairIPNS_4pairIN7pyfolio8DateTimeEdEERNS_9allocatorIS4_EEEC2B8ne180100IDnS8_EEOT_OT0_
FNA:1,20,_ZNSt3__117__compressed_pairIPNS_5tupleIJNS_10unique_ptrINS_15__thread_structENS_14default_deleteIS3_EEEEZN36CoreTypesTest_BasicThreadSafety_Test8TestBodyEvE3$_0EEENS4_IS9_EEEC1B8ne180100IRSA_NS_16__value_init_tagEEEOT_OT0_
FNA:1,20,_ZNSt3__117__compressed_pairIPNS_5tupleIJNS_10unique_ptrINS_15__thread_structENS_14default_deleteIS3_EEEEZN36CoreTypesTest_BasicThreadSafety_Test8TestBodyEvE3$_0EEENS4_IS9_EEEC2B8ne180100IRSA_NS_16__value_init_tagEEEOT_OT0_
FNA:1,1,_ZNSt3__117__compressed_pairIPNS_6threadENS_9allocatorIS1_EEEC1B8ne180100IDnNS_18__default_init_tagEEEOT_OT0_
FNA:1,1,_ZNSt3__117__compressed_pairIPNS_6threadENS_9allocatorIS1_EEEC2B8ne180100IDnNS_18__default_init_tagEEEOT_OT0_
FNA:1,5,_ZNSt3__117__compressed_pairIPNS_6threadERNS_9allocatorIS1_EEEC1B8ne180100IDnS5_EEOT_OT0_
FNA:1,5,_ZNSt3__117__compressed_pairIPNS_6threadERNS_9allocatorIS1_EEEC2B8ne180100IDnS5_EEOT_OT0_
FNA:1,0,_ZNSt3__117__compressed_pairIPNS_6vectorIN7testing8internal13edit_distance8EditTypeENS_9allocatorIS5_EEEENS6_IS8_EEEC1B8ne180100IDnNS_18__default_init_tagEEEOT_OT0_
FNA:1,0,_ZNSt3__117__compressed_pairIPNS_6vectorIN7testing8internal13edit_distance8EditTypeENS_9allocatorIS5_EEEENS6_IS8_EEEC2B8ne180100IDnNS_18__default_init_tagEEEOT_OT0_
FNA:1,0,_ZNSt3__117__compressed_pairIPNS_6vectorIdNS_9allocatorIdEEEENS2_IS4_EEEC1B8ne180100IDnNS_18__default_init_tagEEEOT_OT0_
FNA:1,0,_ZNSt3__117__compressed_pairIPNS_6vectorIdNS_9allocatorIdEEEENS2_IS4_EEEC2B8ne180100IDnNS_18__default_init_tagEEEOT_OT0_
FNA:1,4,_ZNSt3__117__compressed_pairIPPN7testing11EnvironmentENS_9allocatorIS3_EEEC1B8ne180100IDnNS_18__default_init_tagEEEOT_OT0_
FNA:1,4,_ZNSt3__117__compressed_pairIPPN7testing11EnvironmentENS_9allocatorIS3_EEEC2B8ne180100IDnNS_18__default_init_tagEEEOT_OT0_
FNA:1,0,_ZNSt3__117__compressed_pairIPPN7testing11EnvironmentERNS_9allocatorIS3_EEEC1B8ne180100IDnS7_EEOT_OT0_
FNA:1,0,_ZNSt3__117__compressed_pairIPPN7testing11EnvironmentERNS_9allocatorIS3_EEEC2B8ne180100IDnS7_EEOT_OT0_
FNA:1,4,_ZNSt3__117__compressed_pairIPPN7testing17TestEventListenerENS_9allocatorIS3_EEEC1B8ne180100IDnNS_18__default_init_tagEEEOT_OT0_
FNA:1,4,_ZNSt3__117__compressed_pairIPPN7testing17TestEventListenerENS_9allocatorIS3_EEEC2B8ne180100IDnNS_18__default_init_tagEEEOT_OT0_
FNA:1,4,_ZNSt3__117__compressed_pairIPPN7testing17TestEventListenerERNS_9allocatorIS3_EEEC1B8ne180100IDnS7_EEOT_OT0_
FNA:1,4,_ZNSt3__117__compressed_pairIPPN7testing17TestEventListenerERNS_9allocatorIS3_EEEC2B8ne180100IDnS7_EEOT_OT0_
FNA:1,4,_ZNSt3__117__compressed_pairIPPN7testing8TestInfoENS_9allocatorIS3_EEEC1B8ne180100IDnNS_18__default_init_tagEEEOT_OT0_
FNA:1,4,_ZNSt3__117__compressed_pairIPPN7testing8TestInfoENS_9allocatorIS3_EEEC2B8ne180100IDnNS_18__default_init_tagEEEOT_OT0_
FNA:1,23,_ZNSt3__117__compressed_pairIPPN7testing8TestInfoERNS_9allocatorIS3_EEEC1B8ne180100IDnS7_EEOT_OT0_
FNA:1,23,_ZNSt3__117__compressed_pairIPPN7testing8TestInfoERNS_9allocatorIS3_EEEC2B8ne180100IDnS7_EEOT_OT0_
FNA:1,4,_ZNSt3__117__compressed_pairIPPN7testing8internal30ParameterizedTestSuiteInfoBaseENS_9allocatorIS4_EEEC1B8ne180100IDnNS_18__default_init_tagEEEOT_OT0_
FNA:1,4,_ZNSt3__117__compressed_pairIPPN7testing8internal30ParameterizedTestSuiteInfoBaseENS_9allocatorIS4_EEEC2B8ne180100IDnNS_18__default_init_tagEEEOT_OT0_
FNA:1,4,_ZNSt3__117__compressed_pairIPPN7testing9TestSuiteENS_9allocatorIS3_EEEC1B8ne180100IDnNS_18__default_init_tagEEEOT_OT0_
FNA:1,4,_ZNSt3__117__compressed_pairIPPN7testing9TestSuiteENS_9allocatorIS3_EEEC2B8ne180100IDnNS_18__default_init_tagEEEOT_OT0_
FNA:1,4,_ZNSt3__117__compressed_pairIPPN7testing9TestSuiteERNS_9allocatorIS3_EEEC1B8ne180100IDnS7_EEOT_OT0_
FNA:1,4,_ZNSt3__117__compressed_pairIPPN7testing9TestSuiteERNS_9allocatorIS3_EEEC2B8ne180100IDnS7_EEOT_OT0_
FNA:1,20,_ZNSt3__117__compressed_pairIPPNS_16__hash_node_baseIPNS_11__hash_nodeINS_12basic_stringIcNS_11char_traitsIcEENS_9allocatorIcEEEEPvEEEENS_25__bucket_list_deallocatorINS6_ISD_EEEEEC1B8ne180100INS_16__value_init_tagESK_EEOT_OT0_
FNA:1,20,_ZNSt3__117__compressed_pairIPPNS_16__hash_node_baseIPNS_11__hash_nodeINS_12basic_stringIcNS_11char_traitsIcEENS_9allocatorIcEEEEPvEEEENS_25__bucket_list_deallocatorINS6_ISD_EEEEEC2B8ne180100INS_16__value_init_tagESK_EEOT_OT0_
FNA:1,0,_ZNSt3__117__compressed_pairIPPcNS_9allocatorIS1_EEEC1B8ne180100IDnNS_18__default_init_tagEEEOT_OT0_
FNA:1,0,_ZNSt3__117__compressed_pairIPPcNS_9allocatorIS1_EEEC2B8ne180100IDnNS_18__default_init_tagEEEOT_OT0_
FNA:1,0,_ZNSt3__117__compressed_pairIPPcRNS_9allocatorIS1_EEEC1B8ne180100IDnS5_EEOT_OT0_
FNA:1,0,_ZNSt3__117__compressed_pairIPPcRNS_9allocatorIS1_EEEC2B8ne180100IDnS5_EEOT_OT0_
FNA:1,159,_ZNSt3__117__compressed_pairIPdNS_9allocatorIdEEEC1B8ne180100IDnNS_18__default_init_tagEEEOT_OT0_
FNA:1,117,_ZNSt3__117__compressed_pairIPdNS_9allocatorIdEEEC1B8ne180100IDnS3_EEOT_OT0_
FNA:1,159,_ZNSt3__117__compressed_pairIPdNS_9allocatorIdEEEC2B8ne180100IDnNS_18__default_init_tagEEEOT_OT0_
FNA:1,117,_ZNSt3__117__compressed_pairIPdNS_9allocatorIdEEEC2B8ne180100IDnS3_EEOT_OT0_
FNA:1,25,_ZNSt3__117__compressed_pairIPdRNS_9allocatorIdEEEC1B8ne180100IDnS4_EEOT_OT0_
FNA:1,25,_ZNSt3__117__compressed_pairIPdRNS_9allocatorIdEEEC2B8ne180100IDnS4_EEOT_OT0_
FNA:1,8,_ZNSt3__117__compressed_pairIPiNS_9allocatorIiEEEC1B8ne180100IDnNS_18__default_init_tagEEEOT_OT0_
FNA:1,8,_ZNSt3__117__compressed_pairIPiNS_9allocatorIiEEEC2B8ne180100IDnNS_18__default_init_tagEEEOT_OT0_
FNA:1,27,_ZNSt3__117__compressed_pairIPiRNS_9allocatorIiEEEC1B8ne180100IDnS4_EEOT_OT0_
FNA:1,27,_ZNSt3__117__compressed_pairIPiRNS_9allocatorIiEEEC2B8ne180100IDnS4_EEOT_OT0_
FNA:1,0,_ZNSt3__117__compressed_pairIPmNS_9allocatorImEEEC1B8ne180100IDnNS_18__default_init_tagEEEOT_OT0_
FNA:1,0,_ZNSt3__117__compressed_pairIPmNS_9allocatorImEEEC2B8ne180100IDnNS_18__default_init_tagEEEOT_OT0_
FNA:1,0,_ZNSt3__117__compressed_pairIPmRNS_9allocatorImEEEC1B8ne180100IDnS4_EEOT_OT0_
FNA:1,0,_ZNSt3__117__compressed_pairIPmRNS_9allocatorImEEEC2B8ne180100IDnS4_EEOT_OT0_
FNA:1,20,_ZNSt3__117__compressed_pairIfNS_8equal_toINS_12basic_stringIcNS_11char_traitsIcEENS_9allocatorIcEEEEEEEC1B8ne180100IfNS_18__default_init_tagEEEOT_OT0_
FNA:1,20,_ZNSt3__117__compressed_pairIfNS_8equal_toINS_12basic_stringIcNS_11char_traitsIcEENS_9allocatorIcEEEEEEEC2B8ne180100IfNS_18__default_init_tagEEEOT_OT0_
FNA:1,4,_ZNSt3__117__compressed_pairImNS_19__map_value_compareINS_12basic_stringIcNS_11char_traitsIcEENS_9allocatorIcEEEENS_12__value_typeIS7_N7testing8internal34TypeParameterizedTestSuiteRegistry30TypeParameterizedTestSuiteInfoEEENS_4lessIS7_EELb1EEEEC1B8ne180100IiRKSG_EEOT_OT0_
FNA:1,4,_ZNSt3__117__compressed_pairImNS_19__map_value_compareINS_12basic_stringIcNS_11char_traitsIcEENS_9allocatorIcEEEENS_12__value_typeIS7_N7testing8internal34TypeParameterizedTestSuiteRegistry30TypeParameterizedTestSuiteInfoEEENS_4lessIS7_EELb1EEEEC2B8ne180100IiRKSG_EEOT_OT0_
FNA:1,360,_ZNSt3__117__compressed_pairImNS_19__map_value_compareINS_12basic_stringIcNS_11char_traitsIcEENS_9allocatorIcEEEENS_12__value_typeIS7_dEENS_4lessIS7_EELb1EEEEC1B8ne180100IiRKSC_EEOT_OT0_
FNA:1,360,_ZNSt3__117__compressed_pairImNS_19__map_value_compareINS_12basic_stringIcNS_11char_traitsIcEENS_9allocatorIcEEEENS_12__value_typeIS7_dEENS_4lessIS7_EELb1EEEEC2B8ne180100IiRKSC_EEOT_OT0_
FNA:1,0,_ZNSt3__117__compressed_pairImNS_19__map_value_compareINS_12basic_stringIcNS_11char_traitsIcEENS_9allocatorIcEEEENS_12__value_typeIS7_mEENS_4lessIS7_EELb1EEEEC1B8ne180100IiRKSC_EEOT_OT0_
FNA:1,0,_ZNSt3__117__compressed_pairImNS_19__map_value_compareINS_12basic_stringIcNS_11char_traitsIcEENS_9allocatorIcEEEENS_12__value_typeIS7_mEENS_4lessIS7_EELb1EEEEC2B8ne180100IiRKSC_EEOT_OT0_
FNA:1,20,_ZNSt3__117__compressed_pairImNS_4hashINS_12basic_stringIcNS_11char_traitsIcEENS_9allocatorIcEEEEEEEC1B8ne180100IiNS_18__default_init_tagEEEOT_OT0_
FNA:1,20,_ZNSt3__117__compressed_pairImNS_4hashINS_12basic_stringIcNS_11char_traitsIcEENS_9allocatorIcEEEEEEEC2B8ne180100IiNS_18__default_init_tagEEEOT_OT0_
FNA:1,4,_ZNSt3__117__compressed_pairImNS_4lessINS_12basic_stringIcNS_11char_traitsIcEENS_9allocatorIcEEEEEEEC1B8ne180100IiRKS8_EEOT_OT0_
FNA:1,4,_ZNSt3__117__compressed_pairImNS_4lessINS_12basic_stringIcNS_11char_traitsIcEENS_9allocatorIcEEEEEEEC2B8ne180100IiRKS8_EEOT_OT0_
FNA:1,8,_ZNSt3__117__compressed_pairImNS_4lessINS_6chrono14year_month_dayEEEEC1B8ne180100IiRKS4_EEOT_OT0_
FNA:1,8,_ZNSt3__117__compressed_pairImNS_4lessINS_6chrono14year_month_dayEEEEC2B8ne180100IiRKS4_EEOT_OT0_
FNA:1,0,_ZNSt3__117__compressed_pairImNS_9allocatorINS_11__list_nodeINS_4pairIcPKcEEPvEEEEEC1B8ne180100IiNS_18__default_init_tagEEEOT_OT0_
FNA:1,0,_ZNSt3__117__compressed_pairImNS_9allocatorINS_11__list_nodeINS_4pairIcPKcEEPvEEEEEC2B8ne180100IiNS_18__default_init_tagEEEOT_OT0_
FNA:1,20,_ZNSt3__117__compressed_pairImNS_9allocatorIPNS_16__hash_node_baseIPNS_11__hash_nodeINS_12basic_stringIcNS_11char_traitsIcEENS1_IcEEEEPvEEEEEEEC1B8ne180100IiNS_18__default_init_tagEEEOT_OT0_
FNA:1,20,_ZNSt3__117__compressed_pairImNS_9allocatorIPNS_16__hash_node_baseIPNS_11__hash_nodeINS_12basic_stringIcNS_11char_traitsIcEENS1_IcEEEEPvEEEEEEEC2B8ne180100IiNS_18__default_init_tagEEEOT_OT0_
FNL:2,129,130
FNA:2,1529,_ZNSt3__117__compressed_pairINS_12basic_stringIcNS_11char_traitsIcEENS_9allocatorIcEEE5__repES5_E5firstB8ne180100Ev
FNA:2,0,_ZNSt3__117__compressed_pairINS_15__tree_end_nodeIPNS_16__tree_node_baseIPvEEEENS_9allocatorINS_11__tree_nodeINS_12__value_typeINS_12basic_stringIcNS_11char_traitsIcEENS7_IcEEEEN7testing8internal12CodeLocationEEES3_EEEEE5firstB8ne180100Ev
FNA:2,8,_ZNSt3__117__compressed_pairINS_15__tree_end_nodeIPNS_16__tree_node_baseIPvEEEENS_9allocatorINS_11__tree_nodeINS_12__value_typeINS_12basic_stringIcNS_11char_traitsIcEENS7_IcEEEEN7testing8internal34TypeParameterizedTestSuiteRegistry30TypeParameterizedTestSuiteInfoEEES3_EEEEE5firstB8ne180100Ev
FNA:2,2520,_ZNSt3__117__compressed_pairINS_15__tree_end_nodeIPNS_16__tree_node_baseIPvEEEENS_9allocatorINS_11__tree_nodeINS_12__value_typeINS_12basic_stringIcNS_11char_traitsIcEENS7_IcEEEEdEES3_EEEEE5firstB8ne180100Ev
FNA:2,0,_ZNSt3__117__compressed_pairINS_15__tree_end_nodeIPNS_16__tree_node_baseIPvEEEENS_9allocatorINS_11__tree_nodeINS_12__value_typeINS_12basic_stringIcNS_11char_traitsIcEENS7_IcEEEEmEES3_EEEEE5firstB8ne180100Ev
FNA:2,4,_ZNSt3__117__compressed_pairINS_15__tree_end_nodeIPNS_16__tree_node_baseIPvEEEENS_9allocatorINS_11__tree_nodeINS_12basic_stringIcNS_11char_traitsIcEENS7_IcEEEES3_EEEEE5firstB8ne180100Ev
FNA:2,64,_ZNSt3__117__compressed_pairINS_15__tree_end_nodeIPNS_16__tree_node_baseIPvEEEENS_9allocatorINS_11__tree_nodeINS_6chrono14year_month_dayES3_EEEEE5firstB8ne180100Ev
FNA:2,40,_ZNSt3__117__compressed_pairINS_16__hash_node_baseIPNS_11__hash_nodeINS_12basic_stringIcNS_11char_traitsIcEENS_9allocatorIcEEEEPvEEEENS6_ISA_EEE5firstB8ne180100Ev
FNA:2,0,_ZNSt3__117__compressed_pairIPKNS_12basic_stringIcNS_11char_traitsIcEENS_9allocatorIcEEEENS_14default_deleteIS7_EEE5firstB8ne180100Ev
FNA:2,382,_ZNSt3__117__compressed_pairIPN7pyfolio8DateTimeENS_9allocatorIS2_EEE5firstB8ne180100Ev
FNA:2,2,_ZNSt3__117__compressed_pairIPN7pyfolio8DateTimeERNS_9allocatorIS2_EEE5firstB8ne180100Ev
FNA:2,0,_ZNSt3__117__compressed_pairIPN7testing12TestPropertyENS_9allocatorIS2_EEE5firstB8ne180100Ev
FNA:2,0,_ZNSt3__117__compressed_pairIPN7testing12TestPropertyERNS_9allocatorIS2_EEE5firstB8ne180100Ev
FNA:2,15,_ZNSt3__117__compressed_pairIPN7testing14TestPartResultENS_9allocatorIS2_EEE5firstB8ne180100Ev
FNA:2,14,_ZNSt3__117__compressed_pairIPN7testing14TestPartResultERNS_9allocatorIS2_EEE5firstB8ne180100Ev
FNA:2,0,_ZNSt3__117__compressed_pairIPN7testing8internal11ThreadLocalINS_6vectorINS2_9TraceInfoENS_9allocatorIS5_EEEEE18ValueHolderFactoryENS_14default_deleteISA_EEE5firstB8ne180100Ev
FNA:2,0,_ZNSt3__117__compressed_pairIPN7testing8internal11ThreadLocalIPNS1_31TestPartResultReporterInterfaceEE18ValueHolderFactoryENS_14default_deleteIS7_EEE5firstB8ne180100Ev
FNA:2,0,_ZNSt3__117__compressed_pairIPN7testing8internal13edit_distance8EditTypeENS_9allocatorIS4_EEE5firstB8ne180100Ev
FNA:2,0,_ZNSt3__117__compressed_pairIPN7testing8internal13edit_distance8EditTypeERNS_9allocatorIS4_EEE5firstB8ne180100Ev
FNA:2,126,_ZNSt3__117__compressed_pairIPN7testing8internal14GTestFlagSaverENS_14default_deleteIS3_EEE5firstB8ne180100Ev
FNA:2,0,_ZNSt3__117__compressed_pairIPN7testing8internal16DeathTestFactoryENS_14default_deleteIS3_EEE5firstB8ne180100Ev
FNA:2,8,_ZNSt3__117__compressed_pairIPN7testing8internal24InternalRunDeathTestFlagENS_14default_deleteIS3_EEE5firstB8ne180100Ev
FNA:2,0,_ZNSt3__117__compressed_pairIPN7testing8internal9TraceInfoENS_9allocatorIS3_EEE5firstB8ne180100Ev
FNA:2,0,_ZNSt3__117__compressed_pairIPN7testing8internal9TraceInfoERNS_9allocatorIS3_EEE5firstB8ne180100Ev
FNA:2,0,_ZNSt3__117__compressed_pairIPNS_11__hash_nodeINS_12basic_stringIcNS_11char_traitsIcEENS_9allocatorIcEEEEPvEENS_22__hash_node_destructorINS5_IS9_EEEEE5firstB8ne180100Ev
FNA:2,0,_ZNSt3__117__compressed_pairIPNS_11__tree_nodeINS_12__value_typeINS_12basic_stringIcNS_11char_traitsIcEENS_9allocatorIcEEEEN7testing8internal34TypeParameterizedTestSuiteRegistry30TypeParameterizedTestSuiteInfoEEEPvEENS_22__tree_node_destructorINS6_ISF_EEEEE5firstB8ne180100Ev
FNA:2,4320,_ZNSt3__117__compressed_pairIPNS_11__tree_nodeINS_12__value_typeINS_12basic_stringIcNS_11char_traitsIcEENS_9allocatorIcEEEEdEEPvEENS_22__tree_node_destructorINS6_ISB_EEEEE5firstB8ne180100Ev
FNA:2,0,_ZNSt3__117__compressed_pairIPNS_11__tree_nodeINS_12__value_typeINS_12basic_stringIcNS_11char_traitsIcEENS_9allocatorIcEEEEmEEPvEENS_22__tree_node_destructorINS6_ISB_EEEEE5firstB8ne180100Ev
FNA:2,0,_ZNSt3__117__compressed_pairIPNS_11__tree_nodeINS_12basic_stringIcNS_11char_traitsIcEENS_9allocatorIcEEEEPvEENS_22__tree_node_destructorINS5_IS9_EEEEE5firstB8ne180100Ev
FNA:2,192,_ZNSt3__117__compressed_pairIPNS_11__tree_nodeINS_6chrono14year_month_dayEPvEENS_22__tree_node_destructorINS_9allocatorIS5_EEEEE5firstB8ne180100Ev
FNA:2,140,_ZNSt3__117__compressed_pairIPNS_12basic_stringIcNS_11char_traitsIcEENS_9allocatorIcEEEENS4_IS6_EEE5firstB8ne180100Ev
FNA:2,442,_ZNSt3__117__compressed_pairIPNS_12basic_stringIcNS_11char_traitsIcEENS_9allocatorIcEEEENS_14default_deleteIS6_EEE5firstB8ne180100Ev
FNA:2,84,_ZNSt3__117__compressed_pairIPNS_12basic_stringIcNS_11char_traitsIcEENS_9allocatorIcEEEERNS4_IS6_EEE5firstB8ne180100Ev
FNA:2,80,_ZNSt3__117__compressed_pairIPNS_15__thread_structENS_14default_deleteIS1_EEE5firstB8ne180100Ev
FNA:2,662,_ZNSt3__117__compressed_pairIPNS_18basic_stringstreamIcNS_11char_traitsIcEENS_9allocatorIcEEEENS_14default_deleteIS6_EEE5firstB8ne180100Ev
FNA:2,18,_ZNSt3__117__compressed_pairIPNS_3mapINS_12basic_stringIcNS_11char_traitsIcEENS_9allocatorIcEEEEdNS_4lessIS7_EENS5_INS_4pairIKS7_dEEEEEENS5_ISE_EEE5firstB8ne180100Ev
FNA:2,0,_ZNSt3__117__compressed_pairIPNS_4pairIN7pyfolio8DateTimeEdEENS_9allocatorIS4_EEE5firstB8ne180100Ev
FNA:2,0,_ZNSt3__117__compressed_pairIPNS_4pairIN7pyfolio8DateTimeEdEERNS_9allocatorIS4_EEE5firstB8ne180100Ev
FNA:2,60,_ZNSt3__117__compressed_pairIPNS_5tupleIJNS_10unique_ptrINS_15__thread_structENS_14default_deleteIS3_EEEEZN36CoreTypesTest_BasicThreadSafety_Test8TestBodyEvE3$_0EEENS4_IS9_EEE5firstB8ne180100Ev
FNA:2,15,_ZNSt3__117__compressed_pairIPNS_6threadENS_9allocatorIS1_EEE5firstB8ne180100Ev
FNA:2,10,_ZNSt3__117__compressed_pairIPNS_6threadERNS_9allocatorIS1_EEE5firstB8ne180100Ev
FNA:2,0,_ZNSt3__117__compressed_pairIPNS_6vectorIN7testing8internal13edit_distance8EditTypeENS_9allocatorIS5_EEEENS6_IS8_EEE5firstB8ne180100Ev
FNA:2,0,_ZNSt3__117__compressed_pairIPNS_6vectorIdNS_9allocatorIdEEEENS2_IS4_EEE5firstB8ne180100Ev
FNA:2,0,_ZNSt3__117__compressed_pairIPPN7testing11EnvironmentENS_9allocatorIS3_EEE5firstB8ne180100Ev
FNA:2,0,_ZNSt3__117__compressed_pairIPPN7testing11EnvironmentERNS_9allocatorIS3_EEE5firstB8ne180100Ev
FNA:2,8,_ZNSt3__117__compressed_pairIPPN7testing17TestEventListenerENS_9allocatorIS3_EEE5firstB8ne180100Ev
FNA:2,8,_ZNSt3__117__compressed_pairIPPN7testing17TestEventListenerERNS_9allocatorIS3_EEE5firstB8ne180100Ev
FNA:2,86,_ZNSt3__117__compressed_pairIPPN7testing8TestInfoENS_9allocatorIS3_EEE5firstB8ne180100Ev
FNA:2,46,_ZNSt3__117__compressed_pairIPPN7testing8TestInfoERNS_9allocatorIS3_EEE5firstB8ne180100Ev
FNA:2,8,_ZNSt3__117__compressed_pairIPPN7testing9TestSuiteENS_9allocatorIS3_EEE5firstB8ne180100Ev
FNA:2,8,_ZNSt3__117__compressed_pairIPPN7testing9TestSuiteERNS_9allocatorIS3_EEE5firstB8ne180100Ev
FNA:2,56,_ZNSt3__117__compressed_pairIPPNS_16__hash_node_baseIPNS_11__hash_nodeINS_12basic_stringIcNS_11char_traitsIcEENS_9allocatorIcEEEEPvEEEENS_25__bucket_list_deallocatorINS6_ISD_EEEEE5firstB8ne180100Ev
FNA:2,0,_ZNSt3__117__compressed_pairIPPcNS_9allocatorIS1_EEE5firstB8ne180100Ev
FNA:2,0,_ZNSt3__117__compressed_pairIPPcRNS_9allocatorIS1_EEE5firstB8ne180100Ev
FNA:2,537,_ZNSt3__117__compressed_pairIPdNS_9allocatorIdEEE5firstB8ne180100Ev
FNA:2,50,_ZNSt3__117__compressed_pairIPdRNS_9allocatorIdEEE5firstB8ne180100Ev
FNA:2,94,_ZNSt3__117__compressed_pairIPiNS_9allocatorIiEEE5firstB8ne180100Ev
FNA:2,54,_ZNSt3__117__compressed_pairIPiRNS_9allocatorIiEEE5firstB8ne180100Ev
FNA:2,0,_ZNSt3__117__compressed_pairIPmNS_9allocatorImEEE5firstB8ne180100Ev
FNA:2,0,_ZNSt3__117__compressed_pairIPmRNS_9allocatorImEEE5firstB8ne180100Ev
FNA:2,8,_ZNSt3__117__compressed_pairIfNS_8equal_toINS_12basic_stringIcNS_11char_traitsIcEENS_9allocatorIcEEEEEEE5firstB8ne180100Ev
FNA:2,0,_ZNSt3__117__compressed_pairImNS_19__map_value_compareINS_12basic_stringIcNS_11char_traitsIcEENS_9allocatorIcEEEENS_12__value_typeIS7_N7testing8internal34TypeParameterizedTestSuiteRegistry30TypeParameterizedTestSuiteInfoEEENS_4lessIS7_EELb1EEEE5firstB8ne180100Ev
FNA:2,1080,_ZNSt3__117__compressed_pairImNS_19__map_value_compareINS_12basic_stringIcNS_11char_traitsIcEENS_9allocatorIcEEEENS_12__value_typeIS7_dEENS_4lessIS7_EELb1EEEE5firstB8ne180100Ev
FNA:2,0,_ZNSt3__117__compressed_pairImNS_19__map_value_compareINS_12basic_stringIcNS_11char_traitsIcEENS_9allocatorIcEEEENS_12__value_typeIS7_mEENS_4lessIS7_EELb1EEEE5firstB8ne180100Ev
FNA:2,16,_ZNSt3__117__compressed_pairImNS_4hashINS_12basic_stringIcNS_11char_traitsIcEENS_9allocatorIcEEEEEEE5firstB8ne180100Ev
FNA:2,0,_ZNSt3__117__compressed_pairImNS_4lessINS_12basic_stringIcNS_11char_traitsIcEENS_9allocatorIcEEEEEEE5firstB8ne180100Ev
FNA:2,48,_ZNSt3__117__compressed_pairImNS_4lessINS_6chrono14year_month_dayEEEE5firstB8ne180100Ev
FNA:2,0,_ZNSt3__117__compressed_pairImNS_9allocatorINS_11__list_nodeINS_4pairIcPKcEEPvEEEEE5firstB8ne180100Ev
FNA:2,12,_ZNSt3__117__compressed_pairImNS_9allocatorIPNS_16__hash_node_baseIPNS_11__hash_nodeINS_12basic_stringIcNS_11char_traitsIcEENS1_IcEEEEPvEEEEEEE5firstB8ne180100Ev
FNL:3,133,134
FNA:3,0,_ZNKSt3__117__compressed_pairINS_12basic_stringIDiNS_11char_traitsIDiEENS_9allocatorIDiEEE5__repES5_E5firstB8ne180100Ev
FNA:3,0,_ZNKSt3__117__compressed_pairINS_12basic_stringIDsNS_11char_traitsIDsEENS_9allocatorIDsEEE5__repES5_E5firstB8ne180100Ev
FNA:3,0,_ZNKSt3__117__compressed_pairINS_12basic_stringIDuNS_11char_traitsIDuEENS_9allocatorIDuEEE5__repES5_E5firstB8ne180100Ev
FNA:3,26681,_ZNKSt3__117__compressed_pairINS_12basic_stringIcNS_11char_traitsIcEENS_9allocatorIcEEE5__repES5_E5firstB8ne180100Ev
FNA:3,0,_ZNKSt3__117__compressed_pairINS_12basic_stringIwNS_11char_traitsIwEENS_9allocatorIwEEE5__repES5_E5firstB8ne180100Ev
FNA:3,0,_ZNKSt3__117__compressed_pairINS_15__tree_end_nodeIPNS_16__tree_node_baseIPvEEEENS_9allocatorINS_11__tree_nodeINS_12__value_typeINS_12basic_stringIcNS_11char_traitsIcEENS7_IcEEEEN7testing8internal12CodeLocationEEES3_EEEEE5firstB8ne180100Ev
FNA:3,0,_ZNKSt3__117__compressed_pairINS_15__tree_end_nodeIPNS_16__tree_node_baseIPvEEEENS_9allocatorINS_11__tree_nodeINS_12__value_typeINS_12basic_stringIcNS_11char_traitsIcEENS7_IcEEEEN7testing8internal34TypeParameterizedTestSuiteRegistry30TypeParameterizedTestSuiteInfoEEES3_EEEEE5firstB8ne180100Ev
FNA:3,900,_ZNKSt3__117__compressed_pairINS_15__tree_end_nodeIPNS_16__tree_node_baseIPvEEEENS_9allocatorINS_11__tree_nodeINS_12__value_typeINS_12basic_stringIcNS_11char_traitsIcEENS7_IcEEEEdEES3_EEEEE5firstB8ne180100Ev
FNA:3,0,_ZNKSt3__117__compressed_pairINS_15__tree_end_nodeIPNS_16__tree_node_baseIPvEEEENS_9allocatorINS_11__tree_nodeINS_12__value_typeINS_12basic_stringIcNS_11char_traitsIcEENS7_IcEEEEmEES3_EEEEE5firstB8ne180100Ev
FNA:3,0,_ZNKSt3__117__compressed_pairINS_15__tree_end_nodeIPNS_16__tree_node_baseIPvEEEENS_9allocatorINS_11__tree_nodeINS_12basic_stringIcNS_11char_traitsIcEENS7_IcEEEES3_EEEEE5firstB8ne180100Ev
FNA:3,175,_ZNKSt3__117__compressed_pairINS_15__tree_end_nodeIPNS_16__tree_node_baseIPvEEEENS_9allocatorINS_11__tree_nodeINS_6chrono14year_month_dayES3_EEEEE5firstB8ne180100Ev
FNA:3,83,_ZNKSt3__117__compressed_pairIPKNS_12basic_stringIcNS_11char_traitsIcEENS_9allocatorIcEEEENS_14default_deleteIS7_EEE5firstB8ne180100Ev
FNA:3,245,_ZNKSt3__117__compressed_pairIPN7pyfolio8DateTimeENS_9allocatorIS2_EEE5firstB8ne180100Ev
FNA:3,0,_ZNKSt3__117__compressed_pairIPN7pyfolio8DateTimeERNS_9allocatorIS2_EEE5firstB8ne180100Ev
FNA:3,0,_ZNKSt3__117__compressed_pairIPN7testing12TestPropertyENS_9allocatorIS2_EEE5firstB8ne180100Ev
FNA:3,0,_ZNKSt3__117__compressed_pairIPN7testing12TestPropertyERNS_9allocatorIS2_EEE5firstB8ne180100Ev
FNA:3,7,_ZNKSt3__117__compressed_pairIPN7testing14TestPartResultENS_9allocatorIS2_EEE5firstB8ne180100Ev
FNA:3,3,_ZNKSt3__117__compressed_pairIPN7testing14TestPartResultERNS_9allocatorIS2_EEE5firstB8ne180100Ev
FNA:3,1,_ZNKSt3__117__compressed_pairIPN7testing8internal11ThreadLocalINS_6vectorINS2_9TraceInfoENS_9allocatorIS5_EEEEE18ValueHolderFactoryENS_14default_deleteISA_EEE5firstB8ne180100Ev
FNA:3,1,_ZNKSt3__117__compressed_pairIPN7testing8internal11ThreadLocalIPNS1_31TestPartResultReporterInterfaceEE18ValueHolderFactoryENS_14default_deleteIS7_EEE5firstB8ne180100Ev
FNA:3,0,_ZNKSt3__117__compressed_pairIPN7testing8internal13edit_distance8EditTypeENS_9allocatorIS4_EEE5firstB8ne180100Ev
FNA:3,0,_ZNKSt3__117__compressed_pairIPN7testing8internal13edit_distance8EditTypeERNS_9allocatorIS4_EEE5firstB8ne180100Ev
FNA:3,0,_ZNKSt3__117__compressed_pairIPN7testing8internal16DeathTestFactoryENS_14default_deleteIS3_EEE5firstB8ne180100Ev
FNA:3,8,_ZNKSt3__117__compressed_pairIPN7testing8internal24InternalRunDeathTestFlagENS_14default_deleteIS3_EEE5firstB8ne180100Ev
FNA:3,0,_ZNKSt3__117__compressed_pairIPN7testing8internal9TraceInfoENS_9allocatorIS3_EEE5firstB8ne180100Ev
FNA:3,0,_ZNKSt3__117__compressed_pairIPN7testing8internal9TraceInfoERNS_9allocatorIS3_EEE5firstB8ne180100Ev
FNA:3,0,_ZNKSt3__117__compressed_pairIPNS_11__hash_nodeINS_12basic_stringIcNS_11char_traitsIcEENS_9allocatorIcEEEEPvEENS_22__hash_node_destructorINS5_IS9_EEEEE5firstB8ne180100Ev
FNA:3,0,_ZNKSt3__117__compressed_pairIPNS_11__tree_nodeINS_12__value_typeINS_12basic_stringIcNS_11char_traitsIcEENS_9allocatorIcEEEEN7testing8internal34TypeParameterizedTestSuiteRegistry30TypeParameterizedTestSuiteInfoEEEPvEENS_22__tree_node_destructorINS6_ISF_EEEEE5firstB8ne180100Ev
FNA:3,2160,_ZNKSt3__117__compressed_pairIPNS_11__tree_nodeINS_12__value_typeINS_12basic_stringIcNS_11char_traitsIcEENS_9allocatorIcEEEEdEEPvEENS_22__tree_node_destructorINS6_ISB_EEEEE5firstB8ne180100Ev
FNA:3,0,_ZNKSt3__117__compressed_pairIPNS_11__tree_nodeINS_12__value_typeINS_12basic_stringIcNS_11char_traitsIcEENS_9allocatorIcEEEEmEEPvEENS_22__tree_node_destructorINS6_ISB_EEEEE5firstB8ne180100Ev
FNA:3,0,_ZNKSt3__117__compressed_pairIPNS_11__tree_nodeINS_12basic_stringIcNS_11char_traitsIcEENS_9allocatorIcEEEEPvEENS_22__tree_node_destructorINS5_IS9_EEEEE5firstB8ne180100Ev
FNA:3,96,_ZNKSt3__117__compressed_pairIPNS_11__tree_nodeINS_6chrono14year_month_dayEPvEENS_22__tree_node_destructorINS_9allocatorIS5_EEEEE5firstB8ne180100Ev
FNA:3,76,_ZNKSt3__117__compressed_pairIPNS_12basic_stringIcNS_11char_traitsIcEENS_9allocatorIcEEEENS4_IS6_EEE5firstB8ne180100Ev
FNA:3,59,_ZNKSt3__117__compressed_pairIPNS_12basic_stringIcNS_11char_traitsIcEENS_9allocatorIcEEEENS_14default_deleteIS6_EEE5firstB8ne180100Ev
FNA:3,8,_ZNKSt3__117__compressed_pairIPNS_12basic_stringIcNS_11char_traitsIcEENS_9allocatorIcEEEERNS4_IS6_EEE5firstB8ne180100Ev
FNA:3,2698,_ZNKSt3__117__compressed_pairIPNS_18basic_stringstreamIcNS_11char_traitsIcEENS_9allocatorIcEEEENS_14default_deleteIS6_EEE5firstB8ne180100Ev
FNA:3,54,_ZNKSt3__117__compressed_pairIPNS_3mapINS_12basic_stringIcNS_11char_traitsIcEENS_9allocatorIcEEEEdNS_4lessIS7_EENS5_INS_4pairIKS7_dEEEEEENS5_ISE_EEE5firstB8ne180100Ev
FNA:3,0,_ZNKSt3__117__compressed_pairIPNS_4pairIN7pyfolio8DateTimeEdEENS_9allocatorIS4_EEE5firstB8ne180100Ev
FNA:3,0,_ZNKSt3__117__compressed_pairIPNS_4pairIN7pyfolio8DateTimeEdEERNS_9allocatorIS4_EEE5firstB8ne180100Ev
FNA:3,30,_ZNKSt3__117__compressed_pairIPNS_5tupleIJNS_10unique_ptrINS_15__thread_structENS_14default_deleteIS3_EEEEZN36CoreTypesTest_BasicThreadSafety_Test8TestBodyEvE3$_0EEENS4_IS9_EEE5firstB8ne180100Ev
FNA:3,6,_ZNKSt3__117__compressed_pairIPNS_6threadENS_9allocatorIS1_EEE5firstB8ne180100Ev
FNA:3,4,_ZNKSt3__117__compressed_pairIPNS_6threadERNS_9allocatorIS1_EEE5firstB8ne180100Ev
FNA:3,0,_ZNKSt3__117__compressed_pairIPNS_6vectorIN7testing8internal13edit_distance8EditTypeENS_9allocatorIS5_EEEENS6_IS8_EEE5firstB8ne180100Ev
FNA:3,0,_ZNKSt3__117__compressed_pairIPNS_6vectorIdNS_9allocatorIdEEEENS2_IS4_EEE5firstB8ne180100Ev
FNA:3,0,_ZNKSt3__117__compressed_pairIPPN7testing11EnvironmentENS_9allocatorIS3_EEE5firstB8ne180100Ev
FNA:3,0,_ZNKSt3__117__compressed_pairIPPN7testing11EnvironmentERNS_9allocatorIS3_EEE5firstB8ne180100Ev
FNA:3,4,_ZNKSt3__117__compressed_pairIPPN7testing17TestEventListenerENS_9allocatorIS3_EEE5firstB8ne180100Ev
FNA:3,0,_ZNKSt3__117__compressed_pairIPPN7testing17TestEventListenerERNS_9allocatorIS3_EEE5firstB8ne180100Ev
FNA:3,23,_ZNKSt3__117__compressed_pairIPPN7testing8TestInfoENS_9allocatorIS3_EEE5firstB8ne180100Ev
FNA:3,19,_ZNKSt3__117__compressed_pairIPPN7testing8TestInfoERNS_9allocatorIS3_EEE5firstB8ne180100Ev
FNA:3,0,_ZNKSt3__117__compressed_pairIPPN7testing8internal30ParameterizedTestSuiteInfoBaseENS_9allocatorIS4_EEE5firstB8ne180100Ev
FNA:3,4,_ZNKSt3__117__compressed_pairIPPN7testing9TestSuiteENS_9allocatorIS3_EEE5firstB8ne180100Ev
FNA:3,0,_ZNKSt3__117__compressed_pairIPPN7testing9TestSuiteERNS_9allocatorIS3_EEE5firstB8ne180100Ev
FNA:3,0,_ZNKSt3__117__compressed_pairIPPNS_16__hash_node_baseIPNS_11__hash_nodeINS_12basic_stringIcNS_11char_traitsIcEENS_9allocatorIcEEEEPvEEEENS_25__bucket_list_deallocatorINS6_ISD_EEEEE5firstB8ne180100Ev
FNA:3,0,_ZNKSt3__117__compressed_pairIPPcNS_9allocatorIS1_EEE5firstB8ne180100Ev
FNA:3,0,_ZNKSt3__117__compressed_pairIPPcRNS_9allocatorIS1_EEE5firstB8ne180100Ev
FNA:3,361,_ZNKSt3__117__compressed_pairIPdNS_9allocatorIdEEE5firstB8ne180100Ev
FNA:3,14,_ZNKSt3__117__compressed_pairIPdRNS_9allocatorIdEEE5firstB8ne180100Ev
FNA:3,27,_ZNKSt3__117__compressed_pairIPiNS_9allocatorIiEEE5firstB8ne180100Ev
FNA:3,19,_ZNKSt3__117__compressed_pairIPiRNS_9allocatorIiEEE5firstB8ne180100Ev
FNA:3,0,_ZNKSt3__117__compressed_pairIPmNS_9allocatorImEEE5firstB8ne180100Ev
FNA:3,0,_ZNKSt3__117__compressed_pairIPmRNS_9allocatorImEEE5firstB8ne180100Ev
FNA:3,0,_ZNKSt3__117__compressed_pairImNS_19__map_value_compareINS_12basic_stringIcNS_11char_traitsIcEENS_9allocatorIcEEEENS_12__value_typeIS7_mEENS_4lessIS7_EELb1EEEE5firstB8ne180100Ev
FNA:3,0,_ZNKSt3__117__compressed_pairImNS_9allocatorINS_11__list_nodeINS_4pairIcPKcEEPvEEEEE5firstB8ne180100Ev
FNA:3,256,_ZNKSt3__117__compressed_pairImNS_9allocatorIPNS_16__hash_node_baseIPNS_11__hash_nodeINS_12basic_stringIcNS_11char_traitsIcEENS1_IcEEEEPvEEEEEEE5firstB8ne180100Ev
FNL:4,137,138
FNA:4,179,_ZNSt3__117__compressed_pairINS_12basic_stringIcNS_11char_traitsIcEENS_9allocatorIcEEE5__repES5_E6secondB8ne180100Ev
FNA:4,0,_ZNSt3__117__compressed_pairINS_15__tree_end_nodeIPNS_16__tree_node_baseIPvEEEENS_9allocatorINS_11__tree_nodeINS_12__value_typeINS_12basic_stringIcNS_11char_traitsIcEENS7_IcEEEEN7testing8internal34TypeParameterizedTestSuiteRegistry30TypeParameterizedTestSuiteInfoEEES3_EEEEE6secondB8ne180100Ev
FNA:4,2160,_ZNSt3__117__compressed_pairINS_15__tree_end_nodeIPNS_16__tree_node_baseIPvEEEENS_9allocatorINS_11__tree_nodeINS_12__value_typeINS_12basic_stringIcNS_11char_traitsIcEENS7_IcEEEEdEES3_EEEEE6secondB8ne180100Ev
FNA:4,0,_ZNSt3__117__compressed_pairINS_15__tree_end_nodeIPNS_16__tree_node_baseIPvEEEENS_9allocatorINS_11__tree_nodeINS_12__value_typeINS_12basic_stringIcNS_11char_traitsIcEENS7_IcEEEEmEES3_EEEEE6secondB8ne180100Ev
FNA:4,0,_ZNSt3__117__compressed_pairINS_15__tree_end_nodeIPNS_16__tree_node_baseIPvEEEENS_9allocatorINS_11__tree_nodeINS_12basic_stringIcNS_11char_traitsIcEENS7_IcEEEES3_EEEEE6secondB8ne180100Ev
FNA:4,72,_ZNSt3__117__compressed_pairINS_15__tree_end_nodeIPNS_16__tree_node_baseIPvEEEENS_9allocatorINS_11__tree_nodeINS_6chrono14year_month_dayES3_EEEEE6secondB8ne180100Ev
FNA:4,28,_ZNSt3__117__compressed_pairINS_16__hash_node_baseIPNS_11__hash_nodeINS_12basic_stringIcNS_11char_traitsIcEENS_9allocatorIcEEEEPvEEEENS6_ISA_EEE6secondB8ne180100Ev
FNA:4,0,_ZNSt3__117__compressed_pairIPKNS_12basic_stringIcNS_11char_traitsIcEENS_9allocatorIcEEEENS_14default_deleteIS7_EEE6secondB8ne180100Ev
FNA:4,1810,_ZNSt3__117__compressed_pairIPN7pyfolio8DateTimeENS_9allocatorIS2_EEE6secondB8ne180100Ev
FNA:4,1,_ZNSt3__117__compressed_pairIPN7pyfolio8DateTimeERNS_9allocatorIS2_EEE6secondB8ne180100Ev
FNA:4,0,_ZNSt3__117__compressed_pairIPN7testing12TestPropertyENS_9allocatorIS2_EEE6secondB8ne180100Ev
FNA:4,0,_ZNSt3__117__compressed_pairIPN7testing12TestPropertyERNS_9allocatorIS2_EEE6secondB8ne180100Ev
FNA:4,15,_ZNSt3__117__compressed_pairIPN7testing14TestPartResultENS_9allocatorIS2_EEE6secondB8ne180100Ev
FNA:4,17,_ZNSt3__117__compressed_pairIPN7testing14TestPartResultERNS_9allocatorIS2_EEE6secondB8ne180100Ev
FNA:4,0,_ZNSt3__117__compressed_pairIPN7testing8internal11ThreadLocalINS_6vectorINS2_9TraceInfoENS_9allocatorIS5_EEEEE18ValueHolderFactoryENS_14default_deleteISA_EEE6secondB8ne180100Ev
FNA:4,0,_ZNSt3__117__compressed_pairIPN7testing8internal11ThreadLocalIPNS1_31TestPartResultReporterInterfaceEE18ValueHolderFactoryENS_14default_deleteIS7_EEE6secondB8ne180100Ev
FNA:4,0,_ZNSt3__117__compressed_pairIPN7testing8internal13edit_distance8EditTypeENS_9allocatorIS4_EEE6secondB8ne180100Ev
FNA:4,0,_ZNSt3__117__compressed_pairIPN7testing8internal13edit_distance8EditTypeERNS_9allocatorIS4_EEE6secondB8ne180100Ev
FNA:4,63,_ZNSt3__117__compressed_pairIPN7testing8internal14GTestFlagSaverENS_14default_deleteIS3_EEE6secondB8ne180100Ev
FNA:4,0,_ZNSt3__117__compressed_pairIPN7testing8internal16DeathTestFactoryENS_14default_deleteIS3_EEE6secondB8ne180100Ev
FNA:4,0,_ZNSt3__117__compressed_pairIPN7testing8internal24InternalRunDeathTestFlagENS_14default_deleteIS3_EEE6secondB8ne180100Ev
FNA:4,0,_ZNSt3__117__compressed_pairIPN7testing8internal9TraceInfoENS_9allocatorIS3_EEE6secondB8ne180100Ev
FNA:4,0,_ZNSt3__117__compressed_pairIPN7testing8internal9TraceInfoERNS_9allocatorIS3_EEE6secondB8ne180100Ev
FNA:4,0,_ZNSt3__117__compressed_pairIPNS_11__hash_nodeINS_12basic_stringIcNS_11char_traitsIcEENS_9allocatorIcEEEEPvEENS_22__hash_node_destructorINS5_IS9_EEEEE6secondB8ne180100Ev
FNA:4,0,_ZNSt3__117__compressed_pairIPNS_11__tree_nodeINS_12__value_typeINS_12basic_stringIcNS_11char_traitsIcEENS_9allocatorIcEEEEN7testing8internal34TypeParameterizedTestSuiteRegistry30TypeParameterizedTestSuiteInfoEEEPvEENS_22__tree_node_destructorINS6_ISF_EEEEE6secondB8ne180100Ev
FNA:4,1080,_ZNSt3__117__compressed_pairIPNS_11__tree_nodeINS_12__value_typeINS_12basic_stringIcNS_11char_traitsIcEENS_9allocatorIcEEEEdEEPvEENS_22__tree_node_destructorINS6_ISB_EEEEE6secondB8ne180100Ev
FNA:4,0,_ZNSt3__117__compressed_pairIPNS_11__tree_nodeINS_12__value_typeINS_12basic_stringIcNS_11char_traitsIcEENS_9allocatorIcEEEEmEEPvEENS_22__tree_node_destructorINS6_ISB_EEEEE6secondB8ne180100Ev
FNA:4,0,_ZNSt3__117__compressed_pairIPNS_11__tree_nodeINS_12basic_stringIcNS_11char_traitsIcEENS_9allocatorIcEEEEPvEENS_22__tree_node_destructorINS5_IS9_EEEEE6secondB8ne180100Ev
FNA:4,48,_ZNSt3__117__compressed_pairIPNS_11__tree_nodeINS_6chrono14year_month_dayEPvEENS_22__tree_node_destructorINS_9allocatorIS5_EEEEE6secondB8ne180100Ev
FNA:4,236,_ZNSt3__117__compressed_pairIPNS_12basic_stringIcNS_11char_traitsIcEENS_9allocatorIcEEEENS4_IS6_EEE6secondB8ne180100Ev
FNA:4,6,_ZNSt3__117__compressed_pairIPNS_12basic_stringIcNS_11char_traitsIcEENS_9allocatorIcEEEENS_14default_deleteIS6_EEE6secondB8ne180100Ev
FNA:4,58,_ZNSt3__117__compressed_pairIPNS_12basic_stringIcNS_11char_traitsIcEENS_9allocatorIcEEEERNS4_IS6_EEE6secondB8ne180100Ev
FNA:4,10,_ZNSt3__117__compressed_pairIPNS_15__thread_structENS_14default_deleteIS1_EEE6secondB8ne180100Ev
FNA:4,331,_ZNSt3__117__compressed_pairIPNS_18basic_stringstreamIcNS_11char_traitsIcEENS_9allocatorIcEEEENS_14default_deleteIS6_EEE6secondB8ne180100Ev
FNA:4,234,_ZNSt3__117__compressed_pairIPNS_3mapINS_12basic_stringIcNS_11char_traitsIcEENS_9allocatorIcEEEEdNS_4lessIS7_EENS5_INS_4pairIKS7_dEEEEEENS5_ISE_EEE6secondB8ne180100Ev
FNA:4,0,_ZNSt3__117__compressed_pairIPNS_4pairIN7pyfolio8DateTimeEdEENS_9allocatorIS4_EEE6secondB8ne180100Ev
FNA:4,0,_ZNSt3__117__compressed_pairIPNS_4pairIN7pyfolio8DateTimeEdEERNS_9allocatorIS4_EEE6secondB8ne180100Ev
FNA:4,10,_ZNSt3__117__compressed_pairIPNS_5tupleIJNS_10unique_ptrINS_15__thread_structENS_14default_deleteIS3_EEEEZN36CoreTypesTest_BasicThreadSafety_Test8TestBodyEvE3$_0EEENS4_IS9_EEE6secondB8ne180100Ev
FNA:4,26,_ZNSt3__117__compressed_pairIPNS_6threadENS_9allocatorIS1_EEE6secondB8ne180100Ev
FNA:4,24,_ZNSt3__117__compressed_pairIPNS_6threadERNS_9allocatorIS1_EEE6secondB8ne180100Ev
FNA:4,0,_ZNSt3__117__compressed_pairIPNS_6vectorIN7testing8internal13edit_distance8EditTypeENS_9allocatorIS5_EEEENS6_IS8_EEE6secondB8ne180100Ev
FNA:4,0,_ZNSt3__117__compressed_pairIPNS_6vectorIdNS_9allocatorIdEEEENS2_IS4_EEE6secondB8ne180100Ev
FNA:4,0,_ZNSt3__117__compressed_pairIPPN7testing11EnvironmentENS_9allocatorIS3_EEE6secondB8ne180100Ev
FNA:4,0,_ZNSt3__117__compressed_pairIPPN7testing11EnvironmentERNS_9allocatorIS3_EEE6secondB8ne180100Ev
FNA:4,8,_ZNSt3__117__compressed_pairIPPN7testing17TestEventListenerENS_9allocatorIS3_EEE6secondB8ne180100Ev
FNA:4,4,_ZNSt3__117__compressed_pairIPPN7testing17TestEventListenerERNS_9allocatorIS3_EEE6secondB8ne180100Ev
FNA:4,86,_ZNSt3__117__compressed_pairIPPN7testing8TestInfoENS_9allocatorIS3_EEE6secondB8ne180100Ev
FNA:4,150,_ZNSt3__117__compressed_pairIPPN7testing8TestInfoERNS_9allocatorIS3_EEE6secondB8ne180100Ev
FNA:4,0,_ZNSt3__117__compressed_pairIPPN7testing8internal30ParameterizedTestSuiteInfoBaseENS_9allocatorIS4_EEE6secondB8ne180100Ev
FNA:4,8,_ZNSt3__117__compressed_pairIPPN7testing9TestSuiteENS_9allocatorIS3_EEE6secondB8ne180100Ev
FNA:4,4,_ZNSt3__117__compressed_pairIPPN7testing9TestSuiteERNS_9allocatorIS3_EEE6secondB8ne180100Ev
FNA:4,20,_ZNSt3__117__compressed_pairIPPNS_16__hash_node_baseIPNS_11__hash_nodeINS_12basic_stringIcNS_11char_traitsIcEENS_9allocatorIcEEEEPvEEEENS_25__bucket_list_deallocatorINS6_ISD_EEEEE6secondB8ne180100Ev
FNA:4,0,_ZNSt3__117__compressed_pairIPPcNS_9allocatorIS1_EEE6secondB8ne180100Ev
FNA:4,0,_ZNSt3__117__compressed_pairIPPcRNS_9allocatorIS1_EEE6secondB8ne180100Ev
FNA:4,2556,_ZNSt3__117__compressed_pairIPdNS_9allocatorIdEEE6secondB8ne180100Ev
FNA:4,83,_ZNSt3__117__compressed_pairIPdRNS_9allocatorIdEEE6secondB8ne180100Ev
FNA:4,94,_ZNSt3__117__compressed_pairIPiNS_9allocatorIiEEE6secondB8ne180100Ev
FNA:4,154,_ZNSt3__117__compressed_pairIPiRNS_9allocatorIiEEE6secondB8ne180100Ev
FNA:4,0,_ZNSt3__117__compressed_pairIPmNS_9allocatorImEEE6secondB8ne180100Ev
FNA:4,0,_ZNSt3__117__compressed_pairIPmRNS_9allocatorImEEE6secondB8ne180100Ev
FNA:4,8,_ZNSt3__117__compressed_pairIfNS_8equal_toINS_12basic_stringIcNS_11char_traitsIcEENS_9allocatorIcEEEEEEE6secondB8ne180100Ev
FNA:4,0,_ZNSt3__117__compressed_pairImNS_19__map_value_compareINS_12basic_stringIcNS_11char_traitsIcEENS_9allocatorIcEEEENS_12__value_typeIS7_N7testing8internal34TypeParameterizedTestSuiteRegistry30TypeParameterizedTestSuiteInfoEEENS_4lessIS7_EELb1EEEE6secondB8ne180100Ev
FNA:4,720,_ZNSt3__117__compressed_pairImNS_19__map_value_compareINS_12basic_stringIcNS_11char_traitsIcEENS_9allocatorIcEEEENS_12__value_typeIS7_dEENS_4lessIS7_EELb1EEEE6secondB8ne180100Ev
FNA:4,0,_ZNSt3__117__compressed_pairImNS_19__map_value_compareINS_12basic_stringIcNS_11char_traitsIcEENS_9allocatorIcEEEENS_12__value_typeIS7_mEENS_4lessIS7_EELb1EEEE6secondB8ne180100Ev
FNA:4,8,_ZNSt3__117__compressed_pairImNS_4hashINS_12basic_stringIcNS_11char_traitsIcEENS_9allocatorIcEEEEEEE6secondB8ne180100Ev
FNA:4,0,_ZNSt3__117__compressed_pairImNS_4lessINS_12basic_stringIcNS_11char_traitsIcEENS_9allocatorIcEEEEEEE6secondB8ne180100Ev
FNA:4,148,_ZNSt3__117__compressed_pairImNS_4lessINS_6chrono14year_month_dayEEEE6secondB8ne180100Ev
FNA:4,0,_ZNSt3__117__compressed_pairImNS_9allocatorINS_11__list_nodeINS_4pairIcPKcEEPvEEEEE6secondB8ne180100Ev
FNA:4,8,_ZNSt3__117__compressed_pairImNS_9allocatorIPNS_16__hash_node_baseIPNS_11__hash_nodeINS_12basic_stringIcNS_11char_traitsIcEENS1_IcEEEEPvEEEEEEE6secondB8ne180100Ev
FNL:5,141,142
FNA:5,554,_ZNKSt3__117__compressed_pairINS_12basic_stringIcNS_11char_traitsIcEENS_9allocatorIcEEE5__repES5_E6secondB8ne180100Ev
FNA:5,180,_ZNKSt3__117__compressed_pairINS_15__tree_end_nodeIPNS_16__tree_node_baseIPvEEEENS_9allocatorINS_11__tree_nodeINS_12__value_typeINS_12basic_stringIcNS_11char_traitsIcEENS7_IcEEEEdEES3_EEEEE6secondB8ne180100Ev
FNA:5,273,_ZNKSt3__117__compressed_pairIPN7pyfolio8DateTimeENS_9allocatorIS2_EEE6secondB8ne180100Ev
FNA:5,0,_ZNKSt3__117__compressed_pairIPN7testing12TestPropertyENS_9allocatorIS2_EEE6secondB8ne180100Ev
FNA:5,7,_ZNKSt3__117__compressed_pairIPN7testing14TestPartResultENS_9allocatorIS2_EEE6secondB8ne180100Ev
FNA:5,0,_ZNKSt3__117__compressed_pairIPN7testing8internal13edit_distance8EditTypeENS_9allocatorIS4_EEE6secondB8ne180100Ev
FNA:5,0,_ZNKSt3__117__compressed_pairIPN7testing8internal9TraceInfoENS_9allocatorIS3_EEE6secondB8ne180100Ev
FNA:5,54,_ZNKSt3__117__compressed_pairIPNS_12basic_stringIcNS_11char_traitsIcEENS_9allocatorIcEEEENS4_IS6_EEE6secondB8ne180100Ev
FNA:5,36,_ZNKSt3__117__compressed_pairIPNS_3mapINS_12basic_stringIcNS_11char_traitsIcEENS_9allocatorIcEEEEdNS_4lessIS7_EENS5_INS_4pairIKS7_dEEEEEENS5_ISE_EEE6secondB8ne180100Ev
FNA:5,0,_ZNKSt3__117__compressed_pairIPNS_4pairIN7pyfolio8DateTimeEdEENS_9allocatorIS4_EEE6secondB8ne180100Ev
FNA:5,5,_ZNKSt3__117__compressed_pairIPNS_6threadENS_9allocatorIS1_EEE6secondB8ne180100Ev
FNA:5,0,_ZNKSt3__117__compressed_pairIPNS_6vectorIN7testing8internal13edit_distance8EditTypeENS_9allocatorIS5_EEEENS6_IS8_EEE6secondB8ne180100Ev
FNA:5,0,_ZNKSt3__117__compressed_pairIPNS_6vectorIdNS_9allocatorIdEEEENS2_IS4_EEE6secondB8ne180100Ev
FNA:5,0,_ZNKSt3__117__compressed_pairIPPN7testing11EnvironmentENS_9allocatorIS3_EEE6secondB8ne180100Ev
FNA:5,4,_ZNKSt3__117__compressed_pairIPPN7testing17TestEventListenerENS_9allocatorIS3_EEE6secondB8ne180100Ev
FNA:5,23,_ZNKSt3__117__compressed_pairIPPN7testing8TestInfoENS_9allocatorIS3_EEE6secondB8ne180100Ev
FNA:5,4,_ZNKSt3__117__compressed_pairIPPN7testing9TestSuiteENS_9allocatorIS3_EEE6secondB8ne180100Ev
FNA:5,256,_ZNKSt3__117__compressed_pairIPPNS_16__hash_node_baseIPNS_11__hash_nodeINS_12basic_stringIcNS_11char_traitsIcEENS_9allocatorIcEEEEPvEEEENS_25__bucket_list_deallocatorINS6_ISD_EEEEE6secondB8ne180100Ev
FNA:5,0,_ZNKSt3__117__compressed_pairIPPcNS_9allocatorIS1_EEE6secondB8ne180100Ev
FNA:5,389,_ZNKSt3__117__compressed_pairIPdNS_9allocatorIdEEE6secondB8ne180100Ev
FNA:5,27,_ZNKSt3__117__compressed_pairIPiNS_9allocatorIiEEE6secondB8ne180100Ev
FNA:5,0,_ZNKSt3__117__compressed_pairIPmNS_9allocatorImEEE6secondB8ne180100Ev
FNA:5,0,_ZNKSt3__117__compressed_pairIfNS_8equal_toINS_12basic_stringIcNS_11char_traitsIcEENS_9allocatorIcEEEEEEE6secondB8ne180100Ev
FNA:5,0,_ZNKSt3__117__compressed_pairImNS_19__map_value_compareINS_12basic_stringIcNS_11char_traitsIcEENS_9allocatorIcEEEENS_12__value_typeIS7_N7testing8internal12CodeLocationEEENS_4lessIvEELb1EEEE6secondB8ne180100Ev
FNA:5,180,_ZNKSt3__117__compressed_pairImNS_19__map_value_compareINS_12basic_stringIcNS_11char_traitsIcEENS_9allocatorIcEEEENS_12__value_typeIS7_dEENS_4lessIS7_EELb1EEEE6secondB8ne180100Ev
FNA:5,256,_ZNKSt3__117__compressed_pairImNS_4hashINS_12basic_stringIcNS_11char_traitsIcEENS_9allocatorIcEEEEEEE6secondB8ne180100Ev
FNA:5,0,_ZNKSt3__117__compressed_pairImNS_4lessINS_12basic_stringIcNS_11char_traitsIcEENS_9allocatorIcEEEEEEE6secondB8ne180100Ev
FNA:5,45,_ZNKSt3__117__compressed_pairImNS_4lessINS_6chrono14year_month_dayEEEE6secondB8ne180100Ev
FNL:6,152,157
FNA:6,0,_ZNSt3__117__compressed_pairIPNS_12basic_stringIcNS_11char_traitsIcEENS_9allocatorIcEEEENS_14default_deleteIS6_EEE4swapB8ne180100ERSA_
FNL:7,49,49
FNA:7,2285,_ZNSt3__122__compressed_pair_elemINS_12basic_stringIcNS_11char_traitsIcEENS_9allocatorIcEEE5__repELi0ELb0EEC2B8ne180100ENS_18__default_init_tagE
FNA:7,0,_ZNSt3__122__compressed_pair_elemINS_12basic_stringIwNS_11char_traitsIwEENS_9allocatorIwEEE5__repELi0ELb0EEC2B8ne180100ENS_18__default_init_tagE
FNA:7,180,_ZNSt3__122__compressed_pair_elemINS_15__tree_end_nodeIPNS_16__tree_node_baseIPvEEEELi0ELb0EEC2B8ne180100ENS_18__default_init_tagE
FNL:8,50,50
FNA:8,1125,_ZNSt3__122__compressed_pair_elemINS_12basic_stringIcNS_11char_traitsIcEENS_9allocatorIcEEE5__repELi0ELb0EEC2B8ne180100ENS_16__value_init_tagE
FNA:8,196,_ZNSt3__122__compressed_pair_elemINS_15__tree_end_nodeIPNS_16__tree_node_baseIPvEEEELi0ELb0EEC2B8ne180100ENS_16__value_init_tagE
FNA:8,20,_ZNSt3__122__compressed_pair_elemINS_16__hash_node_baseIPNS_11__hash_nodeINS_12basic_stringIcNS_11char_traitsIcEENS_9allocatorIcEEEEPvEEEELi0ELb0EEC2B8ne180100ENS_16__value_init_tagE
FNA:8,20,_ZNSt3__122__compressed_pair_elemINS_25__bucket_list_deallocatorINS_9allocatorIPNS_16__hash_node_baseIPNS_11__hash_nodeINS_12basic_stringIcNS_11char_traitsIcEENS2_IcEEEEPvEEEEEEEELi1ELb0EEC2B8ne180100ENS_16__value_init_tagE
FNA:8,4,_ZNSt3__122__compressed_pair_elemIPN7testing8internal24InternalRunDeathTestFlagELi0ELb0EEC2B8ne180100ENS_16__value_init_tagE
FNA:8,215,_ZNSt3__122__compressed_pair_elemIPNS_12basic_stringIcNS_11char_traitsIcEENS_9allocatorIcEEEELi0ELb0EEC2B8ne180100ENS_16__value_init_tagE
FNA:8,20,_ZNSt3__122__compressed_pair_elemIPPNS_16__hash_node_baseIPNS_11__hash_nodeINS_12basic_stringIcNS_11char_traitsIcEENS_9allocatorIcEEEEPvEEEELi0ELb0EEC2B8ne180100ENS_16__value_init_tagE
FNL:9,53,54
FNA:9,0,_ZNSt3__122__compressed_pair_elemINS_22__hash_node_destructorINS_9allocatorINS_11__hash_nodeINS_12basic_stringIcNS_11char_traitsIcEENS2_IcEEEEPvEEEEEELi1ELb0EEC2B8ne180100ISC_vEEOT_
FNA:9,0,_ZNSt3__122__compressed_pair_elemINS_22__tree_node_destructorINS_9allocatorINS_11__tree_nodeINS_12__value_typeINS_12basic_stringIcNS_11char_traitsIcEENS2_IcEEEEN7testing8internal34TypeParameterizedTestSuiteRegistry30TypeParameterizedTestSuiteInfoEEEPvEEEEEELi1ELb0EEC2B8ne180100ISI_vEEOT_
FNA:9,1080,_ZNSt3__122__compressed_pair_elemINS_22__tree_node_destructorINS_9allocatorINS_11__tree_nodeINS_12__value_typeINS_12basic_stringIcNS_11char_traitsIcEENS2_IcEEEEdEEPvEEEEEELi1ELb0EEC2B8ne180100ISE_vEEOT_
FNA:9,0,_ZNSt3__122__compressed_pair_elemINS_22__tree_node_destructorINS_9allocatorINS_11__tree_nodeINS_12__value_typeINS_12basic_stringIcNS_11char_traitsIcEENS2_IcEEEEmEEPvEEEEEELi1ELb0EEC2B8ne180100ISE_vEEOT_
FNA:9,0,_ZNSt3__122__compressed_pair_elemINS_22__tree_node_destructorINS_9allocatorINS_11__tree_nodeINS_12basic_stringIcNS_11char_traitsIcEENS2_IcEEEEPvEEEEEELi1ELb0EEC2B8ne180100ISC_vEEOT_
FNA:9,48,_ZNSt3__122__compressed_pair_elemINS_22__tree_node_destructorINS_9allocatorINS_11__tree_nodeINS_6chrono14year_month_dayEPvEEEEEELi1ELb0EEC2B8ne180100IS9_vEEOT_
FNA:9,130,_ZNSt3__122__compressed_pair_elemIPKNS_12basic_stringIcNS_11char_traitsIcEENS_9allocatorIcEEEELi0ELb0EEC2B8ne180100IRS8_vEEOT_
FNA:9,219,_ZNSt3__122__compressed_pair_elemIPN7pyfolio8DateTimeELi0ELb0EEC2B8ne180100IDnvEEOT_
FNA:9,71,_ZNSt3__122__compressed_pair_elemIPN7testing12TestPropertyELi0ELb0EEC2B8ne180100IDnvEEOT_
FNA:9,78,_ZNSt3__122__compressed_pair_elemIPN7testing14TestPartResultELi0ELb0EEC2B8ne180100IDnvEEOT_
FNA:9,4,_ZNSt3__122__compressed_pair_elemIPN7testing8internal11ThreadLocalINS_6vectorINS2_9TraceInfoENS_9allocatorIS5_EEEEE18ValueHolderFactoryELi0ELb0EEC2B8ne180100IRSB_vEEOT_
FNA:9,4,_ZNSt3__122__compressed_pair_elemIPN7testing8internal11ThreadLocalIPNS1_31TestPartResultReporterInterfaceEE18ValueHolderFactoryELi0ELb0EEC2B8ne180100IRS8_vEEOT_
FNA:9,0,_ZNSt3__122__compressed_pair_elemIPN7testing8internal13edit_distance8EditTypeELi0ELb0EEC2B8ne180100IDnvEEOT_
FNA:9,63,_ZNSt3__122__compressed_pair_elemIPN7testing8internal14GTestFlagSaverELi0ELb0EEC2B8ne180100IRS4_vEEOT_
FNA:9,4,_ZNSt3__122__compressed_pair_elemIPN7testing8internal16DeathTestFactoryELi0ELb0EEC2B8ne180100IRS4_vEEOT_
FNA:9,1,_ZNSt3__122__compressed_pair_elemIPN7testing8internal9TraceInfoELi0ELb0EEC2B8ne180100IDnvEEOT_
FNA:9,0,_ZNSt3__122__compressed_pair_elemIPNS_11__hash_nodeINS_12basic_stringIcNS_11char_traitsIcEENS_9allocatorIcEEEEPvEELi0ELb0EEC2B8ne180100IRSA_vEEOT_
FNA:9,0,_ZNSt3__122__compressed_pair_elemIPNS_11__tree_nodeINS_12__value_typeINS_12basic_stringIcNS_11char_traitsIcEENS_9allocatorIcEEEEN7testing8internal34TypeParameterizedTestSuiteRegistry30TypeParameterizedTestSuiteInfoEEEPvEELi0ELb0EEC2B8ne180100IRSG_vEEOT_
FNA:9,1080,_ZNSt3__122__compressed_pair_elemIPNS_11__tree_nodeINS_12__value_typeINS_12basic_stringIcNS_11char_traitsIcEENS_9allocatorIcEEEEdEEPvEELi0ELb0EEC2B8ne180100IRSC_vEEOT_
FNA:9,0,_ZNSt3__122__compressed_pair_elemIPNS_11__tree_nodeINS_12__value_typeINS_12basic_stringIcNS_11char_traitsIcEENS_9allocatorIcEEEEmEEPvEELi0ELb0EEC2B8ne180100IRSC_vEEOT_
FNA:9,0,_ZNSt3__122__compressed_pair_elemIPNS_11__tree_nodeINS_12basic_stringIcNS_11char_traitsIcEENS_9allocatorIcEEEEPvEELi0ELb0EEC2B8ne180100IRSA_vEEOT_
FNA:9,48,_ZNSt3__122__compressed_pair_elemIPNS_11__tree_nodeINS_6chrono14year_month_dayEPvEELi0ELb0EEC2B8ne180100IRS6_vEEOT_
FNA:9,104,_ZNSt3__122__compressed_pair_elemIPNS_12basic_stringIcNS_11char_traitsIcEENS_9allocatorIcEEEELi0ELb0EEC2B8ne180100IDnvEEOT_
FNA:9,3,_ZNSt3__122__compressed_pair_elemIPNS_12basic_stringIcNS_11char_traitsIcEENS_9allocatorIcEEEELi0ELb0EEC2B8ne180100IRS7_vEEOT_
FNA:9,10,_ZNSt3__122__compressed_pair_elemIPNS_15__thread_structELi0ELb0EEC2B8ne180100IRS2_vEEOT_
FNA:9,10,_ZNSt3__122__compressed_pair_elemIPNS_15__thread_structELi0ELb0EEC2B8ne180100IS2_vEEOT_
FNA:9,331,_ZNSt3__122__compressed_pair_elemIPNS_18basic_stringstreamIcNS_11char_traitsIcEENS_9allocatorIcEEEELi0ELb0EEC2B8ne180100IRS7_vEEOT_
FNA:9,18,_ZNSt3__122__compressed_pair_elemIPNS_3mapINS_12basic_stringIcNS_11char_traitsIcEENS_9allocatorIcEEEEdNS_4lessIS7_EENS5_INS_4pairIKS7_dEEEEEELi0ELb0EEC2B8ne180100IDnvEEOT_
FNA:9,0,_ZNSt3__122__compressed_pair_elemIPNS_4pairIN7pyfolio8DateTimeEdEELi0ELb0EEC2B8ne180100IDnvEEOT_
FNA:9,20,_ZNSt3__122__compressed_pair_elemIPNS_5tupleIJNS_10unique_ptrINS_15__thread_structENS_14default_deleteIS3_EEEEZN36CoreTypesTest_BasicThreadSafety_Test8TestBodyEvE3$_0EEELi0ELb0EEC2B8ne180100IRSA_vEEOT_
FNA:9,6,_ZNSt3__122__compressed_pair_elemIPNS_6threadELi0ELb0EEC2B8ne180100IDnvEEOT_
FNA:9,0,_ZNSt3__122__compressed_pair_elemIPNS_6vectorIN7testing8internal13edit_distance8EditTypeENS_9allocatorIS5_EEEELi0ELb0EEC2B8ne180100IDnvEEOT_
FNA:9,0,_ZNSt3__122__compressed_pair_elemIPNS_6vectorIdNS_9allocatorIdEEEELi0ELb0EEC2B8ne180100IDnvEEOT_
FNA:9,4,_ZNSt3__122__compressed_pair_elemIPPN7testing11EnvironmentELi0ELb0EEC2B8ne180100IDnvEEOT_
FNA:9,8,_ZNSt3__122__compressed_pair_elemIPPN7testing17TestEventListenerELi0ELb0EEC2B8ne180100IDnvEEOT_
FNA:9,27,_ZNSt3__122__compressed_pair_elemIPPN7testing8TestInfoELi0ELb0EEC2B8ne180100IDnvEEOT_
FNA:9,4,_ZNSt3__122__compressed_pair_elemIPPN7testing8internal30ParameterizedTestSuiteInfoBaseELi0ELb0EEC2B8ne180100IDnvEEOT_
FNA:9,8,_ZNSt3__122__compressed_pair_elemIPPN7testing9TestSuiteELi0ELb0EEC2B8ne180100IDnvEEOT_
FNA:9,0,_ZNSt3__122__compressed_pair_elemIPPcLi0ELb0EEC2B8ne180100IDnvEEOT_
FNA:9,301,_ZNSt3__122__compressed_pair_elemIPdLi0ELb0EEC2B8ne180100IDnvEEOT_
FNA:9,35,_ZNSt3__122__compressed_pair_elemIPiLi0ELb0EEC2B8ne180100IDnvEEOT_
FNA:9,0,_ZNSt3__122__compressed_pair_elemIPmLi0ELb0EEC2B8ne180100IDnvEEOT_
FNA:9,1,_ZNSt3__122__compressed_pair_elemIRNS_9allocatorIN7pyfolio8DateTimeEEELi1ELb0EEC2B8ne180100IS5_vEEOT_
FNA:9,0,_ZNSt3__122__compressed_pair_elemIRNS_9allocatorIN7testing12TestPropertyEEELi1ELb0EEC2B8ne180100IS5_vEEOT_
FNA:9,7,_ZNSt3__122__compressed_pair_elemIRNS_9allocatorIN7testing14TestPartResultEEELi1ELb0EEC2B8ne180100IS5_vEEOT_
FNA:9,0,_ZNSt3__122__compressed_pair_elemIRNS_9allocatorIN7testing8internal13edit_distance8EditTypeEEELi1ELb0EEC2B8ne180100IS7_vEEOT_
FNA:9,0,_ZNSt3__122__compressed_pair_elemIRNS_9allocatorIN7testing8internal9TraceInfoEEELi1ELb0EEC2B8ne180100IS6_vEEOT_
FNA:9,42,_ZNSt3__122__compressed_pair_elemIRNS_9allocatorINS_12basic_stringIcNS_11char_traitsIcEENS1_IcEEEEEELi1ELb0EEC2B8ne180100IS8_vEEOT_
FNA:9,0,_ZNSt3__122__compressed_pair_elemIRNS_9allocatorINS_4pairIN7pyfolio8DateTimeEdEEEELi1ELb0EEC2B8ne180100IS7_vEEOT_
FNA:9,5,_ZNSt3__122__compressed_pair_elemIRNS_9allocatorINS_6threadEEELi1ELb0EEC2B8ne180100IS4_vEEOT_
FNA:9,0,_ZNSt3__122__compressed_pair_elemIRNS_9allocatorIPN7testing11EnvironmentEEELi1ELb0EEC2B8ne180100IS6_vEEOT_
FNA:9,4,_ZNSt3__122__compressed_pair_elemIRNS_9allocatorIPN7testing17TestEventListenerEEELi1ELb0EEC2B8ne180100IS6_vEEOT_
FNA:9,23,_ZNSt3__122__compressed_pair_elemIRNS_9allocatorIPN7testing8TestInfoEEELi1ELb0EEC2B8ne180100IS6_vEEOT_
FNA:9,4,_ZNSt3__122__compressed_pair_elemIRNS_9allocatorIPN7testing9TestSuiteEEELi1ELb0EEC2B8ne180100IS6_vEEOT_
FNA:9,0,_ZNSt3__122__compressed_pair_elemIRNS_9allocatorIPcEELi1ELb0EEC2B8ne180100IS4_vEEOT_
FNA:9,25,_ZNSt3__122__compressed_pair_elemIRNS_9allocatorIdEELi1ELb0EEC2B8ne180100IS3_vEEOT_
FNA:9,27,_ZNSt3__122__compressed_pair_elemIRNS_9allocatorIiEELi1ELb0EEC2B8ne180100IS3_vEEOT_
FNA:9,0,_ZNSt3__122__compressed_pair_elemIRNS_9allocatorImEELi1ELb0EEC2B8ne180100IS3_vEEOT_
FNA:9,20,_ZNSt3__122__compressed_pair_elemIfLi0ELb0EEC2B8ne180100IfvEEOT_
FNA:9,416,_ZNSt3__122__compressed_pair_elemImLi0ELb0EEC2B8ne180100IivEEOT_
FNL:10,63,63
FNA:10,1529,_ZNSt3__122__compressed_pair_elemINS_12basic_stringIcNS_11char_traitsIcEENS_9allocatorIcEEE5__repELi0ELb0EE5__getB8ne180100Ev
FNA:10,2596,_ZNSt3__122__compressed_pair_elemINS_15__tree_end_nodeIPNS_16__tree_node_baseIPvEEEELi0ELb0EE5__getB8ne180100Ev
FNA:10,40,_ZNSt3__122__compressed_pair_elemINS_16__hash_node_baseIPNS_11__hash_nodeINS_12basic_stringIcNS_11char_traitsIcEENS_9allocatorIcEEEEPvEEEELi0ELb0EE5__getB8ne180100Ev
FNA:10,0,_ZNSt3__122__compressed_pair_elemINS_22__hash_node_destructorINS_9allocatorINS_11__hash_nodeINS_12basic_stringIcNS_11char_traitsIcEENS2_IcEEEEPvEEEEEELi1ELb0EE5__getB8ne180100Ev
FNA:10,0,_ZNSt3__122__compressed_pair_elemINS_22__tree_node_destructorINS_9allocatorINS_11__tree_nodeINS_12__value_typeINS_12basic_stringIcNS_11char_traitsIcEENS2_IcEEEEN7testing8internal34TypeParameterizedTestSuiteRegistry30TypeParameterizedTestSuiteInfoEEEPvEEEEEELi1ELb0EE5__getB8ne180100Ev
FNA:10,1080,_ZNSt3__122__compressed_pair_elemINS_22__tree_node_destructorINS_9allocatorINS_11__tree_nodeINS_12__value_typeINS_12basic_stringIcNS_11char_traitsIcEENS2_IcEEEEdEEPvEEEEEELi1ELb0EE5__getB8ne180100Ev
FNA:10,0,_ZNSt3__122__compressed_pair_elemINS_22__tree_node_destructorINS_9allocatorINS_11__tree_nodeINS_12__value_typeINS_12basic_stringIcNS_11char_traitsIcEENS2_IcEEEEmEEPvEEEEEELi1ELb0EE5__getB8ne180100Ev
FNA:10,0,_ZNSt3__122__compressed_pair_elemINS_22__tree_node_destructorINS_9allocatorINS_11__tree_nodeINS_12basic_stringIcNS_11char_traitsIcEENS2_IcEEEEPvEEEEEELi1ELb0EE5__getB8ne180100Ev
FNA:10,48,_ZNSt3__122__compressed_pair_elemINS_22__tree_node_destructorINS_9allocatorINS_11__tree_nodeINS_6chrono14year_month_dayEPvEEEEEELi1ELb0EE5__getB8ne180100Ev
FNA:10,20,_ZNSt3__122__compressed_pair_elemINS_25__bucket_list_deallocatorINS_9allocatorIPNS_16__hash_node_baseIPNS_11__hash_nodeINS_12basic_stringIcNS_11char_traitsIcEENS2_IcEEEEPvEEEEEEEELi1ELb0EE5__getB8ne180100Ev
FNA:10,0,_ZNSt3__122__compressed_pair_elemIPKNS_12basic_stringIcNS_11char_traitsIcEENS_9allocatorIcEEEELi0ELb0EE5__getB8ne180100Ev
FNA:10,384,_ZNSt3__122__compressed_pair_elemIPN7pyfolio8DateTimeELi0ELb0EE5__getB8ne180100Ev
FNA:10,0,_ZNSt3__122__compressed_pair_elemIPN7testing12TestPropertyELi0ELb0EE5__getB8ne180100Ev
FNA:10,29,_ZNSt3__122__compressed_pair_elemIPN7testing14TestPartResultELi0ELb0EE5__getB8ne180100Ev
FNA:10,0,_ZNSt3__122__compressed_pair_elemIPN7testing8internal11ThreadLocalINS_6vectorINS2_9TraceInfoENS_9allocatorIS5_EEEEE18ValueHolderFactoryELi0ELb0EE5__getB8ne180100Ev
FNA:10,0,_ZNSt3__122__compressed_pair_elemIPN7testing8internal11ThreadLocalIPNS1_31TestPartResultReporterInterfaceEE18ValueHolderFactoryELi0ELb0EE5__getB8ne180100Ev
FNA:10,0,_ZNSt3__122__compressed_pair_elemIPN7testing8internal13edit_distance8EditTypeELi0ELb0EE5__getB8ne180100Ev
FNA:10,126,_ZNSt3__122__compressed_pair_elemIPN7testing8internal14GTestFlagSaverELi0ELb0EE5__getB8ne180100Ev
FNA:10,0,_ZNSt3__122__compressed_pair_elemIPN7testing8internal16DeathTestFactoryELi0ELb0EE5__getB8ne180100Ev
FNA:10,8,_ZNSt3__122__compressed_pair_elemIPN7testing8internal24InternalRunDeathTestFlagELi0ELb0EE5__getB8ne180100Ev
FNA:10,0,_ZNSt3__122__compressed_pair_elemIPN7testing8internal9TraceInfoELi0ELb0EE5__getB8ne180100Ev
FNA:10,0,_ZNSt3__122__compressed_pair_elemIPNS_11__hash_nodeINS_12basic_stringIcNS_11char_traitsIcEENS_9allocatorIcEEEEPvEELi0ELb0EE5__getB8ne180100Ev
FNA:10,0,_ZNSt3__122__compressed_pair_elemIPNS_11__tree_nodeINS_12__value_typeINS_12basic_stringIcNS_11char_traitsIcEENS_9allocatorIcEEEEN7testing8internal34TypeParameterizedTestSuiteRegistry30TypeParameterizedTestSuiteInfoEEEPvEELi0ELb0EE5__getB8ne180100Ev
FNA:10,4320,_ZNSt3__122__compressed_pair_elemIPNS_11__tree_nodeINS_12__value_typeINS_12basic_stringIcNS_11char_traitsIcEENS_9allocatorIcEEEEdEEPvEELi0ELb0EE5__getB8ne180100Ev
FNA:10,0,_ZNSt3__122__compressed_pair_elemIPNS_11__tree_nodeINS_12__value_typeINS_12basic_stringIcNS_11char_traitsIcEENS_9allocatorIcEEEEmEEPvEELi0ELb0EE5__getB8ne180100Ev
FNA:10,0,_ZNSt3__122__compressed_pair_elemIPNS_11__tree_nodeINS_12basic_stringIcNS_11char_traitsIcEENS_9allocatorIcEEEEPvEELi0ELb0EE5__getB8ne180100Ev
FNA:10,192,_ZNSt3__122__compressed_pair_elemIPNS_11__tree_nodeINS_6chrono14year_month_dayEPvEELi0ELb0EE5__getB8ne180100Ev
FNA:10,666,_ZNSt3__122__compressed_pair_elemIPNS_12basic_stringIcNS_11char_traitsIcEENS_9allocatorIcEEEELi0ELb0EE5__getB8ne180100Ev
FNA:10,80,_ZNSt3__122__compressed_pair_elemIPNS_15__thread_structELi0ELb0EE5__getB8ne180100Ev
FNA:10,662,_ZNSt3__122__compressed_pair_elemIPNS_18basic_stringstreamIcNS_11char_traitsIcEENS_9allocatorIcEEEELi0ELb0EE5__getB8ne180100Ev
FNA:10,18,_ZNSt3__122__compressed_pair_elemIPNS_3mapINS_12basic_stringIcNS_11char_traitsIcEENS_9allocatorIcEEEEdNS_4lessIS7_EENS5_INS_4pairIKS7_dEEEEEELi0ELb0EE5__getB8ne180100Ev
FNA:10,0,_ZNSt3__122__compressed_pair_elemIPNS_4pairIN7pyfolio8DateTimeEdEELi0ELb0EE5__getB8ne180100Ev
FNA:10,60,_ZNSt3__122__compressed_pair_elemIPNS_5tupleIJNS_10unique_ptrINS_15__thread_structENS_14default_deleteIS3_EEEEZN36CoreTypesTest_BasicThreadSafety_Test8TestBodyEvE3$_0EEELi0ELb0EE5__getB8ne180100Ev
FNA:10,25,_ZNSt3__122__compressed_pair_elemIPNS_6threadELi0ELb0EE5__getB8ne180100Ev
FNA:10,0,_ZNSt3__122__compressed_pair_elemIPNS_6vectorIN7testing8internal13edit_distance8EditTypeENS_9allocatorIS5_EEEELi0ELb0EE5__getB8ne180100Ev
FNA:10,0,_ZNSt3__122__compressed_pair_elemIPNS_6vectorIdNS_9allocatorIdEEEELi0ELb0EE5__getB8ne180100Ev
FNA:10,0,_ZNSt3__122__compressed_pair_elemIPPN7testing11EnvironmentELi0ELb0EE5__getB8ne180100Ev
FNA:10,16,_ZNSt3__122__compressed_pair_elemIPPN7testing17TestEventListenerELi0ELb0EE5__getB8ne180100Ev
FNA:10,132,_ZNSt3__122__compressed_pair_elemIPPN7testing8TestInfoELi0ELb0EE5__getB8ne180100Ev
FNA:10,16,_ZNSt3__122__compressed_pair_elemIPPN7testing9TestSuiteELi0ELb0EE5__getB8ne180100Ev
FNA:10,56,_ZNSt3__122__compressed_pair_elemIPPNS_16__hash_node_baseIPNS_11__hash_nodeINS_12basic_stringIcNS_11char_traitsIcEENS_9allocatorIcEEEEPvEEEELi0ELb0EE5__getB8ne180100Ev
FNA:10,0,_ZNSt3__122__compressed_pair_elemIPPcLi0ELb0EE5__getB8ne180100Ev
FNA:10,587,_ZNSt3__122__compressed_pair_elemIPdLi0ELb0EE5__getB8ne180100Ev
FNA:10,148,_ZNSt3__122__compressed_pair_elemIPiLi0ELb0EE5__getB8ne180100Ev
FNA:10,0,_ZNSt3__122__compressed_pair_elemIPmLi0ELb0EE5__getB8ne180100Ev
FNA:10,1,_ZNSt3__122__compressed_pair_elemIRNS_9allocatorIN7pyfolio8DateTimeEEELi1ELb0EE5__getB8ne180100Ev
FNA:10,0,_ZNSt3__122__compressed_pair_elemIRNS_9allocatorIN7testing12TestPropertyEEELi1ELb0EE5__getB8ne180100Ev
FNA:10,17,_ZNSt3__122__compressed_pair_elemIRNS_9allocatorIN7testing14TestPartResultEEELi1ELb0EE5__getB8ne180100Ev
FNA:10,0,_ZNSt3__122__compressed_pair_elemIRNS_9allocatorIN7testing8internal13edit_distance8EditTypeEEELi1ELb0EE5__getB8ne180100Ev
FNA:10,0,_ZNSt3__122__compressed_pair_elemIRNS_9allocatorIN7testing8internal9TraceInfoEEELi1ELb0EE5__getB8ne180100Ev
FNA:10,58,_ZNSt3__122__compressed_pair_elemIRNS_9allocatorINS_12basic_stringIcNS_11char_traitsIcEENS1_IcEEEEEELi1ELb0EE5__getB8ne180100Ev
FNA:10,0,_ZNSt3__122__compressed_pair_elemIRNS_9allocatorINS_4pairIN7pyfolio8DateTimeEdEEEELi1ELb0EE5__getB8ne180100Ev
FNA:10,24,_ZNSt3__122__compressed_pair_elemIRNS_9allocatorINS_6threadEEELi1ELb0EE5__getB8ne180100Ev
FNA:10,0,_ZNSt3__122__compressed_pair_elemIRNS_9allocatorIPN7testing11EnvironmentEEELi1ELb0EE5__getB8ne180100Ev
FNA:10,4,_ZNSt3__122__compressed_pair_elemIRNS_9allocatorIPN7testing17TestEventListenerEEELi1ELb0EE5__getB8ne180100Ev
FNA:10,150,_ZNSt3__122__compressed_pair_elemIRNS_9allocatorIPN7testing8TestInfoEEELi1ELb0EE5__getB8ne180100Ev
FNA:10,4,_ZNSt3__122__compressed_pair_elemIRNS_9allocatorIPN7testing9TestSuiteEEELi1ELb0EE5__getB8ne180100Ev
FNA:10,0,_ZNSt3__122__compressed_pair_elemIRNS_9allocatorIPcEELi1ELb0EE5__getB8ne180100Ev
FNA:10,83,_ZNSt3__122__compressed_pair_elemIRNS_9allocatorIdEELi1ELb0EE5__getB8ne180100Ev
FNA:10,154,_ZNSt3__122__compressed_pair_elemIRNS_9allocatorIiEELi1ELb0EE5__getB8ne180100Ev
FNA:10,0,_ZNSt3__122__compressed_pair_elemIRNS_9allocatorImEELi1ELb0EE5__getB8ne180100Ev
FNA:10,8,_ZNSt3__122__compressed_pair_elemIfLi0ELb0EE5__getB8ne180100Ev
FNA:10,1156,_ZNSt3__122__compressed_pair_elemImLi0ELb0EE5__getB8ne180100Ev
FNL:11,64,64
FNA:11,0,_ZNKSt3__122__compressed_pair_elemINS_12basic_stringIDiNS_11char_traitsIDiEENS_9allocatorIDiEEE5__repELi0ELb0EE5__getB8ne180100Ev
FNA:11,0,_ZNKSt3__122__compressed_pair_elemINS_12basic_stringIDsNS_11char_traitsIDsEENS_9allocatorIDsEEE5__repELi0ELb0EE5__getB8ne180100Ev
FNA:11,0,_ZNKSt3__122__compressed_pair_elemINS_12basic_stringIDuNS_11char_traitsIDuEENS_9allocatorIDuEEE5__repELi0ELb0EE5__getB8ne180100Ev
FNA:11,26681,_ZNKSt3__122__compressed_pair_elemINS_12basic_stringIcNS_11char_traitsIcEENS_9allocatorIcEEE5__repELi0ELb0EE5__getB8ne180100Ev
FNA:11,0,_ZNKSt3__122__compressed_pair_elemINS_12basic_stringIwNS_11char_traitsIwEENS_9allocatorIwEEE5__repELi0ELb0EE5__getB8ne180100Ev
FNA:11,1075,_ZNKSt3__122__compressed_pair_elemINS_15__tree_end_nodeIPNS_16__tree_node_baseIPvEEEELi0ELb0EE5__getB8ne180100Ev
FNA:11,256,_ZNKSt3__122__compressed_pair_elemINS_25__bucket_list_deallocatorINS_9allocatorIPNS_16__hash_node_baseIPNS_11__hash_nodeINS_12basic_stringIcNS_11char_traitsIcEENS2_IcEEEEPvEEEEEEEELi1ELb0EE5__getB8ne180100Ev
FNA:11,83,_ZNKSt3__122__compressed_pair_elemIPKNS_12basic_stringIcNS_11char_traitsIcEENS_9allocatorIcEEEELi0ELb0EE5__getB8ne180100Ev
FNA:11,245,_ZNKSt3__122__compressed_pair_elemIPN7pyfolio8DateTimeELi0ELb0EE5__getB8ne180100Ev
FNA:11,0,_ZNKSt3__122__compressed_pair_elemIPN7testing12TestPropertyELi0ELb0EE5__getB8ne180100Ev
FNA:11,10,_ZNKSt3__122__compressed_pair_elemIPN7testing14TestPartResultELi0ELb0EE5__getB8ne180100Ev
FNA:11,1,_ZNKSt3__122__compressed_pair_elemIPN7testing8internal11ThreadLocalINS_6vectorINS2_9TraceInfoENS_9allocatorIS5_EEEEE18ValueHolderFactoryELi0ELb0EE5__getB8ne180100Ev
FNA:11,1,_ZNKSt3__122__compressed_pair_elemIPN7testing8internal11ThreadLocalIPNS1_31TestPartResultReporterInterfaceEE18ValueHolderFactoryELi0ELb0EE5__getB8ne180100Ev
FNA:11,0,_ZNKSt3__122__compressed_pair_elemIPN7testing8internal13edit_distance8EditTypeELi0ELb0EE5__getB8ne180100Ev
FNA:11,0,_ZNKSt3__122__compressed_pair_elemIPN7testing8internal16DeathTestFactoryELi0ELb0EE5__getB8ne180100Ev
FNA:11,8,_ZNKSt3__122__compressed_pair_elemIPN7testing8internal24InternalRunDeathTestFlagELi0ELb0EE5__getB8ne180100Ev
FNA:11,0,_ZNKSt3__122__compressed_pair_elemIPN7testing8internal9TraceInfoELi0ELb0EE5__getB8ne180100Ev
FNA:11,0,_ZNKSt3__122__compressed_pair_elemIPNS_11__hash_nodeINS_12basic_stringIcNS_11char_traitsIcEENS_9allocatorIcEEEEPvEELi0ELb0EE5__getB8ne180100Ev
FNA:11,0,_ZNKSt3__122__compressed_pair_elemIPNS_11__tree_nodeINS_12__value_typeINS_12basic_stringIcNS_11char_traitsIcEENS_9allocatorIcEEEEN7testing8internal34TypeParameterizedTestSuiteRegistry30TypeParameterizedTestSuiteInfoEEEPvEELi0ELb0EE5__getB8ne180100Ev
FNA:11,2160,_ZNKSt3__122__compressed_pair_elemIPNS_11__tree_nodeINS_12__value_typeINS_12basic_stringIcNS_11char_traitsIcEENS_9allocatorIcEEEEdEEPvEELi0ELb0EE5__getB8ne180100Ev
FNA:11,0,_ZNKSt3__122__compressed_pair_elemIPNS_11__tree_nodeINS_12__value_typeINS_12basic_stringIcNS_11char_traitsIcEENS_9allocatorIcEEEEmEEPvEELi0ELb0EE5__getB8ne180100Ev
FNA:11,0,_ZNKSt3__122__compressed_pair_elemIPNS_11__tree_nodeINS_12basic_stringIcNS_11char_traitsIcEENS_9allocatorIcEEEEPvEELi0ELb0EE5__getB8ne180100Ev
FNA:11,96,_ZNKSt3__122__compressed_pair_elemIPNS_11__tree_nodeINS_6chrono14year_month_dayEPvEELi0ELb0EE5__getB8ne180100Ev
FNA:11,143,_ZNKSt3__122__compressed_pair_elemIPNS_12basic_stringIcNS_11char_traitsIcEENS_9allocatorIcEEEELi0ELb0EE5__getB8ne180100Ev
FNA:11,2698,_ZNKSt3__122__compressed_pair_elemIPNS_18basic_stringstreamIcNS_11char_traitsIcEENS_9allocatorIcEEEELi0ELb0EE5__getB8ne180100Ev
FNA:11,54,_ZNKSt3__122__compressed_pair_elemIPNS_3mapINS_12basic_stringIcNS_11char_traitsIcEENS_9allocatorIcEEEEdNS_4lessIS7_EENS5_INS_4pairIKS7_dEEEEEELi0ELb0EE5__getB8ne180100Ev
FNA:11,0,_ZNKSt3__122__compressed_pair_elemIPNS_4pairIN7pyfolio8DateTimeEdEELi0ELb0EE5__getB8ne180100Ev
FNA:11,30,_ZNKSt3__122__compressed_pair_elemIPNS_5tupleIJNS_10unique_ptrINS_15__thread_structENS_14default_deleteIS3_EEEEZN36CoreTypesTest_BasicThreadSafety_Test8TestBodyEvE3$_0EEELi0ELb0EE5__getB8ne180100Ev
FNA:11,10,_ZNKSt3__122__compressed_pair_elemIPNS_6threadELi0ELb0EE5__getB8ne180100Ev
FNA:11,0,_ZNKSt3__122__compressed_pair_elemIPNS_6vectorIN7testing8internal13edit_distance8EditTypeENS_9allocatorIS5_EEEELi0ELb0EE5__getB8ne180100Ev
FNA:11,0,_ZNKSt3__122__compressed_pair_elemIPNS_6vectorIdNS_9allocatorIdEEEELi0ELb0EE5__getB8ne180100Ev
FNA:11,0,_ZNKSt3__122__compressed_pair_elemIPPN7testing11EnvironmentELi0ELb0EE5__getB8ne180100Ev
FNA:11,4,_ZNKSt3__122__compressed_pair_elemIPPN7testing17TestEventListenerELi0ELb0EE5__getB8ne180100Ev
FNA:11,42,_ZNKSt3__122__compressed_pair_elemIPPN7testing8TestInfoELi0ELb0EE5__getB8ne180100Ev
FNA:11,0,_ZNKSt3__122__compressed_pair_elemIPPN7testing8internal30ParameterizedTestSuiteInfoBaseELi0ELb0EE5__getB8ne180100Ev
FNA:11,4,_ZNKSt3__122__compressed_pair_elemIPPN7testing9TestSuiteELi0ELb0EE5__getB8ne180100Ev
FNA:11,0,_ZNKSt3__122__compressed_pair_elemIPPNS_16__hash_node_baseIPNS_11__hash_nodeINS_12basic_stringIcNS_11char_traitsIcEENS_9allocatorIcEEEEPvEEEELi0ELb0EE5__getB8ne180100Ev
FNA:11,0,_ZNKSt3__122__compressed_pair_elemIPPcLi0ELb0EE5__getB8ne180100Ev
FNA:11,375,_ZNKSt3__122__compressed_pair_elemIPdLi0ELb0EE5__getB8ne180100Ev
FNA:11,46,_ZNKSt3__122__compressed_pair_elemIPiLi0ELb0EE5__getB8ne180100Ev
FNA:11,0,_ZNKSt3__122__compressed_pair_elemIPmLi0ELb0EE5__getB8ne180100Ev
FNA:11,256,_ZNKSt3__122__compressed_pair_elemImLi0ELb0EE5__getB8ne180100Ev
FNL:12,78,78
FNA:12,20,_ZNSt3__122__compressed_pair_elemINS_4hashINS_12basic_stringIcNS_11char_traitsIcEENS_9allocatorIcEEEEEELi1ELb1EEC2B8ne180100ENS_18__default_init_tagE
FNA:12,20,_ZNSt3__122__compressed_pair_elemINS_8equal_toINS_12basic_stringIcNS_11char_traitsIcEENS_9allocatorIcEEEEEELi1ELb1EEC2B8ne180100ENS_18__default_init_tagE
FNA:12,128,_ZNSt3__122__compressed_pair_elemINS_9allocatorIN7pyfolio8DateTimeEEELi1ELb1EEC2B8ne180100ENS_18__default_init_tagE
FNA:12,71,_ZNSt3__122__compressed_pair_elemINS_9allocatorIN7testing12TestPropertyEEELi1ELb1EEC2B8ne180100ENS_18__default_init_tagE
FNA:12,71,_ZNSt3__122__compressed_pair_elemINS_9allocatorIN7testing14TestPartResultEEELi1ELb1EEC2B8ne180100ENS_18__default_init_tagE
FNA:12,0,_ZNSt3__122__compressed_pair_elemINS_9allocatorIN7testing8internal13edit_distance8EditTypeEEELi1ELb1EEC2B8ne180100ENS_18__default_init_tagE
FNA:12,1,_ZNSt3__122__compressed_pair_elemINS_9allocatorIN7testing8internal9TraceInfoEEELi1ELb1EEC2B8ne180100ENS_18__default_init_tagE
FNA:12,0,_ZNSt3__122__compressed_pair_elemINS_9allocatorINS_11__list_nodeINS_4pairIcPKcEEPvEEEELi1ELb1EEC2B8ne180100ENS_18__default_init_tagE
FNA:12,54,_ZNSt3__122__compressed_pair_elemINS_9allocatorINS_12basic_stringIcNS_11char_traitsIcEENS1_IcEEEEEELi1ELb1EEC2B8ne180100ENS_18__default_init_tagE
FNA:12,18,_ZNSt3__122__compressed_pair_elemINS_9allocatorINS_3mapINS_12basic_stringIcNS_11char_traitsIcEENS1_IcEEEEdNS_4lessIS7_EENS1_INS_4pairIKS7_dEEEEEEEELi1ELb1EEC2B8ne180100ENS_18__default_init_tagE
FNA:12,0,_ZNSt3__122__compressed_pair_elemINS_9allocatorINS_4pairIN7pyfolio8DateTimeEdEEEELi1ELb1EEC2B8ne180100ENS_18__default_init_tagE
FNA:12,1,_ZNSt3__122__compressed_pair_elemINS_9allocatorINS_6threadEEELi1ELb1EEC2B8ne180100ENS_18__default_init_tagE
FNA:12,0,_ZNSt3__122__compressed_pair_elemINS_9allocatorINS_6vectorIN7testing8internal13edit_distance8EditTypeENS1_IS6_EEEEEELi1ELb1EEC2B8ne180100ENS_18__default_init_tagE
FNA:12,0,_ZNSt3__122__compressed_pair_elemINS_9allocatorINS_6vectorIdNS1_IdEEEEEELi1ELb1EEC2B8ne180100ENS_18__default_init_tagE
FNA:12,4,_ZNSt3__122__compressed_pair_elemINS_9allocatorIPN7testing11EnvironmentEEELi1ELb1EEC2B8ne180100ENS_18__default_init_tagE
FNA:12,4,_ZNSt3__122__compressed_pair_elemINS_9allocatorIPN7testing17TestEventListenerEEELi1ELb1EEC2B8ne180100ENS_18__default_init_tagE
FNA:12,4,_ZNSt3__122__compressed_pair_elemINS_9allocatorIPN7testing8TestInfoEEELi1ELb1EEC2B8ne180100ENS_18__default_init_tagE
FNA:12,4,_ZNSt3__122__compressed_pair_elemINS_9allocatorIPN7testing8internal30ParameterizedTestSuiteInfoBaseEEELi1ELb1EEC2B8ne180100ENS_18__default_init_tagE
FNA:12,4,_ZNSt3__122__compressed_pair_elemINS_9allocatorIPN7testing9TestSuiteEEELi1ELb1EEC2B8ne180100ENS_18__default_init_tagE
FNA:12,20,_ZNSt3__122__compressed_pair_elemINS_9allocatorIPNS_16__hash_node_baseIPNS_11__hash_nodeINS_12basic_stringIcNS_11char_traitsIcEENS1_IcEEEEPvEEEEEELi1ELb1EEC2B8ne180100ENS_18__default_init_tagE
FNA:12,0,_ZNSt3__122__compressed_pair_elemINS_9allocatorIPcEELi1ELb1EEC2B8ne180100ENS_18__default_init_tagE
FNA:12,2996,_ZNSt3__122__compressed_pair_elemINS_9allocatorIcEELi1ELb1EEC2B8ne180100ENS_18__default_init_tagE
FNA:12,159,_ZNSt3__122__compressed_pair_elemINS_9allocatorIdEELi1ELb1EEC2B8ne180100ENS_18__default_init_tagE
FNA:12,8,_ZNSt3__122__compressed_pair_elemINS_9allocatorIiEELi1ELb1EEC2B8ne180100ENS_18__default_init_tagE
FNA:12,0,_ZNSt3__122__compressed_pair_elemINS_9allocatorImEELi1ELb1EEC2B8ne180100ENS_18__default_init_tagE
FNA:12,0,_ZNSt3__122__compressed_pair_elemINS_9allocatorIwEELi1ELb1EEC2B8ne180100ENS_18__default_init_tagE
FNL:13,79,79
FNA:13,130,_ZNSt3__122__compressed_pair_elemINS_14default_deleteIKNS_12basic_stringIcNS_11char_traitsIcEENS_9allocatorIcEEEEEELi1ELb1EEC2B8ne180100ENS_16__value_init_tagE
FNA:13,4,_ZNSt3__122__compressed_pair_elemINS_14default_deleteIN7testing8internal11ThreadLocalINS_6vectorINS3_9TraceInfoENS_9allocatorIS6_EEEEE18ValueHolderFactoryEEELi1ELb1EEC2B8ne180100ENS_16__value_init_tagE
FNA:13,4,_ZNSt3__122__compressed_pair_elemINS_14default_deleteIN7testing8internal11ThreadLocalIPNS2_31TestPartResultReporterInterfaceEE18ValueHolderFactoryEEELi1ELb1EEC2B8ne180100ENS_16__value_init_tagE
FNA:13,63,_ZNSt3__122__compressed_pair_elemINS_14default_deleteIN7testing8internal14GTestFlagSaverEEELi1ELb1EEC2B8ne180100ENS_16__value_init_tagE
FNA:13,4,_ZNSt3__122__compressed_pair_elemINS_14default_deleteIN7testing8internal16DeathTestFactoryEEELi1ELb1EEC2B8ne180100ENS_16__value_init_tagE
FNA:13,4,_ZNSt3__122__compressed_pair_elemINS_14default_deleteIN7testing8internal24InternalRunDeathTestFlagEEELi1ELb1EEC2B8ne180100ENS_16__value_init_tagE
FNA:13,218,_ZNSt3__122__compressed_pair_elemINS_14default_deleteINS_12basic_stringIcNS_11char_traitsIcEENS_9allocatorIcEEEEEELi1ELb1EEC2B8ne180100ENS_16__value_init_tagE
FNA:13,10,_ZNSt3__122__compressed_pair_elemINS_14default_deleteINS_15__thread_structEEELi1ELb1EEC2B8ne180100ENS_16__value_init_tagE
FNA:13,331,_ZNSt3__122__compressed_pair_elemINS_14default_deleteINS_18basic_stringstreamIcNS_11char_traitsIcEENS_9allocatorIcEEEEEELi1ELb1EEC2B8ne180100ENS_16__value_init_tagE
FNA:13,20,_ZNSt3__122__compressed_pair_elemINS_14default_deleteINS_5tupleIJNS_10unique_ptrINS_15__thread_structENS1_IS4_EEEEZN36CoreTypesTest_BasicThreadSafety_Test8TestBodyEvE3$_0EEEEELi1ELb1EEC2B8ne180100ENS_16__value_init_tagE
FNA:13,20,_ZNSt3__122__compressed_pair_elemINS_9allocatorINS_11__hash_nodeINS_12basic_stringIcNS_11char_traitsIcEENS1_IcEEEEPvEEEELi1ELb1EEC2B8ne180100ENS_16__value_init_tagE
FNA:13,4,_ZNSt3__122__compressed_pair_elemINS_9allocatorINS_11__tree_nodeINS_12__value_typeINS_12basic_stringIcNS_11char_traitsIcEENS1_IcEEEEN7testing8internal34TypeParameterizedTestSuiteRegistry30TypeParameterizedTestSuiteInfoEEEPvEEEELi1ELb1EEC2B8ne180100ENS_16__value_init_tagE
FNA:13,180,_ZNSt3__122__compressed_pair_elemINS_9allocatorINS_11__tree_nodeINS_12__value_typeINS_12basic_stringIcNS_11char_traitsIcEENS1_IcEEEEdEEPvEEEELi1ELb1EEC2B8ne180100ENS_16__value_init_tagE
FNA:13,0,_ZNSt3__122__compressed_pair_elemINS_9allocatorINS_11__tree_nodeINS_12__value_typeINS_12basic_stringIcNS_11char_traitsIcEENS1_IcEEEEmEEPvEEEELi1ELb1EEC2B8ne180100ENS_16__value_init_tagE
FNA:13,4,_ZNSt3__122__compressed_pair_elemINS_9allocatorINS_11__tree_nodeINS_12basic_stringIcNS_11char_traitsIcEENS1_IcEEEEPvEEEELi1ELb1EEC2B8ne180100ENS_16__value_init_tagE
FNA:13,8,_ZNSt3__122__compressed_pair_elemINS_9allocatorINS_11__tree_nodeINS_6chrono14year_month_dayEPvEEEELi1ELb1EEC2B8ne180100ENS_16__value_init_tagE
FNL:14,82,83
FNA:14,10,_ZNSt3__122__compressed_pair_elemINS_14default_deleteINS_15__thread_structEEELi1ELb1EEC2B8ne180100IS3_vEEOT_
FNA:14,4,_ZNSt3__122__compressed_pair_elemINS_19__map_value_compareINS_12basic_stringIcNS_11char_traitsIcEENS_9allocatorIcEEEENS_12__value_typeIS7_N7testing8internal34TypeParameterizedTestSuiteRegistry30TypeParameterizedTestSuiteInfoEEENS_4lessIS7_EELb1EEELi1ELb1EEC2B8ne180100IRKSG_vEEOT_
FNA:14,360,_ZNSt3__122__compressed_pair_elemINS_19__map_value_compareINS_12basic_stringIcNS_11char_traitsIcEENS_9allocatorIcEEEENS_12__value_typeIS7_dEENS_4lessIS7_EELb1EEELi1ELb1EEC2B8ne180100IRKSC_vEEOT_
FNA:14,0,_ZNSt3__122__compressed_pair_elemINS_19__map_value_compareINS_12basic_stringIcNS_11char_traitsIcEENS_9allocatorIcEEEENS_12__value_typeIS7_mEENS_4lessIS7_EELb1EEELi1ELb1EEC2B8ne180100IRKSC_vEEOT_
FNA:14,4,_ZNSt3__122__compressed_pair_elemINS_4lessINS_12basic_stringIcNS_11char_traitsIcEENS_9allocatorIcEEEEEELi1ELb1EEC2B8ne180100IRKS8_vEEOT_
FNA:14,8,_ZNSt3__122__compressed_pair_elemINS_4lessINS_6chrono14year_month_dayEEELi1ELb1EEC2B8ne180100IRKS4_vEEOT_
FNA:14,90,_ZNSt3__122__compressed_pair_elemINS_9allocatorIN7pyfolio8DateTimeEEELi1ELb1EEC2B8ne180100IS4_vEEOT_
FNA:14,0,_ZNSt3__122__compressed_pair_elemINS_9allocatorIN7testing8internal13edit_distance8EditTypeEEELi1ELb1EEC2B8ne180100IS6_vEEOT_
FNA:14,180,_ZNSt3__122__compressed_pair_elemINS_9allocatorINS_11__tree_nodeINS_12__value_typeINS_12basic_stringIcNS_11char_traitsIcEENS1_IcEEEEdEEPvEEEELi1ELb1EEC2B8ne180100ISC_vEEOT_
FNA:14,8,_ZNSt3__122__compressed_pair_elemINS_9allocatorINS_12basic_stringIcNS_11char_traitsIcEENS1_IcEEEEEELi1ELb1EEC2B8ne180100IS7_vEEOT_
FNA:14,414,_ZNSt3__122__compressed_pair_elemINS_9allocatorIcEELi1ELb1EEC2B8ne180100IRKS2_vEEOT_
FNA:14,117,_ZNSt3__122__compressed_pair_elemINS_9allocatorIdEELi1ELb1EEC2B8ne180100IS2_vEEOT_
FNL:15,92,92
FNA:15,0,_ZNSt3__122__compressed_pair_elemINS_14default_deleteIKNS_12basic_stringIcNS_11char_traitsIcEENS_9allocatorIcEEEEEELi1ELb1EE5__getB8ne180100Ev
FNA:15,0,_ZNSt3__122__compressed_pair_elemINS_14default_deleteIN7testing8internal11ThreadLocalINS_6vectorINS3_9TraceInfoENS_9allocatorIS6_EEEEE18ValueHolderFactoryEEELi1ELb1EE5__getB8ne180100Ev
FNA:15,0,_ZNSt3__122__compressed_pair_elemINS_14default_deleteIN7testing8internal11ThreadLocalIPNS2_31TestPartResultReporterInterfaceEE18ValueHolderFactoryEEELi1ELb1EE5__getB8ne180100Ev
FNA:15,63,_ZNSt3__122__compressed_pair_elemINS_14default_deleteIN7testing8internal14GTestFlagSaverEEELi1ELb1EE5__getB8ne180100Ev
FNA:15,0,_ZNSt3__122__compressed_pair_elemINS_14default_deleteIN7testing8internal16DeathTestFactoryEEELi1ELb1EE5__getB8ne180100Ev
FNA:15,0,_ZNSt3__122__compressed_pair_elemINS_14default_deleteIN7testing8internal24InternalRunDeathTestFlagEEELi1ELb1EE5__getB8ne180100Ev
FNA:15,6,_ZNSt3__122__compressed_pair_elemINS_14default_deleteINS_12basic_stringIcNS_11char_traitsIcEENS_9allocatorIcEEEEEELi1ELb1EE5__getB8ne180100Ev
FNA:15,10,_ZNSt3__122__compressed_pair_elemINS_14default_deleteINS_15__thread_structEEELi1ELb1EE5__getB8ne180100Ev
FNA:15,331,_ZNSt3__122__compressed_pair_elemINS_14default_deleteINS_18basic_stringstreamIcNS_11char_traitsIcEENS_9allocatorIcEEEEEELi1ELb1EE5__getB8ne180100Ev
FNA:15,10,_ZNSt3__122__compressed_pair_elemINS_14default_deleteINS_5tupleIJNS_10unique_ptrINS_15__thread_structENS1_IS4_EEEEZN36CoreTypesTest_BasicThreadSafety_Test8TestBodyEvE3$_0EEEEELi1ELb1EE5__getB8ne180100Ev
FNA:15,0,_ZNSt3__122__compressed_pair_elemINS_19__map_value_compareINS_12basic_stringIcNS_11char_traitsIcEENS_9allocatorIcEEEENS_12__value_typeIS7_N7testing8internal34TypeParameterizedTestSuiteRegistry30TypeParameterizedTestSuiteInfoEEENS_4lessIS7_EELb1EEELi1ELb1EE5__getB8ne180100Ev
FNA:15,720,_ZNSt3__122__compressed_pair_elemINS_19__map_value_compareINS_12basic_stringIcNS_11char_traitsIcEENS_9allocatorIcEEEENS_12__value_typeIS7_dEENS_4lessIS7_EELb1EEELi1ELb1EE5__getB8ne180100Ev
FNA:15,0,_ZNSt3__122__compressed_pair_elemINS_19__map_value_compareINS_12basic_stringIcNS_11char_traitsIcEENS_9allocatorIcEEEENS_12__value_typeIS7_mEENS_4lessIS7_EELb1EEELi1ELb1EE5__getB8ne180100Ev
FNA:15,8,_ZNSt3__122__compressed_pair_elemINS_4hashINS_12basic_stringIcNS_11char_traitsIcEENS_9allocatorIcEEEEEELi1ELb1EE5__getB8ne180100Ev
FNA:15,0,_ZNSt3__122__compressed_pair_elemINS_4lessINS_12basic_stringIcNS_11char_traitsIcEENS_9allocatorIcEEEEEELi1ELb1EE5__getB8ne180100Ev
FNA:15,148,_ZNSt3__122__compressed_pair_elemINS_4lessINS_6chrono14year_month_dayEEELi1ELb1EE5__getB8ne180100Ev
FNA:15,8,_ZNSt3__122__compressed_pair_elemINS_8equal_toINS_12basic_stringIcNS_11char_traitsIcEENS_9allocatorIcEEEEEELi1ELb1EE5__getB8ne180100Ev
FNA:15,1810,_ZNSt3__122__compressed_pair_elemINS_9allocatorIN7pyfolio8DateTimeEEELi1ELb1EE5__getB8ne180100Ev
FNA:15,0,_ZNSt3__122__compressed_pair_elemINS_9allocatorIN7testing12TestPropertyEEELi1ELb1EE5__getB8ne180100Ev
FNA:15,15,_ZNSt3__122__compressed_pair_elemINS_9allocatorIN7testing14TestPartResultEEELi1ELb1EE5__getB8ne180100Ev
FNA:15,0,_ZNSt3__122__compressed_pair_elemINS_9allocatorIN7testing8internal13edit_distance8EditTypeEEELi1ELb1EE5__getB8ne180100Ev
FNA:15,0,_ZNSt3__122__compressed_pair_elemINS_9allocatorIN7testing8internal9TraceInfoEEELi1ELb1EE5__getB8ne180100Ev
FNA:15,28,_ZNSt3__122__compressed_pair_elemINS_9allocatorINS_11__hash_nodeINS_12basic_stringIcNS_11char_traitsIcEENS1_IcEEEEPvEEEELi1ELb1EE5__getB8ne180100Ev
FNA:15,0,_ZNSt3__122__compressed_pair_elemINS_9allocatorINS_11__list_nodeINS_4pairIcPKcEEPvEEEELi1ELb1EE5__getB8ne180100Ev
FNA:15,0,_ZNSt3__122__compressed_pair_elemINS_9allocatorINS_11__tree_nodeINS_12__value_typeINS_12basic_stringIcNS_11char_traitsIcEENS1_IcEEEEN7testing8internal34TypeParameterizedTestSuiteRegistry30TypeParameterizedTestSuiteInfoEEEPvEEEELi1ELb1EE5__getB8ne180100Ev
FNA:15,2160,_ZNSt3__122__compressed_pair_elemINS_9allocatorINS_11__tree_nodeINS_12__value_typeINS_12basic_stringIcNS_11char_traitsIcEENS1_IcEEEEdEEPvEEEELi1ELb1EE5__getB8ne180100Ev
FNA:15,0,_ZNSt3__122__compressed_pair_elemINS_9allocatorINS_11__tree_nodeINS_12__value_typeINS_12basic_stringIcNS_11char_traitsIcEENS1_IcEEEEmEEPvEEEELi1ELb1EE5__getB8ne180100Ev
FNA:15,0,_ZNSt3__122__compressed_pair_elemINS_9allocatorINS_11__tree_nodeINS_12basic_stringIcNS_11char_traitsIcEENS1_IcEEEEPvEEEELi1ELb1EE5__getB8ne180100Ev
FNA:15,72,_ZNSt3__122__compressed_pair_elemINS_9allocatorINS_11__tree_nodeINS_6chrono14year_month_dayEPvEEEELi1ELb1EE5__getB8ne180100Ev
FNA:15,236,_ZNSt3__122__compressed_pair_elemINS_9allocatorINS_12basic_stringIcNS_11char_traitsIcEENS1_IcEEEEEELi1ELb1EE5__getB8ne180100Ev
FNA:15,234,_ZNSt3__122__compressed_pair_elemINS_9allocatorINS_3mapINS_12basic_stringIcNS_11char_traitsIcEENS1_IcEEEEdNS_4lessIS7_EENS1_INS_4pairIKS7_dEEEEEEEELi1ELb1EE5__getB8ne180100Ev
FNA:15,0,_ZNSt3__122__compressed_pair_elemINS_9allocatorINS_4pairIN7pyfolio8DateTimeEdEEEELi1ELb1EE5__getB8ne180100Ev
FNA:15,26,_ZNSt3__122__compressed_pair_elemINS_9allocatorINS_6threadEEELi1ELb1EE5__getB8ne180100Ev
FNA:15,0,_ZNSt3__122__compressed_pair_elemINS_9allocatorINS_6vectorIN7testing8internal13edit_distance8EditTypeENS1_IS6_EEEEEELi1ELb1EE5__getB8ne180100Ev
FNA:15,0,_ZNSt3__122__compressed_pair_elemINS_9allocatorINS_6vectorIdNS1_IdEEEEEELi1ELb1EE5__getB8ne180100Ev
FNA:15,0,_ZNSt3__122__compressed_pair_elemINS_9allocatorIPN7testing11EnvironmentEEELi1ELb1EE5__getB8ne180100Ev
FNA:15,8,_ZNSt3__122__compressed_pair_elemINS_9allocatorIPN7testing17TestEventListenerEEELi1ELb1EE5__getB8ne180100Ev
FNA:15,86,_ZNSt3__122__compressed_pair_elemINS_9allocatorIPN7testing8TestInfoEEELi1ELb1EE5__getB8ne180100Ev
FNA:15,0,_ZNSt3__122__compressed_pair_elemINS_9allocatorIPN7testing8internal30ParameterizedTestSuiteInfoBaseEEELi1ELb1EE5__getB8ne180100Ev
FNA:15,8,_ZNSt3__122__compressed_pair_elemINS_9allocatorIPN7testing9TestSuiteEEELi1ELb1EE5__getB8ne180100Ev
FNA:15,8,_ZNSt3__122__compressed_pair_elemINS_9allocatorIPNS_16__hash_node_baseIPNS_11__hash_nodeINS_12basic_stringIcNS_11char_traitsIcEENS1_IcEEEEPvEEEEEELi1ELb1EE5__getB8ne180100Ev
FNA:15,0,_ZNSt3__122__compressed_pair_elemINS_9allocatorIPcEELi1ELb1EE5__getB8ne180100Ev
FNA:15,179,_ZNSt3__122__compressed_pair_elemINS_9allocatorIcEELi1ELb1EE5__getB8ne180100Ev
FNA:15,2556,_ZNSt3__122__compressed_pair_elemINS_9allocatorIdEELi1ELb1EE5__getB8ne180100Ev
FNA:15,94,_ZNSt3__122__compressed_pair_elemINS_9allocatorIiEELi1ELb1EE5__getB8ne180100Ev
FNA:15,0,_ZNSt3__122__compressed_pair_elemINS_9allocatorImEELi1ELb1EE5__getB8ne180100Ev
FNL:16,93,93
FNA:16,0,_ZNKSt3__122__compressed_pair_elemINS_19__map_value_compareINS_12basic_stringIcNS_11char_traitsIcEENS_9allocatorIcEEEENS_12__value_typeIS7_N7testing8internal12CodeLocationEEENS_4lessIvEELb1EEELi1ELb1EE5__getB8ne180100Ev
FNA:16,180,_ZNKSt3__122__compressed_pair_elemINS_19__map_value_compareINS_12basic_stringIcNS_11char_traitsIcEENS_9allocatorIcEEEENS_12__value_typeIS7_dEENS_4lessIS7_EELb1EEELi1ELb1EE5__getB8ne180100Ev
FNA:16,256,_ZNKSt3__122__compressed_pair_elemINS_4hashINS_12basic_stringIcNS_11char_traitsIcEENS_9allocatorIcEEEEEELi1ELb1EE5__getB8ne180100Ev
FNA:16,0,_ZNKSt3__122__compressed_pair_elemINS_4lessINS_12basic_stringIcNS_11char_traitsIcEENS_9allocatorIcEEEEEELi1ELb1EE5__getB8ne180100Ev
FNA:16,45,_ZNKSt3__122__compressed_pair_elemINS_4lessINS_6chrono14year_month_dayEEELi1ELb1EE5__getB8ne180100Ev
FNA:16,0,_ZNKSt3__122__compressed_pair_elemINS_8equal_toINS_12basic_stringIcNS_11char_traitsIcEENS_9allocatorIcEEEEEELi1ELb1EE5__getB8ne180100Ev
FNA:16,273,_ZNKSt3__122__compressed_pair_elemINS_9allocatorIN7pyfolio8DateTimeEEELi1ELb1EE5__getB8ne180100Ev
FNA:16,0,_ZNKSt3__122__compressed_pair_elemINS_9allocatorIN7testing12TestPropertyEEELi1ELb1EE5__getB8ne180100Ev
FNA:16,7,_ZNKSt3__122__compressed_pair_elemINS_9allocatorIN7testing14TestPartResultEEELi1ELb1EE5__getB8ne180100Ev
FNA:16,0,_ZNKSt3__122__compressed_pair_elemINS_9allocatorIN7testing8internal13edit_distance8EditTypeEEELi1ELb1EE5__getB8ne180100Ev
FNA:16,0,_ZNKSt3__122__compressed_pair_elemINS_9allocatorIN7testing8internal9TraceInfoEEELi1ELb1EE5__getB8ne180100Ev
FNA:16,180,_ZNKSt3__122__compressed_pair_elemINS_9allocatorINS_11__tree_nodeINS_12__value_typeINS_12basic_stringIcNS_11char_traitsIcEENS1_IcEEEEdEEPvEEEELi1ELb1EE5__getB8ne180100Ev
FNA:16,54,_ZNKSt3__122__compressed_pair_elemINS_9allocatorINS_12basic_stringIcNS_11char_traitsIcEENS1_IcEEEEEELi1ELb1EE5__getB8ne180100Ev
FNA:16,36,_ZNKSt3__122__compressed_pair_elemINS_9allocatorINS_3mapINS_12basic_stringIcNS_11char_traitsIcEENS1_IcEEEEdNS_4lessIS7_EENS1_INS_4pairIKS7_dEEEEEEEELi1ELb1EE5__getB8ne180100Ev
FNA:16,0,_ZNKSt3__122__compressed_pair_elemINS_9allocatorINS_4pairIN7pyfolio8DateTimeEdEEEELi1ELb1EE5__getB8ne180100Ev
FNA:16,5,_ZNKSt3__122__compressed_pair_elemINS_9allocatorINS_6threadEEELi1ELb1EE5__getB8ne180100Ev
FNA:16,0,_ZNKSt3__122__compressed_pair_elemINS_9allocatorINS_6vectorIN7testing8internal13edit_distance8EditTypeENS1_IS6_EEEEEELi1ELb1EE5__getB8ne180100Ev
FNA:16,0,_ZNKSt3__122__compressed_pair_elemINS_9allocatorINS_6vectorIdNS1_IdEEEEEELi1ELb1EE5__getB8ne180100Ev
FNA:16,0,_ZNKSt3__122__compressed_pair_elemINS_9allocatorIPN7testing11EnvironmentEEELi1ELb1EE5__getB8ne180100Ev
FNA:16,4,_ZNKSt3__122__compressed_pair_elemINS_9allocatorIPN7testing17TestEventListenerEEELi1ELb1EE5__getB8ne180100Ev
FNA:16,23,_ZNKSt3__122__compressed_pair_elemINS_9allocatorIPN7testing8TestInfoEEELi1ELb1EE5__getB8ne180100Ev
FNA:16,4,_ZNKSt3__122__compressed_pair_elemINS_9allocatorIPN7testing9TestSuiteEEELi1ELb1EE5__getB8ne180100Ev
FNA:16,0,_ZNKSt3__122__compressed_pair_elemINS_9allocatorIPcEELi1ELb1EE5__getB8ne180100Ev
FNA:16,554,_ZNKSt3__122__compressed_pair_elemINS_9allocatorIcEELi1ELb1EE5__getB8ne180100Ev
FNA:16,389,_ZNKSt3__122__compressed_pair_elemINS_9allocatorIdEELi1ELb1EE5__getB8ne180100Ev
FNA:16,27,_ZNKSt3__122__compressed_pair_elemINS_9allocatorIiEELi1ELb1EE5__getB8ne180100Ev
FNA:16,0,_ZNKSt3__122__compressed_pair_elemINS_9allocatorImEELi1ELb1EE5__getB8ne180100Ev
FNF:17
FNH:16
DA:49,2465
DA:50,1600
DA:53,4293
DA:54,4293
DA:63,14497
DA:64,34278
DA:78,3587
DA:79,1004
DA:82,1195
DA:83,1195
DA:92,8824
DA:93,2037
DA:114,432
DA:115,432
DA:118,13712
DA:119,13712
DA:129,12854
DA:130,12854
DA:133,34022
DA:134,34022
DA:137,10467
DA:138,10467
DA:141,2293
DA:142,2293
DA:152,0
DA:155,0
DA:156,0
DA:157,0
LF:28
LH:24
end_of_record
TN:
SF:/Library/Developer/CommandLineTools/SDKs/MacOSX.sdk/usr/include/c++/v1/__memory/construct_at.h
FNL:0,39,41
FNA:0,10,_ZNSt3__112construct_atB8ne180100IN7pyfolio8DateTimeEJRKS2_EPS2_EEPT_S7_DpOT0_
FNA:0,0,_ZNSt3__112construct_atB8ne180100IN7testing12TestPropertyEJRKS2_EPS2_EEPT_S7_DpOT0_
FNA:0,0,_ZNSt3__112construct_atB8ne180100IN7testing12TestPropertyEJS2_EPS2_EEPT_S5_DpOT0_
FNA:0,8,_ZNSt3__112construct_atB8ne180100IN7testing14TestPartResultEJRKS2_EPS2_EEPT_S7_DpOT0_
FNA:0,7,_ZNSt3__112construct_atB8ne180100IN7testing14TestPartResultEJS2_EPS2_EEPT_S5_DpOT0_
FNA:0,0,_ZNSt3__112construct_atB8ne180100IN7testing8internal13edit_distance8EditTypeEJEPS4_EEPT_S7_DpOT0_
FNA:0,0,_ZNSt3__112construct_atB8ne180100IN7testing8internal13edit_distance8EditTypeEJRKS4_EPS4_EEPT_S9_DpOT0_
FNA:0,0,_ZNSt3__112construct_atB8ne180100IN7testing8internal9TraceInfoEJRKS3_EPS3_EEPT_S8_DpOT0_
FNA:0,0,_ZNSt3__112construct_atB8ne180100IN7testing8internal9TraceInfoEJS3_EPS3_EEPT_S6_DpOT0_
FNA:0,0,_ZNSt3__112construct_atB8ne180100INS_11__hash_nodeINS_12basic_stringIcNS_11char_traitsIcEENS_9allocatorIcEEEEPvEEJDnRmEPS9_EEPT_SD_DpOT0_
FNA:0,0,_ZNSt3__112construct_atB8ne180100INS_11__list_nodeINS_4pairIcPKcEEPvEEJRPNS_16__list_node_baseIS5_S6_EESB_EPS7_EEPT_SE_DpOT0_
FNA:0,0,_ZNSt3__112construct_atB8ne180100INS_12basic_stringIcNS_11char_traitsIcEENS_9allocatorIcEEEEJRKPKcEPS6_EEPT_SD_DpOT0_
FNA:0,0,_ZNSt3__112construct_atB8ne180100INS_12basic_stringIcNS_11char_traitsIcEENS_9allocatorIcEEEEJRKS6_EPS6_EEPT_SB_DpOT0_
FNA:0,4,_ZNSt3__112construct_atB8ne180100INS_12basic_stringIcNS_11char_traitsIcEENS_9allocatorIcEEEEJRS6_EPS6_EEPT_SA_DpOT0_
FNA:0,58,_ZNSt3__112construct_atB8ne180100INS_12basic_stringIcNS_11char_traitsIcEENS_9allocatorIcEEEEJS6_EPS6_EEPT_S9_DpOT0_
FNA:0,180,_ZNSt3__112construct_atB8ne180100INS_3mapINS_12basic_stringIcNS_11char_traitsIcEENS_9allocatorIcEEEEdNS_4lessIS7_EENS5_INS_4pairIKS7_dEEEEEEJRKSE_EPSE_EEPT_SJ_DpOT0_
FNA:0,0,_ZNSt3__112construct_atB8ne180100INS_4pairIKNS_12basic_stringIcNS_11char_traitsIcEENS_9allocatorIcEEEEN7testing8internal34TypeParameterizedTestSuiteRegistry30TypeParameterizedTestSuiteInfoEEEJS7_SC_EPSD_EEPT_SG_DpOT0_
FNA:0,1080,_ZNSt3__112construct_atB8ne180100INS_4pairIKNS_12basic_stringIcNS_11char_traitsIcEENS_9allocatorIcEEEEdEEJRKS9_EPS9_EEPT_SE_DpOT0_
FNA:0,0,_ZNSt3__112construct_atB8ne180100INS_4pairIKNS_12basic_stringIcNS_11char_traitsIcEENS_9allocatorIcEEEEmEEJRKNS_21piecewise_construct_tENS_5tupleIJRS8_EEENSD_IJEEEEPS9_EEPT_SJ_DpOT0_
FNA:0,0,_ZNSt3__112construct_atB8ne180100INS_4pairIN7pyfolio8DateTimeEdEEJS3_dEPS4_EEPT_S7_DpOT0_
FNA:0,0,_ZNSt3__112construct_atB8ne180100INS_4pairIN7pyfolio8DateTimeEdEEJS4_EPS4_EEPT_S7_DpOT0_
FNA:0,0,_ZNSt3__112construct_atB8ne180100INS_4pairIcPKcEEJS4_EPS4_EEPT_S7_DpOT0_
FNA:0,0,_ZNSt3__112construct_atB8ne180100INS_6chrono14year_month_dayEJRKS2_EPS2_EEPT_S7_DpOT0_
FNA:0,48,_ZNSt3__112construct_atB8ne180100INS_6chrono14year_month_dayEJS2_EPS2_EEPT_S5_DpOT0_
FNA:0,15,_ZNSt3__112construct_atB8ne180100INS_6threadEJS1_EPS1_EEPT_S4_DpOT0_
FNA:0,10,_ZNSt3__112construct_atB8ne180100INS_6threadEJZN36CoreTypesTest_BasicThreadSafety_Test8TestBodyEvE3$_0EPS1_EEPT_S6_DpOT0_
FNA:0,0,_ZNSt3__112construct_atB8ne180100INS_6vectorIN7testing8internal13edit_distance8EditTypeENS_9allocatorIS5_EEEEJRKS8_EPS8_EEPT_SD_DpOT0_
FNA:0,0,_ZNSt3__112construct_atB8ne180100INS_6vectorIdNS_9allocatorIdEEEEJRKS4_EPS4_EEPT_S9_DpOT0_
FNA:0,0,_ZNSt3__112construct_atB8ne180100IPN7testing11EnvironmentEJRKS3_EPS3_EEPT_S8_DpOT0_
FNA:0,4,_ZNSt3__112construct_atB8ne180100IPN7testing17TestEventListenerEJRKS3_EPS3_EEPT_S8_DpOT0_
FNA:0,63,_ZNSt3__112construct_atB8ne180100IPN7testing8TestInfoEJRKS3_EPS3_EEPT_S8_DpOT0_
FNA:0,4,_ZNSt3__112construct_atB8ne180100IPN7testing9TestSuiteEJRKS3_EPS3_EEPT_S8_DpOT0_
FNA:0,0,_ZNSt3__112construct_atB8ne180100IPN7testing9TestSuiteEJS3_EPS3_EEPT_S6_DpOT0_
FNA:0,0,_ZNSt3__112construct_atB8ne180100IPcJS1_EPS1_EEPT_S4_DpOT0_
FNA:0,0,_ZNSt3__112construct_atB8ne180100IdJEPdEEPT_S3_DpOT0_
FNA:0,10,_ZNSt3__112construct_atB8ne180100IdJRKdEPdEEPT_S5_DpOT0_
FNA:0,93,_ZNSt3__112construct_atB8ne180100IdJdEPdEEPT_S3_DpOT0_
FNA:0,67,_ZNSt3__112construct_atB8ne180100IiJiEPiEEPT_S3_DpOT0_
FNA:0,0,_ZNSt3__112construct_atB8ne180100ImJmEPmEEPT_S3_DpOT0_
FNL:1,47,49
FNA:1,10,_ZNSt3__114__construct_atB8ne180100IN7pyfolio8DateTimeEJRKS2_EPS2_EEPT_S7_DpOT0_
FNA:1,0,_ZNSt3__114__construct_atB8ne180100IN7testing12TestPropertyEJRKS2_EPS2_EEPT_S7_DpOT0_
FNA:1,0,_ZNSt3__114__construct_atB8ne180100IN7testing12TestPropertyEJS2_EPS2_EEPT_S5_DpOT0_
FNA:1,8,_ZNSt3__114__construct_atB8ne180100IN7testing14TestPartResultEJRKS2_EPS2_EEPT_S7_DpOT0_
FNA:1,7,_ZNSt3__114__construct_atB8ne180100IN7testing14TestPartResultEJS2_EPS2_EEPT_S5_DpOT0_
FNA:1,0,_ZNSt3__114__construct_atB8ne180100IN7testing8internal13edit_distance8EditTypeEJEPS4_EEPT_S7_DpOT0_
FNA:1,0,_ZNSt3__114__construct_atB8ne180100IN7testing8internal13edit_distance8EditTypeEJRKS4_EPS4_EEPT_S9_DpOT0_
FNA:1,0,_ZNSt3__114__construct_atB8ne180100IN7testing8internal9TraceInfoEJRKS3_EPS3_EEPT_S8_DpOT0_
FNA:1,0,_ZNSt3__114__construct_atB8ne180100IN7testing8internal9TraceInfoEJS3_EPS3_EEPT_S6_DpOT0_
FNA:1,0,_ZNSt3__114__construct_atB8ne180100INS_11__hash_nodeINS_12basic_stringIcNS_11char_traitsIcEENS_9allocatorIcEEEEPvEEJDnRmEPS9_EEPT_SD_DpOT0_
FNA:1,0,_ZNSt3__114__construct_atB8ne180100INS_11__list_nodeINS_4pairIcPKcEEPvEEJRPNS_16__list_node_baseIS5_S6_EESB_EPS7_EEPT_SE_DpOT0_
FNA:1,0,_ZNSt3__114__construct_atB8ne180100INS_12basic_stringIcNS_11char_traitsIcEENS_9allocatorIcEEEEJRKPKcEPS6_EEPT_SD_DpOT0_
FNA:1,0,_ZNSt3__114__construct_atB8ne180100INS_12basic_stringIcNS_11char_traitsIcEENS_9allocatorIcEEEEJRKS6_EPS6_EEPT_SB_DpOT0_
FNA:1,4,_ZNSt3__114__construct_atB8ne180100INS_12basic_stringIcNS_11char_traitsIcEENS_9allocatorIcEEEEJRS6_EPS6_EEPT_SA_DpOT0_
FNA:1,58,_ZNSt3__114__construct_atB8ne180100INS_12basic_stringIcNS_11char_traitsIcEENS_9allocatorIcEEEEJS6_EPS6_EEPT_S9_DpOT0_
FNA:1,180,_ZNSt3__114__construct_atB8ne180100INS_3mapINS_12basic_stringIcNS_11char_traitsIcEENS_9allocatorIcEEEEdNS_4lessIS7_EENS5_INS_4pairIKS7_dEEEEEEJRKSE_EPSE_EEPT_SJ_DpOT0_
FNA:1,0,_ZNSt3__114__construct_atB8ne180100INS_4pairIKNS_12basic_stringIcNS_11char_traitsIcEENS_9allocatorIcEEEEN7testing8internal34TypeParameterizedTestSuiteRegistry30TypeParameterizedTestSuiteInfoEEEJS7_SC_EPSD_EEPT_SG_DpOT0_
FNA:1,1080,_ZNSt3__114__construct_atB8ne180100INS_4pairIKNS_12basic_stringIcNS_11char_traitsIcEENS_9allocatorIcEEEEdEEJRKS9_EPS9_EEPT_SE_DpOT0_
FNA:1,0,_ZNSt3__114__construct_atB8ne180100INS_4pairIKNS_12basic_stringIcNS_11char_traitsIcEENS_9allocatorIcEEEEmEEJRKNS_21piecewise_construct_tENS_5tupleIJRS8_EEENSD_IJEEEEPS9_EEPT_SJ_DpOT0_
FNA:1,0,_ZNSt3__114__construct_atB8ne180100INS_4pairIN7pyfolio8DateTimeEdEEJS3_dEPS4_EEPT_S7_DpOT0_
FNA:1,0,_ZNSt3__114__construct_atB8ne180100INS_4pairIN7pyfolio8DateTimeEdEEJS4_EPS4_EEPT_S7_DpOT0_
FNA:1,0,_ZNSt3__114__construct_atB8ne180100INS_4pairIcPKcEEJS4_EPS4_EEPT_S7_DpOT0_
FNA:1,0,_ZNSt3__114__construct_atB8ne180100INS_6chrono14year_month_dayEJRKS2_EPS2_EEPT_S7_DpOT0_
FNA:1,48,_ZNSt3__114__construct_atB8ne180100INS_6chrono14year_month_dayEJS2_EPS2_EEPT_S5_DpOT0_
FNA:1,15,_ZNSt3__114__construct_atB8ne180100INS_6threadEJS1_EPS1_EEPT_S4_DpOT0_
FNA:1,10,_ZNSt3__114__construct_atB8ne180100INS_6threadEJZN36CoreTypesTest_BasicThreadSafety_Test8TestBodyEvE3$_0EPS1_EEPT_S6_DpOT0_
FNA:1,0,_ZNSt3__114__construct_atB8ne180100INS_6vectorIN7testing8internal13edit_distance8EditTypeENS_9allocatorIS5_EEEEJRKS8_EPS8_EEPT_SD_DpOT0_
FNA:1,0,_ZNSt3__114__construct_atB8ne180100INS_6vectorIdNS_9allocatorIdEEEEJRKS4_EPS4_EEPT_S9_DpOT0_
FNA:1,0,_ZNSt3__114__construct_atB8ne180100IPN7testing11EnvironmentEJRKS3_EPS3_EEPT_S8_DpOT0_
FNA:1,4,_ZNSt3__114__construct_atB8ne180100IPN7testing17TestEventListenerEJRKS3_EPS3_EEPT_S8_DpOT0_
FNA:1,63,_ZNSt3__114__construct_atB8ne180100IPN7testing8TestInfoEJRKS3_EPS3_EEPT_S8_DpOT0_
FNA:1,4,_ZNSt3__114__construct_atB8ne180100IPN7testing9TestSuiteEJRKS3_EPS3_EEPT_S8_DpOT0_
FNA:1,0,_ZNSt3__114__construct_atB8ne180100IPN7testing9TestSuiteEJS3_EPS3_EEPT_S6_DpOT0_
FNA:1,0,_ZNSt3__114__construct_atB8ne180100IPcJS1_EPS1_EEPT_S4_DpOT0_
FNA:1,0,_ZNSt3__114__construct_atB8ne180100IdJEPdEEPT_S3_DpOT0_
FNA:1,10,_ZNSt3__114__construct_atB8ne180100IdJRKdEPdEEPT_S5_DpOT0_
FNA:1,93,_ZNSt3__114__construct_atB8ne180100IdJdEPdEEPT_S3_DpOT0_
FNA:1,67,_ZNSt3__114__construct_atB8ne180100IiJiEPiEEPT_S3_DpOT0_
FNA:1,0,_ZNSt3__114__construct_atB8ne180100ImJmEPmEEPT_S3_DpOT0_
FNL:2,65,68
FNA:2,1238,_ZNSt3__112__destroy_atB8ne180100IN7pyfolio8DateTimeELi0EEEvPT_
FNA:2,0,_ZNSt3__112__destroy_atB8ne180100IN7testing12TestPropertyELi0EEEvPT_
FNA:2,7,_ZNSt3__112__destroy_atB8ne180100IN7testing14TestPartResultELi0EEEvPT_
FNA:2,0,_ZNSt3__112__destroy_atB8ne180100IN7testing8internal13edit_distance8EditTypeELi0EEEvPT_
FNA:2,0,_ZNSt3__112__destroy_atB8ne180100IN7testing8internal9TraceInfoELi0EEEvPT_
FNA:2,0,_ZNSt3__112__destroy_atB8ne180100INS_11__hash_nodeINS_12basic_stringIcNS_11char_traitsIcEENS_9allocatorIcEEEEPvEELi0EEEvPT_
FNA:2,0,_ZNSt3__112__destroy_atB8ne180100INS_11__list_nodeINS_4pairIcPKcEEPvEELi0EEEvPT_
FNA:2,58,_ZNSt3__112__destroy_atB8ne180100INS_12basic_stringIcNS_11char_traitsIcEENS_9allocatorIcEEEELi0EEEvPT_
FNA:2,180,_ZNSt3__112__destroy_atB8ne180100INS_3mapINS_12basic_stringIcNS_11char_traitsIcEENS_9allocatorIcEEEEdNS_4lessIS7_EENS5_INS_4pairIKS7_dEEEEEELi0EEEvPT_
FNA:2,0,_ZNSt3__112__destroy_atB8ne180100INS_4pairIKNS_12basic_stringIcNS_11char_traitsIcEENS_9allocatorIcEEEEN7testing8internal34TypeParameterizedTestSuiteRegistry30TypeParameterizedTestSuiteInfoEEELi0EEEvPT_
FNA:2,1080,_ZNSt3__112__destroy_atB8ne180100INS_4pairIKNS_12basic_stringIcNS_11char_traitsIcEENS_9allocatorIcEEEEdEELi0EEEvPT_
FNA:2,0,_ZNSt3__112__destroy_atB8ne180100INS_4pairIKNS_12basic_stringIcNS_11char_traitsIcEENS_9allocatorIcEEEEmEELi0EEEvPT_
FNA:2,0,_ZNSt3__112__destroy_atB8ne180100INS_4pairIN7pyfolio8DateTimeEdEELi0EEEvPT_
FNA:2,0,_ZNSt3__112__destroy_atB8ne180100INS_4pairIcPKcEELi0EEEvPT_
FNA:2,24,_ZNSt3__112__destroy_atB8ne180100INS_6chrono14year_month_dayELi0EEEvPT_
FNA:2,25,_ZNSt3__112__destroy_atB8ne180100INS_6threadELi0EEEvPT_
FNA:2,0,_ZNSt3__112__destroy_atB8ne180100INS_6vectorIN7testing8internal13edit_distance8EditTypeENS_9allocatorIS5_EEEELi0EEEvPT_
FNA:2,0,_ZNSt3__112__destroy_atB8ne180100INS_6vectorIdNS_9allocatorIdEEEELi0EEEvPT_
FNA:2,0,_ZNSt3__112__destroy_atB8ne180100IPN7testing11EnvironmentELi0EEEvPT_
FNA:2,0,_ZNSt3__112__destroy_atB8ne180100IPN7testing17TestEventListenerELi0EEEvPT_
FNA:2,108,_ZNSt3__112__destroy_atB8ne180100IPN7testing8TestInfoELi0EEEvPT_
FNA:2,0,_ZNSt3__112__destroy_atB8ne180100IPN7testing8internal30ParameterizedTestSuiteInfoBaseELi0EEEvPT_
FNA:2,0,_ZNSt3__112__destroy_atB8ne180100IPN7testing9TestSuiteELi0EEEvPT_
FNA:2,0,_ZNSt3__112__destroy_atB8ne180100IPcLi0EEEvPT_
FNA:2,1753,_ZNSt3__112__destroy_atB8ne180100IdLi0EEEvPT_
FNA:2,108,_ZNSt3__112__destroy_atB8ne180100IiLi0EEEvPT_
FNA:2,0,_ZNSt3__112__destroy_atB8ne180100ImLi0EEEvPT_
FNF:3
FNH:3
DA:39,1661
DA:41,1661
DA:47,1661
DA:49,1661
DA:65,4581
DA:67,4581
DA:68,4581
LF:7
LH:7
end_of_record
TN:
SF:/Library/Developer/CommandLineTools/SDKs/MacOSX.sdk/usr/include/c++/v1/__memory/pointer_traits.h
FNL:0,161,162
FNA:0,0,_ZNSt3__114pointer_traitsIPKDiE10pointer_toB8ne180100ERS1_
FNA:0,0,_ZNSt3__114pointer_traitsIPKDsE10pointer_toB8ne180100ERS1_
FNA:0,0,_ZNSt3__114pointer_traitsIPKDuE10pointer_toB8ne180100ERS1_
FNA:0,0,_ZNSt3__114pointer_traitsIPKNS_12__value_typeINS_12basic_stringIcNS_11char_traitsIcEENS_9allocatorIcEEEEN7testing8internal12CodeLocationEEEE10pointer_toB8ne180100ERSC_
FNA:0,540,_ZNSt3__114pointer_traitsIPKNS_12__value_typeINS_12basic_stringIcNS_11char_traitsIcEENS_9allocatorIcEEEEdEEE10pointer_toB8ne180100ERS9_
FNA:0,0,_ZNSt3__114pointer_traitsIPKNS_4pairIKNS_12basic_stringIcNS_11char_traitsIcEENS_9allocatorIcEEEEN7testing8internal12CodeLocationEEEE10pointer_toB8ne180100ERSD_
FNA:0,0,_ZNSt3__114pointer_traitsIPKNS_4pairIcPKcEEE10pointer_toB8ne180100ERS5_
FNA:0,0,_ZNSt3__114pointer_traitsIPKPN7testing9TestSuiteEE10pointer_toB8ne180100ERS4_
FNA:0,4317,_ZNSt3__114pointer_traitsIPKcE10pointer_toB8ne180100ERS1_
FNA:0,0,_ZNSt3__114pointer_traitsIPKwE10pointer_toB8ne180100ERS1_
FNA:0,0,_ZNSt3__114pointer_traitsIPNS_12__value_typeINS_12basic_stringIcNS_11char_traitsIcEENS_9allocatorIcEEEEN7testing8internal34TypeParameterizedTestSuiteRegistry30TypeParameterizedTestSuiteInfoEEEE10pointer_toB8ne180100ERSC_
FNA:0,0,_ZNSt3__114pointer_traitsIPNS_12__value_typeINS_12basic_stringIcNS_11char_traitsIcEENS_9allocatorIcEEEEmEEE10pointer_toB8ne180100ERS8_
FNA:0,3671,_ZNSt3__114pointer_traitsIPNS_15__tree_end_nodeIPNS_16__tree_node_baseIPvEEEEE10pointer_toB8ne180100ERS6_
FNA:0,0,_ZNSt3__114pointer_traitsIPNS_16__hash_node_baseIPNS_11__hash_nodeINS_12basic_stringIcNS_11char_traitsIcEENS_9allocatorIcEEEEPvEEEEE10pointer_toB8ne180100ERSC_
FNA:0,0,_ZNSt3__114pointer_traitsIPNS_16__list_node_baseINS_4pairIcPKcEEPvEEE10pointer_toB8ne180100ERS7_
FNA:0,0,_ZNSt3__114pointer_traitsIPNS_4pairIKNS_12basic_stringIcNS_11char_traitsIcEENS_9allocatorIcEEEEN7testing8internal34TypeParameterizedTestSuiteRegistry30TypeParameterizedTestSuiteInfoEEEE10pointer_toB8ne180100ERSD_
FNA:0,0,_ZNSt3__114pointer_traitsIPNS_4pairIKNS_12basic_stringIcNS_11char_traitsIcEENS_9allocatorIcEEEEmEEE10pointer_toB8ne180100ERS9_
FNA:0,171,_ZNSt3__114pointer_traitsIPcE10pointer_toB8ne180100ERc
FNL:1,180,182
FNA:1,0,_ZNSt3__112__to_addressB8ne180100IKDiEEPT_S3_
FNA:1,0,_ZNSt3__112__to_addressB8ne180100IKDsEEPT_S3_
FNA:1,0,_ZNSt3__112__to_addressB8ne180100IKDuEEPT_S3_
FNA:1,185,_ZNSt3__112__to_addressB8ne180100IKN7pyfolio8DateTimeEEEPT_S5_
FNA:1,0,_ZNSt3__112__to_addressB8ne180100IKNS_12basic_stringIcNS_11char_traitsIcEENS_9allocatorIcEEEEEEPT_S9_
FNA:1,36,_ZNSt3__112__to_addressB8ne180100IKNS_3mapINS_12basic_stringIcNS_11char_traitsIcEENS_9allocatorIcEEEEdNS_4lessIS7_EENS5_INS_4pairIKS7_dEEEEEEEEPT_SH_
FNA:1,0,_ZNSt3__112__to_addressB8ne180100IKPKcEEPT_S5_
FNA:1,6873,_ZNSt3__112__to_addressB8ne180100IKcEEPT_S3_
FNA:1,401,_ZNSt3__112__to_addressB8ne180100IKdEEPT_S3_
FNA:1,0,_ZNSt3__112__to_addressB8ne180100IKwEEPT_S3_
FNA:1,2296,_ZNSt3__112__to_addressB8ne180100IN7pyfolio8DateTimeEEEPT_S4_
FNA:1,0,_ZNSt3__112__to_addressB8ne180100IN7testing12TestPropertyEEEPT_S4_
FNA:1,22,_ZNSt3__112__to_addressB8ne180100IN7testing14TestPartResultEEEPT_S4_
FNA:1,0,_ZNSt3__112__to_addressB8ne180100IN7testing8internal13edit_distance8EditTypeEEEPT_S6_
FNA:1,0,_ZNSt3__112__to_addressB8ne180100IN7testing8internal9TraceInfoEEEPT_S5_
FNA:1,208,_ZNSt3__112__to_addressB8ne180100INS_12basic_stringIcNS_11char_traitsIcEENS_9allocatorIcEEEEEEPT_S8_
FNA:1,396,_ZNSt3__112__to_addressB8ne180100INS_3mapINS_12basic_stringIcNS_11char_traitsIcEENS_9allocatorIcEEEEdNS_4lessIS7_EENS5_INS_4pairIKS7_dEEEEEEEEPT_SG_
FNA:1,0,_ZNSt3__112__to_addressB8ne180100INS_4pairIN7pyfolio8DateTimeEdEEEEPT_S6_
FNA:1,50,_ZNSt3__112__to_addressB8ne180100INS_6threadEEEPT_S3_
FNA:1,0,_ZNSt3__112__to_addressB8ne180100INS_6vectorIN7testing8internal13edit_distance8EditTypeENS_9allocatorIS5_EEEEEEPT_SA_
FNA:1,0,_ZNSt3__112__to_addressB8ne180100INS_6vectorIdNS_9allocatorIdEEEEEEPT_S6_
FNA:1,0,_ZNSt3__112__to_addressB8ne180100IPN7testing11EnvironmentEEEPT_S5_
FNA:1,4,_ZNSt3__112__to_addressB8ne180100IPN7testing17TestEventListenerEEEPT_S5_
FNA:1,171,_ZNSt3__112__to_addressB8ne180100IPN7testing8TestInfoEEEPT_S5_
FNA:1,0,_ZNSt3__112__to_addressB8ne180100IPN7testing8internal30ParameterizedTestSuiteInfoBaseEEEPT_S6_
FNA:1,4,_ZNSt3__112__to_addressB8ne180100IPN7testing9TestSuiteEEEPT_S5_
FNA:1,0,_ZNSt3__112__to_addressB8ne180100IPcEEPT_S3_
FNA:1,722,_ZNSt3__112__to_addressB8ne180100IcEEPT_S2_
FNA:1,3191,_ZNSt3__112__to_addressB8ne180100IdEEPT_S2_
FNA:1,175,_ZNSt3__112__to_addressB8ne180100IiEEPT_S2_
FNA:1,0,_ZNSt3__112__to_addressB8ne180100ImEEPT_S2_
FNL:2,207,208
FNA:2,0,_ZNSt3__112__to_addressB8ne180100INS_11__wrap_iterIPKNS_12basic_stringIcNS_11char_traitsIcEENS_9allocatorIcEEEEEEvEEu7__decayIDTclsr19__to_address_helperIT_EE6__callclsr3stdE7declvalIRKSB_EEEEESD_
FNA:2,6,_ZNSt3__112__to_addressB8ne180100INS_11__wrap_iterIPKdEEvEEu7__decayIDTclsr19__to_address_helperIT_EE6__callclsr3stdE7declvalIRKS5_EEEEES7_
FNA:2,72,_ZNSt3__112__to_addressB8ne180100INS_11__wrap_iterIPNS_12basic_stringIcNS_11char_traitsIcEENS_9allocatorIcEEEEEEvEEu7__decayIDTclsr19__to_address_helperIT_EE6__callclsr3stdE7declvalIRKSA_EEEEESC_
FNA:2,0,_ZNSt3__112__to_addressB8ne180100INS_11__wrap_iterIPNS_4pairIN7pyfolio8DateTimeEdEEEEvEEu7__decayIDTclsr19__to_address_helperIT_EE6__callclsr3stdE7declvalIRKS8_EEEEESA_
FNA:2,20,_ZNSt3__112__to_addressB8ne180100INS_11__wrap_iterIPdEEvEEu7__decayIDTclsr19__to_address_helperIT_EE6__callclsr3stdE7declvalIRKS4_EEEEES6_
FNA:2,0,_ZNSt3__112__to_addressB8ne180100INS_16reverse_iteratorINS1_IPN7testing12TestPropertyEEEEEvEEu7__decayIDTclsr19__to_address_helperIT_EE6__callclsr3stdE7declvalIRKS7_EEEEES9_
FNA:2,0,_ZNSt3__112__to_addressB8ne180100INS_16reverse_iteratorINS1_IPN7testing14TestPartResultEEEEEvEEu7__decayIDTclsr19__to_address_helperIT_EE6__callclsr3stdE7declvalIRKS7_EEEEES9_
FNA:2,0,_ZNSt3__112__to_addressB8ne180100INS_16reverse_iteratorINS1_IPN7testing8internal9TraceInfoEEEEEvEEu7__decayIDTclsr19__to_address_helperIT_EE6__callclsr3stdE7declvalIRKS8_EEEEESA_
FNA:2,0,_ZNSt3__112__to_addressB8ne180100INS_16reverse_iteratorINS1_IPNS_12basic_stringIcNS_11char_traitsIcEENS_9allocatorIcEEEEEEEEvEEu7__decayIDTclsr19__to_address_helperIT_EE6__callclsr3stdE7declvalIRKSB_EEEEESD_
FNA:2,0,_ZNSt3__112__to_addressB8ne180100INS_16reverse_iteratorINS1_IPNS_4pairIN7pyfolio8DateTimeEdEEEEEEvEEu7__decayIDTclsr19__to_address_helperIT_EE6__callclsr3stdE7declvalIRKS9_EEEEESB_
FNA:2,0,_ZNSt3__112__to_addressB8ne180100INS_16reverse_iteratorINS1_IPNS_6threadEEEEEvEEu7__decayIDTclsr19__to_address_helperIT_EE6__callclsr3stdE7declvalIRKS6_EEEEES8_
FNA:2,0,_ZNSt3__112__to_addressB8ne180100INS_16reverse_iteratorIPN7testing12TestPropertyEEEvEEu7__decayIDTclsr19__to_address_helperIT_EE6__callclsr3stdE7declvalIRKS6_EEEEES8_
FNA:2,7,_ZNSt3__112__to_addressB8ne180100INS_16reverse_iteratorIPN7testing14TestPartResultEEEvEEu7__decayIDTclsr19__to_address_helperIT_EE6__callclsr3stdE7declvalIRKS6_EEEEES8_
FNA:2,0,_ZNSt3__112__to_addressB8ne180100INS_16reverse_iteratorIPN7testing8internal9TraceInfoEEEvEEu7__decayIDTclsr19__to_address_helperIT_EE6__callclsr3stdE7declvalIRKS7_EEEEES9_
FNA:2,8,_ZNSt3__112__to_addressB8ne180100INS_16reverse_iteratorIPNS_12basic_stringIcNS_11char_traitsIcEENS_9allocatorIcEEEEEEvEEu7__decayIDTclsr19__to_address_helperIT_EE6__callclsr3stdE7declvalIRKSA_EEEEESC_
FNA:2,0,_ZNSt3__112__to_addressB8ne180100INS_16reverse_iteratorIPNS_3mapINS_12basic_stringIcNS_11char_traitsIcEENS_9allocatorIcEEEEdNS_4lessIS8_EENS6_INS_4pairIKS8_dEEEEEEEEvEEu7__decayIDTclsr19__to_address_helperIT_EE6__callclsr3stdE7declvalIRKSI_EEEEESK_
FNA:2,0,_ZNSt3__112__to_addressB8ne180100INS_16reverse_iteratorIPNS_4pairIN7pyfolio8DateTimeEdEEEEvEEu7__decayIDTclsr19__to_address_helperIT_EE6__callclsr3stdE7declvalIRKS8_EEEEESA_
FNA:2,15,_ZNSt3__112__to_addressB8ne180100INS_16reverse_iteratorIPNS_6threadEEEvEEu7__decayIDTclsr19__to_address_helperIT_EE6__callclsr3stdE7declvalIRKS5_EEEEES7_
FNL:3,215,216
FNA:3,0,_ZNSt3__119__to_address_helperINS_16reverse_iteratorINS1_IPN7testing12TestPropertyEEEEEvE6__callB8ne180100ERKS6_
FNA:3,0,_ZNSt3__119__to_address_helperINS_16reverse_iteratorINS1_IPN7testing14TestPartResultEEEEEvE6__callB8ne180100ERKS6_
FNA:3,0,_ZNSt3__119__to_address_helperINS_16reverse_iteratorINS1_IPN7testing8internal9TraceInfoEEEEEvE6__callB8ne180100ERKS7_
FNA:3,0,_ZNSt3__119__to_address_helperINS_16reverse_iteratorINS1_IPNS_12basic_stringIcNS_11char_traitsIcEENS_9allocatorIcEEEEEEEEvE6__callB8ne180100ERKSA_
FNA:3,0,_ZNSt3__119__to_address_helperINS_16reverse_iteratorINS1_IPNS_4pairIN7pyfolio8DateTimeEdEEEEEEvE6__callB8ne180100ERKS8_
FNA:3,0,_ZNSt3__119__to_address_helperINS_16reverse_iteratorINS1_IPNS_6threadEEEEEvE6__callB8ne180100ERKS5_
FNA:3,0,_ZNSt3__119__to_address_helperINS_16reverse_iteratorIPN7testing12TestPropertyEEEvE6__callB8ne180100ERKS5_
FNA:3,7,_ZNSt3__119__to_address_helperINS_16reverse_iteratorIPN7testing14TestPartResultEEEvE6__callB8ne180100ERKS5_
FNA:3,0,_ZNSt3__119__to_address_helperINS_16reverse_iteratorIPN7testing8internal9TraceInfoEEEvE6__callB8ne180100ERKS6_
FNA:3,8,_ZNSt3__119__to_address_helperINS_16reverse_iteratorIPNS_12basic_stringIcNS_11char_traitsIcEENS_9allocatorIcEEEEEEvE6__callB8ne180100ERKS9_
FNA:3,0,_ZNSt3__119__to_address_helperINS_16reverse_iteratorIPNS_3mapINS_12basic_stringIcNS_11char_traitsIcEENS_9allocatorIcEEEEdNS_4lessIS8_EENS6_INS_4pairIKS8_dEEEEEEEEvE6__callB8ne180100ERKSH_
FNA:3,0,_ZNSt3__119__to_address_helperINS_16reverse_iteratorIPNS_4pairIN7pyfolio8DateTimeEdEEEEvE6__callB8ne180100ERKS7_
FNA:3,15,_ZNSt3__119__to_address_helperINS_16reverse_iteratorIPNS_6threadEEEvE6__callB8ne180100ERKS4_
FNL:4,225,226
FNA:4,0,_ZNSt3__119__to_address_helperINS_11__wrap_iterIPKNS_12basic_stringIcNS_11char_traitsIcEENS_9allocatorIcEEEEEEvE6__callB8ne180100ERKSA_
FNA:4,6,_ZNSt3__119__to_address_helperINS_11__wrap_iterIPKdEEvE6__callB8ne180100ERKS4_
FNA:4,72,_ZNSt3__119__to_address_helperINS_11__wrap_iterIPNS_12basic_stringIcNS_11char_traitsIcEENS_9allocatorIcEEEEEEvE6__callB8ne180100ERKS9_
FNA:4,0,_ZNSt3__119__to_address_helperINS_11__wrap_iterIPNS_4pairIN7pyfolio8DateTimeEdEEEEvE6__callB8ne180100ERKS7_
FNA:4,20,_ZNSt3__119__to_address_helperINS_11__wrap_iterIPdEEvE6__callB8ne180100ERKS3_
FNL:5,232,233
FNA:5,26,_ZNSt3__110to_addressB8ne180100IKdEEDaPT_
FNA:5,337,_ZNSt3__110to_addressB8ne180100IcEEDaPT_
FNA:5,0,_ZNSt3__110to_addressB8ne180100IdEEDaPT_
FNF:6
FNH:6
DA:161,8699
DA:162,8699
DA:180,14734
DA:182,14734
DA:207,128
DA:208,128
DA:215,30
DA:216,30
DA:225,98
DA:226,98
DA:232,363
DA:233,363
LF:12
LH:12
end_of_record
TN:
SF:/Library/Developer/CommandLineTools/SDKs/MacOSX.sdk/usr/include/c++/v1/__memory/swap_allocator.h
FNL:0,38,38
FNA:0,16,_ZNSt3__116__swap_allocatorB8ne180100INS_9allocatorINS_12basic_stringIcNS_11char_traitsIcEENS1_IcEEEEEEEEvRT_S9_NS_17integral_constantIbLb0EEE
FNA:0,0,_ZNSt3__116__swap_allocatorB8ne180100INS_9allocatorIcEEEEvRT_S4_NS_17integral_constantIbLb0EEE
FNL:1,41,50
FNA:1,0,_ZNSt3__116__swap_allocatorB8ne180100INS_9allocatorIcEEEEvRT_S4_
FNF:2
FNH:1
DA:38,16
DA:41,0
DA:48,0
DA:49,0
DA:50,0
LF:5
LH:1
end_of_record
TN:
SF:/Library/Developer/CommandLineTools/SDKs/MacOSX.sdk/usr/include/c++/v1/__memory/uninitialized_algorithms.h
FNL:0,517,520
FNA:0,0,_ZNSt3__119__allocator_destroyB8ne180100INS_9allocatorIN7testing12TestPropertyEEENS_16reverse_iteratorINS5_IPS3_EEEES8_EEvRT_T0_T1_
FNA:0,0,_ZNSt3__119__allocator_destroyB8ne180100INS_9allocatorIN7testing14TestPartResultEEENS_16reverse_iteratorINS5_IPS3_EEEES8_EEvRT_T0_T1_
FNA:0,0,_ZNSt3__119__allocator_destroyB8ne180100INS_9allocatorIN7testing8internal9TraceInfoEEENS_16reverse_iteratorINS6_IPS4_EEEES9_EEvRT_T0_T1_
FNA:0,0,_ZNSt3__119__allocator_destroyB8ne180100INS_9allocatorINS_12basic_stringIcNS_11char_traitsIcEENS1_IcEEEEEENS_16reverse_iteratorINS8_IPS6_EEEESB_EEvRT_T0_T1_
FNA:0,0,_ZNSt3__119__allocator_destroyB8ne180100INS_9allocatorINS_12basic_stringIcNS_11char_traitsIcEENS1_IcEEEEEENS_16reverse_iteratorIPS6_EESA_EEvRT_T0_T1_
FNA:0,0,_ZNSt3__119__allocator_destroyB8ne180100INS_9allocatorINS_3mapINS_12basic_stringIcNS_11char_traitsIcEENS1_IcEEEEdNS_4lessIS7_EENS1_INS_4pairIKS7_dEEEEEEEENS_16reverse_iteratorIPSE_EESI_EEvRT_T0_T1_
FNA:0,0,_ZNSt3__119__allocator_destroyB8ne180100INS_9allocatorINS_4pairIN7pyfolio8DateTimeEdEEEENS_16reverse_iteratorINS7_IPS5_EEEESA_EEvRT_T0_T1_
FNA:0,0,_ZNSt3__119__allocator_destroyB8ne180100INS_9allocatorINS_6threadEEENS_16reverse_iteratorINS4_IPS2_EEEES7_EEvRT_T0_T1_
FNL:1,526,527
FNA:1,0,_ZNSt3__129_AllocatorDestroyRangeReverseINS_9allocatorIN7testing12TestPropertyEEENS_16reverse_iteratorIPS3_EEEC1B8ne180100ERS4_RS7_SA_
FNA:1,0,_ZNSt3__129_AllocatorDestroyRangeReverseINS_9allocatorIN7testing12TestPropertyEEENS_16reverse_iteratorIPS3_EEEC2B8ne180100ERS4_RS7_SA_
FNA:1,7,_ZNSt3__129_AllocatorDestroyRangeReverseINS_9allocatorIN7testing14TestPartResultEEENS_16reverse_iteratorIPS3_EEEC1B8ne180100ERS4_RS7_SA_
FNA:1,7,_ZNSt3__129_AllocatorDestroyRangeReverseINS_9allocatorIN7testing14TestPartResultEEENS_16reverse_iteratorIPS3_EEEC2B8ne180100ERS4_RS7_SA_
FNA:1,0,_ZNSt3__129_AllocatorDestroyRangeReverseINS_9allocatorIN7testing8internal9TraceInfoEEENS_16reverse_iteratorIPS4_EEEC1B8ne180100ERS5_RS8_SB_
FNA:1,0,_ZNSt3__129_AllocatorDestroyRangeReverseINS_9allocatorIN7testing8internal9TraceInfoEEENS_16reverse_iteratorIPS4_EEEC2B8ne180100ERS5_RS8_SB_
FNA:1,42,_ZNSt3__129_AllocatorDestroyRangeReverseINS_9allocatorINS_12basic_stringIcNS_11char_traitsIcEENS1_IcEEEEEENS_16reverse_iteratorIPS6_EEEC1B8ne180100ERS7_RSA_SD_
FNA:1,42,_ZNSt3__129_AllocatorDestroyRangeReverseINS_9allocatorINS_12basic_stringIcNS_11char_traitsIcEENS1_IcEEEEEENS_16reverse_iteratorIPS6_EEEC2B8ne180100ERS7_RSA_SD_
FNA:1,4,_ZNSt3__129_AllocatorDestroyRangeReverseINS_9allocatorINS_12basic_stringIcNS_11char_traitsIcEENS1_IcEEEEEEPS6_EC1B8ne180100ERS7_RS8_SB_
FNA:1,4,_ZNSt3__129_AllocatorDestroyRangeReverseINS_9allocatorINS_12basic_stringIcNS_11char_traitsIcEENS1_IcEEEEEEPS6_EC2B8ne180100ERS7_RS8_SB_
FNA:1,18,_ZNSt3__129_AllocatorDestroyRangeReverseINS_9allocatorINS_3mapINS_12basic_stringIcNS_11char_traitsIcEENS1_IcEEEEdNS_4lessIS7_EENS1_INS_4pairIKS7_dEEEEEEEEPSE_EC1B8ne180100ERSF_RSG_SJ_
FNA:1,18,_ZNSt3__129_AllocatorDestroyRangeReverseINS_9allocatorINS_3mapINS_12basic_stringIcNS_11char_traitsIcEENS1_IcEEEEdNS_4lessIS7_EENS1_INS_4pairIKS7_dEEEEEEEEPSE_EC2B8ne180100ERSF_RSG_SJ_
FNA:1,0,_ZNSt3__129_AllocatorDestroyRangeReverseINS_9allocatorINS_4pairIN7pyfolio8DateTimeEdEEEENS_16reverse_iteratorIPS5_EEEC1B8ne180100ERS6_RS9_SC_
FNA:1,0,_ZNSt3__129_AllocatorDestroyRangeReverseINS_9allocatorINS_4pairIN7pyfolio8DateTimeEdEEEENS_16reverse_iteratorIPS5_EEEC2B8ne180100ERS6_RS9_SC_
FNA:1,5,_ZNSt3__129_AllocatorDestroyRangeReverseINS_9allocatorINS_6threadEEENS_16reverse_iteratorIPS2_EEEC1B8ne180100ERS3_RS6_S9_
FNA:1,5,_ZNSt3__129_AllocatorDestroyRangeReverseINS_9allocatorINS_6threadEEENS_16reverse_iteratorIPS2_EEEC2B8ne180100ERS3_RS6_S9_
FNL:2,529,531
FNA:2,0,_ZNKSt3__129_AllocatorDestroyRangeReverseINS_9allocatorIN7testing12TestPropertyEEENS_16reverse_iteratorIPS3_EEEclB8ne180100Ev
FNA:2,0,_ZNKSt3__129_AllocatorDestroyRangeReverseINS_9allocatorIN7testing14TestPartResultEEENS_16reverse_iteratorIPS3_EEEclB8ne180100Ev
FNA:2,0,_ZNKSt3__129_AllocatorDestroyRangeReverseINS_9allocatorIN7testing8internal9TraceInfoEEENS_16reverse_iteratorIPS4_EEEclB8ne180100Ev
FNA:2,0,_ZNKSt3__129_AllocatorDestroyRangeReverseINS_9allocatorINS_12basic_stringIcNS_11char_traitsIcEENS1_IcEEEEEENS_16reverse_iteratorIPS6_EEEclB8ne180100Ev
FNA:2,0,_ZNKSt3__129_AllocatorDestroyRangeReverseINS_9allocatorINS_12basic_stringIcNS_11char_traitsIcEENS1_IcEEEEEEPS6_EclB8ne180100Ev
FNA:2,0,_ZNKSt3__129_AllocatorDestroyRangeReverseINS_9allocatorINS_3mapINS_12basic_stringIcNS_11char_traitsIcEENS1_IcEEEEdNS_4lessIS7_EENS1_INS_4pairIKS7_dEEEEEEEEPSE_EclB8ne180100Ev
FNA:2,0,_ZNKSt3__129_AllocatorDestroyRangeReverseINS_9allocatorINS_4pairIN7pyfolio8DateTimeEdEEEENS_16reverse_iteratorIPS5_EEEclB8ne180100Ev
FNA:2,0,_ZNKSt3__129_AllocatorDestroyRangeReverseINS_9allocatorINS_6threadEEENS_16reverse_iteratorIPS2_EEEclB8ne180100Ev
FNL:3,545,556
FNA:3,0,_ZNSt3__135__uninitialized_allocator_copy_implB8ne180100INS_9allocatorINS_12basic_stringIcNS_11char_traitsIcEENS1_IcEEEEEEPKPKcSB_PS6_EET2_RT_T0_T1_SD_
FNA:3,0,_ZNSt3__135__uninitialized_allocator_copy_implB8ne180100INS_9allocatorINS_12basic_stringIcNS_11char_traitsIcEENS1_IcEEEEEEPKS6_S9_PS6_EET2_RT_T0_T1_SB_
FNA:3,4,_ZNSt3__135__uninitialized_allocator_copy_implB8ne180100INS_9allocatorINS_12basic_stringIcNS_11char_traitsIcEENS1_IcEEEEEEPS6_S8_S8_EET2_RT_T0_T1_S9_
FNA:3,18,_ZNSt3__135__uninitialized_allocator_copy_implB8ne180100INS_9allocatorINS_3mapINS_12basic_stringIcNS_11char_traitsIcEENS1_IcEEEEdNS_4lessIS7_EENS1_INS_4pairIKS7_dEEEEEEEEPKSE_SH_PSE_EET2_RT_T0_T1_SJ_
FNL:4,574,584
FNA:4,37,_ZNSt3__135__uninitialized_allocator_copy_implB8ne180100INS_9allocatorIN7pyfolio8DateTimeEEEKS3_S3_S3_LPv0EEEPT2_RT_PT0_SC_S8_
FNA:4,100,_ZNSt3__135__uninitialized_allocator_copy_implB8ne180100INS_9allocatorIN7pyfolio8DateTimeEEES3_S3_S3_LPv0EEEPT2_RT_PT0_SB_S7_
FNA:4,0,_ZNSt3__135__uninitialized_allocator_copy_implB8ne180100INS_9allocatorIN7testing8internal13edit_distance8EditTypeEEES5_S5_S5_LPv0EEEPT2_RT_PT0_SD_S9_
FNA:4,75,_ZNSt3__135__uninitialized_allocator_copy_implB8ne180100INS_9allocatorIdEEKdddLPv0EEEPT2_RT_PT0_SA_S6_
FNA:4,109,_ZNSt3__135__uninitialized_allocator_copy_implB8ne180100INS_9allocatorIdEEdddLPv0EEEPT2_RT_PT0_S9_S5_
FNL:5,590,594
FNA:5,37,_ZNSt3__130__uninitialized_allocator_copyB8ne180100INS_9allocatorIN7pyfolio8DateTimeEEEPKS3_S6_PS3_EET2_RT_T0_T1_S8_
FNA:5,100,_ZNSt3__130__uninitialized_allocator_copyB8ne180100INS_9allocatorIN7pyfolio8DateTimeEEEPS3_S5_S5_EET2_RT_T0_T1_S6_
FNA:5,0,_ZNSt3__130__uninitialized_allocator_copyB8ne180100INS_9allocatorIN7testing8internal13edit_distance8EditTypeEEEPS5_S7_S7_EET2_RT_T0_T1_S8_
FNA:5,0,_ZNSt3__130__uninitialized_allocator_copyB8ne180100INS_9allocatorINS_12basic_stringIcNS_11char_traitsIcEENS1_IcEEEEEENS_11__wrap_iterIPKS6_EESB_PS6_EET2_RT_T0_T1_SD_
FNA:5,0,_ZNSt3__130__uninitialized_allocator_copyB8ne180100INS_9allocatorINS_12basic_stringIcNS_11char_traitsIcEENS1_IcEEEEEEPKPKcSB_PS6_EET2_RT_T0_T1_SD_
FNA:5,4,_ZNSt3__130__uninitialized_allocator_copyB8ne180100INS_9allocatorINS_12basic_stringIcNS_11char_traitsIcEENS1_IcEEEEEEPS6_S8_S8_EET2_RT_T0_T1_S9_
FNA:5,18,_ZNSt3__130__uninitialized_allocator_copyB8ne180100INS_9allocatorINS_3mapINS_12basic_stringIcNS_11char_traitsIcEENS1_IcEEEEdNS_4lessIS7_EENS1_INS_4pairIKS7_dEEEEEEEEPKSE_SH_PSE_EET2_RT_T0_T1_SJ_
FNA:5,3,_ZNSt3__130__uninitialized_allocator_copyB8ne180100INS_9allocatorIdEENS_11__wrap_iterIPKdEES6_PdEET2_RT_T0_T1_S8_
FNA:5,72,_ZNSt3__130__uninitialized_allocator_copyB8ne180100INS_9allocatorIdEEPKdS4_PdEET2_RT_T0_T1_S6_
FNA:5,109,_ZNSt3__130__uninitialized_allocator_copyB8ne180100INS_9allocatorIdEEPdS3_S3_EET2_RT_T0_T1_S4_
FNL:6,604,621
FNA:6,0,_ZNSt3__142__uninitialized_allocator_move_if_noexceptB8ne180100INS_9allocatorIN7testing12TestPropertyEEENS_16reverse_iteratorIPS3_EES7_S7_EET2_RT_T0_T1_S8_
FNA:6,7,_ZNSt3__142__uninitialized_allocator_move_if_noexceptB8ne180100INS_9allocatorIN7testing14TestPartResultEEENS_16reverse_iteratorIPS3_EES7_S7_EET2_RT_T0_T1_S8_
FNA:6,0,_ZNSt3__142__uninitialized_allocator_move_if_noexceptB8ne180100INS_9allocatorIN7testing8internal9TraceInfoEEENS_16reverse_iteratorIPS4_EES8_S8_EET2_RT_T0_T1_S9_
FNA:6,42,_ZNSt3__142__uninitialized_allocator_move_if_noexceptB8ne180100INS_9allocatorINS_12basic_stringIcNS_11char_traitsIcEENS1_IcEEEEEENS_16reverse_iteratorIPS6_EESA_SA_EET2_RT_T0_T1_SB_
FNA:6,0,_ZNSt3__142__uninitialized_allocator_move_if_noexceptB8ne180100INS_9allocatorINS_12basic_stringIcNS_11char_traitsIcEENS1_IcEEEEEEPS6_S8_S8_EET2_RT_T0_T1_S9_
FNA:6,0,_ZNSt3__142__uninitialized_allocator_move_if_noexceptB8ne180100INS_9allocatorINS_4pairIN7pyfolio8DateTimeEdEEEENS_16reverse_iteratorIPS5_EES9_S9_EET2_RT_T0_T1_SA_
FNA:6,5,_ZNSt3__142__uninitialized_allocator_move_if_noexceptB8ne180100INS_9allocatorINS_6threadEEENS_16reverse_iteratorIPS2_EES6_S6_EET2_RT_T0_T1_S7_
FNL:7,638,647
FNA:7,1,_ZNSt3__142__uninitialized_allocator_move_if_noexceptB8ne180100INS_9allocatorIN7pyfolio8DateTimeEEENS_16reverse_iteratorIPS3_EES7_S3_vEET1_RT_T0_SB_S8_
FNA:7,0,_ZNSt3__142__uninitialized_allocator_move_if_noexceptB8ne180100INS_9allocatorIN7testing8internal13edit_distance8EditTypeEEENS_16reverse_iteratorIPS5_EES9_S5_vEET1_RT_T0_SD_SA_
FNA:7,0,_ZNSt3__142__uninitialized_allocator_move_if_noexceptB8ne180100INS_9allocatorIPN7testing11EnvironmentEEENS_16reverse_iteratorIPS4_EES8_S4_vEET1_RT_T0_SC_S9_
FNA:7,4,_ZNSt3__142__uninitialized_allocator_move_if_noexceptB8ne180100INS_9allocatorIPN7testing17TestEventListenerEEENS_16reverse_iteratorIPS4_EES8_S4_vEET1_RT_T0_SC_S9_
FNA:7,23,_ZNSt3__142__uninitialized_allocator_move_if_noexceptB8ne180100INS_9allocatorIPN7testing8TestInfoEEENS_16reverse_iteratorIPS4_EES8_S4_vEET1_RT_T0_SC_S9_
FNA:7,4,_ZNSt3__142__uninitialized_allocator_move_if_noexceptB8ne180100INS_9allocatorIPN7testing9TestSuiteEEENS_16reverse_iteratorIPS4_EES8_S4_vEET1_RT_T0_SC_S9_
FNA:7,0,_ZNSt3__142__uninitialized_allocator_move_if_noexceptB8ne180100INS_9allocatorIPN7testing9TestSuiteEEEPS4_S6_S4_vEET1_RT_T0_SA_S7_
FNA:7,0,_ZNSt3__142__uninitialized_allocator_move_if_noexceptB8ne180100INS_9allocatorIPcEENS_16reverse_iteratorIPS2_EES6_S2_vEET1_RT_T0_SA_S7_
FNA:7,0,_ZNSt3__142__uninitialized_allocator_move_if_noexceptB8ne180100INS_9allocatorIPcEEPS2_S4_S2_vEET1_RT_T0_S8_S5_
FNA:7,25,_ZNSt3__142__uninitialized_allocator_move_if_noexceptB8ne180100INS_9allocatorIdEENS_16reverse_iteratorIPdEES5_dvEET1_RT_T0_S9_S6_
FNA:7,27,_ZNSt3__142__uninitialized_allocator_move_if_noexceptB8ne180100INS_9allocatorIiEENS_16reverse_iteratorIPiEES5_ivEET1_RT_T0_S9_S6_
FNA:7,0,_ZNSt3__142__uninitialized_allocator_move_if_noexceptB8ne180100INS_9allocatorImEENS_16reverse_iteratorIPmEES5_mvEET1_RT_T0_S9_S6_
FNF:8
FNH:6
DA:517,0
DA:518,0
DA:519,0
DA:520,0
DA:526,152
DA:527,152
DA:529,0
DA:530,0
DA:531,0
DA:545,22
DA:546,22
DA:548,22
DA:549,206
DA:550,184
DA:551,184
DA:552,184
DA:554,22
DA:555,22
DA:556,22
DA:574,321
DA:584,321
DA:590,343
DA:591,343
DA:592,343
DA:593,343
DA:594,343
DA:604,54
DA:607,54
DA:609,54
DA:610,84
DA:612,30
DA:616,30
DA:617,30
DA:619,54
DA:620,54
DA:621,54
DA:638,84
DA:647,84
LF:38
LH:31
end_of_record
TN:
SF:/Library/Developer/CommandLineTools/SDKs/MacOSX.sdk/usr/include/c++/v1/__memory/unique_ptr.h
FNL:0,167,167
FNA:0,4,_ZNSt3__110unique_ptrIN7testing8internal24InternalRunDeathTestFlagENS_14default_deleteIS3_EEEC1B8ne180100ILb1EvEEv
FNA:0,4,_ZNSt3__110unique_ptrIN7testing8internal24InternalRunDeathTestFlagENS_14default_deleteIS3_EEEC2B8ne180100ILb1EvEEv
FNA:0,215,_ZNSt3__110unique_ptrINS_12basic_stringIcNS_11char_traitsIcEENS_9allocatorIcEEEENS_14default_deleteIS6_EEEC1B8ne180100ILb1EvEEv
FNA:0,215,_ZNSt3__110unique_ptrINS_12basic_stringIcNS_11char_traitsIcEENS_9allocatorIcEEEENS_14default_deleteIS6_EEEC2B8ne180100ILb1EvEEv
FNL:1,174,175
FNA:1,130,_ZNSt3__110unique_ptrIKNS_12basic_stringIcNS_11char_traitsIcEENS_9allocatorIcEEEENS_14default_deleteIS7_EEEC1B8ne180100ILb1EvEEPS7_
FNA:1,130,_ZNSt3__110unique_ptrIKNS_12basic_stringIcNS_11char_traitsIcEENS_9allocatorIcEEEENS_14default_deleteIS7_EEEC2B8ne180100ILb1EvEEPS7_
FNA:1,4,_ZNSt3__110unique_ptrIN7testing8internal11ThreadLocalINS_6vectorINS2_9TraceInfoENS_9allocatorIS5_EEEEE18ValueHolderFactoryENS_14default_deleteISA_EEEC1B8ne180100ILb1EvEEPSA_
FNA:1,4,_ZNSt3__110unique_ptrIN7testing8internal11ThreadLocalINS_6vectorINS2_9TraceInfoENS_9allocatorIS5_EEEEE18ValueHolderFactoryENS_14default_deleteISA_EEEC2B8ne180100ILb1EvEEPSA_
FNA:1,4,_ZNSt3__110unique_ptrIN7testing8internal11ThreadLocalIPNS1_31TestPartResultReporterInterfaceEE18ValueHolderFactoryENS_14default_deleteIS7_EEEC1B8ne180100ILb1EvEEPS7_
FNA:1,4,_ZNSt3__110unique_ptrIN7testing8internal11ThreadLocalIPNS1_31TestPartResultReporterInterfaceEE18ValueHolderFactoryENS_14default_deleteIS7_EEEC2B8ne180100ILb1EvEEPS7_
FNA:1,63,_ZNSt3__110unique_ptrIN7testing8internal14GTestFlagSaverENS_14default_deleteIS3_EEEC1B8ne180100ILb1EvEEPS3_
FNA:1,63,_ZNSt3__110unique_ptrIN7testing8internal14GTestFlagSaverENS_14default_deleteIS3_EEEC2B8ne180100ILb1EvEEPS3_
FNA:1,4,_ZNSt3__110unique_ptrIN7testing8internal16DeathTestFactoryENS_14default_deleteIS3_EEEC1B8ne180100ILb1EvEEPS3_
FNA:1,4,_ZNSt3__110unique_ptrIN7testing8internal16DeathTestFactoryENS_14default_deleteIS3_EEEC2B8ne180100ILb1EvEEPS3_
FNA:1,3,_ZNSt3__110unique_ptrINS_12basic_stringIcNS_11char_traitsIcEENS_9allocatorIcEEEENS_14default_deleteIS6_EEEC1B8ne180100ILb1EvEEPS6_
FNA:1,3,_ZNSt3__110unique_ptrINS_12basic_stringIcNS_11char_traitsIcEENS_9allocatorIcEEEENS_14default_deleteIS6_EEEC2B8ne180100ILb1EvEEPS6_
FNA:1,10,_ZNSt3__110unique_ptrINS_15__thread_structENS_14default_deleteIS1_EEEC1B8ne180100ILb1EvEEPS1_
FNA:1,10,_ZNSt3__110unique_ptrINS_15__thread_structENS_14default_deleteIS1_EEEC2B8ne180100ILb1EvEEPS1_
FNA:1,331,_ZNSt3__110unique_ptrINS_18basic_stringstreamIcNS_11char_traitsIcEENS_9allocatorIcEEEENS_14default_deleteIS6_EEEC1B8ne180100ILb1EvEEPS6_
FNA:1,331,_ZNSt3__110unique_ptrINS_18basic_stringstreamIcNS_11char_traitsIcEENS_9allocatorIcEEEENS_14default_deleteIS6_EEEC2B8ne180100ILb1EvEEPS6_
FNA:1,20,_ZNSt3__110unique_ptrINS_5tupleIJNS0_INS_15__thread_structENS_14default_deleteIS2_EEEEZN36CoreTypesTest_BasicThreadSafety_Test8TestBodyEvE3$_0EEENS3_IS8_EEEC1B8ne180100ILb1EvEEPS8_
FNA:1,20,_ZNSt3__110unique_ptrINS_5tupleIJNS0_INS_15__thread_structENS_14default_deleteIS2_EEEEZN36CoreTypesTest_BasicThreadSafety_Test8TestBodyEvE3$_0EEENS3_IS8_EEEC2B8ne180100ILb1EvEEPS8_
FNL:2,182,185
FNA:2,0,_ZNSt3__110unique_ptrINS_11__hash_nodeINS_12basic_stringIcNS_11char_traitsIcEENS_9allocatorIcEEEEPvEENS_22__hash_node_destructorINS5_IS9_EEEEEC1B8ne180100ILb1EvEEPS9_NS_16__dependent_typeINS_27__unique_ptr_deleter_sfinaeISC_EEXT_EE20__good_rval_ref_typeE
FNA:2,0,_ZNSt3__110unique_ptrINS_11__hash_nodeINS_12basic_stringIcNS_11char_traitsIcEENS_9allocatorIcEEEEPvEENS_22__hash_node_destructorINS5_IS9_EEEEEC2B8ne180100ILb1EvEEPS9_NS_16__dependent_typeINS_27__unique_ptr_deleter_sfinaeISC_EEXT_EE20__good_rval_ref_typeE
FNA:2,0,_ZNSt3__110unique_ptrINS_11__tree_nodeINS_12__value_typeINS_12basic_stringIcNS_11char_traitsIcEENS_9allocatorIcEEEEN7testing8internal34TypeParameterizedTestSuiteRegistry30TypeParameterizedTestSuiteInfoEEEPvEENS_22__tree_node_destructorINS6_ISF_EEEEEC1B8ne180100ILb1EvEEPSF_NS_16__dependent_typeINS_27__unique_ptr_deleter_sfinaeISI_EEXT_EE20__good_rval_ref_typeE
FNA:2,0,_ZNSt3__110unique_ptrINS_11__tree_nodeINS_12__value_typeINS_12basic_stringIcNS_11char_traitsIcEENS_9allocatorIcEEEEN7testing8internal34TypeParameterizedTestSuiteRegistry30TypeParameterizedTestSuiteInfoEEEPvEENS_22__tree_node_destructorINS6_ISF_EEEEEC2B8ne180100ILb1EvEEPSF_NS_16__dependent_typeINS_27__unique_ptr_deleter_sfinaeISI_EEXT_EE20__good_rval_ref_typeE
FNA:2,1080,_ZNSt3__110unique_ptrINS_11__tree_nodeINS_12__value_typeINS_12basic_stringIcNS_11char_traitsIcEENS_9allocatorIcEEEEdEEPvEENS_22__tree_node_destructorINS6_ISB_EEEEEC1B8ne180100ILb1EvEEPSB_NS_16__dependent_typeINS_27__unique_ptr_deleter_sfinaeISE_EEXT_EE20__good_rval_ref_typeE
FNA:2,1080,_ZNSt3__110unique_ptrINS_11__tree_nodeINS_12__value_typeINS_12basic_stringIcNS_11char_traitsIcEENS_9allocatorIcEEEEdEEPvEENS_22__tree_node_destructorINS6_ISB_EEEEEC2B8ne180100ILb1EvEEPSB_NS_16__dependent_typeINS_27__unique_ptr_deleter_sfinaeISE_EEXT_EE20__good_rval_ref_typeE
FNA:2,0,_ZNSt3__110unique_ptrINS_11__tree_nodeINS_12__value_typeINS_12basic_stringIcNS_11char_traitsIcEENS_9allocatorIcEEEEmEEPvEENS_22__tree_node_destructorINS6_ISB_EEEEEC1B8ne180100ILb1EvEEPSB_NS_16__dependent_typeINS_27__unique_ptr_deleter_sfinaeISE_EEXT_EE20__good_rval_ref_typeE
FNA:2,0,_ZNSt3__110unique_ptrINS_11__tree_nodeINS_12__value_typeINS_12basic_stringIcNS_11char_traitsIcEENS_9allocatorIcEEEEmEEPvEENS_22__tree_node_destructorINS6_ISB_EEEEEC2B8ne180100ILb1EvEEPSB_NS_16__dependent_typeINS_27__unique_ptr_deleter_sfinaeISE_EEXT_EE20__good_rval_ref_typeE
FNA:2,0,_ZNSt3__110unique_ptrINS_11__tree_nodeINS_12basic_stringIcNS_11char_traitsIcEENS_9allocatorIcEEEEPvEENS_22__tree_node_destructorINS5_IS9_EEEEEC1B8ne180100ILb1EvEEPS9_NS_16__dependent_typeINS_27__unique_ptr_deleter_sfinaeISC_EEXT_EE20__good_rval_ref_typeE
FNA:2,0,_ZNSt3__110unique_ptrINS_11__tree_nodeINS_12basic_stringIcNS_11char_traitsIcEENS_9allocatorIcEEEEPvEENS_22__tree_node_destructorINS5_IS9_EEEEEC2B8ne180100ILb1EvEEPS9_NS_16__dependent_typeINS_27__unique_ptr_deleter_sfinaeISC_EEXT_EE20__good_rval_ref_typeE
FNA:2,48,_ZNSt3__110unique_ptrINS_11__tree_nodeINS_6chrono14year_month_dayEPvEENS_22__tree_node_destructorINS_9allocatorIS5_EEEEEC1B8ne180100ILb1EvEEPS5_NS_16__dependent_typeINS_27__unique_ptr_deleter_sfinaeIS9_EEXT_EE20__good_rval_ref_typeE
FNA:2,48,_ZNSt3__110unique_ptrINS_11__tree_nodeINS_6chrono14year_month_dayEPvEENS_22__tree_node_destructorINS_9allocatorIS5_EEEEEC2B8ne180100ILb1EvEEPS5_NS_16__dependent_typeINS_27__unique_ptr_deleter_sfinaeIS9_EEXT_EE20__good_rval_ref_typeE
FNL:3,190,191
FNA:3,10,_ZNSt3__110unique_ptrINS_15__thread_structENS_14default_deleteIS1_EEEC1B8ne180100EOS4_
FNA:3,10,_ZNSt3__110unique_ptrINS_15__thread_structENS_14default_deleteIS1_EEEC2B8ne180100EOS4_
FNL:4,236,236
FNA:4,0,_ZNSt3__110unique_ptrIKNS_12basic_stringIcNS_11char_traitsIcEENS_9allocatorIcEEEENS_14default_deleteIS7_EEED1B8ne180100Ev
FNA:4,0,_ZNSt3__110unique_ptrIKNS_12basic_stringIcNS_11char_traitsIcEENS_9allocatorIcEEEENS_14default_deleteIS7_EEED2B8ne180100Ev
FNA:4,0,_ZNSt3__110unique_ptrIN7testing8internal11ThreadLocalINS_6vectorINS2_9TraceInfoENS_9allocatorIS5_EEEEE18ValueHolderFactoryENS_14default_deleteISA_EEED1B8ne180100Ev
FNA:4,0,_ZNSt3__110unique_ptrIN7testing8internal11ThreadLocalINS_6vectorINS2_9TraceInfoENS_9allocatorIS5_EEEEE18ValueHolderFactoryENS_14default_deleteISA_EEED2B8ne180100Ev
FNA:4,0,_ZNSt3__110unique_ptrIN7testing8internal11ThreadLocalIPNS1_31TestPartResultReporterInterfaceEE18ValueHolderFactoryENS_14default_deleteIS7_EEED1B8ne180100Ev
FNA:4,0,_ZNSt3__110unique_ptrIN7testing8internal11ThreadLocalIPNS1_31TestPartResultReporterInterfaceEE18ValueHolderFactoryENS_14default_deleteIS7_EEED2B8ne180100Ev
FNA:4,63,_ZNSt3__110unique_ptrIN7testing8internal14GTestFlagSaverENS_14default_deleteIS3_EEED1B8ne180100Ev
FNA:4,63,_ZNSt3__110unique_ptrIN7testing8internal14GTestFlagSaverENS_14default_deleteIS3_EEED2B8ne180100Ev
FNA:4,0,_ZNSt3__110unique_ptrIN7testing8internal16DeathTestFactoryENS_14default_deleteIS3_EEED1B8ne180100Ev
FNA:4,0,_ZNSt3__110unique_ptrIN7testing8internal16DeathTestFactoryENS_14default_deleteIS3_EEED2B8ne180100Ev
FNA:4,0,_ZNSt3__110unique_ptrIN7testing8internal24InternalRunDeathTestFlagENS_14default_deleteIS3_EEED1B8ne180100Ev
FNA:4,0,_ZNSt3__110unique_ptrIN7testing8internal24InternalRunDeathTestFlagENS_14default_deleteIS3_EEED2B8ne180100Ev
FNA:4,0,_ZNSt3__110unique_ptrINS_11__hash_nodeINS_12basic_stringIcNS_11char_traitsIcEENS_9allocatorIcEEEEPvEENS_22__hash_node_destructorINS5_IS9_EEEEED1B8ne180100Ev
FNA:4,0,_ZNSt3__110unique_ptrINS_11__hash_nodeINS_12basic_stringIcNS_11char_traitsIcEENS_9allocatorIcEEEEPvEENS_22__hash_node_destructorINS5_IS9_EEEEED2B8ne180100Ev
FNA:4,0,_ZNSt3__110unique_ptrINS_11__tree_nodeINS_12__value_typeINS_12basic_stringIcNS_11char_traitsIcEENS_9allocatorIcEEEEN7testing8internal34TypeParameterizedTestSuiteRegistry30TypeParameterizedTestSuiteInfoEEEPvEENS_22__tree_node_destructorINS6_ISF_EEEEED1B8ne180100Ev
FNA:4,0,_ZNSt3__110unique_ptrINS_11__tree_nodeINS_12__value_typeINS_12basic_stringIcNS_11char_traitsIcEENS_9allocatorIcEEEEN7testing8internal34TypeParameterizedTestSuiteRegistry30TypeParameterizedTestSuiteInfoEEEPvEENS_22__tree_node_destructorINS6_ISF_EEEEED2B8ne180100Ev
FNA:4,1080,_ZNSt3__110unique_ptrINS_11__tree_nodeINS_12__value_typeINS_12basic_stringIcNS_11char_traitsIcEENS_9allocatorIcEEEEdEEPvEENS_22__tree_node_destructorINS6_ISB_EEEEED1B8ne180100Ev
FNA:4,1080,_ZNSt3__110unique_ptrINS_11__tree_nodeINS_12__value_typeINS_12basic_stringIcNS_11char_traitsIcEENS_9allocatorIcEEEEdEEPvEENS_22__tree_node_destructorINS6_ISB_EEEEED2B8ne180100Ev
FNA:4,0,_ZNSt3__110unique_ptrINS_11__tree_nodeINS_12__value_typeINS_12basic_stringIcNS_11char_traitsIcEENS_9allocatorIcEEEEmEEPvEENS_22__tree_node_destructorINS6_ISB_EEEEED1B8ne180100Ev
FNA:4,0,_ZNSt3__110unique_ptrINS_11__tree_nodeINS_12__value_typeINS_12basic_stringIcNS_11char_traitsIcEENS_9allocatorIcEEEEmEEPvEENS_22__tree_node_destructorINS6_ISB_EEEEED2B8ne180100Ev
FNA:4,0,_ZNSt3__110unique_ptrINS_11__tree_nodeINS_12basic_stringIcNS_11char_traitsIcEENS_9allocatorIcEEEEPvEENS_22__tree_node_destructorINS5_IS9_EEEEED1B8ne180100Ev
FNA:4,0,_ZNSt3__110unique_ptrINS_11__tree_nodeINS_12basic_stringIcNS_11char_traitsIcEENS_9allocatorIcEEEEPvEENS_22__tree_node_destructorINS5_IS9_EEEEED2B8ne180100Ev
FNA:4,48,_ZNSt3__110unique_ptrINS_11__tree_nodeINS_6chrono14year_month_dayEPvEENS_22__tree_node_destructorINS_9allocatorIS5_EEEEED1B8ne180100Ev
FNA:4,48,_ZNSt3__110unique_ptrINS_11__tree_nodeINS_6chrono14year_month_dayEPvEENS_22__tree_node_destructorINS_9allocatorIS5_EEEEED2B8ne180100Ev
FNA:4,218,_ZNSt3__110unique_ptrINS_12basic_stringIcNS_11char_traitsIcEENS_9allocatorIcEEEENS_14default_deleteIS6_EEED1B8ne180100Ev
FNA:4,218,_ZNSt3__110unique_ptrINS_12basic_stringIcNS_11char_traitsIcEENS_9allocatorIcEEEENS_14default_deleteIS6_EEED2B8ne180100Ev
FNA:4,20,_ZNSt3__110unique_ptrINS_15__thread_structENS_14default_deleteIS1_EEED1B8ne180100Ev
FNA:4,20,_ZNSt3__110unique_ptrINS_15__thread_structENS_14default_deleteIS1_EEED2B8ne180100Ev
FNA:4,331,_ZNSt3__110unique_ptrINS_18basic_stringstreamIcNS_11char_traitsIcEENS_9allocatorIcEEEENS_14default_deleteIS6_EEED1B8ne180100Ev
FNA:4,331,_ZNSt3__110unique_ptrINS_18basic_stringstreamIcNS_11char_traitsIcEENS_9allocatorIcEEEENS_14default_deleteIS6_EEED2B8ne180100Ev
FNA:4,20,_ZNSt3__110unique_ptrINS_5tupleIJNS0_INS_15__thread_structENS_14default_deleteIS2_EEEEZN36CoreTypesTest_BasicThreadSafety_Test8TestBodyEvE3$_0EEENS3_IS8_EEED1B8ne180100Ev
FNA:4,20,_ZNSt3__110unique_ptrINS_5tupleIJNS0_INS_15__thread_structENS_14default_deleteIS2_EEEEZN36CoreTypesTest_BasicThreadSafety_Test8TestBodyEvE3$_0EEENS3_IS8_EEED2B8ne180100Ev
FNL:5,243,244
FNA:5,0,_ZNKSt3__110unique_ptrINS_11__hash_nodeINS_12basic_stringIcNS_11char_traitsIcEENS_9allocatorIcEEEEPvEENS_22__hash_node_destructorINS5_IS9_EEEEEdeB8ne180100Ev
FNA:5,3,_ZNKSt3__110unique_ptrINS_12basic_stringIcNS_11char_traitsIcEENS_9allocatorIcEEEENS_14default_deleteIS6_EEEdeB8ne180100Ev
FNA:5,2367,_ZNKSt3__110unique_ptrINS_18basic_stringstreamIcNS_11char_traitsIcEENS_9allocatorIcEEEENS_14default_deleteIS6_EEEdeB8ne180100Ev
FNL:6,246,246
FNA:6,0,_ZNKSt3__110unique_ptrIKNS_12basic_stringIcNS_11char_traitsIcEENS_9allocatorIcEEEENS_14default_deleteIS7_EEEptB8ne180100Ev
FNA:6,1,_ZNKSt3__110unique_ptrIN7testing8internal11ThreadLocalINS_6vectorINS2_9TraceInfoENS_9allocatorIS5_EEEEE18ValueHolderFactoryENS_14default_deleteISA_EEEptB8ne180100Ev
FNA:6,1,_ZNKSt3__110unique_ptrIN7testing8internal11ThreadLocalIPNS1_31TestPartResultReporterInterfaceEE18ValueHolderFactoryENS_14default_deleteIS7_EEEptB8ne180100Ev
FNA:6,0,_ZNKSt3__110unique_ptrINS_11__hash_nodeINS_12basic_stringIcNS_11char_traitsIcEENS_9allocatorIcEEEEPvEENS_22__hash_node_destructorINS5_IS9_EEEEEptB8ne180100Ev
FNA:6,0,_ZNKSt3__110unique_ptrINS_11__tree_nodeINS_12__value_typeINS_12basic_stringIcNS_11char_traitsIcEENS_9allocatorIcEEEEN7testing8internal34TypeParameterizedTestSuiteRegistry30TypeParameterizedTestSuiteInfoEEEPvEENS_22__tree_node_destructorINS6_ISF_EEEEEptB8ne180100Ev
FNA:6,1080,_ZNKSt3__110unique_ptrINS_11__tree_nodeINS_12__value_typeINS_12basic_stringIcNS_11char_traitsIcEENS_9allocatorIcEEEEdEEPvEENS_22__tree_node_destructorINS6_ISB_EEEEEptB8ne180100Ev
FNA:6,0,_ZNKSt3__110unique_ptrINS_11__tree_nodeINS_12__value_typeINS_12basic_stringIcNS_11char_traitsIcEENS_9allocatorIcEEEEmEEPvEENS_22__tree_node_destructorINS6_ISB_EEEEEptB8ne180100Ev
FNA:6,0,_ZNKSt3__110unique_ptrINS_11__tree_nodeINS_12basic_stringIcNS_11char_traitsIcEENS_9allocatorIcEEEEPvEENS_22__tree_node_destructorINS5_IS9_EEEEEptB8ne180100Ev
FNA:6,48,_ZNKSt3__110unique_ptrINS_11__tree_nodeINS_6chrono14year_month_dayEPvEENS_22__tree_node_destructorINS_9allocatorIS5_EEEEEptB8ne180100Ev
FNA:6,24,_ZNKSt3__110unique_ptrINS_12basic_stringIcNS_11char_traitsIcEENS_9allocatorIcEEEENS_14default_deleteIS6_EEEptB8ne180100Ev
FNL:7,247,247
FNA:7,83,_ZNKSt3__110unique_ptrIKNS_12basic_stringIcNS_11char_traitsIcEENS_9allocatorIcEEEENS_14default_deleteIS7_EEE3getB8ne180100Ev
FNA:7,0,_ZNKSt3__110unique_ptrIN7testing8internal16DeathTestFactoryENS_14default_deleteIS3_EEE3getB8ne180100Ev
FNA:7,8,_ZNKSt3__110unique_ptrIN7testing8internal24InternalRunDeathTestFlagENS_14default_deleteIS3_EEE3getB8ne180100Ev
FNA:7,0,_ZNKSt3__110unique_ptrINS_11__hash_nodeINS_12basic_stringIcNS_11char_traitsIcEENS_9allocatorIcEEEEPvEENS_22__hash_node_destructorINS5_IS9_EEEEE3getB8ne180100Ev
FNA:7,0,_ZNKSt3__110unique_ptrINS_11__tree_nodeINS_12__value_typeINS_12basic_stringIcNS_11char_traitsIcEENS_9allocatorIcEEEEN7testing8internal34TypeParameterizedTestSuiteRegistry30TypeParameterizedTestSuiteInfoEEEPvEENS_22__tree_node_destructorINS6_ISF_EEEEE3getB8ne180100Ev
FNA:7,1080,_ZNKSt3__110unique_ptrINS_11__tree_nodeINS_12__value_typeINS_12basic_stringIcNS_11char_traitsIcEENS_9allocatorIcEEEEdEEPvEENS_22__tree_node_destructorINS6_ISB_EEEEE3getB8ne180100Ev
FNA:7,0,_ZNKSt3__110unique_ptrINS_11__tree_nodeINS_12__value_typeINS_12basic_stringIcNS_11char_traitsIcEENS_9allocatorIcEEEEmEEPvEENS_22__tree_node_destructorINS6_ISB_EEEEE3getB8ne180100Ev
FNA:7,0,_ZNKSt3__110unique_ptrINS_11__tree_nodeINS_12basic_stringIcNS_11char_traitsIcEENS_9allocatorIcEEEEPvEENS_22__tree_node_destructorINS5_IS9_EEEEE3getB8ne180100Ev
FNA:7,48,_ZNKSt3__110unique_ptrINS_11__tree_nodeINS_6chrono14year_month_dayEPvEENS_22__tree_node_destructorINS_9allocatorIS5_EEEEE3getB8ne180100Ev
FNA:7,32,_ZNKSt3__110unique_ptrINS_12basic_stringIcNS_11char_traitsIcEENS_9allocatorIcEEEENS_14default_deleteIS6_EEE3getB8ne180100Ev
FNA:7,331,_ZNKSt3__110unique_ptrINS_18basic_stringstreamIcNS_11char_traitsIcEENS_9allocatorIcEEEENS_14default_deleteIS6_EEE3getB8ne180100Ev
FNA:7,30,_ZNKSt3__110unique_ptrINS_5tupleIJNS0_INS_15__thread_structENS_14default_deleteIS2_EEEEZN36CoreTypesTest_BasicThreadSafety_Test8TestBodyEvE3$_0EEENS3_IS8_EEE3getB8ne180100Ev
FNL:8,248,248
FNA:8,0,_ZNSt3__110unique_ptrINS_11__hash_nodeINS_12basic_stringIcNS_11char_traitsIcEENS_9allocatorIcEEEEPvEENS_22__hash_node_destructorINS5_IS9_EEEEE11get_deleterB8ne180100Ev
FNA:8,0,_ZNSt3__110unique_ptrINS_11__tree_nodeINS_12__value_typeINS_12basic_stringIcNS_11char_traitsIcEENS_9allocatorIcEEEEN7testing8internal34TypeParameterizedTestSuiteRegistry30TypeParameterizedTestSuiteInfoEEEPvEENS_22__tree_node_destructorINS6_ISF_EEEEE11get_deleterB8ne180100Ev
FNA:8,1080,_ZNSt3__110unique_ptrINS_11__tree_nodeINS_12__value_typeINS_12basic_stringIcNS_11char_traitsIcEENS_9allocatorIcEEEEdEEPvEENS_22__tree_node_destructorINS6_ISB_EEEEE11get_deleterB8ne180100Ev
FNA:8,0,_ZNSt3__110unique_ptrINS_11__tree_nodeINS_12__value_typeINS_12basic_stringIcNS_11char_traitsIcEENS_9allocatorIcEEEEmEEPvEENS_22__tree_node_destructorINS6_ISB_EEEEE11get_deleterB8ne180100Ev
FNA:8,0,_ZNSt3__110unique_ptrINS_11__tree_nodeINS_12basic_stringIcNS_11char_traitsIcEENS_9allocatorIcEEEEPvEENS_22__tree_node_destructorINS5_IS9_EEEEE11get_deleterB8ne180100Ev
FNA:8,48,_ZNSt3__110unique_ptrINS_11__tree_nodeINS_6chrono14year_month_dayEPvEENS_22__tree_node_destructorINS_9allocatorIS5_EEEEE11get_deleterB8ne180100Ev
FNA:8,10,_ZNSt3__110unique_ptrINS_15__thread_structENS_14default_deleteIS1_EEE11get_deleterB8ne180100Ev
FNL:9,256,259
FNA:9,0,_ZNSt3__110unique_ptrINS_11__hash_nodeINS_12basic_stringIcNS_11char_traitsIcEENS_9allocatorIcEEEEPvEENS_22__hash_node_destructorINS5_IS9_EEEEE7releaseB8ne180100Ev
FNA:9,0,_ZNSt3__110unique_ptrINS_11__tree_nodeINS_12__value_typeINS_12basic_stringIcNS_11char_traitsIcEENS_9allocatorIcEEEEN7testing8internal34TypeParameterizedTestSuiteRegistry30TypeParameterizedTestSuiteInfoEEEPvEENS_22__tree_node_destructorINS6_ISF_EEEEE7releaseB8ne180100Ev
FNA:9,1080,_ZNSt3__110unique_ptrINS_11__tree_nodeINS_12__value_typeINS_12basic_stringIcNS_11char_traitsIcEENS_9allocatorIcEEEEdEEPvEENS_22__tree_node_destructorINS6_ISB_EEEEE7releaseB8ne180100Ev
FNA:9,0,_ZNSt3__110unique_ptrINS_11__tree_nodeINS_12__value_typeINS_12basic_stringIcNS_11char_traitsIcEENS_9allocatorIcEEEEmEEPvEENS_22__tree_node_destructorINS6_ISB_EEEEE7releaseB8ne180100Ev
FNA:9,0,_ZNSt3__110unique_ptrINS_11__tree_nodeINS_12basic_stringIcNS_11char_traitsIcEENS_9allocatorIcEEEEPvEENS_22__tree_node_destructorINS5_IS9_EEEEE7releaseB8ne180100Ev
FNA:9,48,_ZNSt3__110unique_ptrINS_11__tree_nodeINS_6chrono14year_month_dayEPvEENS_22__tree_node_destructorINS_9allocatorIS5_EEEEE7releaseB8ne180100Ev
FNA:9,20,_ZNSt3__110unique_ptrINS_15__thread_structENS_14default_deleteIS1_EEE7releaseB8ne180100Ev
FNA:9,10,_ZNSt3__110unique_ptrINS_5tupleIJNS0_INS_15__thread_structENS_14default_deleteIS2_EEEEZN36CoreTypesTest_BasicThreadSafety_Test8TestBodyEvE3$_0EEENS3_IS8_EEE7releaseB8ne180100Ev
FNL:10,262,267
FNA:10,0,_ZNSt3__110unique_ptrIKNS_12basic_stringIcNS_11char_traitsIcEENS_9allocatorIcEEEENS_14default_deleteIS7_EEE5resetB8ne180100EPS7_
FNA:10,0,_ZNSt3__110unique_ptrIN7testing8internal11ThreadLocalINS_6vectorINS2_9TraceInfoENS_9allocatorIS5_EEEEE18ValueHolderFactoryENS_14default_deleteISA_EEE5resetB8ne180100EPSA_
FNA:10,0,_ZNSt3__110unique_ptrIN7testing8internal11ThreadLocalIPNS1_31TestPartResultReporterInterfaceEE18ValueHolderFactoryENS_14default_deleteIS7_EEE5resetB8ne180100EPS7_
FNA:10,63,_ZNSt3__110unique_ptrIN7testing8internal14GTestFlagSaverENS_14default_deleteIS3_EEE5resetB8ne180100EPS3_
FNA:10,0,_ZNSt3__110unique_ptrIN7testing8internal16DeathTestFactoryENS_14default_deleteIS3_EEE5resetB8ne180100EPS3_
FNA:10,4,_ZNSt3__110unique_ptrIN7testing8internal24InternalRunDeathTestFlagENS_14default_deleteIS3_EEE5resetB8ne180100EPS3_
FNA:10,0,_ZNSt3__110unique_ptrINS_11__hash_nodeINS_12basic_stringIcNS_11char_traitsIcEENS_9allocatorIcEEEEPvEENS_22__hash_node_destructorINS5_IS9_EEEEE5resetB8ne180100EPS9_
FNA:10,0,_ZNSt3__110unique_ptrINS_11__tree_nodeINS_12__value_typeINS_12basic_stringIcNS_11char_traitsIcEENS_9allocatorIcEEEEN7testing8internal34TypeParameterizedTestSuiteRegistry30TypeParameterizedTestSuiteInfoEEEPvEENS_22__tree_node_destructorINS6_ISF_EEEEE5resetB8ne180100EPSF_
FNA:10,1080,_ZNSt3__110unique_ptrINS_11__tree_nodeINS_12__value_typeINS_12basic_stringIcNS_11char_traitsIcEENS_9allocatorIcEEEEdEEPvEENS_22__tree_node_destructorINS6_ISB_EEEEE5resetB8ne180100EPSB_
FNA:10,0,_ZNSt3__110unique_ptrINS_11__tree_nodeINS_12__value_typeINS_12basic_stringIcNS_11char_traitsIcEENS_9allocatorIcEEEEmEEPvEENS_22__tree_node_destructorINS6_ISB_EEEEE5resetB8ne180100EPSB_
FNA:10,0,_ZNSt3__110unique_ptrINS_11__tree_nodeINS_12basic_stringIcNS_11char_traitsIcEENS_9allocatorIcEEEEPvEENS_22__tree_node_destructorINS5_IS9_EEEEE5resetB8ne180100EPS9_
FNA:10,48,_ZNSt3__110unique_ptrINS_11__tree_nodeINS_6chrono14year_month_dayEPvEENS_22__tree_node_destructorINS_9allocatorIS5_EEEEE5resetB8ne180100EPS5_
FNA:10,221,_ZNSt3__110unique_ptrINS_12basic_stringIcNS_11char_traitsIcEENS_9allocatorIcEEEENS_14default_deleteIS6_EEE5resetB8ne180100EPS6_
FNA:10,20,_ZNSt3__110unique_ptrINS_15__thread_structENS_14default_deleteIS1_EEE5resetB8ne180100EPS1_
FNA:10,331,_ZNSt3__110unique_ptrINS_18basic_stringstreamIcNS_11char_traitsIcEENS_9allocatorIcEEEENS_14default_deleteIS6_EEE5resetB8ne180100EPS6_
FNA:10,20,_ZNSt3__110unique_ptrINS_5tupleIJNS0_INS_15__thread_structENS_14default_deleteIS2_EEEEZN36CoreTypesTest_BasicThreadSafety_Test8TestBodyEvE3$_0EEENS3_IS8_EEE5resetB8ne180100EPS8_
FNL:11,269,269
FNA:11,0,_ZNSt3__110unique_ptrINS_12basic_stringIcNS_11char_traitsIcEENS_9allocatorIcEEEENS_14default_deleteIS6_EEE4swapB8ne180100ERS9_
FNL:12,329,329
FNA:12,20,_ZNSt3__110unique_ptrIA_PNS_16__hash_node_baseIPNS_11__hash_nodeINS_12basic_stringIcNS_11char_traitsIcEENS_9allocatorIcEEEEPvEEEENS_25__bucket_list_deallocatorINS6_ISD_EEEEEC1B8ne180100ILb1EvEEv
FNA:12,20,_ZNSt3__110unique_ptrIA_PNS_16__hash_node_baseIPNS_11__hash_nodeINS_12basic_stringIcNS_11char_traitsIcEENS_9allocatorIcEEEEPvEEEENS_25__bucket_list_deallocatorINS6_ISD_EEEEEC2B8ne180100ILb1EvEEv
FNL:13,406,406
FNA:13,20,_ZNSt3__110unique_ptrIA_PNS_16__hash_node_baseIPNS_11__hash_nodeINS_12basic_stringIcNS_11char_traitsIcEENS_9allocatorIcEEEEPvEEEENS_25__bucket_list_deallocatorINS6_ISD_EEEEED1B8ne180100Ev
FNA:13,20,_ZNSt3__110unique_ptrIA_PNS_16__hash_node_baseIPNS_11__hash_nodeINS_12basic_stringIcNS_11char_traitsIcEENS_9allocatorIcEEEEPvEEEENS_25__bucket_list_deallocatorINS6_ISD_EEEEED2B8ne180100Ev
FNL:14,413,414
FNA:14,0,_ZNKSt3__110unique_ptrIA_PNS_16__hash_node_baseIPNS_11__hash_nodeINS_12basic_stringIcNS_11char_traitsIcEENS_9allocatorIcEEEEPvEEEENS_25__bucket_list_deallocatorINS6_ISD_EEEEEixB8ne180100Em
FNL:15,418,418
FNA:15,20,_ZNSt3__110unique_ptrIA_PNS_16__hash_node_baseIPNS_11__hash_nodeINS_12basic_stringIcNS_11char_traitsIcEENS_9allocatorIcEEEEPvEEEENS_25__bucket_list_deallocatorINS6_ISD_EEEEE11get_deleterB8ne180100Ev
FNL:16,420,421
FNA:16,256,_ZNKSt3__110unique_ptrIA_PNS_16__hash_node_baseIPNS_11__hash_nodeINS_12basic_stringIcNS_11char_traitsIcEENS_9allocatorIcEEEEPvEEEENS_25__bucket_list_deallocatorINS6_ISD_EEEEE11get_deleterB8ne180100Ev
FNL:17,427,430
FNA:17,4,_ZNSt3__110unique_ptrIA_PNS_16__hash_node_baseIPNS_11__hash_nodeINS_12basic_stringIcNS_11char_traitsIcEENS_9allocatorIcEEEEPvEEEENS_25__bucket_list_deallocatorINS6_ISD_EEEEE7releaseB8ne180100Ev
FNL:18,434,439
FNA:18,4,_ZNSt3__110unique_ptrIA_PNS_16__hash_node_baseIPNS_11__hash_nodeINS_12basic_stringIcNS_11char_traitsIcEENS_9allocatorIcEEEEPvEEEENS_25__bucket_list_deallocatorINS6_ISD_EEEEE5resetB8ne180100IPSD_Li0EEEvT_
FNL:19,441,446
FNA:19,20,_ZNSt3__110unique_ptrIA_PNS_16__hash_node_baseIPNS_11__hash_nodeINS_12basic_stringIcNS_11char_traitsIcEENS_9allocatorIcEEEEPvEEEENS_25__bucket_list_deallocatorINS6_ISD_EEEEE5resetB8ne180100EDn
FNL:20,453,455
FNA:20,0,_ZNSt3__14swapB8ne180100INS_12basic_stringIcNS_11char_traitsIcEENS_9allocatorIcEEEENS_14default_deleteIS6_EELi0EEEvRNS_10unique_ptrIT_T0_EESD_
FNL:21,63,67
FNA:21,0,_ZNKSt3__114default_deleteIKNS_12basic_stringIcNS_11char_traitsIcEENS_9allocatorIcEEEEEclB8ne180100EPS7_
FNA:21,0,_ZNKSt3__114default_deleteIN7testing8internal11ThreadLocalINS_6vectorINS2_9TraceInfoENS_9allocatorIS5_EEEEE18ValueHolderFactoryEEclB8ne180100EPSA_
FNA:21,0,_ZNKSt3__114default_deleteIN7testing8internal11ThreadLocalIPNS1_31TestPartResultReporterInterfaceEE18ValueHolderFactoryEEclB8ne180100EPS7_
FNA:21,63,_ZNKSt3__114default_deleteIN7testing8internal14GTestFlagSaverEEclB8ne180100EPS3_
FNA:21,0,_ZNKSt3__114default_deleteIN7testing8internal16DeathTestFactoryEEclB8ne180100EPS3_
FNA:21,0,_ZNKSt3__114default_deleteIN7testing8internal24InternalRunDeathTestFlagEEclB8ne180100EPS3_
FNA:21,6,_ZNKSt3__114default_deleteINS_12basic_stringIcNS_11char_traitsIcEENS_9allocatorIcEEEEEclB8ne180100EPS6_
FNA:21,0,_ZNKSt3__114default_deleteINS_15__thread_structEEclB8ne180100EPS1_
FNA:21,331,_ZNKSt3__114default_deleteINS_18basic_stringstreamIcNS_11char_traitsIcEENS_9allocatorIcEEEEEclB8ne180100EPS6_
FNA:21,10,_ZNKSt3__114default_deleteINS_5tupleIJNS_10unique_ptrINS_15__thread_structENS0_IS3_EEEEZN36CoreTypesTest_BasicThreadSafety_Test8TestBodyEvE3$_0EEEEclB8ne180100EPS8_
FNF:22
FNH:19
DA:63,410
DA:66,410
DA:67,410
DA:167,438
DA:174,1138
DA:175,1138
DA:182,2256
DA:183,2256
DA:185,2256
DA:190,20
DA:191,20
DA:236,3560
DA:243,2370
DA:244,2370
DA:246,1154
DA:247,1612
DA:248,1138
DA:256,1158
DA:257,1158
DA:258,1158
DA:259,1158
DA:262,1787
DA:263,1787
DA:264,1787
DA:265,1787
DA:266,410
DA:267,1787
DA:269,0
DA:329,40
DA:406,40
DA:413,0
DA:414,0
DA:418,20
DA:420,256
DA:421,256
DA:427,4
DA:428,4
DA:429,4
DA:430,4
DA:434,4
DA:435,4
DA:436,4
DA:437,4
DA:438,0
DA:439,4
DA:441,20
DA:442,20
DA:443,20
DA:444,20
DA:445,0
DA:446,20
DA:453,0
DA:454,0
DA:455,0
LF:54
LH:46
end_of_record
TN:
SF:/Library/Developer/CommandLineTools/SDKs/MacOSX.sdk/usr/include/c++/v1/__numeric/accumulate.h
FNL:0,27,34
FNA:0,12,_ZNSt3__110accumulateB8ne180100INS_11__wrap_iterIPKdEEdEET0_T_S6_S5_
FNA:0,1,_ZNSt3__110accumulateB8ne180100INS_11__wrap_iterIPdEEdEET0_T_S5_S4_
FNF:1
FNH:1
DA:27,13
DA:28,103
DA:30,90
DA:34,13
LF:4
LH:4
end_of_record
TN:
SF:/Library/Developer/CommandLineTools/SDKs/MacOSX.sdk/usr/include/c++/v1/__ranges/data.h
FNL:0,54,55
FNA:0,8,_ZNKSt3__16ranges6__data4__fnclB8ne180100IRNS_6vectorIdNS_9allocatorIdEEEEEEDaOT_
FNF:1
FNH:1
DA:54,8
DA:55,8
LF:2
LH:2
end_of_record
TN:
SF:/Library/Developer/CommandLineTools/SDKs/MacOSX.sdk/usr/include/c++/v1/__ranges/size.h
FNL:0,83,85
FNA:0,8,_ZNKSt3__16ranges6__size4__fnclB8ne180100IRNS_6vectorIdNS_9allocatorIdEEEEEEDaOT_
FNF:1
FNH:1
DA:83,8
DA:85,8
LF:2
LH:2
end_of_record
TN:
SF:/Library/Developer/CommandLineTools/SDKs/MacOSX.sdk/usr/include/c++/v1/__split_buffer
FNL:0,104
FNA:0,1,_ZNSt3__114__split_bufferIN7pyfolio8DateTimeERNS_9allocatorIS2_EEE7__allocB8ne180100Ev
FNA:0,0,_ZNSt3__114__split_bufferIN7testing12TestPropertyERNS_9allocatorIS2_EEE7__allocB8ne180100Ev
FNA:0,17,_ZNSt3__114__split_bufferIN7testing14TestPartResultERNS_9allocatorIS2_EEE7__allocB8ne180100Ev
FNA:0,0,_ZNSt3__114__split_bufferIN7testing8internal13edit_distance8EditTypeERNS_9allocatorIS4_EEE7__allocB8ne180100Ev
FNA:0,0,_ZNSt3__114__split_bufferIN7testing8internal9TraceInfoERNS_9allocatorIS3_EEE7__allocB8ne180100Ev
FNA:0,58,_ZNSt3__114__split_bufferINS_12basic_stringIcNS_11char_traitsIcEENS_9allocatorIcEEEERNS4_IS6_EEE7__allocB8ne180100Ev
FNA:0,0,_ZNSt3__114__split_bufferINS_4pairIN7pyfolio8DateTimeEdEERNS_9allocatorIS4_EEE7__allocB8ne180100Ev
FNA:0,24,_ZNSt3__114__split_bufferINS_6threadERNS_9allocatorIS1_EEE7__allocB8ne180100Ev
FNA:0,0,_ZNSt3__114__split_bufferIPN7testing11EnvironmentERNS_9allocatorIS3_EEE7__allocB8ne180100Ev
FNA:0,4,_ZNSt3__114__split_bufferIPN7testing17TestEventListenerERNS_9allocatorIS3_EEE7__allocB8ne180100Ev
FNA:0,150,_ZNSt3__114__split_bufferIPN7testing8TestInfoERNS_9allocatorIS3_EEE7__allocB8ne180100Ev
FNA:0,4,_ZNSt3__114__split_bufferIPN7testing9TestSuiteERNS_9allocatorIS3_EEE7__allocB8ne180100Ev
FNA:0,0,_ZNSt3__114__split_bufferIPcRNS_9allocatorIS1_EEE7__allocB8ne180100Ev
FNA:0,83,_ZNSt3__114__split_bufferIdRNS_9allocatorIdEEE7__allocB8ne180100Ev
FNA:0,154,_ZNSt3__114__split_bufferIiRNS_9allocatorIiEEE7__allocB8ne180100Ev
FNA:0,0,_ZNSt3__114__split_bufferImRNS_9allocatorImEEE7__allocB8ne180100Ev
FNL:1,109
FNA:1,2,_ZNSt3__114__split_bufferIN7pyfolio8DateTimeERNS_9allocatorIS2_EEE9__end_capB8ne180100Ev
FNA:1,0,_ZNSt3__114__split_bufferIN7testing12TestPropertyERNS_9allocatorIS2_EEE9__end_capB8ne180100Ev
FNA:1,14,_ZNSt3__114__split_bufferIN7testing14TestPartResultERNS_9allocatorIS2_EEE9__end_capB8ne180100Ev
FNA:1,0,_ZNSt3__114__split_bufferIN7testing8internal13edit_distance8EditTypeERNS_9allocatorIS4_EEE9__end_capB8ne180100Ev
FNA:1,0,_ZNSt3__114__split_bufferIN7testing8internal9TraceInfoERNS_9allocatorIS3_EEE9__end_capB8ne180100Ev
FNA:1,84,_ZNSt3__114__split_bufferINS_12basic_stringIcNS_11char_traitsIcEENS_9allocatorIcEEEERNS4_IS6_EEE9__end_capB8ne180100Ev
FNA:1,0,_ZNSt3__114__split_bufferINS_4pairIN7pyfolio8DateTimeEdEERNS_9allocatorIS4_EEE9__end_capB8ne180100Ev
FNA:1,10,_ZNSt3__114__split_bufferINS_6threadERNS_9allocatorIS1_EEE9__end_capB8ne180100Ev
FNA:1,0,_ZNSt3__114__split_bufferIPN7testing11EnvironmentERNS_9allocatorIS3_EEE9__end_capB8ne180100Ev
FNA:1,8,_ZNSt3__114__split_bufferIPN7testing17TestEventListenerERNS_9allocatorIS3_EEE9__end_capB8ne180100Ev
FNA:1,46,_ZNSt3__114__split_bufferIPN7testing8TestInfoERNS_9allocatorIS3_EEE9__end_capB8ne180100Ev
FNA:1,8,_ZNSt3__114__split_bufferIPN7testing9TestSuiteERNS_9allocatorIS3_EEE9__end_capB8ne180100Ev
FNA:1,0,_ZNSt3__114__split_bufferIPcRNS_9allocatorIS1_EEE9__end_capB8ne180100Ev
FNA:1,50,_ZNSt3__114__split_bufferIdRNS_9allocatorIdEEE9__end_capB8ne180100Ev
FNA:1,54,_ZNSt3__114__split_bufferIiRNS_9allocatorIiEEE9__end_capB8ne180100Ev
FNA:1,0,_ZNSt3__114__split_bufferImRNS_9allocatorImEEE9__end_capB8ne180100Ev
FNL:2,110
FNA:2,0,_ZNKSt3__114__split_bufferIN7pyfolio8DateTimeERNS_9allocatorIS2_EEE9__end_capB8ne180100Ev
FNA:2,0,_ZNKSt3__114__split_bufferIN7testing12TestPropertyERNS_9allocatorIS2_EEE9__end_capB8ne180100Ev
FNA:2,3,_ZNKSt3__114__split_bufferIN7testing14TestPartResultERNS_9allocatorIS2_EEE9__end_capB8ne180100Ev
FNA:2,0,_ZNKSt3__114__split_bufferIN7testing8internal13edit_distance8EditTypeERNS_9allocatorIS4_EEE9__end_capB8ne180100Ev
FNA:2,0,_ZNKSt3__114__split_bufferIN7testing8internal9TraceInfoERNS_9allocatorIS3_EEE9__end_capB8ne180100Ev
FNA:2,8,_ZNKSt3__114__split_bufferINS_12basic_stringIcNS_11char_traitsIcEENS_9allocatorIcEEEERNS4_IS6_EEE9__end_capB8ne180100Ev
FNA:2,0,_ZNKSt3__114__split_bufferINS_4pairIN7pyfolio8DateTimeEdEERNS_9allocatorIS4_EEE9__end_capB8ne180100Ev
FNA:2,4,_ZNKSt3__114__split_bufferINS_6threadERNS_9allocatorIS1_EEE9__end_capB8ne180100Ev
FNA:2,0,_ZNKSt3__114__split_bufferIPN7testing11EnvironmentERNS_9allocatorIS3_EEE9__end_capB8ne180100Ev
FNA:2,0,_ZNKSt3__114__split_bufferIPN7testing17TestEventListenerERNS_9allocatorIS3_EEE9__end_capB8ne180100Ev
FNA:2,19,_ZNKSt3__114__split_bufferIPN7testing8TestInfoERNS_9allocatorIS3_EEE9__end_capB8ne180100Ev
FNA:2,0,_ZNKSt3__114__split_bufferIPN7testing9TestSuiteERNS_9allocatorIS3_EEE9__end_capB8ne180100Ev
FNA:2,0,_ZNKSt3__114__split_bufferIPcRNS_9allocatorIS1_EEE9__end_capB8ne180100Ev
FNA:2,14,_ZNKSt3__114__split_bufferIdRNS_9allocatorIdEEE9__end_capB8ne180100Ev
FNA:2,19,_ZNKSt3__114__split_bufferIiRNS_9allocatorIiEEE9__end_capB8ne180100Ev
FNA:2,0,_ZNKSt3__114__split_bufferImRNS_9allocatorImEEE9__end_capB8ne180100Ev
FNL:3,120
FNA:3,1,_ZNSt3__114__split_bufferIN7pyfolio8DateTimeERNS_9allocatorIS2_EEE5clearB8ne180100Ev
FNA:3,0,_ZNSt3__114__split_bufferIN7testing12TestPropertyERNS_9allocatorIS2_EEE5clearB8ne180100Ev
FNA:3,7,_ZNSt3__114__split_bufferIN7testing14TestPartResultERNS_9allocatorIS2_EEE5clearB8ne180100Ev
FNA:3,0,_ZNSt3__114__split_bufferIN7testing8internal13edit_distance8EditTypeERNS_9allocatorIS4_EEE5clearB8ne180100Ev
FNA:3,0,_ZNSt3__114__split_bufferIN7testing8internal9TraceInfoERNS_9allocatorIS3_EEE5clearB8ne180100Ev
FNA:3,42,_ZNSt3__114__split_bufferINS_12basic_stringIcNS_11char_traitsIcEENS_9allocatorIcEEEERNS4_IS6_EEE5clearB8ne180100Ev
FNA:3,0,_ZNSt3__114__split_bufferINS_4pairIN7pyfolio8DateTimeEdEERNS_9allocatorIS4_EEE5clearB8ne180100Ev
FNA:3,5,_ZNSt3__114__split_bufferINS_6threadERNS_9allocatorIS1_EEE5clearB8ne180100Ev
FNA:3,0,_ZNSt3__114__split_bufferIPN7testing11EnvironmentERNS_9allocatorIS3_EEE5clearB8ne180100Ev
FNA:3,4,_ZNSt3__114__split_bufferIPN7testing17TestEventListenerERNS_9allocatorIS3_EEE5clearB8ne180100Ev
FNA:3,23,_ZNSt3__114__split_bufferIPN7testing8TestInfoERNS_9allocatorIS3_EEE5clearB8ne180100Ev
FNA:3,4,_ZNSt3__114__split_bufferIPN7testing9TestSuiteERNS_9allocatorIS3_EEE5clearB8ne180100Ev
FNA:3,0,_ZNSt3__114__split_bufferIPcRNS_9allocatorIS1_EEE5clearB8ne180100Ev
FNA:3,25,_ZNSt3__114__split_bufferIdRNS_9allocatorIdEEE5clearB8ne180100Ev
FNA:3,27,_ZNSt3__114__split_bufferIiRNS_9allocatorIiEEE5clearB8ne180100Ev
FNA:3,0,_ZNSt3__114__split_bufferImRNS_9allocatorImEEE5clearB8ne180100Ev
FNL:4,128
FNA:4,0,_ZNKSt3__114__split_bufferIN7pyfolio8DateTimeERNS_9allocatorIS2_EEE8capacityB8ne180100Ev
FNA:4,0,_ZNKSt3__114__split_bufferIN7testing12TestPropertyERNS_9allocatorIS2_EEE8capacityB8ne180100Ev
FNA:4,3,_ZNKSt3__114__split_bufferIN7testing14TestPartResultERNS_9allocatorIS2_EEE8capacityB8ne180100Ev
FNA:4,0,_ZNKSt3__114__split_bufferIN7testing8internal13edit_distance8EditTypeERNS_9allocatorIS4_EEE8capacityB8ne180100Ev
FNA:4,0,_ZNKSt3__114__split_bufferIN7testing8internal9TraceInfoERNS_9allocatorIS3_EEE8capacityB8ne180100Ev
FNA:4,8,_ZNKSt3__114__split_bufferINS_12basic_stringIcNS_11char_traitsIcEENS_9allocatorIcEEEERNS4_IS6_EEE8capacityB8ne180100Ev
FNA:4,0,_ZNKSt3__114__split_bufferINS_4pairIN7pyfolio8DateTimeEdEERNS_9allocatorIS4_EEE8capacityB8ne180100Ev
FNA:4,4,_ZNKSt3__114__split_bufferINS_6threadERNS_9allocatorIS1_EEE8capacityB8ne180100Ev
FNA:4,0,_ZNKSt3__114__split_bufferIPN7testing11EnvironmentERNS_9allocatorIS3_EEE8capacityB8ne180100Ev
FNA:4,0,_ZNKSt3__114__split_bufferIPN7testing17TestEventListenerERNS_9allocatorIS3_EEE8capacityB8ne180100Ev
FNA:4,19,_ZNKSt3__114__split_bufferIPN7testing8TestInfoERNS_9allocatorIS3_EEE8capacityB8ne180100Ev
FNA:4,0,_ZNKSt3__114__split_bufferIPN7testing9TestSuiteERNS_9allocatorIS3_EEE8capacityB8ne180100Ev
FNA:4,0,_ZNKSt3__114__split_bufferIPcRNS_9allocatorIS1_EEE8capacityB8ne180100Ev
FNA:4,14,_ZNKSt3__114__split_bufferIdRNS_9allocatorIdEEE8capacityB8ne180100Ev
FNA:4,19,_ZNKSt3__114__split_bufferIiRNS_9allocatorIiEEE8capacityB8ne180100Ev
FNA:4,0,_ZNKSt3__114__split_bufferImRNS_9allocatorImEEE8capacityB8ne180100Ev
FNL:5,183
FNA:5,1,_ZNSt3__114__split_bufferIN7pyfolio8DateTimeERNS_9allocatorIS2_EEE17__destruct_at_endB8ne180100EPS2_
FNA:5,0,_ZNSt3__114__split_bufferIN7testing12TestPropertyERNS_9allocatorIS2_EEE17__destruct_at_endB8ne180100EPS2_
FNA:5,7,_ZNSt3__114__split_bufferIN7testing14TestPartResultERNS_9allocatorIS2_EEE17__destruct_at_endB8ne180100EPS2_
FNA:5,0,_ZNSt3__114__split_bufferIN7testing8internal13edit_distance8EditTypeERNS_9allocatorIS4_EEE17__destruct_at_endB8ne180100EPS4_
FNA:5,0,_ZNSt3__114__split_bufferIN7testing8internal9TraceInfoERNS_9allocatorIS3_EEE17__destruct_at_endB8ne180100EPS3_
FNA:5,42,_ZNSt3__114__split_bufferINS_12basic_stringIcNS_11char_traitsIcEENS_9allocatorIcEEEERNS4_IS6_EEE17__destruct_at_endB8ne180100EPS6_
FNA:5,0,_ZNSt3__114__split_bufferINS_4pairIN7pyfolio8DateTimeEdEERNS_9allocatorIS4_EEE17__destruct_at_endB8ne180100EPS4_
FNA:5,5,_ZNSt3__114__split_bufferINS_6threadERNS_9allocatorIS1_EEE17__destruct_at_endB8ne180100EPS1_
FNA:5,0,_ZNSt3__114__split_bufferIPN7testing11EnvironmentERNS_9allocatorIS3_EEE17__destruct_at_endB8ne180100EPS3_
FNA:5,4,_ZNSt3__114__split_bufferIPN7testing17TestEventListenerERNS_9allocatorIS3_EEE17__destruct_at_endB8ne180100EPS3_
FNA:5,23,_ZNSt3__114__split_bufferIPN7testing8TestInfoERNS_9allocatorIS3_EEE17__destruct_at_endB8ne180100EPS3_
FNA:5,4,_ZNSt3__114__split_bufferIPN7testing9TestSuiteERNS_9allocatorIS3_EEE17__destruct_at_endB8ne180100EPS3_
FNA:5,0,_ZNSt3__114__split_bufferIPcRNS_9allocatorIS1_EEE17__destruct_at_endB8ne180100EPS1_
FNA:5,25,_ZNSt3__114__split_bufferIdRNS_9allocatorIdEEE17__destruct_at_endB8ne180100EPd
FNA:5,27,_ZNSt3__114__split_bufferIiRNS_9allocatorIiEEE17__destruct_at_endB8ne180100EPi
FNA:5,0,_ZNSt3__114__split_bufferImRNS_9allocatorImEEE17__destruct_at_endB8ne180100EPm
FNL:6,204
FNA:6,0,_ZNSt3__114__split_bufferINS_12basic_stringIcNS_11char_traitsIcEENS_9allocatorIcEEEERNS4_IS6_EEE21_ConstructTransactionC1B8ne180100EPPS6_m
FNA:6,0,_ZNSt3__114__split_bufferINS_12basic_stringIcNS_11char_traitsIcEENS_9allocatorIcEEEERNS4_IS6_EEE21_ConstructTransactionC2B8ne180100EPPS6_m
FNA:6,0,_ZNSt3__114__split_bufferIPN7testing9TestSuiteERNS_9allocatorIS3_EEE21_ConstructTransactionC1B8ne180100EPPS3_m
FNA:6,0,_ZNSt3__114__split_bufferIPN7testing9TestSuiteERNS_9allocatorIS3_EEE21_ConstructTransactionC2B8ne180100EPPS3_m
FNA:6,0,_ZNSt3__114__split_bufferIPcRNS_9allocatorIS1_EEE21_ConstructTransactionC1B8ne180100EPPS1_m
FNA:6,0,_ZNSt3__114__split_bufferIPcRNS_9allocatorIS1_EEE21_ConstructTransactionC2B8ne180100EPPS1_m
FNL:7,210
FNA:7,0,_ZNSt3__114__split_bufferINS_12basic_stringIcNS_11char_traitsIcEENS_9allocatorIcEEEERNS4_IS6_EEE21_ConstructTransactionD1B8ne180100Ev
FNA:7,0,_ZNSt3__114__split_bufferINS_12basic_stringIcNS_11char_traitsIcEENS_9allocatorIcEEEERNS4_IS6_EEE21_ConstructTransactionD2B8ne180100Ev
FNA:7,0,_ZNSt3__114__split_bufferIPN7testing9TestSuiteERNS_9allocatorIS3_EEE21_ConstructTransactionD1B8ne180100Ev
FNA:7,0,_ZNSt3__114__split_bufferIPN7testing9TestSuiteERNS_9allocatorIS3_EEE21_ConstructTransactionD2B8ne180100Ev
FNA:7,0,_ZNSt3__114__split_bufferIPcRNS_9allocatorIS1_EEE21_ConstructTransactionD1B8ne180100Ev
FNA:7,0,_ZNSt3__114__split_bufferIPcRNS_9allocatorIS1_EEE21_ConstructTransactionD2B8ne180100Ev
FNL:8,296
FNA:8,0,_ZNSt3__114__split_bufferINS_12basic_stringIcNS_11char_traitsIcEENS_9allocatorIcEEEERNS4_IS6_EEE18__construct_at_endINS_13move_iteratorIPS6_EELi0EEEvT_SE_
FNA:8,0,_ZNSt3__114__split_bufferIPN7testing9TestSuiteERNS_9allocatorIS3_EEE18__construct_at_endINS_13move_iteratorIPS3_EELi0EEEvT_SC_
FNA:8,0,_ZNSt3__114__split_bufferIPcRNS_9allocatorIS1_EEE18__construct_at_endINS_13move_iteratorIPS1_EELi0EEEvT_SA_
FNL:9,303
FNA:9,0,_ZNSt3__114__split_bufferINS_12basic_stringIcNS_11char_traitsIcEENS_9allocatorIcEEEERNS4_IS6_EEE28__construct_at_end_with_sizeINS_13move_iteratorIPS6_EEEEvT_m
FNA:9,0,_ZNSt3__114__split_bufferIPN7testing9TestSuiteERNS_9allocatorIS3_EEE28__construct_at_end_with_sizeINS_13move_iteratorIPS3_EEEEvT_m
FNA:9,0,_ZNSt3__114__split_bufferIPcRNS_9allocatorIS1_EEE28__construct_at_end_with_sizeINS_13move_iteratorIPS1_EEEEvT_m
FNL:10,325
FNA:10,1,_ZNSt3__114__split_bufferIN7pyfolio8DateTimeERNS_9allocatorIS2_EEE17__destruct_at_endB8ne180100EPS2_NS_17integral_constantIbLb0EEE
FNA:10,0,_ZNSt3__114__split_bufferIN7testing12TestPropertyERNS_9allocatorIS2_EEE17__destruct_at_endB8ne180100EPS2_NS_17integral_constantIbLb0EEE
FNA:10,7,_ZNSt3__114__split_bufferIN7testing14TestPartResultERNS_9allocatorIS2_EEE17__destruct_at_endB8ne180100EPS2_NS_17integral_constantIbLb0EEE
FNA:10,0,_ZNSt3__114__split_bufferIN7testing8internal13edit_distance8EditTypeERNS_9allocatorIS4_EEE17__destruct_at_endB8ne180100EPS4_NS_17integral_constantIbLb0EEE
FNA:10,0,_ZNSt3__114__split_bufferIN7testing8internal9TraceInfoERNS_9allocatorIS3_EEE17__destruct_at_endB8ne180100EPS3_NS_17integral_constantIbLb0EEE
FNA:10,42,_ZNSt3__114__split_bufferINS_12basic_stringIcNS_11char_traitsIcEENS_9allocatorIcEEEERNS4_IS6_EEE17__destruct_at_endB8ne180100EPS6_NS_17integral_constantIbLb0EEE
FNA:10,0,_ZNSt3__114__split_bufferINS_4pairIN7pyfolio8DateTimeEdEERNS_9allocatorIS4_EEE17__destruct_at_endB8ne180100EPS4_NS_17integral_constantIbLb0EEE
FNA:10,5,_ZNSt3__114__split_bufferINS_6threadERNS_9allocatorIS1_EEE17__destruct_at_endB8ne180100EPS1_NS_17integral_constantIbLb0EEE
FNA:10,0,_ZNSt3__114__split_bufferIPN7testing11EnvironmentERNS_9allocatorIS3_EEE17__destruct_at_endB8ne180100EPS3_NS_17integral_constantIbLb0EEE
FNA:10,4,_ZNSt3__114__split_bufferIPN7testing17TestEventListenerERNS_9allocatorIS3_EEE17__destruct_at_endB8ne180100EPS3_NS_17integral_constantIbLb0EEE
FNA:10,23,_ZNSt3__114__split_bufferIPN7testing8TestInfoERNS_9allocatorIS3_EEE17__destruct_at_endB8ne180100EPS3_NS_17integral_constantIbLb0EEE
FNA:10,4,_ZNSt3__114__split_bufferIPN7testing9TestSuiteERNS_9allocatorIS3_EEE17__destruct_at_endB8ne180100EPS3_NS_17integral_constantIbLb0EEE
FNA:10,0,_ZNSt3__114__split_bufferIPcRNS_9allocatorIS1_EEE17__destruct_at_endB8ne180100EPS1_NS_17integral_constantIbLb0EEE
FNA:10,25,_ZNSt3__114__split_bufferIdRNS_9allocatorIdEEE17__destruct_at_endB8ne180100EPdNS_17integral_constantIbLb0EEE
FNA:10,27,_ZNSt3__114__split_bufferIiRNS_9allocatorIiEEE17__destruct_at_endB8ne180100EPiNS_17integral_constantIbLb0EEE
FNA:10,0,_ZNSt3__114__split_bufferImRNS_9allocatorImEEE17__destruct_at_endB8ne180100EPmNS_17integral_constantIbLb0EEE
FNL:11,338
FNA:11,1,_ZNSt3__114__split_bufferIN7pyfolio8DateTimeERNS_9allocatorIS2_EEEC1EmmS5_
FNA:11,1,_ZNSt3__114__split_bufferIN7pyfolio8DateTimeERNS_9allocatorIS2_EEEC2EmmS5_
FNA:11,0,_ZNSt3__114__split_bufferIN7testing12TestPropertyERNS_9allocatorIS2_EEEC1EmmS5_
FNA:11,0,_ZNSt3__114__split_bufferIN7testing12TestPropertyERNS_9allocatorIS2_EEEC2EmmS5_
FNA:11,7,_ZNSt3__114__split_bufferIN7testing14TestPartResultERNS_9allocatorIS2_EEEC1EmmS5_
FNA:11,7,_ZNSt3__114__split_bufferIN7testing14TestPartResultERNS_9allocatorIS2_EEEC2EmmS5_
FNA:11,0,_ZNSt3__114__split_bufferIN7testing8internal13edit_distance8EditTypeERNS_9allocatorIS4_EEEC1EmmS7_
FNA:11,0,_ZNSt3__114__split_bufferIN7testing8internal13edit_distance8EditTypeERNS_9allocatorIS4_EEEC2EmmS7_
FNA:11,0,_ZNSt3__114__split_bufferIN7testing8internal9TraceInfoERNS_9allocatorIS3_EEEC1EmmS6_
FNA:11,0,_ZNSt3__114__split_bufferIN7testing8internal9TraceInfoERNS_9allocatorIS3_EEEC2EmmS6_
FNA:11,42,_ZNSt3__114__split_bufferINS_12basic_stringIcNS_11char_traitsIcEENS_9allocatorIcEEEERNS4_IS6_EEEC1EmmS8_
FNA:11,42,_ZNSt3__114__split_bufferINS_12basic_stringIcNS_11char_traitsIcEENS_9allocatorIcEEEERNS4_IS6_EEEC2EmmS8_
FNA:11,0,_ZNSt3__114__split_bufferINS_4pairIN7pyfolio8DateTimeEdEERNS_9allocatorIS4_EEEC1EmmS7_
FNA:11,0,_ZNSt3__114__split_bufferINS_4pairIN7pyfolio8DateTimeEdEERNS_9allocatorIS4_EEEC2EmmS7_
FNA:11,5,_ZNSt3__114__split_bufferINS_6threadERNS_9allocatorIS1_EEEC1EmmS4_
FNA:11,5,_ZNSt3__114__split_bufferINS_6threadERNS_9allocatorIS1_EEEC2EmmS4_
FNA:11,0,_ZNSt3__114__split_bufferIPN7testing11EnvironmentERNS_9allocatorIS3_EEEC1EmmS6_
FNA:11,0,_ZNSt3__114__split_bufferIPN7testing11EnvironmentERNS_9allocatorIS3_EEEC2EmmS6_
FNA:11,4,_ZNSt3__114__split_bufferIPN7testing17TestEventListenerERNS_9allocatorIS3_EEEC1EmmS6_
FNA:11,4,_ZNSt3__114__split_bufferIPN7testing17TestEventListenerERNS_9allocatorIS3_EEEC2EmmS6_
FNA:11,23,_ZNSt3__114__split_bufferIPN7testing8TestInfoERNS_9allocatorIS3_EEEC1EmmS6_
FNA:11,23,_ZNSt3__114__split_bufferIPN7testing8TestInfoERNS_9allocatorIS3_EEEC2EmmS6_
FNA:11,4,_ZNSt3__114__split_bufferIPN7testing9TestSuiteERNS_9allocatorIS3_EEEC1EmmS6_
FNA:11,4,_ZNSt3__114__split_bufferIPN7testing9TestSuiteERNS_9allocatorIS3_EEEC2EmmS6_
FNA:11,0,_ZNSt3__114__split_bufferIPcRNS_9allocatorIS1_EEEC1EmmS4_
FNA:11,0,_ZNSt3__114__split_bufferIPcRNS_9allocatorIS1_EEEC2EmmS4_
FNA:11,25,_ZNSt3__114__split_bufferIdRNS_9allocatorIdEEEC1EmmS3_
FNA:11,25,_ZNSt3__114__split_bufferIdRNS_9allocatorIdEEEC2EmmS3_
FNA:11,27,_ZNSt3__114__split_bufferIiRNS_9allocatorIiEEEC1EmmS3_
FNA:11,27,_ZNSt3__114__split_bufferIiRNS_9allocatorIiEEEC2EmmS3_
FNA:11,0,_ZNSt3__114__split_bufferImRNS_9allocatorImEEEC1EmmS3_
FNA:11,0,_ZNSt3__114__split_bufferImRNS_9allocatorImEEEC2EmmS3_
FNL:12,352
FNA:12,1,_ZNSt3__114__split_bufferIN7pyfolio8DateTimeERNS_9allocatorIS2_EEED1Ev
FNA:12,1,_ZNSt3__114__split_bufferIN7pyfolio8DateTimeERNS_9allocatorIS2_EEED2Ev
FNA:12,0,_ZNSt3__114__split_bufferIN7testing12TestPropertyERNS_9allocatorIS2_EEED1Ev
FNA:12,0,_ZNSt3__114__split_bufferIN7testing12TestPropertyERNS_9allocatorIS2_EEED2Ev
FNA:12,7,_ZNSt3__114__split_bufferIN7testing14TestPartResultERNS_9allocatorIS2_EEED1Ev
FNA:12,7,_ZNSt3__114__split_bufferIN7testing14TestPartResultERNS_9allocatorIS2_EEED2Ev
FNA:12,0,_ZNSt3__114__split_bufferIN7testing8internal13edit_distance8EditTypeERNS_9allocatorIS4_EEED1Ev
FNA:12,0,_ZNSt3__114__split_bufferIN7testing8internal13edit_distance8EditTypeERNS_9allocatorIS4_EEED2Ev
FNA:12,0,_ZNSt3__114__split_bufferIN7testing8internal9TraceInfoERNS_9allocatorIS3_EEED1Ev
FNA:12,0,_ZNSt3__114__split_bufferIN7testing8internal9TraceInfoERNS_9allocatorIS3_EEED2Ev
FNA:12,42,_ZNSt3__114__split_bufferINS_12basic_stringIcNS_11char_traitsIcEENS_9allocatorIcEEEERNS4_IS6_EEED1Ev
FNA:12,42,_ZNSt3__114__split_bufferINS_12basic_stringIcNS_11char_traitsIcEENS_9allocatorIcEEEERNS4_IS6_EEED2Ev
FNA:12,0,_ZNSt3__114__split_bufferINS_4pairIN7pyfolio8DateTimeEdEERNS_9allocatorIS4_EEED1Ev
FNA:12,0,_ZNSt3__114__split_bufferINS_4pairIN7pyfolio8DateTimeEdEERNS_9allocatorIS4_EEED2Ev
FNA:12,5,_ZNSt3__114__split_bufferINS_6threadERNS_9allocatorIS1_EEED1Ev
FNA:12,5,_ZNSt3__114__split_bufferINS_6threadERNS_9allocatorIS1_EEED2Ev
FNA:12,0,_ZNSt3__114__split_bufferIPN7testing11EnvironmentERNS_9allocatorIS3_EEED1Ev
FNA:12,0,_ZNSt3__114__split_bufferIPN7testing11EnvironmentERNS_9allocatorIS3_EEED2Ev
FNA:12,4,_ZNSt3__114__split_bufferIPN7testing17TestEventListenerERNS_9allocatorIS3_EEED1Ev
FNA:12,4,_ZNSt3__114__split_bufferIPN7testing17TestEventListenerERNS_9allocatorIS3_EEED2Ev
FNA:12,23,_ZNSt3__114__split_bufferIPN7testing8TestInfoERNS_9allocatorIS3_EEED1Ev
FNA:12,23,_ZNSt3__114__split_bufferIPN7testing8TestInfoERNS_9allocatorIS3_EEED2Ev
FNA:12,4,_ZNSt3__114__split_bufferIPN7testing9TestSuiteERNS_9allocatorIS3_EEED1Ev
FNA:12,4,_ZNSt3__114__split_bufferIPN7testing9TestSuiteERNS_9allocatorIS3_EEED2Ev
FNA:12,0,_ZNSt3__114__split_bufferIPcRNS_9allocatorIS1_EEED1Ev
FNA:12,0,_ZNSt3__114__split_bufferIPcRNS_9allocatorIS1_EEED2Ev
FNA:12,25,_ZNSt3__114__split_bufferIdRNS_9allocatorIdEEED1Ev
FNA:12,25,_ZNSt3__114__split_bufferIdRNS_9allocatorIdEEED2Ev
FNA:12,27,_ZNSt3__114__split_bufferIiRNS_9allocatorIiEEED1Ev
FNA:12,27,_ZNSt3__114__split_bufferIiRNS_9allocatorIiEEED2Ev
FNA:12,0,_ZNSt3__114__split_bufferImRNS_9allocatorImEEED1Ev
FNA:12,0,_ZNSt3__114__split_bufferImRNS_9allocatorImEEED2Ev
FNL:13,499
FNA:13,0,_ZNSt3__114__split_bufferIPN7testing9TestSuiteERNS_9allocatorIS3_EEE9push_backB8ne180100ERKS3_
FNL:14,521
FNA:14,0,_ZNSt3__114__split_bufferINS_12basic_stringIcNS_11char_traitsIcEENS_9allocatorIcEEEERNS4_IS6_EEE9push_backEOS6_
FNA:14,0,_ZNSt3__114__split_bufferIPcRNS_9allocatorIS1_EEE9push_backEOS1_
FNF:15
FNH:9
DA:104,495
DA:109,276
DA:110,67
DA:111,67
DA:120,138
DA:128,67
DA:129,67
DA:183,138
DA:184,138
DA:185,138
DA:204,0
DA:206,0
DA:207,0
DA:208,0
DA:210,0
DA:296,0
DA:297,0
DA:298,0
DA:303,0
DA:304,0
DA:305,0
DA:306,0
DA:307,0
DA:308,0
DA:325,138
DA:326,428
DA:327,290
DA:328,138
DA:338,276
DA:339,276
DA:340,138
DA:341,0
DA:342,0
DA:343,138
DA:344,138
DA:345,138
DA:347,138
DA:348,138
DA:349,276
DA:352,276
DA:353,138
DA:354,138
DA:355,67
DA:356,276
DA:499,0
DA:500,0
DA:501,0
DA:502,0
DA:503,0
DA:504,0
DA:505,0
DA:506,0
DA:507,0
DA:508,0
DA:509,0
DA:510,0
DA:511,0
DA:512,0
DA:513,0
DA:514,0
DA:515,0
DA:516,0
DA:517,0
DA:518,0
DA:521,0
DA:522,0
DA:523,0
DA:524,0
DA:525,0
DA:526,0
DA:527,0
DA:528,0
DA:529,0
DA:530,0
DA:531,0
DA:532,0
DA:533,0
DA:534,0
DA:535,0
DA:536,0
DA:537,0
DA:538,0
DA:539,0
DA:540,0
LF:84
LH:28
end_of_record
TN:
SF:/Library/Developer/CommandLineTools/SDKs/MacOSX.sdk/usr/include/c++/v1/__string/char_traits.h
FNL:0,189,191
FNA:0,1243,_ZNSt3__111char_traitsIcE6assignB8ne180100ERcRKc
FNL:1,204,222
FNA:1,1099,_ZNSt3__111char_traitsIcE7compareB8ne180100EPKcS3_m
FNL:2,226,227
FNA:2,2543,_ZNSt3__111char_traitsIcE6lengthB8ne180100EPKc
FNL:3,231,235
FNA:3,1,_ZNSt3__111char_traitsIcE4findB8ne180100EPKcmRS2_
FNL:4,243,247
FNA:4,154,_ZNSt3__111char_traitsIcE4copyB8ne180100EPcPKcm
FNL:5,251,253
FNA:5,77,_ZNSt3__111char_traitsIcE6assignB8ne180100EPcmc
FNL:6,265,266
FNA:6,1962,_ZNSt3__111char_traitsIcE11eq_int_typeB8ne180100Eii
FNL:7,268,268
FNA:7,2299,_ZNSt3__111char_traitsIcE3eofB8ne180100Ev
FNL:8,297,301
FNA:8,0,_ZNSt3__111char_traitsIwE7compareB8ne180100EPKwS3_m
FNL:9,303,304
FNA:9,0,_ZNSt3__111char_traitsIwE6lengthB8ne180100EPKw
FNL:10,308,312
FNA:10,0,_ZNSt3__111char_traitsIwE4findB8ne180100EPKwmRS2_
FNL:11,365,366
FNA:11,0,_ZNSt3__111char_traitsIDuE2eqB8ne180100EDuDu
FNL:12,411,415
FNA:12,0,_ZNSt3__111char_traitsIDuE6lengthB8ne180100EPKDu
FNL:13,446,447
FNA:13,0,_ZNSt3__111char_traitsIDsE2eqB8ne180100EDsDs
FNL:14,504,508
FNA:14,0,_ZNSt3__111char_traitsIDsE6lengthB8ne180100EPKDs
FNL:15,536,537
FNA:15,0,_ZNSt3__111char_traitsIDiE2eqB8ne180100EDiDi
FNL:16,592,596
FNA:16,0,_ZNSt3__111char_traitsIDiE6lengthB8ne180100EPKDi
FNL:17,624,659
FNA:17,1,_ZNSt3__118__search_substringB8ne180100IcNS_11char_traitsIcEEEEPKT_S5_S5_S5_S5_
FNA:17,0,_ZNSt3__118__search_substringB8ne180100IwNS_11char_traitsIwEEEEPKT_S5_S5_S5_S5_
FNL:18,663,675
FNA:18,1,_ZNSt3__110__str_findB8ne180100IcmNS_11char_traitsIcEELm18446744073709551615EEET0_PKT_S3_S6_S3_S3_
FNA:18,0,_ZNSt3__110__str_findB8ne180100IwmNS_11char_traitsIwEELm18446744073709551615EEET0_PKT_S3_S6_S3_S3_
FNL:19,792,794
FNA:19,256,_ZNSt3__116__do_string_hashB8ne180100IPKcEEmT_S3_
FNF:20
FNH:11
DA:189,1243
DA:190,1243
DA:191,1243
DA:204,1099
DA:222,1099
DA:226,2543
DA:227,2543
DA:231,1
DA:232,1
DA:233,0
DA:234,1
DA:235,1
DA:243,154
DA:246,154
DA:247,154
DA:251,77
DA:252,77
DA:253,77
DA:265,1962
DA:266,1962
DA:268,2299
DA:297,0
DA:298,0
DA:299,0
DA:300,0
DA:301,0
DA:303,0
DA:304,0
DA:308,0
DA:309,0
DA:310,0
DA:311,0
DA:312,0
DA:365,0
DA:366,0
DA:411,0
DA:412,0
DA:413,0
DA:414,0
DA:415,0
DA:446,0
DA:447,0
DA:504,0
DA:505,0
DA:506,0
DA:507,0
DA:508,0
DA:536,0
DA:537,0
DA:592,0
DA:593,0
DA:594,0
DA:595,0
DA:596,0
DA:624,1
DA:628,1
DA:629,1
DA:630,0
DA:632,1
DA:633,1
DA:634,0
DA:637,1
DA:638,1
DA:639,1
DA:641,1
DA:642,0
DA:645,1
DA:646,1
DA:647,0
DA:654,1
DA:655,1
DA:657,0
DA:659,1
DA:663,1
DA:664,1
DA:665,0
DA:667,1
DA:668,0
DA:670,1
DA:672,1
DA:673,0
DA:674,1
DA:675,1
DA:792,256
DA:794,256
LF:85
LH:43
end_of_record
TN:
SF:/Library/Developer/CommandLineTools/SDKs/MacOSX.sdk/usr/include/c++/v1/__string/constexpr_c_functions.h
FNL:0,116,136
FNA:0,1,_ZNSt3__118__constexpr_memchrB8ne180100IKccEEPT_S3_T0_m
FNL:1,195,214
FNA:1,37,_ZNSt3__119__constexpr_memmoveB8ne180100IN7pyfolio8DateTimeEKS2_Li0EEEPT_S5_PT0_NS_15__element_countE
FNA:1,100,_ZNSt3__119__constexpr_memmoveB8ne180100IN7pyfolio8DateTimeES2_Li0EEEPT_S4_PT0_NS_15__element_countE
FNA:1,0,_ZNSt3__119__constexpr_memmoveB8ne180100IN7testing8internal13edit_distance8EditTypeES4_Li0EEEPT_S6_PT0_NS_15__element_countE
FNA:1,0,_ZNSt3__119__constexpr_memmoveB8ne180100IPN7testing17TestEventListenerES3_Li0EEEPT_S5_PT0_NS_15__element_countE
FNA:1,0,_ZNSt3__119__constexpr_memmoveB8ne180100IPN7testing9TestSuiteES3_Li0EEEPT_S5_PT0_NS_15__element_countE
FNA:1,0,_ZNSt3__119__constexpr_memmoveB8ne180100IPcS1_Li0EEEPT_S3_PT0_NS_15__element_countE
FNA:1,154,_ZNSt3__119__constexpr_memmoveB8ne180100IcKcLi0EEEPT_S3_PT0_NS_15__element_countE
FNA:1,75,_ZNSt3__119__constexpr_memmoveB8ne180100IdKdLi0EEEPT_S3_PT0_NS_15__element_countE
FNA:1,109,_ZNSt3__119__constexpr_memmoveB8ne180100IddLi0EEEPT_S2_PT0_NS_15__element_countE
FNL:2,38,49
FNA:2,2543,_ZNSt3__118__constexpr_strlenB8ne180100EPKc
FNF:3
FNH:3
DA:38,2543
DA:49,2543
DA:116,1
DA:134,1
DA:135,1
DA:136,1
DA:195,475
DA:196,475
DA:211,475
DA:212,469
DA:213,469
DA:214,475
LF:12
LH:12
end_of_record
TN:
SF:/Library/Developer/CommandLineTools/SDKs/MacOSX.sdk/usr/include/c++/v1/__thread/thread.h
FNL:0,109,112
FNA:0,10,_ZNSt3__121__thread_specific_ptrINS_15__thread_structEE11set_pointerEPS1_
FNL:1,171,171
FNA:1,15,_ZNSt3__16threadC1B8ne180100EOS0_
FNA:1,15,_ZNSt3__16threadC2B8ne180100EOS0_
FNL:2,198,200
FNA:2,10,_ZNSt3__116__thread_executeB8ne180100INS_10unique_ptrINS_15__thread_structENS_14default_deleteIS2_EEEEZN36CoreTypesTest_BasicThreadSafety_Test8TestBodyEvE3$_0JEJEEEvRNS_5tupleIJT_T0_DpT1_EEENS_15__tuple_indicesIJXspT2_EEEE
FNL:3,203,210
FNA:3,10,_ZNSt3__114__thread_proxyB8ne180100INS_5tupleIJNS_10unique_ptrINS_15__thread_structENS_14default_deleteIS3_EEEEZN36CoreTypesTest_BasicThreadSafety_Test8TestBodyEvE3$_0EEEEEPvSA_
FNL:4,213,223
FNA:4,10,_ZNSt3__16threadC1IZN36CoreTypesTest_BasicThreadSafety_Test8TestBodyEvE3$_0JEvEEOT_DpOT0_
FNA:4,10,_ZNSt3__16threadC2IZN36CoreTypesTest_BasicThreadSafety_Test8TestBodyEvE3$_0JEvEEOT_DpOT0_
FNF:5
FNH:5
DA:109,10
DA:111,10
DA:112,10
DA:171,30
DA:198,10
DA:199,10
DA:200,10
DA:203,10
DA:205,10
DA:206,10
DA:208,10
DA:210,10
DA:213,20
DA:215,10
DA:217,10
DA:218,10
DA:219,10
DA:220,10
DA:222,0
DA:223,20
LF:20
LH:19
end_of_record
TN:
SF:/Library/Developer/CommandLineTools/SDKs/MacOSX.sdk/usr/include/c++/v1/__threading_support
FNL:0,316
FNA:0,10,_ZNSt3__122__libcpp_thread_createB8ne180100EPP17_opaque_pthread_tPFPvS3_ES3_
FNL:1,352
FNA:1,10,_ZNSt3__116__libcpp_tls_setB8ne180100EmPv
FNF:2
FNH:2
DA:316,10
DA:317,10
DA:352,10
LF:3
LH:3
end_of_record
TN:
SF:/Library/Developer/CommandLineTools/SDKs/MacOSX.sdk/usr/include/c++/v1/__tree
FNL:0,1000
FNA:0,0,_ZNSt3__16__treeINS_12__value_typeINS_12basic_stringIcNS_11char_traitsIcEENS_9allocatorIcEEEEN7testing8internal12CodeLocationEEENS_19__map_value_compareIS7_SB_NS_4lessIvEELb1EEENS5_ISB_EEE5beginB8ne180100Ev
FNA:0,4,_ZNSt3__16__treeINS_12__value_typeINS_12basic_stringIcNS_11char_traitsIcEENS_9allocatorIcEEEEN7testing8internal34TypeParameterizedTestSuiteRegistry30TypeParameterizedTestSuiteInfoEEENS_19__map_value_compareIS7_SC_NS_4lessIS7_EELb1EEENS5_ISC_EEE5beginB8ne180100Ev
FNA:0,1080,_ZNSt3__16__treeINS_12__value_typeINS_12basic_stringIcNS_11char_traitsIcEENS_9allocatorIcEEEEdEENS_19__map_value_compareIS7_S8_NS_4lessIS7_EELb1EEENS5_IS8_EEE5beginB8ne180100Ev
FNL:1,1001
FNA:1,180,_ZNKSt3__16__treeINS_12__value_typeINS_12basic_stringIcNS_11char_traitsIcEENS_9allocatorIcEEEEdEENS_19__map_value_compareIS7_S8_NS_4lessIS7_EELb1EEENS5_IS8_EEE5beginB8ne180100Ev
FNL:2,1002
FNA:2,0,_ZNSt3__16__treeINS_12__value_typeINS_12basic_stringIcNS_11char_traitsIcEENS_9allocatorIcEEEEN7testing8internal12CodeLocationEEENS_19__map_value_compareIS7_SB_NS_4lessIvEELb1EEENS5_ISB_EEE3endB8ne180100Ev
FNA:2,4,_ZNSt3__16__treeINS_12__value_typeINS_12basic_stringIcNS_11char_traitsIcEENS_9allocatorIcEEEEN7testing8internal34TypeParameterizedTestSuiteRegistry30TypeParameterizedTestSuiteInfoEEENS_19__map_value_compareIS7_SC_NS_4lessIS7_EELb1EEENS5_ISC_EEE3endB8ne180100Ev
FNA:2,1080,_ZNSt3__16__treeINS_12__value_typeINS_12basic_stringIcNS_11char_traitsIcEENS_9allocatorIcEEEEdEENS_19__map_value_compareIS7_S8_NS_4lessIS7_EELb1EEENS5_IS8_EEE3endB8ne180100Ev
FNA:2,0,_ZNSt3__16__treeINS_12__value_typeINS_12basic_stringIcNS_11char_traitsIcEENS_9allocatorIcEEEEmEENS_19__map_value_compareIS7_S8_NS_4lessIS7_EELb1EEENS5_IS8_EEE3endB8ne180100Ev
FNL:3,1003
FNA:3,540,_ZNKSt3__16__treeINS_12__value_typeINS_12basic_stringIcNS_11char_traitsIcEENS_9allocatorIcEEEEdEENS_19__map_value_compareIS7_S8_NS_4lessIS7_EELb1EEENS5_IS8_EEE3endB8ne180100Ev
FNA:3,0,_ZNKSt3__16__treeINS_12basic_stringIcNS_11char_traitsIcEENS_9allocatorIcEEEENS_4lessIS6_EENS4_IS6_EEE3endB8ne180100Ev
FNA:3,41,_ZNKSt3__16__treeINS_6chrono14year_month_dayENS_4lessIS2_EENS_9allocatorIS2_EEE3endB8ne180100Ev
FNL:4,1045
FNA:4,0,_ZNSt3__16__treeINS_12__value_typeINS_12basic_stringIcNS_11char_traitsIcEENS_9allocatorIcEEEEN7testing8internal34TypeParameterizedTestSuiteRegistry30TypeParameterizedTestSuiteInfoEEENS_19__map_value_compareIS7_SC_NS_4lessIS7_EELb1EEENS5_ISC_EEE16__emplace_uniqueB8ne180100IS7_SB_Li0EEENS_4pairINS_15__tree_iteratorISC_PNS_11__tree_nodeISC_PvEElEEbEEOT_OT0_
FNL:5,1104
FNA:5,0,_ZNSt3__16__treeINS_12basic_stringIcNS_11char_traitsIcEENS_9allocatorIcEEEENS_4lessIS6_EENS4_IS6_EEE15__insert_uniqueB8ne180100ERKS6_
FNA:5,2,_ZNSt3__16__treeINS_6chrono14year_month_dayENS_4lessIS2_EENS_9allocatorIS2_EEE15__insert_uniqueB8ne180100ERKS2_
FNL:6,1108
FNA:6,1080,_ZNSt3__16__treeINS_12__value_typeINS_12basic_stringIcNS_11char_traitsIcEENS_9allocatorIcEEEEdEENS_19__map_value_compareIS7_S8_NS_4lessIS7_EELb1EEENS5_IS8_EEE15__insert_uniqueB8ne180100ENS_21__tree_const_iteratorIS8_PNS_11__tree_nodeIS8_PvEElEERKNS_4pairIKS7_dEE
FNL:7,111
FNA:7,1668,_ZNSt3__120__tree_is_left_childB8ne180100IPNS_16__tree_node_baseIPvEEEEbT_
FNL:8,1112
FNA:8,0,_ZNSt3__16__treeINS_12basic_stringIcNS_11char_traitsIcEENS_9allocatorIcEEEENS_4lessIS6_EENS4_IS6_EEE15__insert_uniqueB8ne180100EOS6_
FNA:8,48,_ZNSt3__16__treeINS_6chrono14year_month_dayENS_4lessIS2_EENS_9allocatorIS2_EEE15__insert_uniqueB8ne180100EOS2_
FNL:9,1139
FNA:9,0,_ZNSt3__16__treeINS_12__value_typeINS_12basic_stringIcNS_11char_traitsIcEENS_9allocatorIcEEEEdEENS_19__map_value_compareIS7_S8_NS_4lessIS7_EELb1EEENS5_IS8_EEE14__insert_multiB8ne180100IRKNS_4pairIKS7_dEEEENS_15__tree_iteratorIS8_PNS_11__tree_nodeIS8_PvEElEEOT_
FNL:10,1261
FNA:10,0,_ZNSt3__16__treeINS_12__value_typeINS_12basic_stringIcNS_11char_traitsIcEENS_9allocatorIcEEEEdEENS_19__map_value_compareIS7_S8_NS_4lessIS7_EELb1EEENS5_IS8_EEE19__copy_assign_allocB8ne180100ERKSE_
FNL:11,1270
FNA:11,0,_ZNSt3__16__treeINS_12__value_typeINS_12basic_stringIcNS_11char_traitsIcEENS_9allocatorIcEEEEdEENS_19__map_value_compareIS7_S8_NS_4lessIS7_EELb1EEENS5_IS8_EEE19__copy_assign_allocB8ne180100ERKSE_NS_17integral_constantIbLb0EEE
FNL:12,1289
FNA:12,0,_ZNSt3__16__treeINS_12__value_typeINS_12basic_stringIcNS_11char_traitsIcEENS_9allocatorIcEEEEdEENS_19__map_value_compareIS7_S8_NS_4lessIS7_EELb1EEENS5_IS8_EEE18_DetachedTreeCacheC1B8ne180100EPSE_
FNA:12,0,_ZNSt3__16__treeINS_12__value_typeINS_12basic_stringIcNS_11char_traitsIcEENS_9allocatorIcEEEEdEENS_19__map_value_compareIS7_S8_NS_4lessIS7_EELb1EEENS5_IS8_EEE18_DetachedTreeCacheC2B8ne180100EPSE_
FNL:13,1295
FNA:13,0,_ZNKSt3__16__treeINS_12__value_typeINS_12basic_stringIcNS_11char_traitsIcEENS_9allocatorIcEEEEdEENS_19__map_value_compareIS7_S8_NS_4lessIS7_EELb1EEENS5_IS8_EEE18_DetachedTreeCache5__getB8ne180100Ev
FNL:14,1297
FNA:14,0,_ZNSt3__16__treeINS_12__value_typeINS_12basic_stringIcNS_11char_traitsIcEENS_9allocatorIcEEEEdEENS_19__map_value_compareIS7_S8_NS_4lessIS7_EELb1EEENS5_IS8_EEE18_DetachedTreeCache9__advanceB8ne180100Ev
FNL:15,1304
FNA:15,0,_ZNSt3__16__treeINS_12__value_typeINS_12basic_stringIcNS_11char_traitsIcEENS_9allocatorIcEEEEdEENS_19__map_value_compareIS7_S8_NS_4lessIS7_EELb1EEENS5_IS8_EEE18_DetachedTreeCacheD1B8ne180100Ev
FNA:15,0,_ZNSt3__16__treeINS_12__value_typeINS_12basic_stringIcNS_11char_traitsIcEENS_9allocatorIcEEEEdEENS_19__map_value_compareIS7_S8_NS_4lessIS7_EELb1EEENS5_IS8_EEE18_DetachedTreeCacheD2B8ne180100Ev
FNL:16,1332
FNA:16,4,_ZNSt3__16__treeINS_12__value_typeINS_12basic_stringIcNS_11char_traitsIcEENS_9allocatorIcEEEEN7testing8internal34TypeParameterizedTestSuiteRegistry30TypeParameterizedTestSuiteInfoEEENS_19__map_value_compareIS7_SC_NS_4lessIS7_EELb1EEENS5_ISC_EEEC1ERKSG_
FNA:16,4,_ZNSt3__16__treeINS_12__value_typeINS_12basic_stringIcNS_11char_traitsIcEENS_9allocatorIcEEEEN7testing8internal34TypeParameterizedTestSuiteRegistry30TypeParameterizedTestSuiteInfoEEENS_19__map_value_compareIS7_SC_NS_4lessIS7_EELb1EEENS5_ISC_EEEC2ERKSG_
FNA:16,180,_ZNSt3__16__treeINS_12__value_typeINS_12basic_stringIcNS_11char_traitsIcEENS_9allocatorIcEEEEdEENS_19__map_value_compareIS7_S8_NS_4lessIS7_EELb1EEENS5_IS8_EEEC1ERKSC_
FNA:16,180,_ZNSt3__16__treeINS_12__value_typeINS_12basic_stringIcNS_11char_traitsIcEENS_9allocatorIcEEEEdEENS_19__map_value_compareIS7_S8_NS_4lessIS7_EELb1EEENS5_IS8_EEEC2ERKSC_
FNA:16,0,_ZNSt3__16__treeINS_12__value_typeINS_12basic_stringIcNS_11char_traitsIcEENS_9allocatorIcEEEEmEENS_19__map_value_compareIS7_S8_NS_4lessIS7_EELb1EEENS5_IS8_EEEC1ERKSC_
FNA:16,0,_ZNSt3__16__treeINS_12__value_typeINS_12basic_stringIcNS_11char_traitsIcEENS_9allocatorIcEEEEmEENS_19__map_value_compareIS7_S8_NS_4lessIS7_EELb1EEENS5_IS8_EEEC2ERKSC_
FNA:16,4,_ZNSt3__16__treeINS_12basic_stringIcNS_11char_traitsIcEENS_9allocatorIcEEEENS_4lessIS6_EENS4_IS6_EEEC1ERKS8_
FNA:16,4,_ZNSt3__16__treeINS_12basic_stringIcNS_11char_traitsIcEENS_9allocatorIcEEEENS_4lessIS6_EENS4_IS6_EEEC2ERKS8_
FNA:16,8,_ZNSt3__16__treeINS_6chrono14year_month_dayENS_4lessIS2_EENS_9allocatorIS2_EEEC1ERKS4_
FNA:16,8,_ZNSt3__16__treeINS_6chrono14year_month_dayENS_4lessIS2_EENS_9allocatorIS2_EEEC2ERKS4_
FNL:17,1355
FNA:17,0,_ZNSt3__16__treeINS_12__value_typeINS_12basic_stringIcNS_11char_traitsIcEENS_9allocatorIcEEEEdEENS_19__map_value_compareIS7_S8_NS_4lessIS7_EELb1EEENS5_IS8_EEE18_DetachedTreeCache18__detach_from_treeEPSE_
FNL:18,1375
FNA:18,0,_ZNSt3__16__treeINS_12__value_typeINS_12basic_stringIcNS_11char_traitsIcEENS_9allocatorIcEEEEdEENS_19__map_value_compareIS7_S8_NS_4lessIS7_EELb1EEENS5_IS8_EEE18_DetachedTreeCache13__detach_nextEPNS_11__tree_nodeIS8_PvEE
FNL:19,1394
FNA:19,0,_ZNSt3__16__treeINS_12__value_typeINS_12basic_stringIcNS_11char_traitsIcEENS_9allocatorIcEEEEdEENS_19__map_value_compareIS7_S8_NS_4lessIS7_EELb1EEENS5_IS8_EEEaSERKSE_
FNL:20,1425
FNA:20,0,_ZNSt3__16__treeINS_12__value_typeINS_12basic_stringIcNS_11char_traitsIcEENS_9allocatorIcEEEEdEENS_19__map_value_compareIS7_S8_NS_4lessIS7_EELb1EEENS5_IS8_EEE14__assign_multiINS_21__tree_const_iteratorIS8_PNS_11__tree_nodeIS8_PvEElEEEEvT_SM_
FNL:21,1445
FNA:21,180,_ZNSt3__16__treeINS_12__value_typeINS_12basic_stringIcNS_11char_traitsIcEENS_9allocatorIcEEEEdEENS_19__map_value_compareIS7_S8_NS_4lessIS7_EELb1EEENS5_IS8_EEEC1ERKSE_
FNA:21,180,_ZNSt3__16__treeINS_12__value_typeINS_12basic_stringIcNS_11char_traitsIcEENS_9allocatorIcEEEEdEENS_19__map_value_compareIS7_S8_NS_4lessIS7_EELb1EEENS5_IS8_EEEC2ERKSE_
FNL:22,1537
FNA:22,0,_ZNSt3__16__treeINS_12__value_typeINS_12basic_stringIcNS_11char_traitsIcEENS_9allocatorIcEEEEN7testing8internal34TypeParameterizedTestSuiteRegistry30TypeParameterizedTestSuiteInfoEEENS_19__map_value_compareIS7_SC_NS_4lessIS7_EELb1EEENS5_ISC_EEED1Ev
FNA:22,0,_ZNSt3__16__treeINS_12__value_typeINS_12basic_stringIcNS_11char_traitsIcEENS_9allocatorIcEEEEN7testing8internal34TypeParameterizedTestSuiteRegistry30TypeParameterizedTestSuiteInfoEEENS_19__map_value_compareIS7_SC_NS_4lessIS7_EELb1EEENS5_ISC_EEED2Ev
FNA:22,360,_ZNSt3__16__treeINS_12__value_typeINS_12basic_stringIcNS_11char_traitsIcEENS_9allocatorIcEEEEdEENS_19__map_value_compareIS7_S8_NS_4lessIS7_EELb1EEENS5_IS8_EEED1Ev
FNA:22,360,_ZNSt3__16__treeINS_12__value_typeINS_12basic_stringIcNS_11char_traitsIcEENS_9allocatorIcEEEEdEENS_19__map_value_compareIS7_S8_NS_4lessIS7_EELb1EEENS5_IS8_EEED2Ev
FNA:22,0,_ZNSt3__16__treeINS_12__value_typeINS_12basic_stringIcNS_11char_traitsIcEENS_9allocatorIcEEEEmEENS_19__map_value_compareIS7_S8_NS_4lessIS7_EELb1EEENS5_IS8_EEED1Ev
FNA:22,0,_ZNSt3__16__treeINS_12__value_typeINS_12basic_stringIcNS_11char_traitsIcEENS_9allocatorIcEEEEmEENS_19__map_value_compareIS7_S8_NS_4lessIS7_EELb1EEENS5_IS8_EEED2Ev
FNA:22,0,_ZNSt3__16__treeINS_12basic_stringIcNS_11char_traitsIcEENS_9allocatorIcEEEENS_4lessIS6_EENS4_IS6_EEED1Ev
FNA:22,0,_ZNSt3__16__treeINS_12basic_stringIcNS_11char_traitsIcEENS_9allocatorIcEEEENS_4lessIS6_EENS4_IS6_EEED2Ev
FNA:22,4,_ZNSt3__16__treeINS_6chrono14year_month_dayENS_4lessIS2_EENS_9allocatorIS2_EEED1Ev
FNA:22,4,_ZNSt3__16__treeINS_6chrono14year_month_dayENS_4lessIS2_EENS_9allocatorIS2_EEED2Ev
FNL:23,1543
FNA:23,0,_ZNSt3__16__treeINS_12__value_typeINS_12basic_stringIcNS_11char_traitsIcEENS_9allocatorIcEEEEN7testing8internal34TypeParameterizedTestSuiteRegistry30TypeParameterizedTestSuiteInfoEEENS_19__map_value_compareIS7_SC_NS_4lessIS7_EELb1EEENS5_ISC_EEE7destroyEPNS_11__tree_nodeISC_PvEE
FNA:23,2520,_ZNSt3__16__treeINS_12__value_typeINS_12basic_stringIcNS_11char_traitsIcEENS_9allocatorIcEEEEdEENS_19__map_value_compareIS7_S8_NS_4lessIS7_EELb1EEENS5_IS8_EEE7destroyEPNS_11__tree_nodeIS8_PvEE
FNA:23,0,_ZNSt3__16__treeINS_12__value_typeINS_12basic_stringIcNS_11char_traitsIcEENS_9allocatorIcEEEEmEENS_19__map_value_compareIS7_S8_NS_4lessIS7_EELb1EEENS5_IS8_EEE7destroyEPNS_11__tree_nodeIS8_PvEE
FNA:23,0,_ZNSt3__16__treeINS_12basic_stringIcNS_11char_traitsIcEENS_9allocatorIcEEEENS_4lessIS6_EENS4_IS6_EEE7destroyEPNS_11__tree_nodeIS6_PvEE
FNA:23,52,_ZNSt3__16__treeINS_6chrono14year_month_dayENS_4lessIS2_EENS_9allocatorIS2_EEE7destroyEPNS_11__tree_nodeIS2_PvEE
FNL:24,1620
FNA:24,0,_ZNSt3__16__treeINS_12__value_typeINS_12basic_stringIcNS_11char_traitsIcEENS_9allocatorIcEEEEdEENS_19__map_value_compareIS7_S8_NS_4lessIS7_EELb1EEENS5_IS8_EEE16__find_leaf_highERPNS_15__tree_end_nodeIPNS_16__tree_node_baseIPvEEEERKS7_
FNL:25,168
FNA:25,180,_ZNSt3__110__tree_minB8ne180100IPNS_16__tree_node_baseIPvEEEET_S5_
FNL:26,1682
FNA:26,0,_ZNSt3__16__treeINS_12__value_typeINS_12basic_stringIcNS_11char_traitsIcEENS_9allocatorIcEEEEN7testing8internal34TypeParameterizedTestSuiteRegistry30TypeParameterizedTestSuiteInfoEEENS_19__map_value_compareIS7_SC_NS_4lessIS7_EELb1EEENS5_ISC_EEE12__find_equalIS7_EERPNS_16__tree_node_baseIPvEERPNS_15__tree_end_nodeISN_EERKT_
FNA:26,0,_ZNSt3__16__treeINS_12__value_typeINS_12basic_stringIcNS_11char_traitsIcEENS_9allocatorIcEEEEdEENS_19__map_value_compareIS7_S8_NS_4lessIS7_EELb1EEENS5_IS8_EEE12__find_equalIS7_EERPNS_16__tree_node_baseIPvEERPNS_15__tree_end_nodeISJ_EERKT_
FNA:26,0,_ZNSt3__16__treeINS_12__value_typeINS_12basic_stringIcNS_11char_traitsIcEENS_9allocatorIcEEEEmEENS_19__map_value_compareIS7_S8_NS_4lessIS7_EELb1EEENS5_IS8_EEE12__find_equalIS7_EERPNS_16__tree_node_baseIPvEERPNS_15__tree_end_nodeISJ_EERKT_
FNA:26,0,_ZNSt3__16__treeINS_12basic_stringIcNS_11char_traitsIcEENS_9allocatorIcEEEENS_4lessIS6_EENS4_IS6_EEE12__find_equalIS6_EERPNS_16__tree_node_baseIPvEERPNS_15__tree_end_nodeISF_EERKT_
FNA:26,50,_ZNSt3__16__treeINS_6chrono14year_month_dayENS_4lessIS2_EENS_9allocatorIS2_EEE12__find_equalIS2_EERPNS_16__tree_node_baseIPvEERPNS_15__tree_end_nodeISC_EERKT_
FNL:27,1722
FNA:27,1080,_ZNSt3__16__treeINS_12__value_typeINS_12basic_stringIcNS_11char_traitsIcEENS_9allocatorIcEEEEdEENS_19__map_value_compareIS7_S8_NS_4lessIS7_EELb1EEENS5_IS8_EEE12__find_equalIS7_EERPNS_16__tree_node_baseIPvEENS_21__tree_const_iteratorIS8_PNS_11__tree_nodeIS8_SH_EElEERPNS_15__tree_end_nodeISJ_EESK_RKT_
FNL:28,1764
FNA:28,0,_ZNSt3__16__treeINS_12__value_typeINS_12basic_stringIcNS_11char_traitsIcEENS_9allocatorIcEEEEN7testing8internal34TypeParameterizedTestSuiteRegistry30TypeParameterizedTestSuiteInfoEEENS_19__map_value_compareIS7_SC_NS_4lessIS7_EELb1EEENS5_ISC_EEE16__insert_node_atEPNS_15__tree_end_nodeIPNS_16__tree_node_baseIPvEEEERSN_SN_
FNA:28,1080,_ZNSt3__16__treeINS_12__value_typeINS_12basic_stringIcNS_11char_traitsIcEENS_9allocatorIcEEEEdEENS_19__map_value_compareIS7_S8_NS_4lessIS7_EELb1EEENS5_IS8_EEE16__insert_node_atEPNS_15__tree_end_nodeIPNS_16__tree_node_baseIPvEEEERSJ_SJ_
FNA:28,0,_ZNSt3__16__treeINS_12__value_typeINS_12basic_stringIcNS_11char_traitsIcEENS_9allocatorIcEEEEmEENS_19__map_value_compareIS7_S8_NS_4lessIS7_EELb1EEENS5_IS8_EEE16__insert_node_atEPNS_15__tree_end_nodeIPNS_16__tree_node_baseIPvEEEERSJ_SJ_
FNA:28,0,_ZNSt3__16__treeINS_12basic_stringIcNS_11char_traitsIcEENS_9allocatorIcEEEENS_4lessIS6_EENS4_IS6_EEE16__insert_node_atEPNS_15__tree_end_nodeIPNS_16__tree_node_baseIPvEEEERSF_SF_
FNA:28,48,_ZNSt3__16__treeINS_6chrono14year_month_dayENS_4lessIS2_EENS_9allocatorIS2_EEE16__insert_node_atEPNS_15__tree_end_nodeIPNS_16__tree_node_baseIPvEEEERSC_SC_
FNL:29,177
FNA:29,720,_ZNSt3__110__tree_maxB8ne180100IPNS_16__tree_node_baseIPvEEEET_S5_
FNL:30,1780
FNA:30,0,_ZNSt3__16__treeINS_12__value_typeINS_12basic_stringIcNS_11char_traitsIcEENS_9allocatorIcEEEEN7testing8internal34TypeParameterizedTestSuiteRegistry30TypeParameterizedTestSuiteInfoEEENS_19__map_value_compareIS7_SC_NS_4lessIS7_EELb1EEENS5_ISC_EEE25__emplace_unique_key_argsIS7_JS7_SB_EEENS_4pairINS_15__tree_iteratorISC_PNS_11__tree_nodeISC_PvEElEEbEERKT_DpOT0_
FNA:30,0,_ZNSt3__16__treeINS_12__value_typeINS_12basic_stringIcNS_11char_traitsIcEENS_9allocatorIcEEEEmEENS_19__map_value_compareIS7_S8_NS_4lessIS7_EELb1EEENS5_IS8_EEE25__emplace_unique_key_argsIS7_JRKNS_21piecewise_construct_tENS_5tupleIJRKS7_EEENSJ_IJEEEEEENS_4pairINS_15__tree_iteratorIS8_PNS_11__tree_nodeIS8_PvEElEEbEERKT_DpOT0_
FNA:30,0,_ZNSt3__16__treeINS_12basic_stringIcNS_11char_traitsIcEENS_9allocatorIcEEEENS_4lessIS6_EENS4_IS6_EEE25__emplace_unique_key_argsIS6_JRKS6_EEENS_4pairINS_15__tree_iteratorIS6_PNS_11__tree_nodeIS6_PvEElEEbEERKT_DpOT0_
FNA:30,0,_ZNSt3__16__treeINS_12basic_stringIcNS_11char_traitsIcEENS_9allocatorIcEEEENS_4lessIS6_EENS4_IS6_EEE25__emplace_unique_key_argsIS6_JS6_EEENS_4pairINS_15__tree_iteratorIS6_PNS_11__tree_nodeIS6_PvEElEEbEERKT_DpOT0_
FNA:30,2,_ZNSt3__16__treeINS_6chrono14year_month_dayENS_4lessIS2_EENS_9allocatorIS2_EEE25__emplace_unique_key_argsIS2_JRKS2_EEENS_4pairINS_15__tree_iteratorIS2_PNS_11__tree_nodeIS2_PvEElEEbEERKT_DpOT0_
FNA:30,48,_ZNSt3__16__treeINS_6chrono14year_month_dayENS_4lessIS2_EENS_9allocatorIS2_EEE25__emplace_unique_key_argsIS2_JS2_EEENS_4pairINS_15__tree_iteratorIS2_PNS_11__tree_nodeIS2_PvEElEEbEERKT_DpOT0_
FNL:31,1797
FNA:31,1080,_ZNSt3__16__treeINS_12__value_typeINS_12basic_stringIcNS_11char_traitsIcEENS_9allocatorIcEEEEdEENS_19__map_value_compareIS7_S8_NS_4lessIS7_EELb1EEENS5_IS8_EEE30__emplace_hint_unique_key_argsIS7_JRKNS_4pairIKS7_dEEEEENSG_INS_15__tree_iteratorIS8_PNS_11__tree_nodeIS8_PvEElEEbEENS_21__tree_const_iteratorIS8_SP_lEERKT_DpOT0_
FNL:32,1816
FNA:32,0,_ZNSt3__16__treeINS_12__value_typeINS_12basic_stringIcNS_11char_traitsIcEENS_9allocatorIcEEEEN7testing8internal34TypeParameterizedTestSuiteRegistry30TypeParameterizedTestSuiteInfoEEENS_19__map_value_compareIS7_SC_NS_4lessIS7_EELb1EEENS5_ISC_EEE16__construct_nodeIJS7_SB_EEENS_10unique_ptrINS_11__tree_nodeISC_PvEENS_22__tree_node_destructorINS5_ISN_EEEEEEDpOT_
FNA:32,1080,_ZNSt3__16__treeINS_12__value_typeINS_12basic_stringIcNS_11char_traitsIcEENS_9allocatorIcEEEEdEENS_19__map_value_compareIS7_S8_NS_4lessIS7_EELb1EEENS5_IS8_EEE16__construct_nodeIJRKNS_4pairIKS7_dEEEEENS_10unique_ptrINS_11__tree_nodeIS8_PvEENS_22__tree_node_destructorINS5_ISO_EEEEEEDpOT_
FNA:32,0,_ZNSt3__16__treeINS_12__value_typeINS_12basic_stringIcNS_11char_traitsIcEENS_9allocatorIcEEEEmEENS_19__map_value_compareIS7_S8_NS_4lessIS7_EELb1EEENS5_IS8_EEE16__construct_nodeIJRKNS_21piecewise_construct_tENS_5tupleIJRKS7_EEENSJ_IJEEEEEENS_10unique_ptrINS_11__tree_nodeIS8_PvEENS_22__tree_node_destructorINS5_ISR_EEEEEEDpOT_
FNA:32,0,_ZNSt3__16__treeINS_12basic_stringIcNS_11char_traitsIcEENS_9allocatorIcEEEENS_4lessIS6_EENS4_IS6_EEE16__construct_nodeIJRKS6_EEENS_10unique_ptrINS_11__tree_nodeIS6_PvEENS_22__tree_node_destructorINS4_ISH_EEEEEEDpOT_
FNA:32,0,_ZNSt3__16__treeINS_12basic_stringIcNS_11char_traitsIcEENS_9allocatorIcEEEENS_4lessIS6_EENS4_IS6_EEE16__construct_nodeIJS6_EEENS_10unique_ptrINS_11__tree_nodeIS6_PvEENS_22__tree_node_destructorINS4_ISF_EEEEEEDpOT_
FNA:32,0,_ZNSt3__16__treeINS_6chrono14year_month_dayENS_4lessIS2_EENS_9allocatorIS2_EEE16__construct_nodeIJRKS2_EEENS_10unique_ptrINS_11__tree_nodeIS2_PvEENS_22__tree_node_destructorINS5_ISE_EEEEEEDpOT_
FNA:32,48,_ZNSt3__16__treeINS_6chrono14year_month_dayENS_4lessIS2_EENS_9allocatorIS2_EEE16__construct_nodeIJS2_EEENS_10unique_ptrINS_11__tree_nodeIS2_PvEENS_22__tree_node_destructorINS5_ISC_EEEEEEDpOT_
FNL:33,1861
FNA:33,0,_ZNSt3__16__treeINS_12__value_typeINS_12basic_stringIcNS_11char_traitsIcEENS_9allocatorIcEEEEdEENS_19__map_value_compareIS7_S8_NS_4lessIS7_EELb1EEENS5_IS8_EEE15__emplace_multiIJRKNS_4pairIKS7_dEEEEENS_15__tree_iteratorIS8_PNS_11__tree_nodeIS8_PvEElEEDpOT_
FNL:34,1898
FNA:34,0,_ZNSt3__16__treeINS_12__value_typeINS_12basic_stringIcNS_11char_traitsIcEENS_9allocatorIcEEEEdEENS_19__map_value_compareIS7_S8_NS_4lessIS7_EELb1EEENS5_IS8_EEE19__node_insert_multiEPNS_11__tree_nodeIS8_PvEE
FNL:35,196
FNA:35,540,_ZNSt3__116__tree_next_iterB8ne180100IPNS_15__tree_end_nodeIPNS_16__tree_node_baseIPvEEEES5_EET_T0_
FNL:36,208
FNA:36,720,_ZNSt3__116__tree_prev_iterB8ne180100IPNS_16__tree_node_baseIPvEEPNS_15__tree_end_nodeIS4_EEEET_T0_
FNL:37,2087
FNA:37,0,_ZNSt3__16__treeINS_12__value_typeINS_12basic_stringIcNS_11char_traitsIcEENS_9allocatorIcEEEEN7testing8internal34TypeParameterizedTestSuiteRegistry30TypeParameterizedTestSuiteInfoEEENS_19__map_value_compareIS7_SC_NS_4lessIS7_EELb1EEENS5_ISC_EEE4findIS7_EENS_15__tree_iteratorISC_PNS_11__tree_nodeISC_PvEElEERKT_
FNA:37,0,_ZNSt3__16__treeINS_12__value_typeINS_12basic_stringIcNS_11char_traitsIcEENS_9allocatorIcEEEEmEENS_19__map_value_compareIS7_S8_NS_4lessIS7_EELb1EEENS5_IS8_EEE4findIS7_EENS_15__tree_iteratorIS8_PNS_11__tree_nodeIS8_PvEElEERKT_
FNL:38,2097
FNA:38,0,_ZNKSt3__16__treeINS_12basic_stringIcNS_11char_traitsIcEENS_9allocatorIcEEEENS_4lessIS6_EENS4_IS6_EEE4findIS6_EENS_21__tree_const_iteratorIS6_PNS_11__tree_nodeIS6_PvEElEERKT_
FNA:38,15,_ZNKSt3__16__treeINS_6chrono14year_month_dayENS_4lessIS2_EENS_9allocatorIS2_EEE4findIS2_EENS_21__tree_const_iteratorIS2_PNS_11__tree_nodeIS2_PvEElEERKT_
FNL:39,2107
FNA:39,0,_ZNKSt3__16__treeINS_12__value_typeINS_12basic_stringIcNS_11char_traitsIcEENS_9allocatorIcEEEEN7testing8internal12CodeLocationEEENS_19__map_value_compareIS7_SB_NS_4lessIvEELb1EEENS5_ISB_EEE14__count_uniqueIS7_EEmRKT_
FNA:39,0,_ZNKSt3__16__treeINS_12basic_stringIcNS_11char_traitsIcEENS_9allocatorIcEEEENS_4lessIS6_EENS4_IS6_EEE14__count_uniqueIS6_EEmRKT_
FNL:40,2143
FNA:40,0,_ZNSt3__16__treeINS_12__value_typeINS_12basic_stringIcNS_11char_traitsIcEENS_9allocatorIcEEEEN7testing8internal34TypeParameterizedTestSuiteRegistry30TypeParameterizedTestSuiteInfoEEENS_19__map_value_compareIS7_SC_NS_4lessIS7_EELb1EEENS5_ISC_EEE13__lower_boundIS7_EENS_15__tree_iteratorISC_PNS_11__tree_nodeISC_PvEElEERKT_SO_PNS_15__tree_end_nodeIPNS_16__tree_node_baseISM_EEEE
FNA:40,0,_ZNSt3__16__treeINS_12__value_typeINS_12basic_stringIcNS_11char_traitsIcEENS_9allocatorIcEEEEmEENS_19__map_value_compareIS7_S8_NS_4lessIS7_EELb1EEENS5_IS8_EEE13__lower_boundIS7_EENS_15__tree_iteratorIS8_PNS_11__tree_nodeIS8_PvEElEERKT_SK_PNS_15__tree_end_nodeIPNS_16__tree_node_baseISI_EEEE
FNL:41,2156
FNA:41,0,_ZNKSt3__16__treeINS_12basic_stringIcNS_11char_traitsIcEENS_9allocatorIcEEEENS_4lessIS6_EENS4_IS6_EEE13__lower_boundIS6_EENS_21__tree_const_iteratorIS6_PNS_11__tree_nodeIS6_PvEElEERKT_SG_PNS_15__tree_end_nodeIPNS_16__tree_node_baseISE_EEEE
FNA:41,15,_ZNKSt3__16__treeINS_6chrono14year_month_dayENS_4lessIS2_EENS_9allocatorIS2_EEE13__lower_boundIS2_EENS_21__tree_const_iteratorIS2_PNS_11__tree_nodeIS2_PvEElEERKT_SD_PNS_15__tree_end_nodeIPNS_16__tree_node_baseISB_EEEE
FNL:42,220
FNA:42,0,_ZNSt3__111__tree_leafB8ne180100IPNS_16__tree_node_baseIPvEEEET_S5_
FNL:43,239
FNA:43,368,_ZNSt3__118__tree_left_rotateB8ne180100IPNS_16__tree_node_baseIPvEEEEvT_
FNL:44,258
FNA:44,8,_ZNSt3__119__tree_right_rotateB8ne180100IPNS_16__tree_node_baseIPvEEEEvT_
FNL:45,282
FNA:45,1128,_ZNSt3__127__tree_balance_after_insertB8ne180100IPNS_16__tree_node_baseIPvEEEEvT_S5_
FNL:46,522
FNA:46,0,_ZNSt3__122__tree_key_value_typesINS_12basic_stringIcNS_11char_traitsIcEENS_9allocatorIcEEEEE9__get_keyB8ne180100ERKS6_
FNA:46,50,_ZNSt3__122__tree_key_value_typesINS_6chrono14year_month_dayEE9__get_keyB8ne180100ERKS2_
FNL:47,524
FNA:47,0,_ZNSt3__122__tree_key_value_typesINS_12basic_stringIcNS_11char_traitsIcEENS_9allocatorIcEEEEE9__get_ptrB8ne180100ERS6_
FNA:47,72,_ZNSt3__122__tree_key_value_typesINS_6chrono14year_month_dayEE9__get_ptrB8ne180100ERS2_
FNL:48,537
FNA:48,0,_ZNSt3__122__tree_key_value_typesINS_12__value_typeINS_12basic_stringIcNS_11char_traitsIcEENS_9allocatorIcEEEEdEEE9__get_keyB8ne180100ERKS8_
FNL:49,542
FNA:49,1080,_ZNSt3__122__tree_key_value_typesINS_12__value_typeINS_12basic_stringIcNS_11char_traitsIcEENS_9allocatorIcEEEEdEEE9__get_keyB8ne180100IKNS_4pairIKS7_dEELi0EEERSC_RT_
FNL:50,546
FNA:50,0,_ZNSt3__122__tree_key_value_typesINS_12__value_typeINS_12basic_stringIcNS_11char_traitsIcEENS_9allocatorIcEEEEdEEE11__get_valueB8ne180100ERKS8_
FNL:51,557
FNA:51,0,_ZNSt3__122__tree_key_value_typesINS_12__value_typeINS_12basic_stringIcNS_11char_traitsIcEENS_9allocatorIcEEEEN7testing8internal34TypeParameterizedTestSuiteRegistry30TypeParameterizedTestSuiteInfoEEEE9__get_ptrB8ne180100ERSC_
FNA:51,2160,_ZNSt3__122__tree_key_value_typesINS_12__value_typeINS_12basic_stringIcNS_11char_traitsIcEENS_9allocatorIcEEEEdEEE9__get_ptrB8ne180100ERS8_
FNA:51,0,_ZNSt3__122__tree_key_value_typesINS_12__value_typeINS_12basic_stringIcNS_11char_traitsIcEENS_9allocatorIcEEEEmEEE9__get_ptrB8ne180100ERS8_
FNL:52,639
FNA:52,376,_ZNSt3__115__tree_end_nodeIPNS_16__tree_node_baseIPvEEEC1B8ne180100Ev
FNA:52,376,_ZNSt3__115__tree_end_nodeIPNS_16__tree_node_baseIPvEEEC2B8ne180100Ev
FNL:53,654
FNA:53,2500,_ZNKSt3__116__tree_node_baseIPvE15__parent_unsafeB8ne180100Ev
FNL:54,656
FNA:54,376,_ZNSt3__116__tree_node_baseIPvE12__set_parentB8ne180100EPS2_
FNL:55,697
FNA:55,0,_ZNSt3__122__tree_node_destructorINS_9allocatorINS_11__tree_nodeINS_12__value_typeINS_12basic_stringIcNS_11char_traitsIcEENS1_IcEEEEN7testing8internal34TypeParameterizedTestSuiteRegistry30TypeParameterizedTestSuiteInfoEEEPvEEEEEC1B8ne180100ERSG_b
FNA:55,0,_ZNSt3__122__tree_node_destructorINS_9allocatorINS_11__tree_nodeINS_12__value_typeINS_12basic_stringIcNS_11char_traitsIcEENS1_IcEEEEN7testing8internal34TypeParameterizedTestSuiteRegistry30TypeParameterizedTestSuiteInfoEEEPvEEEEEC2B8ne180100ERSG_b
FNA:55,1080,_ZNSt3__122__tree_node_destructorINS_9allocatorINS_11__tree_nodeINS_12__value_typeINS_12basic_stringIcNS_11char_traitsIcEENS1_IcEEEEdEEPvEEEEEC1B8ne180100ERSC_b
FNA:55,1080,_ZNSt3__122__tree_node_destructorINS_9allocatorINS_11__tree_nodeINS_12__value_typeINS_12basic_stringIcNS_11char_traitsIcEENS1_IcEEEEdEEPvEEEEEC2B8ne180100ERSC_b
FNA:55,0,_ZNSt3__122__tree_node_destructorINS_9allocatorINS_11__tree_nodeINS_12__value_typeINS_12basic_stringIcNS_11char_traitsIcEENS1_IcEEEEmEEPvEEEEEC1B8ne180100ERSC_b
FNA:55,0,_ZNSt3__122__tree_node_destructorINS_9allocatorINS_11__tree_nodeINS_12__value_typeINS_12basic_stringIcNS_11char_traitsIcEENS1_IcEEEEmEEPvEEEEEC2B8ne180100ERSC_b
FNA:55,0,_ZNSt3__122__tree_node_destructorINS_9allocatorINS_11__tree_nodeINS_12basic_stringIcNS_11char_traitsIcEENS1_IcEEEEPvEEEEEC1B8ne180100ERSA_b
FNA:55,0,_ZNSt3__122__tree_node_destructorINS_9allocatorINS_11__tree_nodeINS_12basic_stringIcNS_11char_traitsIcEENS1_IcEEEEPvEEEEEC2B8ne180100ERSA_b
FNA:55,48,_ZNSt3__122__tree_node_destructorINS_9allocatorINS_11__tree_nodeINS_6chrono14year_month_dayEPvEEEEEC1B8ne180100ERS7_b
FNA:55,48,_ZNSt3__122__tree_node_destructorINS_9allocatorINS_11__tree_nodeINS_6chrono14year_month_dayEPvEEEEEC2B8ne180100ERS7_b
FNL:56,701
FNA:56,0,_ZNSt3__122__tree_node_destructorINS_9allocatorINS_11__tree_nodeINS_12__value_typeINS_12basic_stringIcNS_11char_traitsIcEENS1_IcEEEEN7testing8internal34TypeParameterizedTestSuiteRegistry30TypeParameterizedTestSuiteInfoEEEPvEEEEEclB8ne180100EPSF_
FNA:56,0,_ZNSt3__122__tree_node_destructorINS_9allocatorINS_11__tree_nodeINS_12__value_typeINS_12basic_stringIcNS_11char_traitsIcEENS1_IcEEEEdEEPvEEEEEclB8ne180100EPSB_
FNA:56,0,_ZNSt3__122__tree_node_destructorINS_9allocatorINS_11__tree_nodeINS_12__value_typeINS_12basic_stringIcNS_11char_traitsIcEENS1_IcEEEEmEEPvEEEEEclB8ne180100EPSB_
FNA:56,0,_ZNSt3__122__tree_node_destructorINS_9allocatorINS_11__tree_nodeINS_12basic_stringIcNS_11char_traitsIcEENS1_IcEEEEPvEEEEEclB8ne180100EPS9_
FNA:56,0,_ZNSt3__122__tree_node_destructorINS_9allocatorINS_11__tree_nodeINS_6chrono14year_month_dayEPvEEEEEclB8ne180100EPS6_
FNL:57,746
FNA:57,0,_ZNKSt3__115__tree_iteratorINS_12__value_typeINS_12basic_stringIcNS_11char_traitsIcEENS_9allocatorIcEEEEN7testing8internal34TypeParameterizedTestSuiteRegistry30TypeParameterizedTestSuiteInfoEEEPNS_11__tree_nodeISC_PvEElEdeB8ne180100Ev
FNA:57,0,_ZNKSt3__115__tree_iteratorINS_12__value_typeINS_12basic_stringIcNS_11char_traitsIcEENS_9allocatorIcEEEEmEEPNS_11__tree_nodeIS8_PvEElEdeB8ne180100Ev
FNL:58,747
FNA:58,0,_ZNKSt3__115__tree_iteratorINS_12__value_typeINS_12basic_stringIcNS_11char_traitsIcEENS_9allocatorIcEEEEN7testing8internal34TypeParameterizedTestSuiteRegistry30TypeParameterizedTestSuiteInfoEEEPNS_11__tree_nodeISC_PvEElEptB8ne180100Ev
FNA:58,0,_ZNKSt3__115__tree_iteratorINS_12__value_typeINS_12basic_stringIcNS_11char_traitsIcEENS_9allocatorIcEEEEmEEPNS_11__tree_nodeIS8_PvEElEptB8ne180100Ev
FNL:59,749
FNA:59,0,_ZNSt3__115__tree_iteratorINS_12__value_typeINS_12basic_stringIcNS_11char_traitsIcEENS_9allocatorIcEEEEN7testing8internal34TypeParameterizedTestSuiteRegistry30TypeParameterizedTestSuiteInfoEEEPNS_11__tree_nodeISC_PvEElEppB8ne180100Ev
FNL:60,771
FNA:60,4,_ZNSt3__1eqB8ne180100ERKNS_15__tree_iteratorINS_12__value_typeINS_12basic_stringIcNS_11char_traitsIcEENS_9allocatorIcEEEEN7testing8internal34TypeParameterizedTestSuiteRegistry30TypeParameterizedTestSuiteInfoEEEPNS_11__tree_nodeISC_PvEElEESJ_
FNA:60,0,_ZNSt3__1eqB8ne180100ERKNS_15__tree_iteratorINS_12__value_typeINS_12basic_stringIcNS_11char_traitsIcEENS_9allocatorIcEEEEmEEPNS_11__tree_nodeIS8_PvEElEESF_
FNL:61,774
FNA:61,4,_ZNSt3__1neB8ne180100ERKNS_15__tree_iteratorINS_12__value_typeINS_12basic_stringIcNS_11char_traitsIcEENS_9allocatorIcEEEEN7testing8internal34TypeParameterizedTestSuiteRegistry30TypeParameterizedTestSuiteInfoEEEPNS_11__tree_nodeISC_PvEElEESJ_
FNA:61,0,_ZNSt3__1neB8ne180100ERKNS_15__tree_iteratorINS_12__value_typeINS_12basic_stringIcNS_11char_traitsIcEENS_9allocatorIcEEEEmEEPNS_11__tree_nodeIS8_PvEElEESF_
FNL:62,779
FNA:62,0,_ZNSt3__115__tree_iteratorINS_12__value_typeINS_12basic_stringIcNS_11char_traitsIcEENS_9allocatorIcEEEEN7testing8internal34TypeParameterizedTestSuiteRegistry30TypeParameterizedTestSuiteInfoEEEPNS_11__tree_nodeISC_PvEElEC1B8ne180100ESG_
FNA:62,0,_ZNSt3__115__tree_iteratorINS_12__value_typeINS_12basic_stringIcNS_11char_traitsIcEENS_9allocatorIcEEEEN7testing8internal34TypeParameterizedTestSuiteRegistry30TypeParameterizedTestSuiteInfoEEEPNS_11__tree_nodeISC_PvEElEC2B8ne180100ESG_
FNA:62,1080,_ZNSt3__115__tree_iteratorINS_12__value_typeINS_12basic_stringIcNS_11char_traitsIcEENS_9allocatorIcEEEEdEEPNS_11__tree_nodeIS8_PvEElEC1B8ne180100ESC_
FNA:62,1080,_ZNSt3__115__tree_iteratorINS_12__value_typeINS_12basic_stringIcNS_11char_traitsIcEENS_9allocatorIcEEEEdEEPNS_11__tree_nodeIS8_PvEElEC2B8ne180100ESC_
FNA:62,0,_ZNSt3__115__tree_iteratorINS_12__value_typeINS_12basic_stringIcNS_11char_traitsIcEENS_9allocatorIcEEEEmEEPNS_11__tree_nodeIS8_PvEElEC1B8ne180100ESC_
FNA:62,0,_ZNSt3__115__tree_iteratorINS_12__value_typeINS_12basic_stringIcNS_11char_traitsIcEENS_9allocatorIcEEEEmEEPNS_11__tree_nodeIS8_PvEElEC2B8ne180100ESC_
FNA:62,0,_ZNSt3__115__tree_iteratorINS_12basic_stringIcNS_11char_traitsIcEENS_9allocatorIcEEEEPNS_11__tree_nodeIS6_PvEElEC1B8ne180100ESA_
FNA:62,0,_ZNSt3__115__tree_iteratorINS_12basic_stringIcNS_11char_traitsIcEENS_9allocatorIcEEEEPNS_11__tree_nodeIS6_PvEElEC2B8ne180100ESA_
FNA:62,50,_ZNSt3__115__tree_iteratorINS_6chrono14year_month_dayEPNS_11__tree_nodeIS2_PvEElEC1B8ne180100ES6_
FNA:62,50,_ZNSt3__115__tree_iteratorINS_6chrono14year_month_dayEPNS_11__tree_nodeIS2_PvEElEC2B8ne180100ES6_
FNL:63,780
FNA:63,0,_ZNSt3__115__tree_iteratorINS_12__value_typeINS_12basic_stringIcNS_11char_traitsIcEENS_9allocatorIcEEEEN7testing8internal12CodeLocationEEEPNS_11__tree_nodeISB_PvEElEC1B8ne180100EPNS_15__tree_end_nodeIPNS_16__tree_node_baseISD_EEEE
FNA:63,0,_ZNSt3__115__tree_iteratorINS_12__value_typeINS_12basic_stringIcNS_11char_traitsIcEENS_9allocatorIcEEEEN7testing8internal12CodeLocationEEEPNS_11__tree_nodeISB_PvEElEC2B8ne180100EPNS_15__tree_end_nodeIPNS_16__tree_node_baseISD_EEEE
FNA:63,8,_ZNSt3__115__tree_iteratorINS_12__value_typeINS_12basic_stringIcNS_11char_traitsIcEENS_9allocatorIcEEEEN7testing8internal34TypeParameterizedTestSuiteRegistry30TypeParameterizedTestSuiteInfoEEEPNS_11__tree_nodeISC_PvEElEC1B8ne180100EPNS_15__tree_end_nodeIPNS_16__tree_node_baseISE_EEEE
FNA:63,8,_ZNSt3__115__tree_iteratorINS_12__value_typeINS_12basic_stringIcNS_11char_traitsIcEENS_9allocatorIcEEEEN7testing8internal34TypeParameterizedTestSuiteRegistry30TypeParameterizedTestSuiteInfoEEEPNS_11__tree_nodeISC_PvEElEC2B8ne180100EPNS_15__tree_end_nodeIPNS_16__tree_node_baseISE_EEEE
FNA:63,2160,_ZNSt3__115__tree_iteratorINS_12__value_typeINS_12basic_stringIcNS_11char_traitsIcEENS_9allocatorIcEEEEdEEPNS_11__tree_nodeIS8_PvEElEC1B8ne180100EPNS_15__tree_end_nodeIPNS_16__tree_node_baseISA_EEEE
FNA:63,2160,_ZNSt3__115__tree_iteratorINS_12__value_typeINS_12basic_stringIcNS_11char_traitsIcEENS_9allocatorIcEEEEdEEPNS_11__tree_nodeIS8_PvEElEC2B8ne180100EPNS_15__tree_end_nodeIPNS_16__tree_node_baseISA_EEEE
FNA:63,0,_ZNSt3__115__tree_iteratorINS_12__value_typeINS_12basic_stringIcNS_11char_traitsIcEENS_9allocatorIcEEEEmEEPNS_11__tree_nodeIS8_PvEElEC1B8ne180100EPNS_15__tree_end_nodeIPNS_16__tree_node_baseISA_EEEE
FNA:63,0,_ZNSt3__115__tree_iteratorINS_12__value_typeINS_12basic_stringIcNS_11char_traitsIcEENS_9allocatorIcEEEEmEEPNS_11__tree_nodeIS8_PvEElEC2B8ne180100EPNS_15__tree_end_nodeIPNS_16__tree_node_baseISA_EEEE
FNL:64,781
FNA:64,0,_ZNKSt3__115__tree_iteratorINS_12__value_typeINS_12basic_stringIcNS_11char_traitsIcEENS_9allocatorIcEEEEN7testing8internal34TypeParameterizedTestSuiteRegistry30TypeParameterizedTestSuiteInfoEEEPNS_11__tree_nodeISC_PvEElE8__get_npB8ne180100Ev
FNA:64,0,_ZNKSt3__115__tree_iteratorINS_12__value_typeINS_12basic_stringIcNS_11char_traitsIcEENS_9allocatorIcEEEEmEEPNS_11__tree_nodeIS8_PvEElE8__get_npB8ne180100Ev
FNL:65,827
FNA:65,0,_ZNSt3__121__tree_const_iteratorINS_12__value_typeINS_12basic_stringIcNS_11char_traitsIcEENS_9allocatorIcEEEEN7testing8internal12CodeLocationEEEPNS_11__tree_nodeISB_PvEElEC1B8ne180100ENS_15__tree_iteratorISB_SF_lEE
FNA:65,0,_ZNSt3__121__tree_const_iteratorINS_12__value_typeINS_12basic_stringIcNS_11char_traitsIcEENS_9allocatorIcEEEEN7testing8internal12CodeLocationEEEPNS_11__tree_nodeISB_PvEElEC2B8ne180100ENS_15__tree_iteratorISB_SF_lEE
FNA:65,2160,_ZNSt3__121__tree_const_iteratorINS_12__value_typeINS_12basic_stringIcNS_11char_traitsIcEENS_9allocatorIcEEEEdEEPNS_11__tree_nodeIS8_PvEElEC1B8ne180100ENS_15__tree_iteratorIS8_SC_lEE
FNA:65,2160,_ZNSt3__121__tree_const_iteratorINS_12__value_typeINS_12basic_stringIcNS_11char_traitsIcEENS_9allocatorIcEEEEdEEPNS_11__tree_nodeIS8_PvEElEC2B8ne180100ENS_15__tree_iteratorIS8_SC_lEE
FNA:65,0,_ZNSt3__121__tree_const_iteratorINS_12basic_stringIcNS_11char_traitsIcEENS_9allocatorIcEEEEPNS_11__tree_nodeIS6_PvEElEC1B8ne180100ENS_15__tree_iteratorIS6_SA_lEE
FNA:65,0,_ZNSt3__121__tree_const_iteratorINS_12basic_stringIcNS_11char_traitsIcEENS_9allocatorIcEEEEPNS_11__tree_nodeIS6_PvEElEC2B8ne180100ENS_15__tree_iteratorIS6_SA_lEE
FNA:65,50,_ZNSt3__121__tree_const_iteratorINS_6chrono14year_month_dayEPNS_11__tree_nodeIS2_PvEElEC1B8ne180100ENS_15__tree_iteratorIS2_S6_lEE
FNA:65,50,_ZNSt3__121__tree_const_iteratorINS_6chrono14year_month_dayEPNS_11__tree_nodeIS2_PvEElEC2B8ne180100ENS_15__tree_iteratorIS2_S6_lEE
FNL:66,829
FNA:66,720,_ZNKSt3__121__tree_const_iteratorINS_12__value_typeINS_12basic_stringIcNS_11char_traitsIcEENS_9allocatorIcEEEEdEEPNS_11__tree_nodeIS8_PvEElEdeB8ne180100Ev
FNA:66,0,_ZNKSt3__121__tree_const_iteratorINS_12basic_stringIcNS_11char_traitsIcEENS_9allocatorIcEEEEPNS_11__tree_nodeIS6_PvEElEdeB8ne180100Ev
FNA:66,15,_ZNKSt3__121__tree_const_iteratorINS_6chrono14year_month_dayEPNS_11__tree_nodeIS2_PvEElEdeB8ne180100Ev
FNL:67,830
FNA:67,0,_ZNKSt3__121__tree_const_iteratorINS_12__value_typeINS_12basic_stringIcNS_11char_traitsIcEENS_9allocatorIcEEEEN7testing8internal12CodeLocationEEEPNS_11__tree_nodeISB_PvEElEptB8ne180100Ev
FNA:67,540,_ZNKSt3__121__tree_const_iteratorINS_12__value_typeINS_12basic_stringIcNS_11char_traitsIcEENS_9allocatorIcEEEEdEEPNS_11__tree_nodeIS8_PvEElEptB8ne180100Ev
FNL:68,832
FNA:68,0,_ZNSt3__121__tree_const_iteratorINS_12__value_typeINS_12basic_stringIcNS_11char_traitsIcEENS_9allocatorIcEEEEN7testing8internal12CodeLocationEEEPNS_11__tree_nodeISB_PvEElEppB8ne180100Ev
FNA:68,540,_ZNSt3__121__tree_const_iteratorINS_12__value_typeINS_12basic_stringIcNS_11char_traitsIcEENS_9allocatorIcEEEEdEEPNS_11__tree_nodeIS8_PvEElEppB8ne180100Ev
FNL:69,844
FNA:69,720,_ZNSt3__121__tree_const_iteratorINS_12__value_typeINS_12basic_stringIcNS_11char_traitsIcEENS_9allocatorIcEEEEdEEPNS_11__tree_nodeIS8_PvEElEmmB8ne180100Ev
FNL:70,856
FNA:70,0,_ZNSt3__1eqB8ne180100ERKNS_21__tree_const_iteratorINS_12__value_typeINS_12basic_stringIcNS_11char_traitsIcEENS_9allocatorIcEEEEN7testing8internal12CodeLocationEEEPNS_11__tree_nodeISB_PvEElEESI_
FNA:70,2880,_ZNSt3__1eqB8ne180100ERKNS_21__tree_const_iteratorINS_12__value_typeINS_12basic_stringIcNS_11char_traitsIcEENS_9allocatorIcEEEEdEEPNS_11__tree_nodeIS8_PvEElEESF_
FNA:70,0,_ZNSt3__1eqB8ne180100ERKNS_21__tree_const_iteratorINS_12basic_stringIcNS_11char_traitsIcEENS_9allocatorIcEEEEPNS_11__tree_nodeIS6_PvEElEESD_
FNA:70,30,_ZNSt3__1eqB8ne180100ERKNS_21__tree_const_iteratorINS_6chrono14year_month_dayEPNS_11__tree_nodeIS2_PvEElEES9_
FNL:71,859
FNA:71,0,_ZNSt3__1neB8ne180100ERKNS_21__tree_const_iteratorINS_12__value_typeINS_12basic_stringIcNS_11char_traitsIcEENS_9allocatorIcEEEEN7testing8internal12CodeLocationEEEPNS_11__tree_nodeISB_PvEElEESI_
FNA:71,720,_ZNSt3__1neB8ne180100ERKNS_21__tree_const_iteratorINS_12__value_typeINS_12basic_stringIcNS_11char_traitsIcEENS_9allocatorIcEEEEdEEPNS_11__tree_nodeIS8_PvEElEESF_
FNA:71,0,_ZNSt3__1neB8ne180100ERKNS_21__tree_const_iteratorINS_12basic_stringIcNS_11char_traitsIcEENS_9allocatorIcEEEEPNS_11__tree_nodeIS6_PvEElEESD_
FNA:71,17,_ZNSt3__1neB8ne180100ERKNS_21__tree_const_iteratorINS_6chrono14year_month_dayEPNS_11__tree_nodeIS2_PvEElEES9_
FNL:72,865
FNA:72,720,_ZNSt3__121__tree_const_iteratorINS_12__value_typeINS_12basic_stringIcNS_11char_traitsIcEENS_9allocatorIcEEEEdEEPNS_11__tree_nodeIS8_PvEElEC1B8ne180100EPNS_15__tree_end_nodeIPNS_16__tree_node_baseISA_EEEE
FNA:72,720,_ZNSt3__121__tree_const_iteratorINS_12__value_typeINS_12basic_stringIcNS_11char_traitsIcEENS_9allocatorIcEEEEdEEPNS_11__tree_nodeIS8_PvEElEC2B8ne180100EPNS_15__tree_end_nodeIPNS_16__tree_node_baseISA_EEEE
FNA:72,0,_ZNSt3__121__tree_const_iteratorINS_12basic_stringIcNS_11char_traitsIcEENS_9allocatorIcEEEEPNS_11__tree_nodeIS6_PvEElEC1B8ne180100EPNS_15__tree_end_nodeIPNS_16__tree_node_baseIS8_EEEE
FNA:72,0,_ZNSt3__121__tree_const_iteratorINS_12basic_stringIcNS_11char_traitsIcEENS_9allocatorIcEEEEPNS_11__tree_nodeIS6_PvEElEC2B8ne180100EPNS_15__tree_end_nodeIPNS_16__tree_node_baseIS8_EEEE
FNA:72,56,_ZNSt3__121__tree_const_iteratorINS_6chrono14year_month_dayEPNS_11__tree_nodeIS2_PvEElEC1B8ne180100EPNS_15__tree_end_nodeIPNS_16__tree_node_baseIS4_EEEE
FNA:72,56,_ZNSt3__121__tree_const_iteratorINS_6chrono14year_month_dayEPNS_11__tree_nodeIS2_PvEElEC2B8ne180100EPNS_15__tree_end_nodeIPNS_16__tree_node_baseIS4_EEEE
FNL:73,866
FNA:73,0,_ZNKSt3__121__tree_const_iteratorINS_12__value_typeINS_12basic_stringIcNS_11char_traitsIcEENS_9allocatorIcEEEEN7testing8internal12CodeLocationEEEPNS_11__tree_nodeISB_PvEElE8__get_npB8ne180100Ev
FNA:73,1260,_ZNKSt3__121__tree_const_iteratorINS_12__value_typeINS_12basic_stringIcNS_11char_traitsIcEENS_9allocatorIcEEEEdEEPNS_11__tree_nodeIS8_PvEElE8__get_npB8ne180100Ev
FNA:73,0,_ZNKSt3__121__tree_const_iteratorINS_12basic_stringIcNS_11char_traitsIcEENS_9allocatorIcEEEEPNS_11__tree_nodeIS6_PvEElE8__get_npB8ne180100Ev
FNA:73,15,_ZNKSt3__121__tree_const_iteratorINS_6chrono14year_month_dayEPNS_11__tree_nodeIS2_PvEElE8__get_npB8ne180100Ev
FNL:74,945
FNA:74,0,_ZNSt3__16__treeINS_12__value_typeINS_12basic_stringIcNS_11char_traitsIcEENS_9allocatorIcEEEEN7testing8internal12CodeLocationEEENS_19__map_value_compareIS7_SB_NS_4lessIvEELb1EEENS5_ISB_EEE10__end_nodeB8ne180100Ev
FNA:74,8,_ZNSt3__16__treeINS_12__value_typeINS_12basic_stringIcNS_11char_traitsIcEENS_9allocatorIcEEEEN7testing8internal34TypeParameterizedTestSuiteRegistry30TypeParameterizedTestSuiteInfoEEENS_19__map_value_compareIS7_SC_NS_4lessIS7_EELb1EEENS5_ISC_EEE10__end_nodeB8ne180100Ev
FNA:74,2520,_ZNSt3__16__treeINS_12__value_typeINS_12basic_stringIcNS_11char_traitsIcEENS_9allocatorIcEEEEdEENS_19__map_value_compareIS7_S8_NS_4lessIS7_EELb1EEENS5_IS8_EEE10__end_nodeB8ne180100Ev
FNA:74,0,_ZNSt3__16__treeINS_12__value_typeINS_12basic_stringIcNS_11char_traitsIcEENS_9allocatorIcEEEEmEENS_19__map_value_compareIS7_S8_NS_4lessIS7_EELb1EEENS5_IS8_EEE10__end_nodeB8ne180100Ev
FNA:74,4,_ZNSt3__16__treeINS_12basic_stringIcNS_11char_traitsIcEENS_9allocatorIcEEEENS_4lessIS6_EENS4_IS6_EEE10__end_nodeB8ne180100Ev
FNA:74,64,_ZNSt3__16__treeINS_6chrono14year_month_dayENS_4lessIS2_EENS_9allocatorIS2_EEE10__end_nodeB8ne180100Ev
FNL:75,948
FNA:75,0,_ZNKSt3__16__treeINS_12__value_typeINS_12basic_stringIcNS_11char_traitsIcEENS_9allocatorIcEEEEN7testing8internal12CodeLocationEEENS_19__map_value_compareIS7_SB_NS_4lessIvEELb1EEENS5_ISB_EEE10__end_nodeB8ne180100Ev
FNA:75,0,_ZNKSt3__16__treeINS_12__value_typeINS_12basic_stringIcNS_11char_traitsIcEENS_9allocatorIcEEEEN7testing8internal34TypeParameterizedTestSuiteRegistry30TypeParameterizedTestSuiteInfoEEENS_19__map_value_compareIS7_SC_NS_4lessIS7_EELb1EEENS5_ISC_EEE10__end_nodeB8ne180100Ev
FNA:75,900,_ZNKSt3__16__treeINS_12__value_typeINS_12basic_stringIcNS_11char_traitsIcEENS_9allocatorIcEEEEdEENS_19__map_value_compareIS7_S8_NS_4lessIS7_EELb1EEENS5_IS8_EEE10__end_nodeB8ne180100Ev
FNA:75,0,_ZNKSt3__16__treeINS_12__value_typeINS_12basic_stringIcNS_11char_traitsIcEENS_9allocatorIcEEEEmEENS_19__map_value_compareIS7_S8_NS_4lessIS7_EELb1EEENS5_IS8_EEE10__end_nodeB8ne180100Ev
FNA:75,0,_ZNKSt3__16__treeINS_12basic_stringIcNS_11char_traitsIcEENS_9allocatorIcEEEENS_4lessIS6_EENS4_IS6_EEE10__end_nodeB8ne180100Ev
FNA:75,175,_ZNKSt3__16__treeINS_6chrono14year_month_dayENS_4lessIS2_EENS_9allocatorIS2_EEE10__end_nodeB8ne180100Ev
FNL:76,952
FNA:76,0,_ZNSt3__16__treeINS_12__value_typeINS_12basic_stringIcNS_11char_traitsIcEENS_9allocatorIcEEEEN7testing8internal34TypeParameterizedTestSuiteRegistry30TypeParameterizedTestSuiteInfoEEENS_19__map_value_compareIS7_SC_NS_4lessIS7_EELb1EEENS5_ISC_EEE12__node_allocB8ne180100Ev
FNA:76,2160,_ZNSt3__16__treeINS_12__value_typeINS_12basic_stringIcNS_11char_traitsIcEENS_9allocatorIcEEEEdEENS_19__map_value_compareIS7_S8_NS_4lessIS7_EELb1EEENS5_IS8_EEE12__node_allocB8ne180100Ev
FNA:76,0,_ZNSt3__16__treeINS_12__value_typeINS_12basic_stringIcNS_11char_traitsIcEENS_9allocatorIcEEEEmEENS_19__map_value_compareIS7_S8_NS_4lessIS7_EELb1EEENS5_IS8_EEE12__node_allocB8ne180100Ev
FNA:76,0,_ZNSt3__16__treeINS_12basic_stringIcNS_11char_traitsIcEENS_9allocatorIcEEEENS_4lessIS6_EENS4_IS6_EEE12__node_allocB8ne180100Ev
FNA:76,72,_ZNSt3__16__treeINS_6chrono14year_month_dayENS_4lessIS2_EENS_9allocatorIS2_EEE12__node_allocB8ne180100Ev
FNL:77,955
FNA:77,180,_ZNKSt3__16__treeINS_12__value_typeINS_12basic_stringIcNS_11char_traitsIcEENS_9allocatorIcEEEEdEENS_19__map_value_compareIS7_S8_NS_4lessIS7_EELb1EEENS5_IS8_EEE12__node_allocB8ne180100Ev
FNL:78,956
FNA:78,0,_ZNSt3__16__treeINS_12__value_typeINS_12basic_stringIcNS_11char_traitsIcEENS_9allocatorIcEEEEN7testing8internal12CodeLocationEEENS_19__map_value_compareIS7_SB_NS_4lessIvEELb1EEENS5_ISB_EEE12__begin_nodeB8ne180100Ev
FNA:78,8,_ZNSt3__16__treeINS_12__value_typeINS_12basic_stringIcNS_11char_traitsIcEENS_9allocatorIcEEEEN7testing8internal34TypeParameterizedTestSuiteRegistry30TypeParameterizedTestSuiteInfoEEENS_19__map_value_compareIS7_SC_NS_4lessIS7_EELb1EEENS5_ISC_EEE12__begin_nodeB8ne180100Ev
FNA:78,3240,_ZNSt3__16__treeINS_12__value_typeINS_12basic_stringIcNS_11char_traitsIcEENS_9allocatorIcEEEEdEENS_19__map_value_compareIS7_S8_NS_4lessIS7_EELb1EEENS5_IS8_EEE12__begin_nodeB8ne180100Ev
FNA:78,0,_ZNSt3__16__treeINS_12__value_typeINS_12basic_stringIcNS_11char_traitsIcEENS_9allocatorIcEEEEmEENS_19__map_value_compareIS7_S8_NS_4lessIS7_EELb1EEENS5_IS8_EEE12__begin_nodeB8ne180100Ev
FNA:78,4,_ZNSt3__16__treeINS_12basic_stringIcNS_11char_traitsIcEENS_9allocatorIcEEEENS_4lessIS6_EENS4_IS6_EEE12__begin_nodeB8ne180100Ev
FNA:78,72,_ZNSt3__16__treeINS_6chrono14year_month_dayENS_4lessIS2_EENS_9allocatorIS2_EEE12__begin_nodeB8ne180100Ev
FNL:79,957
FNA:79,180,_ZNKSt3__16__treeINS_12__value_typeINS_12basic_stringIcNS_11char_traitsIcEENS_9allocatorIcEEEEdEENS_19__map_value_compareIS7_S8_NS_4lessIS7_EELb1EEENS5_IS8_EEE12__begin_nodeB8ne180100Ev
FNL:80,963
FNA:80,0,_ZNSt3__16__treeINS_12__value_typeINS_12basic_stringIcNS_11char_traitsIcEENS_9allocatorIcEEEEN7testing8internal34TypeParameterizedTestSuiteRegistry30TypeParameterizedTestSuiteInfoEEENS_19__map_value_compareIS7_SC_NS_4lessIS7_EELb1EEENS5_ISC_EEE4sizeB8ne180100Ev
FNA:80,1080,_ZNSt3__16__treeINS_12__value_typeINS_12basic_stringIcNS_11char_traitsIcEENS_9allocatorIcEEEEdEENS_19__map_value_compareIS7_S8_NS_4lessIS7_EELb1EEENS5_IS8_EEE4sizeB8ne180100Ev
FNA:80,0,_ZNSt3__16__treeINS_12__value_typeINS_12basic_stringIcNS_11char_traitsIcEENS_9allocatorIcEEEEmEENS_19__map_value_compareIS7_S8_NS_4lessIS7_EELb1EEENS5_IS8_EEE4sizeB8ne180100Ev
FNA:80,0,_ZNSt3__16__treeINS_12basic_stringIcNS_11char_traitsIcEENS_9allocatorIcEEEENS_4lessIS6_EENS4_IS6_EEE4sizeB8ne180100Ev
FNA:80,48,_ZNSt3__16__treeINS_6chrono14year_month_dayENS_4lessIS2_EENS_9allocatorIS2_EEE4sizeB8ne180100Ev
FNL:81,966
FNA:81,0,_ZNKSt3__16__treeINS_12__value_typeINS_12basic_stringIcNS_11char_traitsIcEENS_9allocatorIcEEEEmEENS_19__map_value_compareIS7_S8_NS_4lessIS7_EELb1EEENS5_IS8_EEE4sizeB8ne180100Ev
FNL:82,967
FNA:82,0,_ZNSt3__16__treeINS_12__value_typeINS_12basic_stringIcNS_11char_traitsIcEENS_9allocatorIcEEEEN7testing8internal34TypeParameterizedTestSuiteRegistry30TypeParameterizedTestSuiteInfoEEENS_19__map_value_compareIS7_SC_NS_4lessIS7_EELb1EEENS5_ISC_EEE10value_compB8ne180100Ev
FNA:82,720,_ZNSt3__16__treeINS_12__value_typeINS_12basic_stringIcNS_11char_traitsIcEENS_9allocatorIcEEEEdEENS_19__map_value_compareIS7_S8_NS_4lessIS7_EELb1EEENS5_IS8_EEE10value_compB8ne180100Ev
FNA:82,0,_ZNSt3__16__treeINS_12__value_typeINS_12basic_stringIcNS_11char_traitsIcEENS_9allocatorIcEEEEmEENS_19__map_value_compareIS7_S8_NS_4lessIS7_EELb1EEENS5_IS8_EEE10value_compB8ne180100Ev
FNA:82,0,_ZNSt3__16__treeINS_12basic_stringIcNS_11char_traitsIcEENS_9allocatorIcEEEENS_4lessIS6_EENS4_IS6_EEE10value_compB8ne180100Ev
FNA:82,148,_ZNSt3__16__treeINS_6chrono14year_month_dayENS_4lessIS2_EENS_9allocatorIS2_EEE10value_compB8ne180100Ev
FNL:83,968
FNA:83,0,_ZNKSt3__16__treeINS_12__value_typeINS_12basic_stringIcNS_11char_traitsIcEENS_9allocatorIcEEEEN7testing8internal12CodeLocationEEENS_19__map_value_compareIS7_SB_NS_4lessIvEELb1EEENS5_ISB_EEE10value_compB8ne180100Ev
FNA:83,180,_ZNKSt3__16__treeINS_12__value_typeINS_12basic_stringIcNS_11char_traitsIcEENS_9allocatorIcEEEEdEENS_19__map_value_compareIS7_S8_NS_4lessIS7_EELb1EEENS5_IS8_EEE10value_compB8ne180100Ev
FNA:83,0,_ZNKSt3__16__treeINS_12basic_stringIcNS_11char_traitsIcEENS_9allocatorIcEEEENS_4lessIS6_EENS4_IS6_EEE10value_compB8ne180100Ev
FNA:83,45,_ZNKSt3__16__treeINS_6chrono14year_month_dayENS_4lessIS2_EENS_9allocatorIS2_EEE10value_compB8ne180100Ev
FNL:84,971
FNA:84,0,_ZNKSt3__16__treeINS_12__value_typeINS_12basic_stringIcNS_11char_traitsIcEENS_9allocatorIcEEEEN7testing8internal12CodeLocationEEENS_19__map_value_compareIS7_SB_NS_4lessIvEELb1EEENS5_ISB_EEE6__rootB8ne180100Ev
FNA:84,0,_ZNKSt3__16__treeINS_12__value_typeINS_12basic_stringIcNS_11char_traitsIcEENS_9allocatorIcEEEEN7testing8internal34TypeParameterizedTestSuiteRegistry30TypeParameterizedTestSuiteInfoEEENS_19__map_value_compareIS7_SC_NS_4lessIS7_EELb1EEENS5_ISC_EEE6__rootB8ne180100Ev
FNA:84,360,_ZNKSt3__16__treeINS_12__value_typeINS_12basic_stringIcNS_11char_traitsIcEENS_9allocatorIcEEEEdEENS_19__map_value_compareIS7_S8_NS_4lessIS7_EELb1EEENS5_IS8_EEE6__rootB8ne180100Ev
FNA:84,0,_ZNKSt3__16__treeINS_12__value_typeINS_12basic_stringIcNS_11char_traitsIcEENS_9allocatorIcEEEEmEENS_19__map_value_compareIS7_S8_NS_4lessIS7_EELb1EEENS5_IS8_EEE6__rootB8ne180100Ev
FNA:84,0,_ZNKSt3__16__treeINS_12basic_stringIcNS_11char_traitsIcEENS_9allocatorIcEEEENS_4lessIS6_EENS4_IS6_EEE6__rootB8ne180100Ev
FNA:84,69,_ZNKSt3__16__treeINS_6chrono14year_month_dayENS_4lessIS2_EENS_9allocatorIS2_EEE6__rootB8ne180100Ev
FNL:85,975
FNA:85,0,_ZNKSt3__16__treeINS_12__value_typeINS_12basic_stringIcNS_11char_traitsIcEENS_9allocatorIcEEEEN7testing8internal34TypeParameterizedTestSuiteRegistry30TypeParameterizedTestSuiteInfoEEENS_19__map_value_compareIS7_SC_NS_4lessIS7_EELb1EEENS5_ISC_EEE10__root_ptrB8ne180100Ev
FNA:85,0,_ZNKSt3__16__treeINS_12__value_typeINS_12basic_stringIcNS_11char_traitsIcEENS_9allocatorIcEEEEdEENS_19__map_value_compareIS7_S8_NS_4lessIS7_EELb1EEENS5_IS8_EEE10__root_ptrB8ne180100Ev
FNA:85,0,_ZNKSt3__16__treeINS_12__value_typeINS_12basic_stringIcNS_11char_traitsIcEENS_9allocatorIcEEEEmEENS_19__map_value_compareIS7_S8_NS_4lessIS7_EELb1EEENS5_IS8_EEE10__root_ptrB8ne180100Ev
FNA:85,0,_ZNKSt3__16__treeINS_12basic_stringIcNS_11char_traitsIcEENS_9allocatorIcEEEENS_4lessIS6_EENS4_IS6_EEE10__root_ptrB8ne180100Ev
FNA:85,50,_ZNKSt3__16__treeINS_6chrono14year_month_dayENS_4lessIS2_EENS_9allocatorIS2_EEE10__root_ptrB8ne180100Ev
FNF:86
FNH:59
DA:111,1668
DA:112,1668
DA:168,180
DA:170,180
DA:171,0
DA:172,180
DA:177,720
DA:179,1080
DA:180,360
DA:181,720
DA:196,540
DA:198,540
DA:199,180
DA:200,540
DA:201,180
DA:202,360
DA:203,540
DA:208,720
DA:210,720
DA:211,720
DA:212,0
DA:213,0
DA:214,0
DA:215,0
DA:216,720
DA:220,0
DA:222,0
DA:223,0
DA:224,0
DA:225,0
DA:227,0
DA:228,0
DA:229,0
DA:231,0
DA:233,0
DA:239,368
DA:242,368
DA:243,368
DA:244,368
DA:245,0
DA:246,368
DA:247,368
DA:248,368
DA:250,0
DA:251,368
DA:252,368
DA:253,368
DA:258,8
DA:261,8
DA:262,8
DA:263,8
DA:264,0
DA:265,8
DA:266,8
DA:267,0
DA:269,8
DA:270,8
DA:271,8
DA:272,8
DA:282,1128
DA:285,1128
DA:286,1144
DA:288,384
DA:289,0
DA:290,0
DA:291,0
DA:292,0
DA:293,0
DA:294,0
DA:295,0
DA:296,0
DA:297,0
DA:298,0
DA:299,0
DA:300,0
DA:301,0
DA:302,0
DA:303,0
DA:304,0
DA:305,0
DA:306,0
DA:308,0
DA:309,384
DA:310,384
DA:311,16
DA:312,16
DA:313,16
DA:314,16
DA:315,16
DA:316,16
DA:317,368
DA:318,8
DA:319,8
DA:320,8
DA:321,368
DA:322,368
DA:323,368
DA:324,368
DA:325,368
DA:326,368
DA:330,1128
DA:522,50
DA:524,72
DA:537,0
DA:538,0
DA:542,1080
DA:543,1080
DA:546,0
DA:547,0
DA:557,2160
DA:558,2160
DA:639,752
DA:654,2500
DA:656,376
DA:697,2256
DA:698,1128
DA:699,2256
DA:701,0
DA:702,0
DA:703,0
DA:704,0
DA:705,0
DA:706,0
DA:746,0
DA:747,0
DA:749,0
DA:750,0
DA:751,0
DA:752,0
DA:771,4
DA:772,4
DA:774,4
DA:775,4
DA:779,2260
DA:780,4336
DA:781,0
DA:827,4420
DA:829,735
DA:830,540
DA:832,540
DA:833,540
DA:834,540
DA:835,540
DA:844,720
DA:845,720
DA:846,720
DA:847,720
DA:856,2910
DA:857,2910
DA:859,737
DA:860,737
DA:865,1552
DA:866,1275
DA:945,2596
DA:946,2596
DA:948,1075
DA:949,1075
DA:950,1075
DA:952,2232
DA:955,180
DA:956,3324
DA:957,180
DA:963,1128
DA:966,0
DA:967,868
DA:968,225
DA:971,429
DA:972,429
DA:975,50
DA:976,50
DA:982,196
DA:1000,1084
DA:1001,180
DA:1002,1084
DA:1003,581
DA:1045,0
DA:1046,0
DA:1104,2
DA:1105,2
DA:1108,1080
DA:1109,1080
DA:1112,48
DA:1113,48
DA:1139,0
DA:1140,0
DA:1261,0
DA:1262,0
DA:1263,0
DA:1270,0
DA:1289,0
DA:1290,0
DA:1291,0
DA:1292,0
DA:1293,0
DA:1295,0
DA:1297,0
DA:1298,0
DA:1299,0
DA:1300,0
DA:1301,0
DA:1302,0
DA:1304,0
DA:1305,0
DA:1306,0
DA:1307,0
DA:1308,0
DA:1309,0
DA:1310,0
DA:1311,0
DA:1332,392
DA:1334,392
DA:1335,196
DA:1336,392
DA:1355,0
DA:1356,0
DA:1357,0
DA:1358,0
DA:1359,0
DA:1360,0
DA:1362,0
DA:1363,0
DA:1366,0
DA:1375,0
DA:1376,0
DA:1377,0
DA:1378,0
DA:1379,0
DA:1380,0
DA:1381,0
DA:1382,0
DA:1383,0
DA:1386,0
DA:1387,0
DA:1388,0
DA:1389,0
DA:1390,0
DA:1391,0
DA:1394,0
DA:1395,0
DA:1396,0
DA:1397,0
DA:1398,0
DA:1399,0
DA:1400,0
DA:1425,0
DA:1432,0
DA:1433,0
DA:1434,0
DA:1435,0
DA:1436,0
DA:1437,0
DA:1438,0
DA:1439,0
DA:1440,0
DA:1441,0
DA:1442,0
DA:1445,360
DA:1446,180
DA:1447,180
DA:1448,360
DA:1449,180
DA:1450,360
DA:1537,728
DA:1539,364
DA:1540,728
DA:1543,2572
DA:1544,2572
DA:1545,1104
DA:1546,1104
DA:1547,1104
DA:1548,1104
DA:1549,1104
DA:1550,1104
DA:1551,2572
DA:1620,0
DA:1621,0
DA:1622,0
DA:1623,0
DA:1624,0
DA:1625,0
DA:1626,0
DA:1628,0
DA:1629,0
DA:1631,0
DA:1632,0
DA:1633,0
DA:1635,0
DA:1636,0
DA:1641,0
DA:1642,0
DA:1643,0
DA:1682,50
DA:1683,50
DA:1684,50
DA:1685,50
DA:1686,82
DA:1687,82
DA:1688,16
DA:1689,0
DA:1690,0
DA:1691,0
DA:1692,16
DA:1693,16
DA:1695,66
DA:1696,64
DA:1697,40
DA:1698,40
DA:1699,40
DA:1700,24
DA:1701,24
DA:1703,40
DA:1704,2
DA:1705,2
DA:1709,8
DA:1710,8
DA:1711,50
DA:1722,1080
DA:1724,1080
DA:1727,1080
DA:1728,1080
DA:1730,1080
DA:1731,360
DA:1732,360
DA:1734,720
DA:1735,720
DA:1739,0
DA:1740,0
DA:1743,0
DA:1744,0
DA:1746,0
DA:1747,0
DA:1748,0
DA:1750,0
DA:1751,0
DA:1755,0
DA:1758,0
DA:1759,0
DA:1760,0
DA:1761,1080
DA:1764,1128
DA:1766,1128
DA:1767,1128
DA:1768,1128
DA:1770,1128
DA:1771,1128
DA:1772,368
DA:1773,1128
DA:1774,1128
DA:1775,1128
DA:1780,50
DA:1782,50
DA:1783,50
DA:1784,50
DA:1785,50
DA:1786,48
DA:1787,48
DA:1788,48
DA:1789,48
DA:1790,48
DA:1791,50
DA:1797,1080
DA:1801,1080
DA:1802,1080
DA:1803,1080
DA:1804,1080
DA:1805,1080
DA:1806,1080
DA:1807,1080
DA:1808,1080
DA:1809,1080
DA:1810,1080
DA:1816,1128
DA:1818,1128
DA:1819,1128
DA:1820,1128
DA:1821,1128
DA:1822,1128
DA:1823,1128
DA:1861,0
DA:1862,0
DA:1864,0
DA:1865,0
DA:1866,0
DA:1867,0
DA:1898,0
DA:1900,0
DA:1901,0
DA:1902,0
DA:2087,0
DA:2088,0
DA:2089,0
DA:2090,0
DA:2091,0
DA:2092,0
DA:2097,15
DA:2098,15
DA:2099,15
DA:2100,4
DA:2101,11
DA:2102,15
DA:2107,0
DA:2108,0
DA:2109,0
DA:2110,0
DA:2111,0
DA:2112,0
DA:2113,0
DA:2115,0
DA:2117,0
DA:2118,0
DA:2143,0
DA:2144,0
DA:2145,0
DA:2146,0
DA:2147,0
DA:2148,0
DA:2149,0
DA:2151,0
DA:2156,15
DA:2158,45
DA:2159,30
DA:2160,15
DA:2161,15
DA:2162,15
DA:2163,15
DA:2165,15
LF:426
LH:232
end_of_record
TN:
SF:/Library/Developer/CommandLineTools/SDKs/MacOSX.sdk/usr/include/c++/v1/__type_traits/invoke.h
FNL:0,342,344
FNA:0,0,_ZNSt3__18__invokeB8ne180100IRNS_10__identityEJRKNS_12basic_stringIcNS_11char_traitsIcEENS_9allocatorIcEEEEEEEDTclclsr3stdE7declvalIT_EEspclsr3stdE7declvalIT0_EEEEOSB_DpOSC_
FNA:0,0,_ZNSt3__18__invokeB8ne180100IRNS_10__identityEJRKmEEEDTclclsr3stdE7declvalIT_EEspclsr3stdE7declvalIT0_EEEEOS5_DpOS6_
FNA:0,20,_ZNSt3__18__invokeB8ne180100IRNS_10__identityEJRdEEEDTclclsr3stdE7declvalIT_EEspclsr3stdE7declvalIT0_EEEEOS4_DpOS5_
FNA:0,0,_ZNSt3__18__invokeB8ne180100IRNS_6__lessIvvEEJRKmS5_EEEDTclclsr3stdE7declvalIT_EEspclsr3stdE7declvalIT0_EEEEOS6_DpOS7_
FNA:0,10,_ZNSt3__18__invokeB8ne180100IRNS_6__lessIvvEEJRdS4_EEEDTclclsr3stdE7declvalIT_EEspclsr3stdE7declvalIT0_EEEEOS5_DpOS6_
FNA:0,10,_ZNSt3__18__invokeB8ne180100IZN36CoreTypesTest_BasicThreadSafety_Test8TestBodyEvE3$_0JEEEDTclclsr3stdE7declvalIT_EEspclsr3stdE7declvalIT0_EEEEOS3_DpOS4_
FNA:0,0,_ZNSt3__18__invokeB8ne180100IZNS_16__variant_detail6__ctorINS1_8__traitsIJdN7pyfolio5ErrorEEEEE19__generic_constructB8ne180100INS1_18__move_constructorIS6_LNS1_6_TraitE1EEEEEvRS7_OT_EUlRSD_OT0_E_JRNS1_5__altILm0EdEESK_EEEDTclclsr3stdE7declvalISD_EEspclsr3stdE7declvalIT0_EEEESE_DpOSM_
FNA:0,1,_ZNSt3__18__invokeB8ne180100IZNS_16__variant_detail6__ctorINS1_8__traitsIJdN7pyfolio5ErrorEEEEE19__generic_constructB8ne180100INS1_18__move_constructorIS6_LNS1_6_TraitE1EEEEEvRS7_OT_EUlRSD_OT0_E_JRNS1_5__altILm1ES5_EESK_EEEDTclclsr3stdE7declvalISD_EEspclsr3stdE7declvalIT0_EEEESE_DpOSM_
FNA:0,2,_ZNSt3__18__invokeB8ne180100IZNS_16__variant_detail6__dtorINS1_8__traitsIJN7pyfolio10Statistics15AlphaBetaResultENS4_5ErrorEEEELNS1_6_TraitE1EE9__destroyB8ne180100EvEUlRT_E_JRNS1_5__altILm0ES6_EEEEEDTclclsr3stdE7declvalISB_EEspclsr3stdE7declvalIT0_EEEEOSB_DpOSH_
FNA:0,0,_ZNSt3__18__invokeB8ne180100IZNS_16__variant_detail6__dtorINS1_8__traitsIJN7pyfolio10Statistics15AlphaBetaResultENS4_5ErrorEEEELNS1_6_TraitE1EE9__destroyB8ne180100EvEUlRT_E_JRNS1_5__altILm1ES7_EEEEEDTclclsr3stdE7declvalISB_EEspclsr3stdE7declvalIT0_EEEEOSB_DpOSH_
FNA:0,2,_ZNSt3__18__invokeB8ne180100IZNS_16__variant_detail6__dtorINS1_8__traitsIJN7pyfolio10Statistics18SimpleDrawdownInfoENS4_5ErrorEEEELNS1_6_TraitE1EE9__destroyB8ne180100EvEUlRT_E_JRNS1_5__altILm0ES6_EEEEEDTclclsr3stdE7declvalISB_EEspclsr3stdE7declvalIT0_EEEEOSB_DpOSH_
FNA:0,0,_ZNSt3__18__invokeB8ne180100IZNS_16__variant_detail6__dtorINS1_8__traitsIJN7pyfolio10Statistics18SimpleDrawdownInfoENS4_5ErrorEEEELNS1_6_TraitE1EE9__destroyB8ne180100EvEUlRT_E_JRNS1_5__altILm1ES7_EEEEEDTclclsr3stdE7declvalISB_EEspclsr3stdE7declvalIT0_EEEEOSB_DpOSH_
FNA:0,7,_ZNSt3__18__invokeB8ne180100IZNS_16__variant_detail6__dtorINS1_8__traitsIJN7pyfolio10TimeSeriesIdEENS4_5ErrorEEEELNS1_6_TraitE1EE9__destroyB8ne180100EvEUlRT_E_JRNS1_5__altILm0ES6_EEEEEDTclclsr3stdE7declvalISB_EEspclsr3stdE7declvalIT0_EEEEOSB_DpOSH_
FNA:0,0,_ZNSt3__18__invokeB8ne180100IZNS_16__variant_detail6__dtorINS1_8__traitsIJN7pyfolio10TimeSeriesIdEENS4_5ErrorEEEELNS1_6_TraitE1EE9__destroyB8ne180100EvEUlRT_E_JRNS1_5__altILm1ES7_EEEEEDTclclsr3stdE7declvalISB_EEspclsr3stdE7declvalIT0_EEEEOSB_DpOSH_
FNA:0,1,_ZNSt3__18__invokeB8ne180100IZNS_16__variant_detail6__dtorINS1_8__traitsIJN7pyfolio18PerformanceMetrics18CaptureRatioResultENS4_5ErrorEEEELNS1_6_TraitE1EE9__destroyB8ne180100EvEUlRT_E_JRNS1_5__altILm0ES6_EEEEEDTclclsr3stdE7declvalISB_EEspclsr3stdE7declvalIT0_EEEEOSB_DpOSH_
FNA:0,0,_ZNSt3__18__invokeB8ne180100IZNS_16__variant_detail6__dtorINS1_8__traitsIJN7pyfolio18PerformanceMetrics18CaptureRatioResultENS4_5ErrorEEEELNS1_6_TraitE1EE9__destroyB8ne180100EvEUlRT_E_JRNS1_5__altILm1ES7_EEEEEDTclclsr3stdE7declvalISB_EEspclsr3stdE7declvalIT0_EEEEOSB_DpOSH_
FNA:0,345,_ZNSt3__18__invokeB8ne180100IZNS_16__variant_detail6__dtorINS1_8__traitsIJN7pyfolio8DateTimeENS4_5ErrorEEEELNS1_6_TraitE1EE9__destroyB8ne180100EvEUlRT_E_JRNS1_5__altILm0ES5_EEEEEDTclclsr3stdE7declvalISA_EEspclsr3stdE7declvalIT0_EEEEOSA_DpOSG_
FNA:0,6,_ZNSt3__18__invokeB8ne180100IZNS_16__variant_detail6__dtorINS1_8__traitsIJN7pyfolio8DateTimeENS4_5ErrorEEEELNS1_6_TraitE1EE9__destroyB8ne180100EvEUlRT_E_JRNS1_5__altILm1ES6_EEEEEDTclclsr3stdE7declvalISA_EEspclsr3stdE7declvalIT0_EEEEOSA_DpOSG_
FNA:0,2,_ZNSt3__18__invokeB8ne180100IZNS_16__variant_detail6__dtorINS1_8__traitsIJN7pyfolio9analytics10statistics18StatisticalSummaryENS4_5ErrorEEEELNS1_6_TraitE1EE9__destroyB8ne180100EvEUlRT_E_JRNS1_5__altILm0ES7_EEEEEDTclclsr3stdE7declvalISC_EEspclsr3stdE7declvalIT0_EEEEOSC_DpOSI_
FNA:0,1,_ZNSt3__18__invokeB8ne180100IZNS_16__variant_detail6__dtorINS1_8__traitsIJN7pyfolio9analytics10statistics18StatisticalSummaryENS4_5ErrorEEEELNS1_6_TraitE1EE9__destroyB8ne180100EvEUlRT_E_JRNS1_5__altILm1ES8_EEEEEDTclclsr3stdE7declvalISC_EEspclsr3stdE7declvalIT0_EEEEOSC_DpOSI_
FNA:0,1,_ZNSt3__18__invokeB8ne180100IZNS_16__variant_detail6__dtorINS1_8__traitsIJN7pyfolio9analytics18PerformanceMetricsENS4_5ErrorEEEELNS1_6_TraitE1EE9__destroyB8ne180100EvEUlRT_E_JRNS1_5__altILm0ES6_EEEEEDTclclsr3stdE7declvalISB_EEspclsr3stdE7declvalIT0_EEEEOSB_DpOSH_
FNA:0,0,_ZNSt3__18__invokeB8ne180100IZNS_16__variant_detail6__dtorINS1_8__traitsIJN7pyfolio9analytics18PerformanceMetricsENS4_5ErrorEEEELNS1_6_TraitE1EE9__destroyB8ne180100EvEUlRT_E_JRNS1_5__altILm1ES7_EEEEEDTclclsr3stdE7declvalISB_EEspclsr3stdE7declvalIT0_EEEEOSB_DpOSH_
FNA:0,100093,_ZNSt3__18__invokeB8ne180100IZNS_16__variant_detail6__dtorINS1_8__traitsIJdN7pyfolio5ErrorEEEELNS1_6_TraitE1EE9__destroyB8ne180100EvEUlRT_E_JRNS1_5__altILm0EdEEEEEDTclclsr3stdE7declvalIS9_EEspclsr3stdE7declvalIT0_EEEEOS9_DpOSF_
FNA:0,13,_ZNSt3__18__invokeB8ne180100IZNS_16__variant_detail6__dtorINS1_8__traitsIJdN7pyfolio5ErrorEEEELNS1_6_TraitE1EE9__destroyB8ne180100EvEUlRT_E_JRNS1_5__altILm1ES5_EEEEEDTclclsr3stdE7declvalIS9_EEspclsr3stdE7declvalIT0_EEEEOS9_DpOSF_
FNA:0,12,_ZNSt3__18__invokeB8ne180100IZNS_16__variant_detail6__dtorINS1_8__traitsIJiN7pyfolio5ErrorEEEELNS1_6_TraitE1EE9__destroyB8ne180100EvEUlRT_E_JRNS1_5__altILm0EiEEEEEDTclclsr3stdE7declvalIS9_EEspclsr3stdE7declvalIT0_EEEEOS9_DpOSF_
FNA:0,1,_ZNSt3__18__invokeB8ne180100IZNS_16__variant_detail6__dtorINS1_8__traitsIJiN7pyfolio5ErrorEEEELNS1_6_TraitE1EE9__destroyB8ne180100EvEUlRT_E_JRNS1_5__altILm1ES5_EEEEEDTclclsr3stdE7declvalIS9_EEspclsr3stdE7declvalIT0_EEEEOS9_DpOSF_
FNF:1
FNH:1
DA:342,100527
DA:344,100527
LF:2
LH:2
end_of_record
TN:
SF:/Library/Developer/CommandLineTools/SDKs/MacOSX.sdk/usr/include/c++/v1/__utility/convert_to_integral.h
FNL:0,28,28
FNA:0,54,_ZNSt3__121__convert_to_integralB8ne180100El
FNL:1,30,31
FNA:1,77,_ZNSt3__121__convert_to_integralB8ne180100Em
FNF:2
FNH:2
DA:28,54
DA:30,77
DA:31,77
LF:3
LH:3
end_of_record
TN:
SF:/Library/Developer/CommandLineTools/SDKs/MacOSX.sdk/usr/include/c++/v1/__utility/exception_guard.h
FNL:0,136,137
FNA:0,0,_ZNSt3__122__make_exception_guardB8ne180100INS_29_AllocatorDestroyRangeReverseINS_9allocatorIN7testing12TestPropertyEEENS_16reverse_iteratorIPS4_EEEEEENS_28__exception_guard_exceptionsIT_EESB_
FNA:0,7,_ZNSt3__122__make_exception_guardB8ne180100INS_29_AllocatorDestroyRangeReverseINS_9allocatorIN7testing14TestPartResultEEENS_16reverse_iteratorIPS4_EEEEEENS_28__exception_guard_exceptionsIT_EESB_
FNA:0,0,_ZNSt3__122__make_exception_guardB8ne180100INS_29_AllocatorDestroyRangeReverseINS_9allocatorIN7testing8internal9TraceInfoEEENS_16reverse_iteratorIPS5_EEEEEENS_28__exception_guard_exceptionsIT_EESC_
FNA:0,42,_ZNSt3__122__make_exception_guardB8ne180100INS_29_AllocatorDestroyRangeReverseINS_9allocatorINS_12basic_stringIcNS_11char_traitsIcEENS2_IcEEEEEENS_16reverse_iteratorIPS7_EEEEEENS_28__exception_guard_exceptionsIT_EESE_
FNA:0,4,_ZNSt3__122__make_exception_guardB8ne180100INS_29_AllocatorDestroyRangeReverseINS_9allocatorINS_12basic_stringIcNS_11char_traitsIcEENS2_IcEEEEEEPS7_EEEENS_28__exception_guard_exceptionsIT_EESC_
FNA:0,18,_ZNSt3__122__make_exception_guardB8ne180100INS_29_AllocatorDestroyRangeReverseINS_9allocatorINS_3mapINS_12basic_stringIcNS_11char_traitsIcEENS2_IcEEEEdNS_4lessIS8_EENS2_INS_4pairIKS8_dEEEEEEEEPSF_EEEENS_28__exception_guard_exceptionsIT_EESK_
FNA:0,0,_ZNSt3__122__make_exception_guardB8ne180100INS_29_AllocatorDestroyRangeReverseINS_9allocatorINS_4pairIN7pyfolio8DateTimeEdEEEENS_16reverse_iteratorIPS6_EEEEEENS_28__exception_guard_exceptionsIT_EESD_
FNA:0,5,_ZNSt3__122__make_exception_guardB8ne180100INS_29_AllocatorDestroyRangeReverseINS_9allocatorINS_6threadEEENS_16reverse_iteratorIPS3_EEEEEENS_28__exception_guard_exceptionsIT_EESA_
FNA:0,84,_ZNSt3__122__make_exception_guardB8ne180100INS_6vectorIN7pyfolio8DateTimeENS_9allocatorIS3_EEE16__destroy_vectorEEENS_28__exception_guard_exceptionsIT_EES9_
FNA:0,0,_ZNSt3__122__make_exception_guardB8ne180100INS_6vectorIN7testing8internal13edit_distance8EditTypeENS_9allocatorIS5_EEE16__destroy_vectorEEENS_28__exception_guard_exceptionsIT_EESB_
FNA:0,0,_ZNSt3__122__make_exception_guardB8ne180100INS_6vectorINS1_IN7testing8internal13edit_distance8EditTypeENS_9allocatorIS5_EEEENS6_IS8_EEE16__destroy_vectorEEENS_28__exception_guard_exceptionsIT_EESD_
FNA:0,0,_ZNSt3__122__make_exception_guardB8ne180100INS_6vectorINS1_IdNS_9allocatorIdEEEENS2_IS4_EEE16__destroy_vectorEEENS_28__exception_guard_exceptionsIT_EES9_
FNA:0,8,_ZNSt3__122__make_exception_guardB8ne180100INS_6vectorINS_12basic_stringIcNS_11char_traitsIcEENS_9allocatorIcEEEENS5_IS7_EEE16__destroy_vectorEEENS_28__exception_guard_exceptionsIT_EESC_
FNA:0,115,_ZNSt3__122__make_exception_guardB8ne180100INS_6vectorIdNS_9allocatorIdEEE16__destroy_vectorEEENS_28__exception_guard_exceptionsIT_EES7_
FNL:1,68,69
FNA:1,0,_ZNSt3__128__exception_guard_exceptionsINS_29_AllocatorDestroyRangeReverseINS_9allocatorIN7testing12TestPropertyEEENS_16reverse_iteratorIPS4_EEEEEC1B8ne180100ES9_
FNA:1,0,_ZNSt3__128__exception_guard_exceptionsINS_29_AllocatorDestroyRangeReverseINS_9allocatorIN7testing12TestPropertyEEENS_16reverse_iteratorIPS4_EEEEEC2B8ne180100ES9_
FNA:1,7,_ZNSt3__128__exception_guard_exceptionsINS_29_AllocatorDestroyRangeReverseINS_9allocatorIN7testing14TestPartResultEEENS_16reverse_iteratorIPS4_EEEEEC1B8ne180100ES9_
FNA:1,7,_ZNSt3__128__exception_guard_exceptionsINS_29_AllocatorDestroyRangeReverseINS_9allocatorIN7testing14TestPartResultEEENS_16reverse_iteratorIPS4_EEEEEC2B8ne180100ES9_
FNA:1,0,_ZNSt3__128__exception_guard_exceptionsINS_29_AllocatorDestroyRangeReverseINS_9allocatorIN7testing8internal9TraceInfoEEENS_16reverse_iteratorIPS5_EEEEEC1B8ne180100ESA_
FNA:1,0,_ZNSt3__128__exception_guard_exceptionsINS_29_AllocatorDestroyRangeReverseINS_9allocatorIN7testing8internal9TraceInfoEEENS_16reverse_iteratorIPS5_EEEEEC2B8ne180100ESA_
FNA:1,42,_ZNSt3__128__exception_guard_exceptionsINS_29_AllocatorDestroyRangeReverseINS_9allocatorINS_12basic_stringIcNS_11char_traitsIcEENS2_IcEEEEEENS_16reverse_iteratorIPS7_EEEEEC1B8ne180100ESC_
FNA:1,42,_ZNSt3__128__exception_guard_exceptionsINS_29_AllocatorDestroyRangeReverseINS_9allocatorINS_12basic_stringIcNS_11char_traitsIcEENS2_IcEEEEEENS_16reverse_iteratorIPS7_EEEEEC2B8ne180100ESC_
FNA:1,4,_ZNSt3__128__exception_guard_exceptionsINS_29_AllocatorDestroyRangeReverseINS_9allocatorINS_12basic_stringIcNS_11char_traitsIcEENS2_IcEEEEEEPS7_EEEC1B8ne180100ESA_
FNA:1,4,_ZNSt3__128__exception_guard_exceptionsINS_29_AllocatorDestroyRangeReverseINS_9allocatorINS_12basic_stringIcNS_11char_traitsIcEENS2_IcEEEEEEPS7_EEEC2B8ne180100ESA_
FNA:1,18,_ZNSt3__128__exception_guard_exceptionsINS_29_AllocatorDestroyRangeReverseINS_9allocatorINS_3mapINS_12basic_stringIcNS_11char_traitsIcEENS2_IcEEEEdNS_4lessIS8_EENS2_INS_4pairIKS8_dEEEEEEEEPSF_EEEC1B8ne180100ESI_
FNA:1,18,_ZNSt3__128__exception_guard_exceptionsINS_29_AllocatorDestroyRangeReverseINS_9allocatorINS_3mapINS_12basic_stringIcNS_11char_traitsIcEENS2_IcEEEEdNS_4lessIS8_EENS2_INS_4pairIKS8_dEEEEEEEEPSF_EEEC2B8ne180100ESI_
FNA:1,0,_ZNSt3__128__exception_guard_exceptionsINS_29_AllocatorDestroyRangeReverseINS_9allocatorINS_4pairIN7pyfolio8DateTimeEdEEEENS_16reverse_iteratorIPS6_EEEEEC1B8ne180100ESB_
FNA:1,0,_ZNSt3__128__exception_guard_exceptionsINS_29_AllocatorDestroyRangeReverseINS_9allocatorINS_4pairIN7pyfolio8DateTimeEdEEEENS_16reverse_iteratorIPS6_EEEEEC2B8ne180100ESB_
FNA:1,5,_ZNSt3__128__exception_guard_exceptionsINS_29_AllocatorDestroyRangeReverseINS_9allocatorINS_6threadEEENS_16reverse_iteratorIPS3_EEEEEC1B8ne180100ES8_
FNA:1,5,_ZNSt3__128__exception_guard_exceptionsINS_29_AllocatorDestroyRangeReverseINS_9allocatorINS_6threadEEENS_16reverse_iteratorIPS3_EEEEEC2B8ne180100ES8_
FNA:1,84,_ZNSt3__128__exception_guard_exceptionsINS_6vectorIN7pyfolio8DateTimeENS_9allocatorIS3_EEE16__destroy_vectorEEC1B8ne180100ES7_
FNA:1,84,_ZNSt3__128__exception_guard_exceptionsINS_6vectorIN7pyfolio8DateTimeENS_9allocatorIS3_EEE16__destroy_vectorEEC2B8ne180100ES7_
FNA:1,0,_ZNSt3__128__exception_guard_exceptionsINS_6vectorIN7testing8internal13edit_distance8EditTypeENS_9allocatorIS5_EEE16__destroy_vectorEEC1B8ne180100ES9_
FNA:1,0,_ZNSt3__128__exception_guard_exceptionsINS_6vectorIN7testing8internal13edit_distance8EditTypeENS_9allocatorIS5_EEE16__destroy_vectorEEC2B8ne180100ES9_
FNA:1,0,_ZNSt3__128__exception_guard_exceptionsINS_6vectorINS1_IN7testing8internal13edit_distance8EditTypeENS_9allocatorIS5_EEEENS6_IS8_EEE16__destroy_vectorEEC1B8ne180100ESB_
FNA:1,0,_ZNSt3__128__exception_guard_exceptionsINS_6vectorINS1_IN7testing8internal13edit_distance8EditTypeENS_9allocatorIS5_EEEENS6_IS8_EEE16__destroy_vectorEEC2B8ne180100ESB_
FNA:1,0,_ZNSt3__128__exception_guard_exceptionsINS_6vectorINS1_IdNS_9allocatorIdEEEENS2_IS4_EEE16__destroy_vectorEEC1B8ne180100ES7_
FNA:1,0,_ZNSt3__128__exception_guard_exceptionsINS_6vectorINS1_IdNS_9allocatorIdEEEENS2_IS4_EEE16__destroy_vectorEEC2B8ne180100ES7_
FNA:1,8,_ZNSt3__128__exception_guard_exceptionsINS_6vectorINS_12basic_stringIcNS_11char_traitsIcEENS_9allocatorIcEEEENS5_IS7_EEE16__destroy_vectorEEC1B8ne180100ESA_
FNA:1,8,_ZNSt3__128__exception_guard_exceptionsINS_6vectorINS_12basic_stringIcNS_11char_traitsIcEENS_9allocatorIcEEEENS5_IS7_EEE16__destroy_vectorEEC2B8ne180100ESA_
FNA:1,115,_ZNSt3__128__exception_guard_exceptionsINS_6vectorIdNS_9allocatorIdEEE16__destroy_vectorEEC1B8ne180100ES5_
FNA:1,115,_ZNSt3__128__exception_guard_exceptionsINS_6vectorIdNS_9allocatorIdEEE16__destroy_vectorEEC2B8ne180100ES5_
FNL:2,82,82
FNA:2,0,_ZNSt3__128__exception_guard_exceptionsINS_29_AllocatorDestroyRangeReverseINS_9allocatorIN7testing12TestPropertyEEENS_16reverse_iteratorIPS4_EEEEE10__completeB8ne180100Ev
FNA:2,7,_ZNSt3__128__exception_guard_exceptionsINS_29_AllocatorDestroyRangeReverseINS_9allocatorIN7testing14TestPartResultEEENS_16reverse_iteratorIPS4_EEEEE10__completeB8ne180100Ev
FNA:2,0,_ZNSt3__128__exception_guard_exceptionsINS_29_AllocatorDestroyRangeReverseINS_9allocatorIN7testing8internal9TraceInfoEEENS_16reverse_iteratorIPS5_EEEEE10__completeB8ne180100Ev
FNA:2,42,_ZNSt3__128__exception_guard_exceptionsINS_29_AllocatorDestroyRangeReverseINS_9allocatorINS_12basic_stringIcNS_11char_traitsIcEENS2_IcEEEEEENS_16reverse_iteratorIPS7_EEEEE10__completeB8ne180100Ev
FNA:2,4,_ZNSt3__128__exception_guard_exceptionsINS_29_AllocatorDestroyRangeReverseINS_9allocatorINS_12basic_stringIcNS_11char_traitsIcEENS2_IcEEEEEEPS7_EEE10__completeB8ne180100Ev
FNA:2,18,_ZNSt3__128__exception_guard_exceptionsINS_29_AllocatorDestroyRangeReverseINS_9allocatorINS_3mapINS_12basic_stringIcNS_11char_traitsIcEENS2_IcEEEEdNS_4lessIS8_EENS2_INS_4pairIKS8_dEEEEEEEEPSF_EEE10__completeB8ne180100Ev
FNA:2,0,_ZNSt3__128__exception_guard_exceptionsINS_29_AllocatorDestroyRangeReverseINS_9allocatorINS_4pairIN7pyfolio8DateTimeEdEEEENS_16reverse_iteratorIPS6_EEEEE10__completeB8ne180100Ev
FNA:2,5,_ZNSt3__128__exception_guard_exceptionsINS_29_AllocatorDestroyRangeReverseINS_9allocatorINS_6threadEEENS_16reverse_iteratorIPS3_EEEEE10__completeB8ne180100Ev
FNA:2,84,_ZNSt3__128__exception_guard_exceptionsINS_6vectorIN7pyfolio8DateTimeENS_9allocatorIS3_EEE16__destroy_vectorEE10__completeB8ne180100Ev
FNA:2,0,_ZNSt3__128__exception_guard_exceptionsINS_6vectorIN7testing8internal13edit_distance8EditTypeENS_9allocatorIS5_EEE16__destroy_vectorEE10__completeB8ne180100Ev
FNA:2,0,_ZNSt3__128__exception_guard_exceptionsINS_6vectorINS1_IN7testing8internal13edit_distance8EditTypeENS_9allocatorIS5_EEEENS6_IS8_EEE16__destroy_vectorEE10__completeB8ne180100Ev
FNA:2,0,_ZNSt3__128__exception_guard_exceptionsINS_6vectorINS1_IdNS_9allocatorIdEEEENS2_IS4_EEE16__destroy_vectorEE10__completeB8ne180100Ev
FNA:2,8,_ZNSt3__128__exception_guard_exceptionsINS_6vectorINS_12basic_stringIcNS_11char_traitsIcEENS_9allocatorIcEEEENS5_IS7_EEE16__destroy_vectorEE10__completeB8ne180100Ev
FNA:2,115,_ZNSt3__128__exception_guard_exceptionsINS_6vectorIdNS_9allocatorIdEEE16__destroy_vectorEE10__completeB8ne180100Ev
FNL:3,84,87
FNA:3,0,_ZNSt3__128__exception_guard_exceptionsINS_29_AllocatorDestroyRangeReverseINS_9allocatorIN7testing12TestPropertyEEENS_16reverse_iteratorIPS4_EEEEED1B8ne180100Ev
FNA:3,0,_ZNSt3__128__exception_guard_exceptionsINS_29_AllocatorDestroyRangeReverseINS_9allocatorIN7testing12TestPropertyEEENS_16reverse_iteratorIPS4_EEEEED2B8ne180100Ev
FNA:3,7,_ZNSt3__128__exception_guard_exceptionsINS_29_AllocatorDestroyRangeReverseINS_9allocatorIN7testing14TestPartResultEEENS_16reverse_iteratorIPS4_EEEEED1B8ne180100Ev
FNA:3,7,_ZNSt3__128__exception_guard_exceptionsINS_29_AllocatorDestroyRangeReverseINS_9allocatorIN7testing14TestPartResultEEENS_16reverse_iteratorIPS4_EEEEED2B8ne180100Ev
FNA:3,0,_ZNSt3__128__exception_guard_exceptionsINS_29_AllocatorDestroyRangeReverseINS_9allocatorIN7testing8internal9TraceInfoEEENS_16reverse_iteratorIPS5_EEEEED1B8ne180100Ev
FNA:3,0,_ZNSt3__128__exception_guard_exceptionsINS_29_AllocatorDestroyRangeReverseINS_9allocatorIN7testing8internal9TraceInfoEEENS_16reverse_iteratorIPS5_EEEEED2B8ne180100Ev
FNA:3,42,_ZNSt3__128__exception_guard_exceptionsINS_29_AllocatorDestroyRangeReverseINS_9allocatorINS_12basic_stringIcNS_11char_traitsIcEENS2_IcEEEEEENS_16reverse_iteratorIPS7_EEEEED1B8ne180100Ev
FNA:3,42,_ZNSt3__128__exception_guard_exceptionsINS_29_AllocatorDestroyRangeReverseINS_9allocatorINS_12basic_stringIcNS_11char_traitsIcEENS2_IcEEEEEENS_16reverse_iteratorIPS7_EEEEED2B8ne180100Ev
FNA:3,4,_ZNSt3__128__exception_guard_exceptionsINS_29_AllocatorDestroyRangeReverseINS_9allocatorINS_12basic_stringIcNS_11char_traitsIcEENS2_IcEEEEEEPS7_EEED1B8ne180100Ev
FNA:3,4,_ZNSt3__128__exception_guard_exceptionsINS_29_AllocatorDestroyRangeReverseINS_9allocatorINS_12basic_stringIcNS_11char_traitsIcEENS2_IcEEEEEEPS7_EEED2B8ne180100Ev
FNA:3,18,_ZNSt3__128__exception_guard_exceptionsINS_29_AllocatorDestroyRangeReverseINS_9allocatorINS_3mapINS_12basic_stringIcNS_11char_traitsIcEENS2_IcEEEEdNS_4lessIS8_EENS2_INS_4pairIKS8_dEEEEEEEEPSF_EEED1B8ne180100Ev
FNA:3,18,_ZNSt3__128__exception_guard_exceptionsINS_29_AllocatorDestroyRangeReverseINS_9allocatorINS_3mapINS_12basic_stringIcNS_11char_traitsIcEENS2_IcEEEEdNS_4lessIS8_EENS2_INS_4pairIKS8_dEEEEEEEEPSF_EEED2B8ne180100Ev
FNA:3,0,_ZNSt3__128__exception_guard_exceptionsINS_29_AllocatorDestroyRangeReverseINS_9allocatorINS_4pairIN7pyfolio8DateTimeEdEEEENS_16reverse_iteratorIPS6_EEEEED1B8ne180100Ev
FNA:3,0,_ZNSt3__128__exception_guard_exceptionsINS_29_AllocatorDestroyRangeReverseINS_9allocatorINS_4pairIN7pyfolio8DateTimeEdEEEENS_16reverse_iteratorIPS6_EEEEED2B8ne180100Ev
FNA:3,5,_ZNSt3__128__exception_guard_exceptionsINS_29_AllocatorDestroyRangeReverseINS_9allocatorINS_6threadEEENS_16reverse_iteratorIPS3_EEEEED1B8ne180100Ev
FNA:3,5,_ZNSt3__128__exception_guard_exceptionsINS_29_AllocatorDestroyRangeReverseINS_9allocatorINS_6threadEEENS_16reverse_iteratorIPS3_EEEEED2B8ne180100Ev
FNA:3,84,_ZNSt3__128__exception_guard_exceptionsINS_6vectorIN7pyfolio8DateTimeENS_9allocatorIS3_EEE16__destroy_vectorEED1B8ne180100Ev
FNA:3,84,_ZNSt3__128__exception_guard_exceptionsINS_6vectorIN7pyfolio8DateTimeENS_9allocatorIS3_EEE16__destroy_vectorEED2B8ne180100Ev
FNA:3,0,_ZNSt3__128__exception_guard_exceptionsINS_6vectorIN7testing8internal13edit_distance8EditTypeENS_9allocatorIS5_EEE16__destroy_vectorEED1B8ne180100Ev
FNA:3,0,_ZNSt3__128__exception_guard_exceptionsINS_6vectorIN7testing8internal13edit_distance8EditTypeENS_9allocatorIS5_EEE16__destroy_vectorEED2B8ne180100Ev
FNA:3,0,_ZNSt3__128__exception_guard_exceptionsINS_6vectorINS1_IN7testing8internal13edit_distance8EditTypeENS_9allocatorIS5_EEEENS6_IS8_EEE16__destroy_vectorEED1B8ne180100Ev
FNA:3,0,_ZNSt3__128__exception_guard_exceptionsINS_6vectorINS1_IN7testing8internal13edit_distance8EditTypeENS_9allocatorIS5_EEEENS6_IS8_EEE16__destroy_vectorEED2B8ne180100Ev
FNA:3,0,_ZNSt3__128__exception_guard_exceptionsINS_6vectorINS1_IdNS_9allocatorIdEEEENS2_IS4_EEE16__destroy_vectorEED1B8ne180100Ev
FNA:3,0,_ZNSt3__128__exception_guard_exceptionsINS_6vectorINS1_IdNS_9allocatorIdEEEENS2_IS4_EEE16__destroy_vectorEED2B8ne180100Ev
FNA:3,8,_ZNSt3__128__exception_guard_exceptionsINS_6vectorINS_12basic_stringIcNS_11char_traitsIcEENS_9allocatorIcEEEENS5_IS7_EEE16__destroy_vectorEED1B8ne180100Ev
FNA:3,8,_ZNSt3__128__exception_guard_exceptionsINS_6vectorINS_12basic_stringIcNS_11char_traitsIcEENS_9allocatorIcEEEENS5_IS7_EEE16__destroy_vectorEED2B8ne180100Ev
FNA:3,115,_ZNSt3__128__exception_guard_exceptionsINS_6vectorIdNS_9allocatorIdEEE16__destroy_vectorEED1B8ne180100Ev
FNA:3,115,_ZNSt3__128__exception_guard_exceptionsINS_6vectorIdNS_9allocatorIdEEE16__destroy_vectorEED2B8ne180100Ev
FNF:4
FNH:4
DA:68,566
DA:69,566
DA:82,283
DA:84,566
DA:85,283
DA:86,0
DA:87,566
DA:136,283
DA:137,283
LF:9
LH:8
end_of_record
TN:
SF:/Library/Developer/CommandLineTools/SDKs/MacOSX.sdk/usr/include/c++/v1/__utility/pair.h
FNL:0,176,178
FNA:0,0,_ZNSt3__14pairIRNS_12basic_stringIcNS_11char_traitsIcEENS_9allocatorIcEEEERdEC1B8ne180100ILb1ELi0EEES7_S8_
FNA:0,0,_ZNSt3__14pairIRNS_12basic_stringIcNS_11char_traitsIcEENS_9allocatorIcEEEERdEC2B8ne180100ILb1ELi0EEES7_S8_
FNL:1,204,208
FNA:1,0,_ZNSt3__14pairIKNS_12basic_stringIcNS_11char_traitsIcEENS_9allocatorIcEEEEN7testing8internal34TypeParameterizedTestSuiteRegistry30TypeParameterizedTestSuiteInfoEEC1B8ne180100IS6_SB_Li0EEEOT_OT0_
FNA:1,0,_ZNSt3__14pairIKNS_12basic_stringIcNS_11char_traitsIcEENS_9allocatorIcEEEEN7testing8internal34TypeParameterizedTestSuiteRegistry30TypeParameterizedTestSuiteInfoEEC2B8ne180100IS6_SB_Li0EEEOT_OT0_
FNA:1,540,_ZNSt3__14pairIKNS_12basic_stringIcNS_11char_traitsIcEENS_9allocatorIcEEEEdEC1B8ne180100IRA5_KcdLi0EEEOT_OT0_
FNA:1,540,_ZNSt3__14pairIKNS_12basic_stringIcNS_11char_traitsIcEENS_9allocatorIcEEEEdEC2B8ne180100IRA5_KcdLi0EEEOT_OT0_
FNA:1,0,_ZNSt3__14pairIN7pyfolio8DateTimeEdEC1B8ne180100IS2_dLi0EEEOT_OT0_
FNA:1,0,_ZNSt3__14pairIN7pyfolio8DateTimeEdEC2B8ne180100IS2_dLi0EEEOT_OT0_
FNA:1,12,_ZNSt3__14pairINS_11__wrap_iterIPNS_12basic_stringIcNS_11char_traitsIcEENS_9allocatorIcEEEEEENS_15insert_iteratorINS_13unordered_setIS7_NS_4hashIS7_EENS_8equal_toIS7_EENS5_IS7_EEEEEEEC1B8ne180100IS9_SI_Li0EEEOT_OT0_
FNA:1,12,_ZNSt3__14pairINS_11__wrap_iterIPNS_12basic_stringIcNS_11char_traitsIcEENS_9allocatorIcEEEEEENS_15insert_iteratorINS_13unordered_setIS7_NS_4hashIS7_EENS_8equal_toIS7_EENS5_IS7_EEEEEEEC2B8ne180100IS9_SI_Li0EEEOT_OT0_
FNA:1,12,_ZNSt3__14pairINS_11__wrap_iterIPNS_12basic_stringIcNS_11char_traitsIcEENS_9allocatorIcEEEEEENS_15insert_iteratorINS_6vectorIS7_NS5_IS7_EEEEEEEC1B8ne180100IS9_SE_Li0EEEOT_OT0_
FNA:1,12,_ZNSt3__14pairINS_11__wrap_iterIPNS_12basic_stringIcNS_11char_traitsIcEENS_9allocatorIcEEEEEENS_15insert_iteratorINS_6vectorIS7_NS5_IS7_EEEEEEEC2B8ne180100IS9_SE_Li0EEEOT_OT0_
FNA:1,12,_ZNSt3__14pairINS_11__wrap_iterIPNS_12basic_stringIcNS_11char_traitsIcEENS_9allocatorIcEEEEEES9_EC1B8ne180100IS9_S9_Li0EEEOT_OT0_
FNA:1,12,_ZNSt3__14pairINS_11__wrap_iterIPNS_12basic_stringIcNS_11char_traitsIcEENS_9allocatorIcEEEEEES9_EC2B8ne180100IS9_S9_Li0EEEOT_OT0_
FNA:1,2,_ZNSt3__14pairINS_11__wrap_iterIPdEES3_EC1B8ne180100IRS3_S6_Li0EEEOT_OT0_
FNA:1,2,_ZNSt3__14pairINS_11__wrap_iterIPdEES3_EC2B8ne180100IRS3_S6_Li0EEEOT_OT0_
FNA:1,0,_ZNSt3__14pairINS_15__hash_iteratorIPNS_11__hash_nodeINS_12basic_stringIcNS_11char_traitsIcEENS_9allocatorIcEEEEPvEEEEbEC1B8ne180100ISC_RbLi0EEEOT_OT0_
FNA:1,0,_ZNSt3__14pairINS_15__hash_iteratorIPNS_11__hash_nodeINS_12basic_stringIcNS_11char_traitsIcEENS_9allocatorIcEEEEPvEEEEbEC2B8ne180100ISC_RbLi0EEEOT_OT0_
FNA:1,0,_ZNSt3__14pairINS_15__tree_iteratorINS_12__value_typeINS_12basic_stringIcNS_11char_traitsIcEENS_9allocatorIcEEEEN7testing8internal34TypeParameterizedTestSuiteRegistry30TypeParameterizedTestSuiteInfoEEEPNS_11__tree_nodeISD_PvEElEEbEC1B8ne180100ISI_RbLi0EEEOT_OT0_
FNA:1,0,_ZNSt3__14pairINS_15__tree_iteratorINS_12__value_typeINS_12basic_stringIcNS_11char_traitsIcEENS_9allocatorIcEEEEN7testing8internal34TypeParameterizedTestSuiteRegistry30TypeParameterizedTestSuiteInfoEEEPNS_11__tree_nodeISD_PvEElEEbEC2B8ne180100ISI_RbLi0EEEOT_OT0_
FNA:1,1080,_ZNSt3__14pairINS_15__tree_iteratorINS_12__value_typeINS_12basic_stringIcNS_11char_traitsIcEENS_9allocatorIcEEEEdEEPNS_11__tree_nodeIS9_PvEElEEbEC1B8ne180100ISE_RbLi0EEEOT_OT0_
FNA:1,1080,_ZNSt3__14pairINS_15__tree_iteratorINS_12__value_typeINS_12basic_stringIcNS_11char_traitsIcEENS_9allocatorIcEEEEdEEPNS_11__tree_nodeIS9_PvEElEEbEC2B8ne180100ISE_RbLi0EEEOT_OT0_
FNA:1,0,_ZNSt3__14pairINS_15__tree_iteratorINS_12__value_typeINS_12basic_stringIcNS_11char_traitsIcEENS_9allocatorIcEEEEmEEPNS_11__tree_nodeIS9_PvEElEEbEC1B8ne180100ISE_RbLi0EEEOT_OT0_
FNA:1,0,_ZNSt3__14pairINS_15__tree_iteratorINS_12__value_typeINS_12basic_stringIcNS_11char_traitsIcEENS_9allocatorIcEEEEmEEPNS_11__tree_nodeIS9_PvEElEEbEC2B8ne180100ISE_RbLi0EEEOT_OT0_
FNA:1,0,_ZNSt3__14pairINS_15__tree_iteratorINS_12basic_stringIcNS_11char_traitsIcEENS_9allocatorIcEEEEPNS_11__tree_nodeIS7_PvEElEEbEC1B8ne180100ISC_RbLi0EEEOT_OT0_
FNA:1,0,_ZNSt3__14pairINS_15__tree_iteratorINS_12basic_stringIcNS_11char_traitsIcEENS_9allocatorIcEEEEPNS_11__tree_nodeIS7_PvEElEEbEC2B8ne180100ISC_RbLi0EEEOT_OT0_
FNA:1,50,_ZNSt3__14pairINS_15__tree_iteratorINS_6chrono14year_month_dayEPNS_11__tree_nodeIS3_PvEElEEbEC1B8ne180100IS8_RbLi0EEEOT_OT0_
FNA:1,50,_ZNSt3__14pairINS_15__tree_iteratorINS_6chrono14year_month_dayEPNS_11__tree_nodeIS3_PvEElEEbEC2B8ne180100IS8_RbLi0EEEOT_OT0_
FNA:1,3,_ZNSt3__14pairINS_16reverse_iteratorIPN7pyfolio8DateTimeEEES5_EC1B8ne180100IS5_S5_Li0EEEOT_OT0_
FNA:1,3,_ZNSt3__14pairINS_16reverse_iteratorIPN7pyfolio8DateTimeEEES5_EC2B8ne180100IS5_S5_Li0EEEOT_OT0_
FNA:1,0,_ZNSt3__14pairINS_16reverse_iteratorIPN7testing8internal13edit_distance8EditTypeEEES7_EC1B8ne180100IS7_S7_Li0EEEOT_OT0_
FNA:1,0,_ZNSt3__14pairINS_16reverse_iteratorIPN7testing8internal13edit_distance8EditTypeEEES7_EC2B8ne180100IS7_S7_Li0EEEOT_OT0_
FNA:1,0,_ZNSt3__14pairINS_16reverse_iteratorIPPN7testing11EnvironmentEEES6_EC1B8ne180100IS6_S6_Li0EEEOT_OT0_
FNA:1,0,_ZNSt3__14pairINS_16reverse_iteratorIPPN7testing11EnvironmentEEES6_EC2B8ne180100IS6_S6_Li0EEEOT_OT0_
FNA:1,12,_ZNSt3__14pairINS_16reverse_iteratorIPPN7testing17TestEventListenerEEES6_EC1B8ne180100IS6_S6_Li0EEEOT_OT0_
FNA:1,12,_ZNSt3__14pairINS_16reverse_iteratorIPPN7testing17TestEventListenerEEES6_EC2B8ne180100IS6_S6_Li0EEEOT_OT0_
FNA:1,69,_ZNSt3__14pairINS_16reverse_iteratorIPPN7testing8TestInfoEEES6_EC1B8ne180100IS6_S6_Li0EEEOT_OT0_
FNA:1,69,_ZNSt3__14pairINS_16reverse_iteratorIPPN7testing8TestInfoEEES6_EC2B8ne180100IS6_S6_Li0EEEOT_OT0_
FNA:1,12,_ZNSt3__14pairINS_16reverse_iteratorIPPN7testing9TestSuiteEEES6_EC1B8ne180100IS6_S6_Li0EEEOT_OT0_
FNA:1,12,_ZNSt3__14pairINS_16reverse_iteratorIPPN7testing9TestSuiteEEES6_EC2B8ne180100IS6_S6_Li0EEEOT_OT0_
FNA:1,0,_ZNSt3__14pairINS_16reverse_iteratorIPPcEES4_EC1B8ne180100IS4_S4_Li0EEEOT_OT0_
FNA:1,0,_ZNSt3__14pairINS_16reverse_iteratorIPPcEES4_EC2B8ne180100IS4_S4_Li0EEEOT_OT0_
FNA:1,75,_ZNSt3__14pairINS_16reverse_iteratorIPdEES3_EC1B8ne180100IS3_S3_Li0EEEOT_OT0_
FNA:1,75,_ZNSt3__14pairINS_16reverse_iteratorIPdEES3_EC2B8ne180100IS3_S3_Li0EEEOT_OT0_
FNA:1,81,_ZNSt3__14pairINS_16reverse_iteratorIPiEES3_EC1B8ne180100IS3_S3_Li0EEEOT_OT0_
FNA:1,81,_ZNSt3__14pairINS_16reverse_iteratorIPiEES3_EC2B8ne180100IS3_S3_Li0EEEOT_OT0_
FNA:1,0,_ZNSt3__14pairINS_16reverse_iteratorIPmEES3_EC1B8ne180100IS3_S3_Li0EEEOT_OT0_
FNA:1,0,_ZNSt3__14pairINS_16reverse_iteratorIPmEES3_EC2B8ne180100IS3_S3_Li0EEEOT_OT0_
FNA:1,37,_ZNSt3__14pairIPKN7pyfolio8DateTimeEPS2_EC1B8ne180100IRS4_S5_Li0EEEOT_OT0_
FNA:1,37,_ZNSt3__14pairIPKN7pyfolio8DateTimeEPS2_EC1B8ne180100IS4_S5_Li0EEEOT_OT0_
FNA:1,37,_ZNSt3__14pairIPKN7pyfolio8DateTimeEPS2_EC2B8ne180100IRS4_S5_Li0EEEOT_OT0_
FNA:1,37,_ZNSt3__14pairIPKN7pyfolio8DateTimeEPS2_EC2B8ne180100IS4_S5_Li0EEEOT_OT0_
FNA:1,74,_ZNSt3__14pairIPKN7pyfolio8DateTimeES4_EC1B8ne180100IS4_S4_Li0EEEOT_OT0_
FNA:1,74,_ZNSt3__14pairIPKN7pyfolio8DateTimeES4_EC2B8ne180100IS4_S4_Li0EEEOT_OT0_
FNA:1,0,_ZNSt3__14pairIPKNS_12basic_stringIcNS_11char_traitsIcEENS_9allocatorIcEEEES8_EC1B8ne180100IS8_S8_Li0EEEOT_OT0_
FNA:1,0,_ZNSt3__14pairIPKNS_12basic_stringIcNS_11char_traitsIcEENS_9allocatorIcEEEES8_EC2B8ne180100IS8_S8_Li0EEEOT_OT0_
FNA:1,0,_ZNSt3__14pairIPKNS_3mapINS_12basic_stringIcNS_11char_traitsIcEENS_9allocatorIcEEEEdNS_4lessIS7_EENS5_INS0_IKS7_dEEEEEEPSD_EC1B8ne180100ISF_SG_Li0EEEOT_OT0_
FNA:1,0,_ZNSt3__14pairIPKNS_3mapINS_12basic_stringIcNS_11char_traitsIcEENS_9allocatorIcEEEEdNS_4lessIS7_EENS5_INS0_IKS7_dEEEEEEPSD_EC2B8ne180100ISF_SG_Li0EEEOT_OT0_
FNA:1,18,_ZNSt3__14pairIPKNS_3mapINS_12basic_stringIcNS_11char_traitsIcEENS_9allocatorIcEEEEdNS_4lessIS7_EENS5_INS0_IKS7_dEEEEEESF_EC1B8ne180100ISF_SF_Li0EEEOT_OT0_
FNA:1,18,_ZNSt3__14pairIPKNS_3mapINS_12basic_stringIcNS_11char_traitsIcEENS_9allocatorIcEEEEdNS_4lessIS7_EENS5_INS0_IKS7_dEEEEEESF_EC2B8ne180100ISF_SF_Li0EEEOT_OT0_
FNA:1,0,_ZNSt3__14pairIPKPKcS4_EC1B8ne180100IS4_S4_Li0EEEOT_OT0_
FNA:1,0,_ZNSt3__14pairIPKPKcS4_EC2B8ne180100IS4_S4_Li0EEEOT_OT0_
FNA:1,154,_ZNSt3__14pairIPKcPcEC1B8ne180100IRS2_S3_Li0EEEOT_OT0_
FNA:1,154,_ZNSt3__14pairIPKcPcEC1B8ne180100IS2_S3_Li0EEEOT_OT0_
FNA:1,154,_ZNSt3__14pairIPKcPcEC2B8ne180100IRS2_S3_Li0EEEOT_OT0_
FNA:1,154,_ZNSt3__14pairIPKcPcEC2B8ne180100IS2_S3_Li0EEEOT_OT0_
FNA:1,154,_ZNSt3__14pairIPKcS2_EC1B8ne180100IS2_S2_Li0EEEOT_OT0_
FNA:1,154,_ZNSt3__14pairIPKcS2_EC2B8ne180100IS2_S2_Li0EEEOT_OT0_
FNA:1,75,_ZNSt3__14pairIPKdPdEC1B8ne180100IRS2_S3_Li0EEEOT_OT0_
FNA:1,75,_ZNSt3__14pairIPKdPdEC1B8ne180100IS2_S3_Li0EEEOT_OT0_
FNA:1,75,_ZNSt3__14pairIPKdPdEC2B8ne180100IRS2_S3_Li0EEEOT_OT0_
FNA:1,75,_ZNSt3__14pairIPKdPdEC2B8ne180100IS2_S3_Li0EEEOT_OT0_
FNA:1,150,_ZNSt3__14pairIPKdS2_EC1B8ne180100IS2_S2_Li0EEEOT_OT0_
FNA:1,150,_ZNSt3__14pairIPKdS2_EC2B8ne180100IS2_S2_Li0EEEOT_OT0_
FNA:1,100,_ZNSt3__14pairIPN7pyfolio8DateTimeES3_EC1B8ne180100IRS3_S3_Li0EEEOT_OT0_
FNA:1,300,_ZNSt3__14pairIPN7pyfolio8DateTimeES3_EC1B8ne180100IS3_S3_Li0EEEOT_OT0_
FNA:1,100,_ZNSt3__14pairIPN7pyfolio8DateTimeES3_EC2B8ne180100IRS3_S3_Li0EEEOT_OT0_
FNA:1,300,_ZNSt3__14pairIPN7pyfolio8DateTimeES3_EC2B8ne180100IS3_S3_Li0EEEOT_OT0_
FNA:1,0,_ZNSt3__14pairIPN7testing8internal13edit_distance8EditTypeES5_EC1B8ne180100IRS5_S5_Li0EEEOT_OT0_
FNA:1,0,_ZNSt3__14pairIPN7testing8internal13edit_distance8EditTypeES5_EC1B8ne180100IS5_S5_Li0EEEOT_OT0_
FNA:1,0,_ZNSt3__14pairIPN7testing8internal13edit_distance8EditTypeES5_EC2B8ne180100IRS5_S5_Li0EEEOT_OT0_
FNA:1,0,_ZNSt3__14pairIPN7testing8internal13edit_distance8EditTypeES5_EC2B8ne180100IS5_S5_Li0EEEOT_OT0_
FNA:1,0,_ZNSt3__14pairIPNS0_IN7pyfolio8DateTimeEdEEbEC1B8ne180100IRS4_RbLi0EEEOT_OT0_
FNA:1,0,_ZNSt3__14pairIPNS0_IN7pyfolio8DateTimeEdEEbEC2B8ne180100IRS4_RbLi0EEEOT_OT0_
FNA:1,12,_ZNSt3__14pairIPNS_12basic_stringIcNS_11char_traitsIcEENS_9allocatorIcEEEENS_15insert_iteratorINS_13unordered_setIS6_NS_4hashIS6_EENS_8equal_toIS6_EENS4_IS6_EEEEEEEC1B8ne180100IS7_SG_Li0EEEOT_OT0_
FNA:1,12,_ZNSt3__14pairIPNS_12basic_stringIcNS_11char_traitsIcEENS_9allocatorIcEEEENS_15insert_iteratorINS_13unordered_setIS6_NS_4hashIS6_EENS_8equal_toIS6_EENS4_IS6_EEEEEEEC2B8ne180100IS7_SG_Li0EEEOT_OT0_
FNA:1,12,_ZNSt3__14pairIPNS_12basic_stringIcNS_11char_traitsIcEENS_9allocatorIcEEEENS_15insert_iteratorINS_6vectorIS6_NS4_IS6_EEEEEEEC1B8ne180100IS7_SC_Li0EEEOT_OT0_
FNA:1,12,_ZNSt3__14pairIPNS_12basic_stringIcNS_11char_traitsIcEENS_9allocatorIcEEEENS_15insert_iteratorINS_6vectorIS6_NS4_IS6_EEEEEEEC2B8ne180100IS7_SC_Li0EEEOT_OT0_
FNA:1,28,_ZNSt3__14pairIPNS_12basic_stringIcNS_11char_traitsIcEENS_9allocatorIcEEEES7_EC1B8ne180100IS7_S7_Li0EEEOT_OT0_
FNA:1,28,_ZNSt3__14pairIPNS_12basic_stringIcNS_11char_traitsIcEENS_9allocatorIcEEEES7_EC2B8ne180100IS7_S7_Li0EEEOT_OT0_
FNA:1,0,_ZNSt3__14pairIPPN7testing17TestEventListenerES4_EC1B8ne180100IRS4_S4_Li0EEEOT_OT0_
FNA:1,0,_ZNSt3__14pairIPPN7testing17TestEventListenerES4_EC1B8ne180100IS4_S4_Li0EEEOT_OT0_
FNA:1,0,_ZNSt3__14pairIPPN7testing17TestEventListenerES4_EC2B8ne180100IRS4_S4_Li0EEEOT_OT0_
FNA:1,0,_ZNSt3__14pairIPPN7testing17TestEventListenerES4_EC2B8ne180100IS4_S4_Li0EEEOT_OT0_
FNA:1,0,_ZNSt3__14pairIPPN7testing9TestSuiteES4_EC1B8ne180100IRS4_S4_Li0EEEOT_OT0_
FNA:1,0,_ZNSt3__14pairIPPN7testing9TestSuiteES4_EC1B8ne180100IRS4_S7_Li0EEEOT_OT0_
FNA:1,0,_ZNSt3__14pairIPPN7testing9TestSuiteES4_EC1B8ne180100IS4_S4_Li0EEEOT_OT0_
FNA:1,0,_ZNSt3__14pairIPPN7testing9TestSuiteES4_EC2B8ne180100IRS4_S4_Li0EEEOT_OT0_
FNA:1,0,_ZNSt3__14pairIPPN7testing9TestSuiteES4_EC2B8ne180100IRS4_S7_Li0EEEOT_OT0_
FNA:1,0,_ZNSt3__14pairIPPN7testing9TestSuiteES4_EC2B8ne180100IS4_S4_Li0EEEOT_OT0_
FNA:1,0,_ZNSt3__14pairIPPcS2_EC1B8ne180100IRS2_S2_Li0EEEOT_OT0_
FNA:1,0,_ZNSt3__14pairIPPcS2_EC1B8ne180100IRS2_S5_Li0EEEOT_OT0_
FNA:1,0,_ZNSt3__14pairIPPcS2_EC1B8ne180100IS2_S2_Li0EEEOT_OT0_
FNA:1,0,_ZNSt3__14pairIPPcS2_EC2B8ne180100IRS2_S2_Li0EEEOT_OT0_
FNA:1,0,_ZNSt3__14pairIPPcS2_EC2B8ne180100IRS2_S5_Li0EEEOT_OT0_
FNA:1,0,_ZNSt3__14pairIPPcS2_EC2B8ne180100IS2_S2_Li0EEEOT_OT0_
FNA:1,109,_ZNSt3__14pairIPdS1_EC1B8ne180100IRS1_S1_Li0EEEOT_OT0_
FNA:1,327,_ZNSt3__14pairIPdS1_EC1B8ne180100IS1_S1_Li0EEEOT_OT0_
FNA:1,109,_ZNSt3__14pairIPdS1_EC2B8ne180100IRS1_S1_Li0EEEOT_OT0_
FNA:1,327,_ZNSt3__14pairIPdS1_EC2B8ne180100IS1_S1_Li0EEEOT_OT0_
FNA:1,0,_ZNSt3__14pairIcPKcEC1B8ne180100IcRS2_Li0EEEOT_OT0_
FNA:1,0,_ZNSt3__14pairIcPKcEC2B8ne180100IcRS2_Li0EEEOT_OT0_
FNA:1,0,_ZNSt3__14pairImmEC1B8ne180100ImmLi0EEEOT_OT0_
FNA:1,0,_ZNSt3__14pairImmEC2B8ne180100ImmLi0EEEOT_OT0_
FNL:2,243,246
FNA:2,0,_ZNSt3__14pairINS_14__map_iteratorINS_15__tree_iteratorINS_12__value_typeINS_12basic_stringIcNS_11char_traitsIcEENS_9allocatorIcEEEEN7testing8internal34TypeParameterizedTestSuiteRegistry30TypeParameterizedTestSuiteInfoEEEPNS_11__tree_nodeISE_PvEElEEEEbEC1B8ne180100ISJ_bLi0EEEONS0_IT_T0_EE
FNA:2,0,_ZNSt3__14pairINS_14__map_iteratorINS_15__tree_iteratorINS_12__value_typeINS_12basic_stringIcNS_11char_traitsIcEENS_9allocatorIcEEEEN7testing8internal34TypeParameterizedTestSuiteRegistry30TypeParameterizedTestSuiteInfoEEEPNS_11__tree_nodeISE_PvEElEEEEbEC2B8ne180100ISJ_bLi0EEEONS0_IT_T0_EE
FNA:2,0,_ZNSt3__14pairINS_21__hash_const_iteratorIPNS_11__hash_nodeINS_12basic_stringIcNS_11char_traitsIcEENS_9allocatorIcEEEEPvEEEEbEC1B8ne180100INS_15__hash_iteratorISB_EEbLi0EEEONS0_IT_T0_EE
FNA:2,0,_ZNSt3__14pairINS_21__hash_const_iteratorIPNS_11__hash_nodeINS_12basic_stringIcNS_11char_traitsIcEENS_9allocatorIcEEEEPvEEEEbEC2B8ne180100INS_15__hash_iteratorISB_EEbLi0EEEONS0_IT_T0_EE
FNA:2,0,_ZNSt3__14pairINS_21__tree_const_iteratorINS_12basic_stringIcNS_11char_traitsIcEENS_9allocatorIcEEEEPNS_11__tree_nodeIS7_PvEElEEbEC1B8ne180100INS_15__tree_iteratorIS7_SB_lEEbLi0EEEONS0_IT_T0_EE
FNA:2,0,_ZNSt3__14pairINS_21__tree_const_iteratorINS_12basic_stringIcNS_11char_traitsIcEENS_9allocatorIcEEEEPNS_11__tree_nodeIS7_PvEElEEbEC2B8ne180100INS_15__tree_iteratorIS7_SB_lEEbLi0EEEONS0_IT_T0_EE
FNA:2,50,_ZNSt3__14pairINS_21__tree_const_iteratorINS_6chrono14year_month_dayEPNS_11__tree_nodeIS3_PvEElEEbEC1B8ne180100INS_15__tree_iteratorIS3_S7_lEEbLi0EEEONS0_IT_T0_EE
FNA:2,50,_ZNSt3__14pairINS_21__tree_const_iteratorINS_6chrono14year_month_dayEPNS_11__tree_nodeIS3_PvEElEEbEC2B8ne180100INS_15__tree_iteratorIS3_S7_lEEbLi0EEEONS0_IT_T0_EE
FNL:3,279,286
FNA:3,0,_ZNSt3__14pairIKNS_12basic_stringIcNS_11char_traitsIcEENS_9allocatorIcEEEEmEC1B8ne180100IJRS7_EJEEENS_21piecewise_construct_tENS_5tupleIJDpT_EEENSC_IJDpT0_EEE
FNL:4,298,304
FNA:4,0,_ZNSt3__14pairIN7pyfolio8DateTimeEdEaSB8ne180100EOS3_
FNA:4,0,_ZNSt3__14pairImmEaSB8ne180100EOS1_
FNL:5,311,314
FNA:5,0,_ZNSt3__14pairIRNS_12basic_stringIcNS_11char_traitsIcEENS_9allocatorIcEEEERdEaSB8ne180100IKS6_dLPv0EEERS9_RKNS0_IT_T0_EE
FNL:6,478,483
FNA:6,0,_ZNSt3__14pairIN7pyfolio8DateTimeEdE4swapB8ne180100ERS3_
FNL:7,582,585
FNA:7,0,_ZNSt3__14swapB8ne180100IN7pyfolio8DateTimeEdLi0EEEvRNS_4pairIT_T0_EES7_
FNL:8,599,601
FNA:8,12,_ZNSt3__19make_pairB8ne180100INS_11__wrap_iterIPNS_12basic_stringIcNS_11char_traitsIcEENS_9allocatorIcEEEEEENS_15insert_iteratorINS_13unordered_setIS7_NS_4hashIS7_EENS_8equal_toIS7_EENS5_IS7_EEEEEEEENS_4pairINS_18__unwrap_ref_decayIT_E4typeENSK_IT0_E4typeEEEOSL_OSO_
FNA:8,12,_ZNSt3__19make_pairB8ne180100INS_11__wrap_iterIPNS_12basic_stringIcNS_11char_traitsIcEENS_9allocatorIcEEEEEENS_15insert_iteratorINS_6vectorIS7_NS5_IS7_EEEEEEEENS_4pairINS_18__unwrap_ref_decayIT_E4typeENSG_IT0_E4typeEEEOSH_OSK_
FNA:8,12,_ZNSt3__19make_pairB8ne180100INS_11__wrap_iterIPNS_12basic_stringIcNS_11char_traitsIcEENS_9allocatorIcEEEEEES9_EENS_4pairINS_18__unwrap_ref_decayIT_E4typeENSB_IT0_E4typeEEEOSC_OSF_
FNA:8,2,_ZNSt3__19make_pairB8ne180100INS_16reverse_iteratorIPN7pyfolio8DateTimeEEES5_EENS_4pairINS_18__unwrap_ref_decayIT_E4typeENS7_IT0_E4typeEEEOS8_OSB_
FNA:8,0,_ZNSt3__19make_pairB8ne180100INS_16reverse_iteratorIPN7testing8internal13edit_distance8EditTypeEEES7_EENS_4pairINS_18__unwrap_ref_decayIT_E4typeENS9_IT0_E4typeEEEOSA_OSD_
FNA:8,0,_ZNSt3__19make_pairB8ne180100INS_16reverse_iteratorIPPN7testing11EnvironmentEEES6_EENS_4pairINS_18__unwrap_ref_decayIT_E4typeENS8_IT0_E4typeEEEOS9_OSC_
FNA:8,8,_ZNSt3__19make_pairB8ne180100INS_16reverse_iteratorIPPN7testing17TestEventListenerEEES6_EENS_4pairINS_18__unwrap_ref_decayIT_E4typeENS8_IT0_E4typeEEEOS9_OSC_
FNA:8,46,_ZNSt3__19make_pairB8ne180100INS_16reverse_iteratorIPPN7testing8TestInfoEEES6_EENS_4pairINS_18__unwrap_ref_decayIT_E4typeENS8_IT0_E4typeEEEOS9_OSC_
FNA:8,8,_ZNSt3__19make_pairB8ne180100INS_16reverse_iteratorIPPN7testing9TestSuiteEEES6_EENS_4pairINS_18__unwrap_ref_decayIT_E4typeENS8_IT0_E4typeEEEOS9_OSC_
FNA:8,0,_ZNSt3__19make_pairB8ne180100INS_16reverse_iteratorIPPcEES4_EENS_4pairINS_18__unwrap_ref_decayIT_E4typeENS6_IT0_E4typeEEEOS7_OSA_
FNA:8,50,_ZNSt3__19make_pairB8ne180100INS_16reverse_iteratorIPdEES3_EENS_4pairINS_18__unwrap_ref_decayIT_E4typeENS5_IT0_E4typeEEEOS6_OS9_
FNA:8,54,_ZNSt3__19make_pairB8ne180100INS_16reverse_iteratorIPiEES3_EENS_4pairINS_18__unwrap_ref_decayIT_E4typeENS5_IT0_E4typeEEEOS6_OS9_
FNA:8,0,_ZNSt3__19make_pairB8ne180100INS_16reverse_iteratorIPmEES3_EENS_4pairINS_18__unwrap_ref_decayIT_E4typeENS5_IT0_E4typeEEEOS6_OS9_
FNA:8,37,_ZNSt3__19make_pairB8ne180100IPKN7pyfolio8DateTimeEPS2_EENS_4pairINS_18__unwrap_ref_decayIT_E4typeENS7_IT0_E4typeEEEOS8_OSB_
FNA:8,0,_ZNSt3__19make_pairB8ne180100IPKNS_3mapINS_12basic_stringIcNS_11char_traitsIcEENS_9allocatorIcEEEEdNS_4lessIS7_EENS5_INS_4pairIKS7_dEEEEEEPSE_EENSA_INS_18__unwrap_ref_decayIT_E4typeENSI_IT0_E4typeEEEOSJ_OSM_
FNA:8,154,_ZNSt3__19make_pairB8ne180100IPKcPcEENS_4pairINS_18__unwrap_ref_decayIT_E4typeENS5_IT0_E4typeEEEOS6_OS9_
FNA:8,75,_ZNSt3__19make_pairB8ne180100IPKdPdEENS_4pairINS_18__unwrap_ref_decayIT_E4typeENS5_IT0_E4typeEEEOS6_OS9_
FNA:8,100,_ZNSt3__19make_pairB8ne180100IPN7pyfolio8DateTimeES3_EENS_4pairINS_18__unwrap_ref_decayIT_E4typeENS5_IT0_E4typeEEEOS6_OS9_
FNA:8,0,_ZNSt3__19make_pairB8ne180100IPN7testing8internal13edit_distance8EditTypeES5_EENS_4pairINS_18__unwrap_ref_decayIT_E4typeENS7_IT0_E4typeEEEOS8_OSB_
FNA:8,12,_ZNSt3__19make_pairB8ne180100IPNS_12basic_stringIcNS_11char_traitsIcEENS_9allocatorIcEEEENS_15insert_iteratorINS_13unordered_setIS6_NS_4hashIS6_EENS_8equal_toIS6_EENS4_IS6_EEEEEEEENS_4pairINS_18__unwrap_ref_decayIT_E4typeENSI_IT0_E4typeEEEOSJ_OSM_
FNA:8,12,_ZNSt3__19make_pairB8ne180100IPNS_12basic_stringIcNS_11char_traitsIcEENS_9allocatorIcEEEENS_15insert_iteratorINS_6vectorIS6_NS4_IS6_EEEEEEEENS_4pairINS_18__unwrap_ref_decayIT_E4typeENSE_IT0_E4typeEEEOSF_OSI_
FNA:8,0,_ZNSt3__19make_pairB8ne180100IPNS_12basic_stringIcNS_11char_traitsIcEENS_9allocatorIcEEEES7_EENS_4pairINS_18__unwrap_ref_decayIT_E4typeENS9_IT0_E4typeEEEOSA_OSD_
FNA:8,0,_ZNSt3__19make_pairB8ne180100IPPN7testing17TestEventListenerES4_EENS_4pairINS_18__unwrap_ref_decayIT_E4typeENS6_IT0_E4typeEEEOS7_OSA_
FNA:8,0,_ZNSt3__19make_pairB8ne180100IPPN7testing9TestSuiteES4_EENS_4pairINS_18__unwrap_ref_decayIT_E4typeENS6_IT0_E4typeEEEOS7_OSA_
FNA:8,0,_ZNSt3__19make_pairB8ne180100IPPcS2_EENS_4pairINS_18__unwrap_ref_decayIT_E4typeENS4_IT0_E4typeEEEOS5_OS8_
FNA:8,109,_ZNSt3__19make_pairB8ne180100IPdS1_EENS_4pairINS_18__unwrap_ref_decayIT_E4typeENS3_IT0_E4typeEEEOS4_OS7_
FNA:8,37,_ZNSt3__19make_pairB8ne180100IRPKN7pyfolio8DateTimeEPS2_EENS_4pairINS_18__unwrap_ref_decayIT_E4typeENS8_IT0_E4typeEEEOS9_OSC_
FNA:8,154,_ZNSt3__19make_pairB8ne180100IRPKcPcEENS_4pairINS_18__unwrap_ref_decayIT_E4typeENS6_IT0_E4typeEEEOS7_OSA_
FNA:8,75,_ZNSt3__19make_pairB8ne180100IRPKdPdEENS_4pairINS_18__unwrap_ref_decayIT_E4typeENS6_IT0_E4typeEEEOS7_OSA_
FNA:8,100,_ZNSt3__19make_pairB8ne180100IRPN7pyfolio8DateTimeES3_EENS_4pairINS_18__unwrap_ref_decayIT_E4typeENS6_IT0_E4typeEEEOS7_OSA_
FNA:8,0,_ZNSt3__19make_pairB8ne180100IRPN7testing8internal13edit_distance8EditTypeES5_EENS_4pairINS_18__unwrap_ref_decayIT_E4typeENS8_IT0_E4typeEEEOS9_OSC_
FNA:8,0,_ZNSt3__19make_pairB8ne180100IRPNS_4pairIN7pyfolio8DateTimeEdEERbEENS1_INS_18__unwrap_ref_decayIT_E4typeENS8_IT0_E4typeEEEOS9_OSC_
FNA:8,0,_ZNSt3__19make_pairB8ne180100IRPPN7testing17TestEventListenerES4_EENS_4pairINS_18__unwrap_ref_decayIT_E4typeENS7_IT0_E4typeEEEOS8_OSB_
FNA:8,0,_ZNSt3__19make_pairB8ne180100IRPPN7testing9TestSuiteES4_EENS_4pairINS_18__unwrap_ref_decayIT_E4typeENS7_IT0_E4typeEEEOS8_OSB_
FNA:8,0,_ZNSt3__19make_pairB8ne180100IRPPN7testing9TestSuiteES5_EENS_4pairINS_18__unwrap_ref_decayIT_E4typeENS7_IT0_E4typeEEEOS8_OSB_
FNA:8,0,_ZNSt3__19make_pairB8ne180100IRPPcS2_EENS_4pairINS_18__unwrap_ref_decayIT_E4typeENS5_IT0_E4typeEEEOS6_OS9_
FNA:8,0,_ZNSt3__19make_pairB8ne180100IRPPcS3_EENS_4pairINS_18__unwrap_ref_decayIT_E4typeENS5_IT0_E4typeEEEOS6_OS9_
FNA:8,109,_ZNSt3__19make_pairB8ne180100IRPdS1_EENS_4pairINS_18__unwrap_ref_decayIT_E4typeENS4_IT0_E4typeEEEOS5_OS8_
FNA:8,0,_ZNSt3__19make_pairB8ne180100IcRPKcEENS_4pairINS_18__unwrap_ref_decayIT_E4typeENS5_IT0_E4typeEEEOS6_OS9_
FNL:9,80,91
FNA:9,0,_ZNSt3__14pairIKNS_12basic_stringIcNS_11char_traitsIcEENS_9allocatorIcEEEEN7testing8internal34TypeParameterizedTestSuiteRegistry30TypeParameterizedTestSuiteInfoEED1Ev
FNA:9,0,_ZNSt3__14pairIKNS_12basic_stringIcNS_11char_traitsIcEENS_9allocatorIcEEEEN7testing8internal34TypeParameterizedTestSuiteRegistry30TypeParameterizedTestSuiteInfoEED2Ev
FNA:9,1620,_ZNSt3__14pairIKNS_12basic_stringIcNS_11char_traitsIcEENS_9allocatorIcEEEEdED1Ev
FNA:9,1620,_ZNSt3__14pairIKNS_12basic_stringIcNS_11char_traitsIcEENS_9allocatorIcEEEEdED2Ev
FNA:9,0,_ZNSt3__14pairIKNS_12basic_stringIcNS_11char_traitsIcEENS_9allocatorIcEEEEmED1Ev
FNA:9,0,_ZNSt3__14pairIKNS_12basic_stringIcNS_11char_traitsIcEENS_9allocatorIcEEEEmED2Ev
FNL:10,91,91
FNA:10,0,_ZNSt3__14pairIKNS_12basic_stringIcNS_11char_traitsIcEENS_9allocatorIcEEEEN7testing8internal34TypeParameterizedTestSuiteRegistry30TypeParameterizedTestSuiteInfoEEC1B8ne180100ERKSC_
FNA:10,0,_ZNSt3__14pairIKNS_12basic_stringIcNS_11char_traitsIcEENS_9allocatorIcEEEEN7testing8internal34TypeParameterizedTestSuiteRegistry30TypeParameterizedTestSuiteInfoEEC2B8ne180100ERKSC_
FNA:10,1080,_ZNSt3__14pairIKNS_12basic_stringIcNS_11char_traitsIcEENS_9allocatorIcEEEEdEC1B8ne180100ERKS8_
FNA:10,1080,_ZNSt3__14pairIKNS_12basic_stringIcNS_11char_traitsIcEENS_9allocatorIcEEEEdEC2B8ne180100ERKS8_
FNF:11
FNH:5
DA:91,2160
DA:176,0
DA:178,0
DA:204,7552
DA:207,7552
DA:208,7552
DA:243,100
DA:246,100
DA:279,0
DA:282,0
DA:286,0
DA:298,0
DA:302,0
DA:303,0
DA:304,0
DA:311,0
DA:312,0
DA:313,0
DA:314,0
DA:478,0
DA:481,0
DA:482,0
DA:483,0
DA:582,0
DA:584,0
DA:585,0
DA:599,1178
DA:600,1178
DA:601,1178
LF:29
LH:9
end_of_record
TN:
SF:/Library/Developer/CommandLineTools/SDKs/MacOSX.sdk/usr/include/c++/v1/__utility/swap.h
FNL:0,40,45
FNA:0,0,_ZNSt3__14swapB8ne180100IN7pyfolio8DateTimeEEENS_9enable_ifIXaasr21is_move_constructibleIT_EE5valuesr18is_move_assignableIS4_EE5valueEvE4typeERS4_S7_
FNA:0,0,_ZNSt3__14swapB8ne180100IN7testing8internal13edit_distance8EditTypeEEENS_9enable_ifIXaasr21is_move_constructibleIT_EE5valuesr18is_move_assignableIS6_EE5valueEvE4typeERS6_S9_
FNA:0,0,_ZNSt3__14swapB8ne180100INS_12basic_stringIcNS_11char_traitsIcEENS_9allocatorIcEEE5__repEEENS_9enable_ifIXaasr21is_move_constructibleIT_EE5valuesr18is_move_assignableIS9_EE5valueEvE4typeERS9_SC_
FNA:0,0,_ZNSt3__14swapB8ne180100INS_14default_deleteINS_12basic_stringIcNS_11char_traitsIcEENS_9allocatorIcEEEEEEEENS_9enable_ifIXaasr21is_move_constructibleIT_EE5valuesr18is_move_assignableISA_EE5valueEvE4typeERSA_SD_
FNA:0,3,_ZNSt3__14swapB8ne180100IPN7pyfolio8DateTimeEEENS_9enable_ifIXaasr21is_move_constructibleIT_EE5valuesr18is_move_assignableIS5_EE5valueEvE4typeERS5_S8_
FNA:0,0,_ZNSt3__14swapB8ne180100IPN7testing12TestPropertyEEENS_9enable_ifIXaasr21is_move_constructibleIT_EE5valuesr18is_move_assignableIS5_EE5valueEvE4typeERS5_S8_
FNA:0,21,_ZNSt3__14swapB8ne180100IPN7testing14TestPartResultEEENS_9enable_ifIXaasr21is_move_constructibleIT_EE5valuesr18is_move_assignableIS5_EE5valueEvE4typeERS5_S8_
FNA:0,0,_ZNSt3__14swapB8ne180100IPN7testing8internal13edit_distance8EditTypeEEENS_9enable_ifIXaasr21is_move_constructibleIT_EE5valuesr18is_move_assignableIS7_EE5valueEvE4typeERS7_SA_
FNA:0,0,_ZNSt3__14swapB8ne180100IPN7testing8internal9TraceInfoEEENS_9enable_ifIXaasr21is_move_constructibleIT_EE5valuesr18is_move_assignableIS6_EE5valueEvE4typeERS6_S9_
FNA:0,174,_ZNSt3__14swapB8ne180100IPNS_12basic_stringIcNS_11char_traitsIcEENS_9allocatorIcEEEEEENS_9enable_ifIXaasr21is_move_constructibleIT_EE5valuesr18is_move_assignableIS9_EE5valueEvE4typeERS9_SC_
FNA:0,0,_ZNSt3__14swapB8ne180100IPNS_4pairIN7pyfolio8DateTimeEdEEEENS_9enable_ifIXaasr21is_move_constructibleIT_EE5valuesr18is_move_assignableIS7_EE5valueEvE4typeERS7_SA_
FNA:0,15,_ZNSt3__14swapB8ne180100IPNS_6threadEEENS_9enable_ifIXaasr21is_move_constructibleIT_EE5valuesr18is_move_assignableIS4_EE5valueEvE4typeERS4_S7_
FNA:0,0,_ZNSt3__14swapB8ne180100IPPN7testing11EnvironmentEEENS_9enable_ifIXaasr21is_move_constructibleIT_EE5valuesr18is_move_assignableIS6_EE5valueEvE4typeERS6_S9_
FNA:0,12,_ZNSt3__14swapB8ne180100IPPN7testing17TestEventListenerEEENS_9enable_ifIXaasr21is_move_constructibleIT_EE5valuesr18is_move_assignableIS6_EE5valueEvE4typeERS6_S9_
FNA:0,69,_ZNSt3__14swapB8ne180100IPPN7testing8TestInfoEEENS_9enable_ifIXaasr21is_move_constructibleIT_EE5valuesr18is_move_assignableIS6_EE5valueEvE4typeERS6_S9_
FNA:0,12,_ZNSt3__14swapB8ne180100IPPN7testing9TestSuiteEEENS_9enable_ifIXaasr21is_move_constructibleIT_EE5valuesr18is_move_assignableIS6_EE5valueEvE4typeERS6_S9_
FNA:0,0,_ZNSt3__14swapB8ne180100IPPcEENS_9enable_ifIXaasr21is_move_constructibleIT_EE5valuesr18is_move_assignableIS4_EE5valueEvE4typeERS4_S7_
FNA:0,75,_ZNSt3__14swapB8ne180100IPdEENS_9enable_ifIXaasr21is_move_constructibleIT_EE5valuesr18is_move_assignableIS3_EE5valueEvE4typeERS3_S6_
FNA:0,81,_ZNSt3__14swapB8ne180100IPiEENS_9enable_ifIXaasr21is_move_constructibleIT_EE5valuesr18is_move_assignableIS3_EE5valueEvE4typeERS3_S6_
FNA:0,0,_ZNSt3__14swapB8ne180100IPmEENS_9enable_ifIXaasr21is_move_constructibleIT_EE5valuesr18is_move_assignableIS3_EE5valueEvE4typeERS3_S6_
FNA:0,0,_ZNSt3__14swapB8ne180100IbEENS_9enable_ifIXaasr21is_move_constructibleIT_EE5valuesr18is_move_assignableIS2_EE5valueEvE4typeERS2_S5_
FNA:0,0,_ZNSt3__14swapB8ne180100IdEENS_9enable_ifIXaasr21is_move_constructibleIT_EE5valuesr18is_move_assignableIS2_EE5valueEvE4typeERS2_S5_
FNA:0,0,_ZNSt3__14swapB8ne180100IiEENS_9enable_ifIXaasr21is_move_constructibleIT_EE5valuesr18is_move_assignableIS2_EE5valueEvE4typeERS2_S5_
FNA:0,0,_ZNSt3__14swapB8ne180100ImEENS_9enable_ifIXaasr21is_move_constructibleIT_EE5valuesr18is_move_assignableIS2_EE5valueEvE4typeERS2_S5_
FNF:1
FNH:1
DA:40,462
DA:42,462
DA:43,462
DA:44,462
DA:45,462
LF:5
LH:5
end_of_record
TN:
SF:/Library/Developer/CommandLineTools/SDKs/MacOSX.sdk/usr/include/c++/v1/cwchar
FNL:0,197
FNA:0,0,_ZNSt3__118__constexpr_wcslenB8ne180100EPKw
FNL:1,212
FNA:1,0,_ZNSt3__119__constexpr_wmemcmpB8ne180100EPKwS1_m
FNL:2,230
FNA:2,0,_ZNSt3__119__constexpr_wmemchrB8ne180100IKwwEEPT_S3_T0_m
FNF:3
FNH:0
DA:197,0
DA:199,0
DA:212,0
DA:214,0
DA:230,0
DA:237,0
DA:238,0
DA:239,0
DA:240,0
LF:9
LH:0
end_of_record
TN:
SF:/Library/Developer/CommandLineTools/SDKs/MacOSX.sdk/usr/include/c++/v1/initializer_list
FNL:0,78
FNA:0,6,_ZNKSt16initializer_listIN7pyfolio8DateTimeEE4sizeB8ne180100Ev
FNA:0,6,_ZNKSt16initializer_listIdE4sizeB8ne180100Ev
FNL:1,80
FNA:1,37,_ZNKSt16initializer_listIN7pyfolio8DateTimeEE5beginB8ne180100Ev
FNA:1,18,_ZNKSt16initializer_listINSt3__13mapINS0_12basic_stringIcNS0_11char_traitsIcEENS0_9allocatorIcEEEEdNS0_4lessIS7_EENS5_INS0_4pairIKS7_dEEEEEEE5beginB8ne180100Ev
FNA:1,180,_ZNKSt16initializer_listINSt3__14pairIKNS0_12basic_stringIcNS0_11char_traitsIcEENS0_9allocatorIcEEEEdEEE5beginB8ne180100Ev
FNA:1,0,_ZNKSt16initializer_listIPKcE5beginB8ne180100Ev
FNA:1,72,_ZNKSt16initializer_listIdE5beginB8ne180100Ev
FNA:1,0,_ZNKSt16initializer_listImE5beginB8ne180100Ev
FNL:2,82
FNA:2,37,_ZNKSt16initializer_listIN7pyfolio8DateTimeEE3endB8ne180100Ev
FNA:2,18,_ZNKSt16initializer_listINSt3__13mapINS0_12basic_stringIcNS0_11char_traitsIcEENS0_9allocatorIcEEEEdNS0_4lessIS7_EENS5_INS0_4pairIKS7_dEEEEEEE3endB8ne180100Ev
FNA:2,180,_ZNKSt16initializer_listINSt3__14pairIKNS0_12basic_stringIcNS0_11char_traitsIcEENS0_9allocatorIcEEEEdEEE3endB8ne180100Ev
FNA:2,0,_ZNKSt16initializer_listIPKcE3endB8ne180100Ev
FNA:2,72,_ZNKSt16initializer_listIdE3endB8ne180100Ev
FNA:2,0,_ZNKSt16initializer_listImE3endB8ne180100Ev
FNF:3
FNH:3
DA:78,12
DA:80,307
DA:82,307
LF:3
LH:3
end_of_record
TN:
SF:/Library/Developer/CommandLineTools/SDKs/MacOSX.sdk/usr/include/c++/v1/iomanip
FNL:0,146
FNA:0,0,_ZNSt3__18__iom_t4IcEC1B8ne180100Ec
FNA:0,0,_ZNSt3__18__iom_t4IcEC2B8ne180100Ec
FNL:1,150
FNA:1,0,_ZNSt3__1lsB8ne180100INS_11char_traitsIcEEEERNS_13basic_ostreamIcT_EES6_RKNS_8__iom_t4IcEE
FNL:2,157
FNA:2,0,_ZNSt3__17setfillB8ne180100IcEENS_8__iom_t4IT_EES2_
FNL:3,167
FNA:3,331,_ZNSt3__18__iom_t5C1B8ne180100Ei
FNA:3,331,_ZNSt3__18__iom_t5C2B8ne180100Ei
FNL:4,178
FNA:4,331,_ZNSt3__1lsB8ne180100IcNS_11char_traitsIcEEEERNS_13basic_ostreamIT_T0_EES7_RKNS_8__iom_t5E
FNL:5,184
FNA:5,331,_ZNSt3__112setprecisionB8ne180100Ei
FNL:6,192
FNA:6,0,_ZNSt3__18__iom_t6C1B8ne180100Ei
FNA:6,0,_ZNSt3__18__iom_t6C2B8ne180100Ei
FNL:7,203
FNA:7,0,_ZNSt3__1lsB8ne180100IcNS_11char_traitsIcEEEERNS_13basic_ostreamIT_T0_EES7_RKNS_8__iom_t6E
FNL:8,209
FNA:8,0,_ZNSt3__14setwB8ne180100Ei
FNF:9
FNH:3
DA:146,0
DA:150,0
DA:151,0
DA:152,0
DA:157,0
DA:158,0
DA:167,662
DA:178,331
DA:179,331
DA:180,331
DA:184,331
DA:192,0
DA:203,0
DA:204,0
DA:205,0
DA:209,0
LF:16
LH:5
end_of_record
TN:
SF:/Library/Developer/CommandLineTools/SDKs/MacOSX.sdk/usr/include/c++/v1/ios
FNL:0,363
FNA:0,337,_ZNSt3__18ios_baseC2B8ne180100Ev
FNL:1,367
FNA:1,1962,_ZNKSt3__18ios_base5rdbufB8ne180100Ev
FNL:2,455
FNA:2,1962,_ZNKSt3__18ios_base5flagsB8ne180100Ev
FNL:3,457
FNA:3,0,_ZNSt3__18ios_base5flagsB8ne180100Ej
FNL:4,463
FNA:4,0,_ZNSt3__18ios_base4setfB8ne180100Ej
FNL:5,469
FNA:5,0,_ZNSt3__18ios_base6unsetfB8ne180100Ej
FNL:6,471
FNA:6,0,_ZNSt3__18ios_base4setfB8ne180100Ejj
FNL:7,482
FNA:7,331,_ZNSt3__18ios_base9precisionB8ne180100El
FNL:8,490
FNA:8,1962,_ZNKSt3__18ios_base5widthB8ne180100Ev
FNL:9,492
FNA:9,1962,_ZNSt3__18ios_base5widthB8ne180100El
FNL:10,502
FNA:10,0,_ZNSt3__18ios_base8setstateB8ne180100Ej
FNL:11,544
FNA:11,0,_ZNSt3__19basic_iosIcNS_11char_traitsIcEEE8setstateB8ne180100Ej
FNL:12,575
FNA:12,337,_ZNSt3__19basic_iosIcNS_11char_traitsIcEEEC2B8ne180100Ev
FNL:13,598
FNA:13,337,_ZNSt3__19basic_iosIcNS_11char_traitsIcEEE4initB8ne180100EPNS_15basic_streambufIcS2_EE
FNL:14,618
FNA:14,1962,_ZNKSt3__19basic_iosIcNS_11char_traitsIcEEE5rdbufB8ne180100Ev
FNL:15,645
FNA:15,215,_ZNKSt3__19basic_iosIcNS_11char_traitsIcEEE5widenB8ne180100Ec
FNL:16,650
FNA:16,1962,_ZNKSt3__19basic_iosIcNS_11char_traitsIcEEE4fillB8ne180100Ev
FNL:17,657
FNA:17,0,_ZNSt3__19basic_iosIcNS_11char_traitsIcEEE4fillB8ne180100Ec
FNL:18,754
FNA:18,0,_ZNSt3__19uppercaseB8ne180100ERNS_8ios_baseE
FNL:19,794
FNA:19,0,_ZNSt3__13hexB8ne180100ERNS_8ios_baseE
FNF:20
FNH:11
DA:363,337
DA:364,337
DA:367,1962
DA:455,1962
DA:457,0
DA:458,0
DA:459,0
DA:460,0
DA:463,0
DA:464,0
DA:465,0
DA:466,0
DA:469,0
DA:471,0
DA:472,0
DA:473,0
DA:474,0
DA:475,0
DA:482,331
DA:483,331
DA:484,331
DA:485,331
DA:490,1962
DA:492,1962
DA:493,1962
DA:494,1962
DA:495,1962
DA:502,0
DA:544,0
DA:575,337
DA:576,337
DA:598,337
DA:599,337
DA:600,337
DA:601,337
DA:602,337
DA:618,1962
DA:619,1962
DA:645,215
DA:646,215
DA:647,0
DA:650,1962
DA:651,1962
DA:652,215
DA:653,1962
DA:657,0
DA:658,0
DA:659,0
DA:660,0
DA:661,0
DA:662,0
DA:754,0
DA:755,0
DA:756,0
DA:794,0
DA:795,0
DA:796,0
LF:57
LH:28
end_of_record
TN:
SF:/Library/Developer/CommandLineTools/SDKs/MacOSX.sdk/usr/include/c++/v1/istream
FNL:0,1172
FNA:0,337,_ZNSt3__114basic_iostreamIcNS_11char_traitsIcEEEC2B8ne180100EPNS_15basic_streambufIcS2_EE
FNL:1,200
FNA:1,337,_ZNSt3__113basic_istreamIcNS_11char_traitsIcEEEC2B8ne180100EPNS_15basic_streambufIcS2_EE
FNF:2
FNH:2
DA:200,337
DA:201,337
DA:202,337
DA:203,337
DA:1172,674
DA:1173,337
LF:6
LH:6
end_of_record
TN:
SF:/Library/Developer/CommandLineTools/SDKs/MacOSX.sdk/usr/include/c++/v1/limits
FNL:0,203
FNA:0,623,_ZNSt3__123__libcpp_numeric_limitsIlLb1EE3maxB8ne180100Ev
FNA:0,2552,_ZNSt3__123__libcpp_numeric_limitsImLb1EE3maxB8ne180100Ev
FNL:1,367
FNA:1,0,_ZNSt3__123__libcpp_numeric_limitsIdLb1EE8infinityB8ne180100Ev
FNL:2,368
FNA:2,4,_ZNSt3__123__libcpp_numeric_limitsIdLb1EE9quiet_NaNB8ne180100Ev
FNL:3,446
FNA:3,623,_ZNSt3__114numeric_limitsIlE3maxB8ne180100Ev
FNA:3,2552,_ZNSt3__114numeric_limitsImE3maxB8ne180100Ev
FNL:4,471
FNA:4,0,_ZNSt3__114numeric_limitsIdE8infinityB8ne180100Ev
FNL:5,472
FNA:5,4,_ZNSt3__114numeric_limitsIdE9quiet_NaNB8ne180100Ev
FNF:6
FNH:4
DA:203,3175
DA:367,0
DA:368,4
DA:446,3175
DA:471,0
DA:472,4
LF:6
LH:4
end_of_record
TN:
SF:/Library/Developer/CommandLineTools/SDKs/MacOSX.sdk/usr/include/c++/v1/list
FNL:0,1273
FNA:0,0,_ZNSt3__14listINS_4pairIcPKcEENS_9allocatorIS4_EEE9push_backEOS4_
FNL:1,1453
FNA:1,0,_ZNSt3__14listINS_4pairIcPKcEENS_9allocatorIS4_EEE6spliceENS_21__list_const_iteratorIS4_PvEERS7_
FNL:2,285
FNA:2,0,_ZNSt3__126__list_node_pointer_traitsINS_4pairIcPKcEEPvE26__unsafe_link_pointer_castB8ne180100EPNS_16__list_node_baseIS4_S5_EE
FNL:3,302
FNA:3,0,_ZNSt3__116__list_node_baseINS_4pairIcPKcEEPvEC1B8ne180100Ev
FNA:3,0,_ZNSt3__116__list_node_baseINS_4pairIcPKcEEPvEC2B8ne180100Ev
FNL:4,306
FNA:4,0,_ZNSt3__116__list_node_baseINS_4pairIcPKcEEPvEC2B8ne180100EPS6_S7_
FNL:5,309
FNA:5,0,_ZNSt3__116__list_node_baseINS_4pairIcPKcEEPvE6__selfB8ne180100Ev
FNL:6,311
FNA:6,0,_ZNSt3__116__list_node_baseINS_4pairIcPKcEEPvE9__as_nodeB8ne180100Ev
FNL:7,326
FNA:7,0,_ZNSt3__111__list_nodeINS_4pairIcPKcEEPvE11__get_valueB8ne180100Ev
FNL:8,339
FNA:8,0,_ZNSt3__111__list_nodeINS_4pairIcPKcEEPvEC1B8ne180100EPNS_16__list_node_baseIS4_S5_EES9_
FNA:8,0,_ZNSt3__111__list_nodeINS_4pairIcPKcEEPvEC2B8ne180100EPNS_16__list_node_baseIS4_S5_EES9_
FNL:9,340
FNA:9,0,_ZNSt3__111__list_nodeINS_4pairIcPKcEEPvED1B8ne180100Ev
FNA:9,0,_ZNSt3__111__list_nodeINS_4pairIcPKcEEPvED2B8ne180100Ev
FNL:10,342
FNA:10,0,_ZNSt3__111__list_nodeINS_4pairIcPKcEEPvE9__as_linkB8ne180100Ev
FNL:11,359
FNA:11,0,_ZNSt3__115__list_iteratorINS_4pairIcPKcEEPvEC1B8ne180100EPNS_16__list_node_baseIS4_S5_EE
FNA:11,0,_ZNSt3__115__list_iteratorINS_4pairIcPKcEEPvEC2B8ne180100EPNS_16__list_node_baseIS4_S5_EE
FNL:12,432
FNA:12,0,_ZNSt3__121__list_const_iteratorINS_4pairIcPKcEEPvEC1B8ne180100ERKNS_15__list_iteratorIS4_S5_EE
FNA:12,0,_ZNSt3__121__list_const_iteratorINS_4pairIcPKcEEPvEC2B8ne180100ERKNS_15__list_iteratorIS4_S5_EE
FNL:13,436
FNA:13,0,_ZNKSt3__121__list_const_iteratorINS_4pairIcPKcEEPvEptB8ne180100Ev
FNL:14,440
FNA:14,0,_ZNSt3__121__list_const_iteratorINS_4pairIcPKcEEPvEppB8ne180100Ev
FNL:15,460
FNA:15,0,_ZNSt3__1eqB8ne180100ERKNS_21__list_const_iteratorINS_4pairIcPKcEEPvEES8_
FNL:16,463
FNA:16,0,_ZNSt3__1neB8ne180100ERKNS_21__list_const_iteratorINS_4pairIcPKcEEPvEES8_
FNL:17,505
FNA:17,0,_ZNKSt3__110__list_impINS_4pairIcPKcEENS_9allocatorIS4_EEE13__end_as_linkB8ne180100Ev
FNL:18,509
FNA:18,0,_ZNSt3__110__list_impINS_4pairIcPKcEENS_9allocatorIS4_EEE4__szB8ne180100Ev
FNL:19,510
FNA:19,0,_ZNKSt3__110__list_impINS_4pairIcPKcEENS_9allocatorIS4_EEE4__szB8ne180100Ev
FNL:20,511
FNA:20,0,_ZNSt3__110__list_impINS_4pairIcPKcEENS_9allocatorIS4_EEE12__node_allocB8ne180100Ev
FNL:21,527
FNA:21,0,_ZNKSt3__110__list_impINS_4pairIcPKcEENS_9allocatorIS4_EEE5emptyB8ne180100Ev
FNL:22,529
FNA:22,0,_ZNSt3__110__list_impINS_4pairIcPKcEENS_9allocatorIS4_EEE5beginB8ne180100Ev
FNL:23,531
FNA:23,0,_ZNSt3__110__list_impINS_4pairIcPKcEENS_9allocatorIS4_EEE3endB8ne180100Ev
FNL:24,554
FNA:24,0,_ZNSt3__110__list_impINS_4pairIcPKcEENS_9allocatorIS4_EEE13__create_nodeB8ne180100IJS4_EEEPNS_11__list_nodeIS4_PvEEPNS_16__list_node_baseIS4_SA_EESF_DpOT_
FNL:25,572
FNA:25,0,_ZNSt3__110__list_impINS_4pairIcPKcEENS_9allocatorIS4_EEE13__delete_nodeB8ne180100IJEEEvPNS_11__list_nodeIS4_PvEE
FNL:26,600
FNA:26,0,_ZNSt3__110__list_impINS_4pairIcPKcEENS_9allocatorIS4_EEE14__unlink_nodesEPNS_16__list_node_baseIS4_PvEESB_
FNL:27,606
FNA:27,0,_ZNSt3__110__list_impINS_4pairIcPKcEENS_9allocatorIS4_EEEC2Ev
FNL:28,621
FNA:28,0,_ZNSt3__110__list_impINS_4pairIcPKcEENS_9allocatorIS4_EEED2Ev
FNL:29,626
FNA:29,0,_ZNSt3__110__list_impINS_4pairIcPKcEENS_9allocatorIS4_EEE5clearEv
FNL:30,667
FNA:30,0,_ZNSt3__14listINS_4pairIcPKcEENS_9allocatorIS4_EEED1Ev
FNA:30,0,_ZNSt3__14listINS_4pairIcPKcEENS_9allocatorIS4_EEED2Ev
FNL:31,702
FNA:31,0,_ZNSt3__14listINS_4pairIcPKcEENS_9allocatorIS4_EEEC1B8ne180100Ev
FNA:31,0,_ZNSt3__14listINS_4pairIcPKcEENS_9allocatorIS4_EEEC2B8ne180100Ev
FNL:32,769
FNA:32,0,_ZNKSt3__14listINS_4pairIcPKcEENS_9allocatorIS4_EEE5emptyB8ne180100Ev
FNL:33,774
FNA:33,0,_ZNSt3__14listINS_4pairIcPKcEENS_9allocatorIS4_EEE5beginB8ne180100Ev
FNL:34,776
FNA:34,0,_ZNSt3__14listINS_4pairIcPKcEENS_9allocatorIS4_EEE3endB8ne180100Ev
FNL:35,972
FNA:35,0,_ZNSt3__14listINS_4pairIcPKcEENS_9allocatorIS4_EEE12__link_nodesEPNS_16__list_node_baseIS4_PvEESB_SB_
FNL:36,990
FNA:36,0,_ZNSt3__14listINS_4pairIcPKcEENS_9allocatorIS4_EEE20__link_nodes_at_backEPNS_16__list_node_baseIS4_PvEESB_
FNF:37
FNH:0
DA:285,0
DA:302,0
DA:303,0
DA:304,0
DA:306,0
DA:307,0
DA:309,0
DA:311,0
DA:326,0
DA:339,0
DA:340,0
DA:342,0
DA:359,0
DA:432,0
DA:433,0
DA:436,0
DA:437,0
DA:440,0
DA:441,0
DA:442,0
DA:460,0
DA:461,0
DA:463,0
DA:464,0
DA:505,0
DA:506,0
DA:509,0
DA:510,0
DA:511,0
DA:519,0
DA:527,0
DA:529,0
DA:531,0
DA:554,0
DA:555,0
DA:556,0
DA:563,0
DA:566,0
DA:567,0
DA:568,0
DA:569,0
DA:572,0
DA:575,0
DA:576,0
DA:577,0
DA:578,0
DA:579,0
DA:600,0
DA:601,0
DA:602,0
DA:603,0
DA:606,0
DA:607,0
DA:621,0
DA:622,0
DA:623,0
DA:626,0
DA:627,0
DA:628,0
DA:629,0
DA:630,0
DA:631,0
DA:632,0
DA:633,0
DA:634,0
DA:635,0
DA:637,0
DA:638,0
DA:702,0
DA:769,0
DA:774,0
DA:776,0
DA:972,0
DA:973,0
DA:974,0
DA:975,0
DA:976,0
DA:977,0
DA:990,0
DA:991,0
DA:992,0
DA:993,0
DA:994,0
DA:995,0
DA:1273,0
DA:1274,0
DA:1275,0
DA:1276,0
DA:1277,0
DA:1278,0
DA:1453,0
DA:1456,0
DA:1457,0
DA:1458,0
DA:1459,0
DA:1460,0
DA:1461,0
DA:1462,0
DA:1463,0
DA:1464,0
LF:100
LH:0
end_of_record
TN:
SF:/Library/Developer/CommandLineTools/SDKs/MacOSX.sdk/usr/include/c++/v1/locale
FNL:0,1240
FNA:0,1962,_ZNSt3__116__pad_and_outputB8ne180100IcNS_11char_traitsIcEEEENS_19ostreambuf_iteratorIT_T0_EES6_PKS4_S8_S8_RNS_8ios_baseES4_
FNF:1
FNH:1
DA:1240,1962
DA:1247,1962
DA:1248,0
DA:1249,1962
DA:1250,1962
DA:1251,1962
DA:1252,0
DA:1254,1962
DA:1255,1962
DA:1256,1962
DA:1257,0
DA:1258,0
DA:1259,0
DA:1261,0
DA:1262,1962
DA:1263,0
DA:1264,0
DA:1265,0
DA:1266,0
DA:1268,0
DA:1269,1962
DA:1270,1962
DA:1271,1962
DA:1272,0
DA:1273,0
DA:1275,1962
DA:1276,1962
DA:1277,1962
DA:1278,1962
LF:29
LH:16
end_of_record
TN:
SF:/Library/Developer/CommandLineTools/SDKs/MacOSX.sdk/usr/include/c++/v1/map
FNL:0,1029
FNA:0,4,_ZNSt3__13mapINS_12basic_stringIcNS_11char_traitsIcEENS_9allocatorIcEEEEN7testing8internal34TypeParameterizedTestSuiteRegistry30TypeParameterizedTestSuiteInfoENS_4lessIS6_EENS4_INS_4pairIKS6_SA_EEEEEC1B8ne180100Ev
FNA:0,4,_ZNSt3__13mapINS_12basic_stringIcNS_11char_traitsIcEENS_9allocatorIcEEEEN7testing8internal34TypeParameterizedTestSuiteRegistry30TypeParameterizedTestSuiteInfoENS_4lessIS6_EENS4_INS_4pairIKS6_SA_EEEEEC2B8ne180100Ev
FNA:0,0,_ZNSt3__13mapINS_12basic_stringIcNS_11char_traitsIcEENS_9allocatorIcEEEEmNS_4lessIS6_EENS4_INS_4pairIKS6_mEEEEEC1B8ne180100Ev
FNA:0,0,_ZNSt3__13mapINS_12basic_stringIcNS_11char_traitsIcEENS_9allocatorIcEEEEmNS_4lessIS6_EENS4_INS_4pairIKS6_mEEEEEC2B8ne180100Ev
FNL:1,1078
FNA:1,180,_ZNSt3__13mapINS_12basic_stringIcNS_11char_traitsIcEENS_9allocatorIcEEEEdNS_4lessIS6_EENS4_INS_4pairIKS6_dEEEEEC1B8ne180100ERKSD_
FNA:1,180,_ZNSt3__13mapINS_12basic_stringIcNS_11char_traitsIcEENS_9allocatorIcEEEEdNS_4lessIS6_EENS4_INS_4pairIKS6_dEEEEEC2B8ne180100ERKSD_
FNL:2,1080
FNA:2,0,_ZNSt3__13mapINS_12basic_stringIcNS_11char_traitsIcEENS_9allocatorIcEEEEdNS_4lessIS6_EENS4_INS_4pairIKS6_dEEEEEaSB8ne180100ERKSD_
FNL:3,1106
FNA:3,180,_ZNSt3__13mapINS_12basic_stringIcNS_11char_traitsIcEENS_9allocatorIcEEEEdNS_4lessIS6_EENS4_INS_4pairIKS6_dEEEEEC1B8ne180100ESt16initializer_listISB_ERKS8_
FNA:3,180,_ZNSt3__13mapINS_12basic_stringIcNS_11char_traitsIcEENS_9allocatorIcEEEEdNS_4lessIS6_EENS4_INS_4pairIKS6_dEEEEEC2B8ne180100ESt16initializer_listISB_ERKS8_
FNL:4,1135
FNA:4,0,_ZNSt3__13mapINS_12basic_stringIcNS_11char_traitsIcEENS_9allocatorIcEEEEN7testing8internal34TypeParameterizedTestSuiteRegistry30TypeParameterizedTestSuiteInfoENS_4lessIS6_EENS4_INS_4pairIKS6_SA_EEEEED1B8ne180100Ev
FNA:4,0,_ZNSt3__13mapINS_12basic_stringIcNS_11char_traitsIcEENS_9allocatorIcEEEEN7testing8internal34TypeParameterizedTestSuiteRegistry30TypeParameterizedTestSuiteInfoENS_4lessIS6_EENS4_INS_4pairIKS6_SA_EEEEED2B8ne180100Ev
FNA:4,360,_ZNSt3__13mapINS_12basic_stringIcNS_11char_traitsIcEENS_9allocatorIcEEEEdNS_4lessIS6_EENS4_INS_4pairIKS6_dEEEEED1B8ne180100Ev
FNA:4,360,_ZNSt3__13mapINS_12basic_stringIcNS_11char_traitsIcEENS_9allocatorIcEEEEdNS_4lessIS6_EENS4_INS_4pairIKS6_dEEEEED2B8ne180100Ev
FNA:4,0,_ZNSt3__13mapINS_12basic_stringIcNS_11char_traitsIcEENS_9allocatorIcEEEEmNS_4lessIS6_EENS4_INS_4pairIKS6_mEEEEED1B8ne180100Ev
FNA:4,0,_ZNSt3__13mapINS_12basic_stringIcNS_11char_traitsIcEENS_9allocatorIcEEEEmNS_4lessIS6_EENS4_INS_4pairIKS6_mEEEEED2B8ne180100Ev
FNL:5,1137
FNA:5,0,_ZNSt3__13mapINS_12basic_stringIcNS_11char_traitsIcEENS_9allocatorIcEEEEN7testing8internal12CodeLocationENS_4lessIvEENS4_INS_4pairIKS6_S9_EEEEE5beginB8ne180100Ev
FNA:5,4,_ZNSt3__13mapINS_12basic_stringIcNS_11char_traitsIcEENS_9allocatorIcEEEEN7testing8internal34TypeParameterizedTestSuiteRegistry30TypeParameterizedTestSuiteInfoENS_4lessIS6_EENS4_INS_4pairIKS6_SA_EEEEE5beginB8ne180100Ev
FNL:6,1138
FNA:6,180,_ZNKSt3__13mapINS_12basic_stringIcNS_11char_traitsIcEENS_9allocatorIcEEEEdNS_4lessIS6_EENS4_INS_4pairIKS6_dEEEEE5beginB8ne180100Ev
FNL:7,1139
FNA:7,0,_ZNSt3__13mapINS_12basic_stringIcNS_11char_traitsIcEENS_9allocatorIcEEEEN7testing8internal12CodeLocationENS_4lessIvEENS4_INS_4pairIKS6_S9_EEEEE3endB8ne180100Ev
FNA:7,4,_ZNSt3__13mapINS_12basic_stringIcNS_11char_traitsIcEENS_9allocatorIcEEEEN7testing8internal34TypeParameterizedTestSuiteRegistry30TypeParameterizedTestSuiteInfoENS_4lessIS6_EENS4_INS_4pairIKS6_SA_EEEEE3endB8ne180100Ev
FNA:7,0,_ZNSt3__13mapINS_12basic_stringIcNS_11char_traitsIcEENS_9allocatorIcEEEEmNS_4lessIS6_EENS4_INS_4pairIKS6_mEEEEE3endB8ne180100Ev
FNL:8,1140
FNA:8,540,_ZNKSt3__13mapINS_12basic_stringIcNS_11char_traitsIcEENS_9allocatorIcEEEEdNS_4lessIS6_EENS4_INS_4pairIKS6_dEEEEE3endB8ne180100Ev
FNL:9,1148
FNA:9,360,_ZNKSt3__13mapINS_12basic_stringIcNS_11char_traitsIcEENS_9allocatorIcEEEEdNS_4lessIS6_EENS4_INS_4pairIKS6_dEEEEE4cendB8ne180100Ev
FNL:10,1153
FNA:10,0,_ZNKSt3__13mapINS_12basic_stringIcNS_11char_traitsIcEENS_9allocatorIcEEEEmNS_4lessIS6_EENS4_INS_4pairIKS6_mEEEEE4sizeB8ne180100Ev
FNL:11,1170
FNA:11,0,_ZNSt3__13mapINS_12basic_stringIcNS_11char_traitsIcEENS_9allocatorIcEEEEN7testing8internal34TypeParameterizedTestSuiteRegistry30TypeParameterizedTestSuiteInfoENS_4lessIS6_EENS4_INS_4pairIKS6_SA_EEEEE7emplaceB8ne180100IJS6_SA_EEENSD_INS_14__map_iteratorINS_15__tree_iteratorINS_12__value_typeIS6_SA_EEPNS_11__tree_nodeISM_PvEElEEEEbEEDpOT_
FNL:12,1193
FNA:12,1080,_ZNSt3__13mapINS_12basic_stringIcNS_11char_traitsIcEENS_9allocatorIcEEEEdNS_4lessIS6_EENS4_INS_4pairIKS6_dEEEEE6insertB8ne180100ENS_20__map_const_iteratorINS_21__tree_const_iteratorINS_12__value_typeIS6_dEEPNS_11__tree_nodeISH_PvEElEEEERKSB_
FNL:13,1210
FNA:13,180,_ZNSt3__13mapINS_12basic_stringIcNS_11char_traitsIcEENS_9allocatorIcEEEEdNS_4lessIS6_EENS4_INS_4pairIKS6_dEEEEE6insertB8ne180100INS_20__map_const_iteratorINS_21__tree_const_iteratorINS_12__value_typeIS6_dEEPNS_11__tree_nodeISI_PvEElEEEEEEvT_SP_
FNA:13,180,_ZNSt3__13mapINS_12basic_stringIcNS_11char_traitsIcEENS_9allocatorIcEEEEdNS_4lessIS6_EENS4_INS_4pairIKS6_dEEEEE6insertB8ne180100IPKSB_EEvT_SH_
FNL:14,1367
FNA:14,0,_ZNSt3__13mapINS_12basic_stringIcNS_11char_traitsIcEENS_9allocatorIcEEEEN7testing8internal34TypeParameterizedTestSuiteRegistry30TypeParameterizedTestSuiteInfoENS_4lessIS6_EENS4_INS_4pairIKS6_SA_EEEEE4findB8ne180100ERSE_
FNA:14,0,_ZNSt3__13mapINS_12basic_stringIcNS_11char_traitsIcEENS_9allocatorIcEEEEmNS_4lessIS6_EENS4_INS_4pairIKS6_mEEEEE4findB8ne180100ERSA_
FNL:15,1380
FNA:15,0,_ZNKSt3__13mapINS_12basic_stringIcNS_11char_traitsIcEENS_9allocatorIcEEEEN7testing8internal12CodeLocationENS_4lessIvEENS4_INS_4pairIKS6_S9_EEEEE5countB8ne180100ERSD_
FNL:16,1517
FNA:16,0,_ZNSt3__13mapINS_12basic_stringIcNS_11char_traitsIcEENS_9allocatorIcEEEEmNS_4lessIS6_EENS4_INS_4pairIKS6_mEEEEEixERSA_
FNL:17,633
FNA:17,4,_ZNSt3__119__map_value_compareINS_12basic_stringIcNS_11char_traitsIcEENS_9allocatorIcEEEENS_12__value_typeIS6_N7testing8internal34TypeParameterizedTestSuiteRegistry30TypeParameterizedTestSuiteInfoEEENS_4lessIS6_EELb1EEC1B8ne180100ESE_
FNA:17,4,_ZNSt3__119__map_value_compareINS_12basic_stringIcNS_11char_traitsIcEENS_9allocatorIcEEEENS_12__value_typeIS6_N7testing8internal34TypeParameterizedTestSuiteRegistry30TypeParameterizedTestSuiteInfoEEENS_4lessIS6_EELb1EEC2B8ne180100ESE_
FNA:17,180,_ZNSt3__119__map_value_compareINS_12basic_stringIcNS_11char_traitsIcEENS_9allocatorIcEEEENS_12__value_typeIS6_dEENS_4lessIS6_EELb1EEC1B8ne180100ESA_
FNA:17,180,_ZNSt3__119__map_value_compareINS_12basic_stringIcNS_11char_traitsIcEENS_9allocatorIcEEEENS_12__value_typeIS6_dEENS_4lessIS6_EELb1EEC2B8ne180100ESA_
FNA:17,0,_ZNSt3__119__map_value_compareINS_12basic_stringIcNS_11char_traitsIcEENS_9allocatorIcEEEENS_12__value_typeIS6_mEENS_4lessIS6_EELb1EEC1B8ne180100ESA_
FNA:17,0,_ZNSt3__119__map_value_compareINS_12basic_stringIcNS_11char_traitsIcEENS_9allocatorIcEEEENS_12__value_typeIS6_mEENS_4lessIS6_EELb1EEC2B8ne180100ESA_
FNL:18,639
FNA:18,0,_ZNKSt3__119__map_value_compareINS_12basic_stringIcNS_11char_traitsIcEENS_9allocatorIcEEEENS_12__value_typeIS6_N7testing8internal12CodeLocationEEENS_4lessIvEELb1EEclB8ne180100ERKSB_RKS6_
FNA:18,0,_ZNKSt3__119__map_value_compareINS_12basic_stringIcNS_11char_traitsIcEENS_9allocatorIcEEEENS_12__value_typeIS6_N7testing8internal34TypeParameterizedTestSuiteRegistry30TypeParameterizedTestSuiteInfoEEENS_4lessIS6_EELb1EEclB8ne180100ERKSC_RKS6_
FNA:18,720,_ZNKSt3__119__map_value_compareINS_12basic_stringIcNS_11char_traitsIcEENS_9allocatorIcEEEENS_12__value_typeIS6_dEENS_4lessIS6_EELb1EEclB8ne180100ERKS8_RKS6_
FNA:18,0,_ZNKSt3__119__map_value_compareINS_12basic_stringIcNS_11char_traitsIcEENS_9allocatorIcEEEENS_12__value_typeIS6_mEENS_4lessIS6_EELb1EEclB8ne180100ERKS8_RKS6_
FNL:19,642
FNA:19,0,_ZNKSt3__119__map_value_compareINS_12basic_stringIcNS_11char_traitsIcEENS_9allocatorIcEEEENS_12__value_typeIS6_N7testing8internal12CodeLocationEEENS_4lessIvEELb1EEclB8ne180100ERKS6_RKSB_
FNA:19,0,_ZNKSt3__119__map_value_compareINS_12basic_stringIcNS_11char_traitsIcEENS_9allocatorIcEEEENS_12__value_typeIS6_N7testing8internal34TypeParameterizedTestSuiteRegistry30TypeParameterizedTestSuiteInfoEEENS_4lessIS6_EELb1EEclB8ne180100ERKS6_RKSC_
FNA:19,0,_ZNKSt3__119__map_value_compareINS_12basic_stringIcNS_11char_traitsIcEENS_9allocatorIcEEEENS_12__value_typeIS6_dEENS_4lessIS6_EELb1EEclB8ne180100ERKS6_RKS8_
FNA:19,0,_ZNKSt3__119__map_value_compareINS_12basic_stringIcNS_11char_traitsIcEENS_9allocatorIcEEEENS_12__value_typeIS6_mEENS_4lessIS6_EELb1EEclB8ne180100ERKS6_RKS8_
FNL:20,770
FNA:20,0,_ZNSt3__112__value_typeINS_12basic_stringIcNS_11char_traitsIcEENS_9allocatorIcEEEEN7testing8internal34TypeParameterizedTestSuiteRegistry30TypeParameterizedTestSuiteInfoEE11__get_valueB8ne180100Ev
FNA:20,2160,_ZNSt3__112__value_typeINS_12basic_stringIcNS_11char_traitsIcEENS_9allocatorIcEEEEdE11__get_valueB8ne180100Ev
